
kernel.elf:     file format elf64-littleaarch64


Disassembly of section .init:

0000000000080000 <_start>:
   80000:	1000000c 	adr	x12, 80000 <_start>
   80004:	58000fe1 	ldr	x1, 80200 <StartSecondarySpin+0x38>
   80008:	b900002c 	str	w12, [x1]
   8000c:	58000fe0 	ldr	x0, 80208 <StartSecondarySpin+0x40>
   80010:	58001001 	ldr	x1, 80210 <StartSecondarySpin+0x48>
   80014:	b9000020 	str	w0, [x1]
   80018:	d2800020 	mov	x0, #0x1                   	// #1
   8001c:	58000fe1 	ldr	x1, 80218 <StartSecondarySpin+0x50>
   80020:	b9000020 	str	w0, [x1]
   80024:	d2801300 	mov	x0, #0x98                  	// #152
   80028:	58000fc1 	ldr	x1, 80220 <StartSecondarySpin+0x58>
   8002c:	b9000020 	str	w0, [x1]
   80030:	d5380000 	mrs	x0, midr_el1
   80034:	58000fa1 	ldr	x1, 80228 <StartSecondarySpin+0x60>
   80038:	b9000020 	str	w0, [x1]
   8003c:	d53ce100 	mrs	x0, cnthctl_el2
   80040:	b2400400 	orr	x0, x0, #0x3
   80044:	d51ce100 	msr	cnthctl_el2, x0
   80048:	d51ce07f 	msr	cntvoff_el2, xzr
   8004c:	d538e100 	mrs	x0, cntkctl_el1
   80050:	b2400400 	orr	x0, x0, #0x3
   80054:	d518e100 	msr	cntkctl_el1, x0
   80058:	d28001a0 	mov	x0, #0xd                   	// #13
   8005c:	d51b9e00 	msr	pmuserenr_el0, x0
   80060:	d2b00000 	mov	x0, #0x80000000            	// #2147483648
   80064:	d51b9c20 	msr	pmcntenset_el0, x0
   80068:	d2800020 	mov	x0, #0x1                   	// #1
   8006c:	d51b9c00 	msr	pmcr_el0, x0

0000000000080070 <multicore_start>:
   80070:	58000e02 	ldr	x2, 80230 <StartSecondarySpin+0x68>
   80074:	58000e23 	ldr	x3, 80238 <StartSecondarySpin+0x70>
   80078:	58000e44 	ldr	x4, 80240 <StartSecondarySpin+0x78>
   8007c:	d53800a6 	mrs	x6, mpidr_el1
   80080:	f24004c6 	ands	x6, x6, #0x3
   80084:	540001c0 	b.eq	800bc <set_stacks>  // b.none
   80088:	58000e02 	ldr	x2, 80248 <StartSecondarySpin+0x80>
   8008c:	58000e23 	ldr	x3, 80250 <StartSecondarySpin+0x88>
   80090:	58000e44 	ldr	x4, 80258 <StartSecondarySpin+0x90>
   80094:	f10004df 	cmp	x6, #0x1
   80098:	54000120 	b.eq	800bc <set_stacks>  // b.none
   8009c:	58000e22 	ldr	x2, 80260 <StartSecondarySpin+0x98>
   800a0:	58000e43 	ldr	x3, 80268 <StartSecondarySpin+0xa0>
   800a4:	58000e64 	ldr	x4, 80270 <StartSecondarySpin+0xa8>
   800a8:	f10008df 	cmp	x6, #0x2
   800ac:	54000080 	b.eq	800bc <set_stacks>  // b.none
   800b0:	58000e42 	ldr	x2, 80278 <StartSecondarySpin+0xb0>
   800b4:	58000e63 	ldr	x3, 80280 <StartSecondarySpin+0xb8>
   800b8:	58000e84 	ldr	x4, 80288 <StartSecondarySpin+0xc0>

00000000000800bc <set_stacks>:
   800bc:	9100005f 	mov	sp, x2
   800c0:	d51c4103 	msr	sp_el1, x3
   800c4:	d5184104 	msr	sp_el0, x4
   800c8:	d5380000 	mrs	x0, midr_el1
   800cc:	d53800a1 	mrs	x1, mpidr_el1
   800d0:	d51c0000 	msr	vpidr_el2, x0
   800d4:	d51c00a1 	msr	vmpidr_el2, x1
   800d8:	d2867fe0 	mov	x0, #0x33ff                	// #13311
   800dc:	d51c1140 	msr	cptr_el2, x0
   800e0:	d51c117f 	msr	hstr_el2, xzr
   800e4:	d2a00600 	mov	x0, #0x300000              	// #3145728
   800e8:	d5181040 	msr	cpacr_el1, x0
   800ec:	d2b00000 	mov	x0, #0x80000000            	// #2147483648
   800f0:	d51c1100 	msr	hcr_el2, x0
   800f4:	d2810000 	mov	x0, #0x800                 	// #2048
   800f8:	f2a61a00 	movk	x0, #0x30d0, lsl #16
   800fc:	b27e0000 	orr	x0, x0, #0x4
   80100:	b2740000 	orr	x0, x0, #0x1000
   80104:	d5181000 	msr	sctlr_el1, x0
   80108:	d28078a0 	mov	x0, #0x3c5                 	// #965
   8010c:	d51c4000 	msr	spsr_el2, x0
   80110:	10000060 	adr	x0, 8011c <exit_el1>
   80114:	d51c4020 	msr	elr_el2, x0
   80118:	d69f03e0 	eret

000000000008011c <exit_el1>:
   8011c:	d53800a6 	mrs	x6, mpidr_el1
   80120:	924004c6 	and	x6, x6, #0x3
   80124:	b40000c6 	cbz	x6, 8013c <cpu0_exit_multicore_park>
   80128:	58000781 	ldr	x1, 80218 <StartSecondarySpin+0x50>
   8012c:	b9400020 	ldr	w0, [x1]
   80130:	11000400 	add	w0, w0, #0x1
   80134:	b9000020 	str	w0, [x1]
   80138:	14000024 	b	801c8 <StartSecondarySpin>

000000000008013c <cpu0_exit_multicore_park>:
   8013c:	58000aa0 	ldr	x0, 80290 <StartSecondarySpin+0xc8>
   80140:	d518c000 	msr	vbar_el1, x0
   80144:	58000aa3 	ldr	x3, 80298 <StartSecondarySpin+0xd0>
   80148:	58000ac0 	ldr	x0, 802a0 <StartSecondarySpin+0xd8>
   8014c:	eb03001f 	cmp	x0, x3
   80150:	54000082 	b.cs	80160 <.bss_cleared>  // b.hs, b.nlast

0000000000080154 <.bss_zero_loop>:
   80154:	b800441f 	str	wzr, [x0], #4
   80158:	eb00007f 	cmp	x3, x0
   8015c:	54ffffc8 	b.hi	80154 <.bss_zero_loop>  // b.pmore

0000000000080160 <.bss_cleared>:
   80160:	d2801c01 	mov	x1, #0xe0                  	// #224
   80164:	58000a22 	ldr	x2, 802a8 <StartSecondarySpin+0xe0>
   80168:	f9000022 	str	x2, [x1]
   8016c:	d503209f 	sev
   80170:	58000543 	ldr	x3, 80218 <StartSecondarySpin+0x50>

0000000000080174 <.WaitCore1ACK>:
   80174:	b9400061 	ldr	w1, [x3]
   80178:	7100083f 	cmp	w1, #0x2
   8017c:	54ffffc1 	b.ne	80174 <.WaitCore1ACK>  // b.any
   80180:	d2801d01 	mov	x1, #0xe8                  	// #232
   80184:	58000922 	ldr	x2, 802a8 <StartSecondarySpin+0xe0>
   80188:	f9000022 	str	x2, [x1]
   8018c:	d503209f 	sev
   80190:	58000443 	ldr	x3, 80218 <StartSecondarySpin+0x50>

0000000000080194 <.WaitCore2ACK>:
   80194:	b9400061 	ldr	w1, [x3]
   80198:	71000c3f 	cmp	w1, #0x3
   8019c:	54ffffc1 	b.ne	80194 <.WaitCore2ACK>  // b.any
   801a0:	d2801e01 	mov	x1, #0xf0                  	// #240
   801a4:	58000822 	ldr	x2, 802a8 <StartSecondarySpin+0xe0>
   801a8:	f9000022 	str	x2, [x1]
   801ac:	d503209f 	sev
   801b0:	58000343 	ldr	x3, 80218 <StartSecondarySpin+0x50>

00000000000801b4 <.WaitCore3ACK>:
   801b4:	b9400061 	ldr	w1, [x3]
   801b8:	7100103f 	cmp	w1, #0x4
   801bc:	54ffffc1 	b.ne	801b4 <.WaitCore3ACK>  // b.any
   801c0:	140009be 	b	828b8 <main>

00000000000801c4 <hang>:
   801c4:	14000000 	b	801c4 <hang>

00000000000801c8 <StartSecondarySpin>:
   801c8:	d503205f 	wfe
   801cc:	d2801982 	mov	x2, #0xcc                  	// #204
   801d0:	f2a80002 	movk	x2, #0x4000, lsl #16
   801d4:	d53800a0 	mrs	x0, mpidr_el1
   801d8:	d37c0c00 	ubfiz	x0, x0, #4, #4
   801dc:	b8626801 	ldr	w1, [x0, x2]
   801e0:	34ffff41 	cbz	w1, 801c8 <StartSecondarySpin>
   801e4:	b8226801 	str	w1, [x0, x2]
   801e8:	2a0103e1 	mov	w1, w1
   801ec:	d5033fbf 	dmb	sy
   801f0:	d63f0020 	blr	x1
   801f4:	d5033fbf 	dmb	sy
   801f8:	17fffff4 	b	801c8 <StartSecondarySpin>
   801fc:	00000000 	.inst	0x00000000 ; undefined
   80200:	00095a74 	.word	0x00095a74
   80204:	00000000 	.word	0x00000000
   80208:	3f000000 	.word	0x3f000000
   8020c:	00000000 	.word	0x00000000
   80210:	00095a70 	.word	0x00095a70
   80214:	00000000 	.word	0x00000000
   80218:	00095a78 	.word	0x00095a78
   8021c:	00000000 	.word	0x00000000
   80220:	00095a84 	.word	0x00095a84
   80224:	00000000 	.word	0x00000000
   80228:	00095a80 	.word	0x00095a80
   8022c:	00000000 	.word	0x00000000
   80230:	000a42d0 	.word	0x000a42d0
   80234:	00000000 	.word	0x00000000
   80238:	000a32d0 	.word	0x000a32d0
   8023c:	00000000 	.word	0x00000000
   80240:	0009f2d0 	.word	0x0009f2d0
   80244:	00000000 	.word	0x00000000
   80248:	000a56d0 	.word	0x000a56d0
   8024c:	00000000 	.word	0x00000000
   80250:	000a46d0 	.word	0x000a46d0
   80254:	00000000 	.word	0x00000000
   80258:	000a44d0 	.word	0x000a44d0
   8025c:	00000000 	.word	0x00000000
   80260:	000a6ad0 	.word	0x000a6ad0
   80264:	00000000 	.word	0x00000000
   80268:	000a5ad0 	.word	0x000a5ad0
   8026c:	00000000 	.word	0x00000000
   80270:	000a58d0 	.word	0x000a58d0
   80274:	00000000 	.word	0x00000000
   80278:	000a7ed0 	.word	0x000a7ed0
   8027c:	00000000 	.word	0x00000000
   80280:	000a6ed0 	.word	0x000a6ed0
   80284:	00000000 	.word	0x00000000
   80288:	000a6cd0 	.word	0x000a6cd0
   8028c:	00000000 	.word	0x00000000
   80290:	00081800 	.word	0x00081800
   80294:	00000000 	.word	0x00000000
   80298:	0009f0c4 	.word	0x0009f0c4
   8029c:	00000000 	.word	0x00000000
   802a0:	00097000 	.word	0x00097000
   802a4:	00000000 	.word	0x00000000
   802a8:	00080070 	.word	0x00080070
   802ac:	00000000 	.word	0x00000000

Disassembly of section .text:

0000000000080800 <setTimerIrqAddress>:
   80800:	d50342df 	msr	daifset, #0x2
   80804:	580000a1 	ldr	x1, 80818 <setTimerIrqAddress+0x18>
   80808:	f9400022 	ldr	x2, [x1]
   8080c:	f9000020 	str	x0, [x1]
   80810:	aa0203e0 	mov	x0, x2
   80814:	d65f03c0 	ret
   80818:	00095a88 	.word	0x00095a88
   8081c:	00000000 	.word	0x00000000

0000000000080820 <ARMaddrToGPUaddr>:
   80820:	d2b80001 	mov	x1, #0xc0000000            	// #3221225472
   80824:	aa010000 	orr	x0, x0, x1
   80828:	d65f03c0 	ret

000000000008082c <GPUaddrToARMaddr>:
   8082c:	d2b80001 	mov	x1, #0xc0000000            	// #3221225472
   80830:	8a210000 	bic	x0, x0, x1
   80834:	d65f03c0 	ret

0000000000080838 <PUT32>:
   80838:	b9000001 	str	w1, [x0]
   8083c:	d65f03c0 	ret

0000000000080840 <GetCoreID>:
   80840:	d53800a0 	mrs	x0, mpidr_el1
   80844:	92400400 	and	x0, x0, #0x3
   80848:	d65f03c0 	ret

000000000008084c <CoreExecute>:
   8084c:	d5033fbf 	dmb	sy
   80850:	b00000a2 	adrp	x2, 95000 <BitFont+0xb40>
   80854:	b94a7842 	ldr	w2, [x2, #2680]
   80858:	12001c00 	and	w0, w0, #0xff
   8085c:	6b02001f 	cmp	w0, w2
   80860:	54000122 	b.cs	80884 <CoreExecuteFail>  // b.hs, b.nlast
   80864:	d37e1c00 	ubfiz	x0, x0, #2, #8
   80868:	d2801182 	mov	x2, #0x8c                  	// #140
   8086c:	f2a80002 	movk	x2, #0x4000, lsl #16
   80870:	b8207841 	str	w1, [x2, x0, lsl #2]
   80874:	d503209f 	sev
   80878:	d5033fbf 	dmb	sy
   8087c:	52800020 	mov	w0, #0x1                   	// #1
   80880:	d65f03c0 	ret

0000000000080884 <CoreExecuteFail>:
   80884:	d5033fbf 	dmb	sy
   80888:	d2800000 	mov	x0, #0x0                   	// #0
   8088c:	d65f03c0 	ret

0000000000080890 <semaphore_inc>:
   80890:	52800022 	mov	w2, #0x1                   	// #1

0000000000080894 <.lockloop>:
   80894:	885ffc01 	ldaxr	w1, [x0]
   80898:	88037c02 	stxr	w3, w2, [x0]
   8089c:	35ffffc3 	cbnz	w3, 80894 <.lockloop>
   808a0:	35ffffa1 	cbnz	w1, 80894 <.lockloop>
   808a4:	d5033bbf 	dmb	ish
   808a8:	d65f03c0 	ret
	...

0000000000081000 <semaphore_dec>:
   81000:	089ffc1f 	stlrb	wzr, [x0]
   81004:	d5033bbf 	dmb	ish
   81008:	d65f03c0 	ret

000000000008100c <irq_handler>:
   8100c:	a9bf7bfd 	stp	x29, x30, [sp, #-16]!
   81010:	a9bf73fb 	stp	x27, x28, [sp, #-16]!
   81014:	a9bf6bf9 	stp	x25, x26, [sp, #-16]!
   81018:	a9bf63f7 	stp	x23, x24, [sp, #-16]!
   8101c:	a9bf5bf5 	stp	x21, x22, [sp, #-16]!
   81020:	a9bf53f3 	stp	x19, x20, [sp, #-16]!
   81024:	a9bf4bf1 	stp	x17, x18, [sp, #-16]!
   81028:	a9bf43ef 	stp	x15, x16, [sp, #-16]!
   8102c:	a9bf3bed 	stp	x13, x14, [sp, #-16]!
   81030:	a9bf33eb 	stp	x11, x12, [sp, #-16]!
   81034:	a9bf2be9 	stp	x9, x10, [sp, #-16]!
   81038:	a9bf23e7 	stp	x7, x8, [sp, #-16]!
   8103c:	a9bf1be5 	stp	x5, x6, [sp, #-16]!
   81040:	a9bf13e3 	stp	x3, x4, [sp, #-16]!
   81044:	a9bf0be1 	stp	x1, x2, [sp, #-16]!
   81048:	f81f0fe0 	str	x0, [sp, #-16]!
   8104c:	d5384001 	mrs	x1, spsr_el1
   81050:	d5384022 	mrs	x2, elr_el1
   81054:	a9bf0be1 	stp	x1, x2, [sp, #-16]!
   81058:	58007980 	ldr	x0, 81f88 <VectorTable+0x788>
   8105c:	b9400000 	ldr	w0, [x0]
   81060:	52964003 	mov	w3, #0xb200                	// #45568
   81064:	0b030001 	add	w1, w0, w3
   81068:	b9400022 	ldr	w2, [x1]
   8106c:	360000e2 	tbz	w2, #0, 81088 <.TimerIrqNotPending>
   81070:	52968002 	mov	w2, #0xb400                	// #46080
   81074:	0b020000 	add	w0, w0, w2
   81078:	b9000c02 	str	w2, [x0, #12]
   8107c:	b9400420 	ldr	w0, [x1, #4]
   81080:	121f7800 	and	w0, w0, #0xfffffffe
   81084:	b9000420 	str	w0, [x1, #4]

0000000000081088 <.TimerIrqNotPending>:
   81088:	d50342ff 	msr	daifclr, #0x2
   8108c:	58007820 	ldr	x0, 81f90 <VectorTable+0x790>
   81090:	f9400000 	ldr	x0, [x0]
   81094:	b4000060 	cbz	x0, 810a0 <no_irqset>
   81098:	d63f0000 	blr	x0
   8109c:	d50342df 	msr	daifset, #0x2

00000000000810a0 <no_irqset>:
   810a0:	a8c10be1 	ldp	x1, x2, [sp], #16
   810a4:	d5184022 	msr	elr_el1, x2
   810a8:	d5184001 	msr	spsr_el1, x1
   810ac:	f84107e0 	ldr	x0, [sp], #16
   810b0:	a8c10be1 	ldp	x1, x2, [sp], #16
   810b4:	a8c113e3 	ldp	x3, x4, [sp], #16
   810b8:	a8c11be5 	ldp	x5, x6, [sp], #16
   810bc:	a8c123e7 	ldp	x7, x8, [sp], #16
   810c0:	a8c12be9 	ldp	x9, x10, [sp], #16
   810c4:	a8c133eb 	ldp	x11, x12, [sp], #16
   810c8:	a8c13bed 	ldp	x13, x14, [sp], #16
   810cc:	a8c143ef 	ldp	x15, x16, [sp], #16
   810d0:	a8c14bf1 	ldp	x17, x18, [sp], #16
   810d4:	a8c153f3 	ldp	x19, x20, [sp], #16
   810d8:	a8c15bf5 	ldp	x21, x22, [sp], #16
   810dc:	a8c163f7 	ldp	x23, x24, [sp], #16
   810e0:	a8c16bf9 	ldp	x25, x26, [sp], #16
   810e4:	a8c173fb 	ldp	x27, x28, [sp], #16
   810e8:	a8c17bfd 	ldp	x29, x30, [sp], #16
   810ec:	d69f03e0 	eret
   810f0:	d503201f 	nop
   810f4:	d503201f 	nop
   810f8:	d503201f 	nop
   810fc:	d503201f 	nop
   81100:	d503201f 	nop
   81104:	d503201f 	nop
   81108:	d503201f 	nop
   8110c:	d503201f 	nop
   81110:	d503201f 	nop
   81114:	d503201f 	nop
   81118:	d503201f 	nop
   8111c:	d503201f 	nop
   81120:	d503201f 	nop
   81124:	d503201f 	nop
   81128:	d503201f 	nop
   8112c:	d503201f 	nop
   81130:	d503201f 	nop
   81134:	d503201f 	nop
   81138:	d503201f 	nop
   8113c:	d503201f 	nop
   81140:	d503201f 	nop
   81144:	d503201f 	nop
   81148:	d503201f 	nop
   8114c:	d503201f 	nop
   81150:	d503201f 	nop
   81154:	d503201f 	nop
   81158:	d503201f 	nop
   8115c:	d503201f 	nop
   81160:	d503201f 	nop
   81164:	d503201f 	nop
   81168:	d503201f 	nop
   8116c:	d503201f 	nop
   81170:	d503201f 	nop
   81174:	d503201f 	nop
   81178:	d503201f 	nop
   8117c:	d503201f 	nop
   81180:	d503201f 	nop
   81184:	d503201f 	nop
   81188:	d503201f 	nop
   8118c:	d503201f 	nop
   81190:	d503201f 	nop
   81194:	d503201f 	nop
   81198:	d503201f 	nop
   8119c:	d503201f 	nop
   811a0:	d503201f 	nop
   811a4:	d503201f 	nop
   811a8:	d503201f 	nop
   811ac:	d503201f 	nop
   811b0:	d503201f 	nop
   811b4:	d503201f 	nop
   811b8:	d503201f 	nop
   811bc:	d503201f 	nop
   811c0:	d503201f 	nop
   811c4:	d503201f 	nop
   811c8:	d503201f 	nop
   811cc:	d503201f 	nop
   811d0:	d503201f 	nop
   811d4:	d503201f 	nop
   811d8:	d503201f 	nop
   811dc:	d503201f 	nop
   811e0:	d503201f 	nop
   811e4:	d503201f 	nop
   811e8:	d503201f 	nop
   811ec:	d503201f 	nop
   811f0:	d503201f 	nop
   811f4:	d503201f 	nop
   811f8:	d503201f 	nop
   811fc:	d503201f 	nop
   81200:	d503201f 	nop
   81204:	d503201f 	nop
   81208:	d503201f 	nop
   8120c:	d503201f 	nop
   81210:	d503201f 	nop
   81214:	d503201f 	nop
   81218:	d503201f 	nop
   8121c:	d503201f 	nop
   81220:	d503201f 	nop
   81224:	d503201f 	nop
   81228:	d503201f 	nop
   8122c:	d503201f 	nop
   81230:	d503201f 	nop
   81234:	d503201f 	nop
   81238:	d503201f 	nop
   8123c:	d503201f 	nop
   81240:	d503201f 	nop
   81244:	d503201f 	nop
   81248:	d503201f 	nop
   8124c:	d503201f 	nop
   81250:	d503201f 	nop
   81254:	d503201f 	nop
   81258:	d503201f 	nop
   8125c:	d503201f 	nop
   81260:	d503201f 	nop
   81264:	d503201f 	nop
   81268:	d503201f 	nop
   8126c:	d503201f 	nop
   81270:	d503201f 	nop
   81274:	d503201f 	nop
   81278:	d503201f 	nop
   8127c:	d503201f 	nop
   81280:	d503201f 	nop
   81284:	d503201f 	nop
   81288:	d503201f 	nop
   8128c:	d503201f 	nop
   81290:	d503201f 	nop
   81294:	d503201f 	nop
   81298:	d503201f 	nop
   8129c:	d503201f 	nop
   812a0:	d503201f 	nop
   812a4:	d503201f 	nop
   812a8:	d503201f 	nop
   812ac:	d503201f 	nop
   812b0:	d503201f 	nop
   812b4:	d503201f 	nop
   812b8:	d503201f 	nop
   812bc:	d503201f 	nop
   812c0:	d503201f 	nop
   812c4:	d503201f 	nop
   812c8:	d503201f 	nop
   812cc:	d503201f 	nop
   812d0:	d503201f 	nop
   812d4:	d503201f 	nop
   812d8:	d503201f 	nop
   812dc:	d503201f 	nop
   812e0:	d503201f 	nop
   812e4:	d503201f 	nop
   812e8:	d503201f 	nop
   812ec:	d503201f 	nop
   812f0:	d503201f 	nop
   812f4:	d503201f 	nop
   812f8:	d503201f 	nop
   812fc:	d503201f 	nop
   81300:	d503201f 	nop
   81304:	d503201f 	nop
   81308:	d503201f 	nop
   8130c:	d503201f 	nop
   81310:	d503201f 	nop
   81314:	d503201f 	nop
   81318:	d503201f 	nop
   8131c:	d503201f 	nop
   81320:	d503201f 	nop
   81324:	d503201f 	nop
   81328:	d503201f 	nop
   8132c:	d503201f 	nop
   81330:	d503201f 	nop
   81334:	d503201f 	nop
   81338:	d503201f 	nop
   8133c:	d503201f 	nop
   81340:	d503201f 	nop
   81344:	d503201f 	nop
   81348:	d503201f 	nop
   8134c:	d503201f 	nop
   81350:	d503201f 	nop
   81354:	d503201f 	nop
   81358:	d503201f 	nop
   8135c:	d503201f 	nop
   81360:	d503201f 	nop
   81364:	d503201f 	nop
   81368:	d503201f 	nop
   8136c:	d503201f 	nop
   81370:	d503201f 	nop
   81374:	d503201f 	nop
   81378:	d503201f 	nop
   8137c:	d503201f 	nop
   81380:	d503201f 	nop
   81384:	d503201f 	nop
   81388:	d503201f 	nop
   8138c:	d503201f 	nop
   81390:	d503201f 	nop
   81394:	d503201f 	nop
   81398:	d503201f 	nop
   8139c:	d503201f 	nop
   813a0:	d503201f 	nop
   813a4:	d503201f 	nop
   813a8:	d503201f 	nop
   813ac:	d503201f 	nop
   813b0:	d503201f 	nop
   813b4:	d503201f 	nop
   813b8:	d503201f 	nop
   813bc:	d503201f 	nop
   813c0:	d503201f 	nop
   813c4:	d503201f 	nop
   813c8:	d503201f 	nop
   813cc:	d503201f 	nop
   813d0:	d503201f 	nop
   813d4:	d503201f 	nop
   813d8:	d503201f 	nop
   813dc:	d503201f 	nop
   813e0:	d503201f 	nop
   813e4:	d503201f 	nop
   813e8:	d503201f 	nop
   813ec:	d503201f 	nop
   813f0:	d503201f 	nop
   813f4:	d503201f 	nop
   813f8:	d503201f 	nop
   813fc:	d503201f 	nop
   81400:	d503201f 	nop
   81404:	d503201f 	nop
   81408:	d503201f 	nop
   8140c:	d503201f 	nop
   81410:	d503201f 	nop
   81414:	d503201f 	nop
   81418:	d503201f 	nop
   8141c:	d503201f 	nop
   81420:	d503201f 	nop
   81424:	d503201f 	nop
   81428:	d503201f 	nop
   8142c:	d503201f 	nop
   81430:	d503201f 	nop
   81434:	d503201f 	nop
   81438:	d503201f 	nop
   8143c:	d503201f 	nop
   81440:	d503201f 	nop
   81444:	d503201f 	nop
   81448:	d503201f 	nop
   8144c:	d503201f 	nop
   81450:	d503201f 	nop
   81454:	d503201f 	nop
   81458:	d503201f 	nop
   8145c:	d503201f 	nop
   81460:	d503201f 	nop
   81464:	d503201f 	nop
   81468:	d503201f 	nop
   8146c:	d503201f 	nop
   81470:	d503201f 	nop
   81474:	d503201f 	nop
   81478:	d503201f 	nop
   8147c:	d503201f 	nop
   81480:	d503201f 	nop
   81484:	d503201f 	nop
   81488:	d503201f 	nop
   8148c:	d503201f 	nop
   81490:	d503201f 	nop
   81494:	d503201f 	nop
   81498:	d503201f 	nop
   8149c:	d503201f 	nop
   814a0:	d503201f 	nop
   814a4:	d503201f 	nop
   814a8:	d503201f 	nop
   814ac:	d503201f 	nop
   814b0:	d503201f 	nop
   814b4:	d503201f 	nop
   814b8:	d503201f 	nop
   814bc:	d503201f 	nop
   814c0:	d503201f 	nop
   814c4:	d503201f 	nop
   814c8:	d503201f 	nop
   814cc:	d503201f 	nop
   814d0:	d503201f 	nop
   814d4:	d503201f 	nop
   814d8:	d503201f 	nop
   814dc:	d503201f 	nop
   814e0:	d503201f 	nop
   814e4:	d503201f 	nop
   814e8:	d503201f 	nop
   814ec:	d503201f 	nop
   814f0:	d503201f 	nop
   814f4:	d503201f 	nop
   814f8:	d503201f 	nop
   814fc:	d503201f 	nop
   81500:	d503201f 	nop
   81504:	d503201f 	nop
   81508:	d503201f 	nop
   8150c:	d503201f 	nop
   81510:	d503201f 	nop
   81514:	d503201f 	nop
   81518:	d503201f 	nop
   8151c:	d503201f 	nop
   81520:	d503201f 	nop
   81524:	d503201f 	nop
   81528:	d503201f 	nop
   8152c:	d503201f 	nop
   81530:	d503201f 	nop
   81534:	d503201f 	nop
   81538:	d503201f 	nop
   8153c:	d503201f 	nop
   81540:	d503201f 	nop
   81544:	d503201f 	nop
   81548:	d503201f 	nop
   8154c:	d503201f 	nop
   81550:	d503201f 	nop
   81554:	d503201f 	nop
   81558:	d503201f 	nop
   8155c:	d503201f 	nop
   81560:	d503201f 	nop
   81564:	d503201f 	nop
   81568:	d503201f 	nop
   8156c:	d503201f 	nop
   81570:	d503201f 	nop
   81574:	d503201f 	nop
   81578:	d503201f 	nop
   8157c:	d503201f 	nop
   81580:	d503201f 	nop
   81584:	d503201f 	nop
   81588:	d503201f 	nop
   8158c:	d503201f 	nop
   81590:	d503201f 	nop
   81594:	d503201f 	nop
   81598:	d503201f 	nop
   8159c:	d503201f 	nop
   815a0:	d503201f 	nop
   815a4:	d503201f 	nop
   815a8:	d503201f 	nop
   815ac:	d503201f 	nop
   815b0:	d503201f 	nop
   815b4:	d503201f 	nop
   815b8:	d503201f 	nop
   815bc:	d503201f 	nop
   815c0:	d503201f 	nop
   815c4:	d503201f 	nop
   815c8:	d503201f 	nop
   815cc:	d503201f 	nop
   815d0:	d503201f 	nop
   815d4:	d503201f 	nop
   815d8:	d503201f 	nop
   815dc:	d503201f 	nop
   815e0:	d503201f 	nop
   815e4:	d503201f 	nop
   815e8:	d503201f 	nop
   815ec:	d503201f 	nop
   815f0:	d503201f 	nop
   815f4:	d503201f 	nop
   815f8:	d503201f 	nop
   815fc:	d503201f 	nop
   81600:	d503201f 	nop
   81604:	d503201f 	nop
   81608:	d503201f 	nop
   8160c:	d503201f 	nop
   81610:	d503201f 	nop
   81614:	d503201f 	nop
   81618:	d503201f 	nop
   8161c:	d503201f 	nop
   81620:	d503201f 	nop
   81624:	d503201f 	nop
   81628:	d503201f 	nop
   8162c:	d503201f 	nop
   81630:	d503201f 	nop
   81634:	d503201f 	nop
   81638:	d503201f 	nop
   8163c:	d503201f 	nop
   81640:	d503201f 	nop
   81644:	d503201f 	nop
   81648:	d503201f 	nop
   8164c:	d503201f 	nop
   81650:	d503201f 	nop
   81654:	d503201f 	nop
   81658:	d503201f 	nop
   8165c:	d503201f 	nop
   81660:	d503201f 	nop
   81664:	d503201f 	nop
   81668:	d503201f 	nop
   8166c:	d503201f 	nop
   81670:	d503201f 	nop
   81674:	d503201f 	nop
   81678:	d503201f 	nop
   8167c:	d503201f 	nop
   81680:	d503201f 	nop
   81684:	d503201f 	nop
   81688:	d503201f 	nop
   8168c:	d503201f 	nop
   81690:	d503201f 	nop
   81694:	d503201f 	nop
   81698:	d503201f 	nop
   8169c:	d503201f 	nop
   816a0:	d503201f 	nop
   816a4:	d503201f 	nop
   816a8:	d503201f 	nop
   816ac:	d503201f 	nop
   816b0:	d503201f 	nop
   816b4:	d503201f 	nop
   816b8:	d503201f 	nop
   816bc:	d503201f 	nop
   816c0:	d503201f 	nop
   816c4:	d503201f 	nop
   816c8:	d503201f 	nop
   816cc:	d503201f 	nop
   816d0:	d503201f 	nop
   816d4:	d503201f 	nop
   816d8:	d503201f 	nop
   816dc:	d503201f 	nop
   816e0:	d503201f 	nop
   816e4:	d503201f 	nop
   816e8:	d503201f 	nop
   816ec:	d503201f 	nop
   816f0:	d503201f 	nop
   816f4:	d503201f 	nop
   816f8:	d503201f 	nop
   816fc:	d503201f 	nop
   81700:	d503201f 	nop
   81704:	d503201f 	nop
   81708:	d503201f 	nop
   8170c:	d503201f 	nop
   81710:	d503201f 	nop
   81714:	d503201f 	nop
   81718:	d503201f 	nop
   8171c:	d503201f 	nop
   81720:	d503201f 	nop
   81724:	d503201f 	nop
   81728:	d503201f 	nop
   8172c:	d503201f 	nop
   81730:	d503201f 	nop
   81734:	d503201f 	nop
   81738:	d503201f 	nop
   8173c:	d503201f 	nop
   81740:	d503201f 	nop
   81744:	d503201f 	nop
   81748:	d503201f 	nop
   8174c:	d503201f 	nop
   81750:	d503201f 	nop
   81754:	d503201f 	nop
   81758:	d503201f 	nop
   8175c:	d503201f 	nop
   81760:	d503201f 	nop
   81764:	d503201f 	nop
   81768:	d503201f 	nop
   8176c:	d503201f 	nop
   81770:	d503201f 	nop
   81774:	d503201f 	nop
   81778:	d503201f 	nop
   8177c:	d503201f 	nop
   81780:	d503201f 	nop
   81784:	d503201f 	nop
   81788:	d503201f 	nop
   8178c:	d503201f 	nop
   81790:	d503201f 	nop
   81794:	d503201f 	nop
   81798:	d503201f 	nop
   8179c:	d503201f 	nop
   817a0:	d503201f 	nop
   817a4:	d503201f 	nop
   817a8:	d503201f 	nop
   817ac:	d503201f 	nop
   817b0:	d503201f 	nop
   817b4:	d503201f 	nop
   817b8:	d503201f 	nop
   817bc:	d503201f 	nop
   817c0:	d503201f 	nop
   817c4:	d503201f 	nop
   817c8:	d503201f 	nop
   817cc:	d503201f 	nop
   817d0:	d503201f 	nop
   817d4:	d503201f 	nop
   817d8:	d503201f 	nop
   817dc:	d503201f 	nop
   817e0:	d503201f 	nop
   817e4:	d503201f 	nop
   817e8:	d503201f 	nop
   817ec:	d503201f 	nop
   817f0:	d503201f 	nop
   817f4:	d503201f 	nop
   817f8:	d503201f 	nop
   817fc:	d503201f 	nop

0000000000081800 <VectorTable>:
   81800:	17fffa00 	b	80000 <_start>
   81804:	d503201f 	nop
   81808:	d503201f 	nop
   8180c:	d503201f 	nop
   81810:	d503201f 	nop
   81814:	d503201f 	nop
   81818:	d503201f 	nop
   8181c:	d503201f 	nop
   81820:	d503201f 	nop
   81824:	d503201f 	nop
   81828:	d503201f 	nop
   8182c:	d503201f 	nop
   81830:	d503201f 	nop
   81834:	d503201f 	nop
   81838:	d503201f 	nop
   8183c:	d503201f 	nop
   81840:	d503201f 	nop
   81844:	d503201f 	nop
   81848:	d503201f 	nop
   8184c:	d503201f 	nop
   81850:	d503201f 	nop
   81854:	d503201f 	nop
   81858:	d503201f 	nop
   8185c:	d503201f 	nop
   81860:	d503201f 	nop
   81864:	d503201f 	nop
   81868:	d503201f 	nop
   8186c:	d503201f 	nop
   81870:	d503201f 	nop
   81874:	d503201f 	nop
   81878:	d503201f 	nop
   8187c:	d503201f 	nop
   81880:	17fffa51 	b	801c4 <hang>
   81884:	d503201f 	nop
   81888:	d503201f 	nop
   8188c:	d503201f 	nop
   81890:	d503201f 	nop
   81894:	d503201f 	nop
   81898:	d503201f 	nop
   8189c:	d503201f 	nop
   818a0:	d503201f 	nop
   818a4:	d503201f 	nop
   818a8:	d503201f 	nop
   818ac:	d503201f 	nop
   818b0:	d503201f 	nop
   818b4:	d503201f 	nop
   818b8:	d503201f 	nop
   818bc:	d503201f 	nop
   818c0:	d503201f 	nop
   818c4:	d503201f 	nop
   818c8:	d503201f 	nop
   818cc:	d503201f 	nop
   818d0:	d503201f 	nop
   818d4:	d503201f 	nop
   818d8:	d503201f 	nop
   818dc:	d503201f 	nop
   818e0:	d503201f 	nop
   818e4:	d503201f 	nop
   818e8:	d503201f 	nop
   818ec:	d503201f 	nop
   818f0:	d503201f 	nop
   818f4:	d503201f 	nop
   818f8:	d503201f 	nop
   818fc:	d503201f 	nop
   81900:	17fffa31 	b	801c4 <hang>
   81904:	d503201f 	nop
   81908:	d503201f 	nop
   8190c:	d503201f 	nop
   81910:	d503201f 	nop
   81914:	d503201f 	nop
   81918:	d503201f 	nop
   8191c:	d503201f 	nop
   81920:	d503201f 	nop
   81924:	d503201f 	nop
   81928:	d503201f 	nop
   8192c:	d503201f 	nop
   81930:	d503201f 	nop
   81934:	d503201f 	nop
   81938:	d503201f 	nop
   8193c:	d503201f 	nop
   81940:	d503201f 	nop
   81944:	d503201f 	nop
   81948:	d503201f 	nop
   8194c:	d503201f 	nop
   81950:	d503201f 	nop
   81954:	d503201f 	nop
   81958:	d503201f 	nop
   8195c:	d503201f 	nop
   81960:	d503201f 	nop
   81964:	d503201f 	nop
   81968:	d503201f 	nop
   8196c:	d503201f 	nop
   81970:	d503201f 	nop
   81974:	d503201f 	nop
   81978:	d503201f 	nop
   8197c:	d503201f 	nop
   81980:	17fffa11 	b	801c4 <hang>
   81984:	d503201f 	nop
   81988:	d503201f 	nop
   8198c:	d503201f 	nop
   81990:	d503201f 	nop
   81994:	d503201f 	nop
   81998:	d503201f 	nop
   8199c:	d503201f 	nop
   819a0:	d503201f 	nop
   819a4:	d503201f 	nop
   819a8:	d503201f 	nop
   819ac:	d503201f 	nop
   819b0:	d503201f 	nop
   819b4:	d503201f 	nop
   819b8:	d503201f 	nop
   819bc:	d503201f 	nop
   819c0:	d503201f 	nop
   819c4:	d503201f 	nop
   819c8:	d503201f 	nop
   819cc:	d503201f 	nop
   819d0:	d503201f 	nop
   819d4:	d503201f 	nop
   819d8:	d503201f 	nop
   819dc:	d503201f 	nop
   819e0:	d503201f 	nop
   819e4:	d503201f 	nop
   819e8:	d503201f 	nop
   819ec:	d503201f 	nop
   819f0:	d503201f 	nop
   819f4:	d503201f 	nop
   819f8:	d503201f 	nop
   819fc:	d503201f 	nop
   81a00:	17fff9f1 	b	801c4 <hang>
   81a04:	d503201f 	nop
   81a08:	d503201f 	nop
   81a0c:	d503201f 	nop
   81a10:	d503201f 	nop
   81a14:	d503201f 	nop
   81a18:	d503201f 	nop
   81a1c:	d503201f 	nop
   81a20:	d503201f 	nop
   81a24:	d503201f 	nop
   81a28:	d503201f 	nop
   81a2c:	d503201f 	nop
   81a30:	d503201f 	nop
   81a34:	d503201f 	nop
   81a38:	d503201f 	nop
   81a3c:	d503201f 	nop
   81a40:	d503201f 	nop
   81a44:	d503201f 	nop
   81a48:	d503201f 	nop
   81a4c:	d503201f 	nop
   81a50:	d503201f 	nop
   81a54:	d503201f 	nop
   81a58:	d503201f 	nop
   81a5c:	d503201f 	nop
   81a60:	d503201f 	nop
   81a64:	d503201f 	nop
   81a68:	d503201f 	nop
   81a6c:	d503201f 	nop
   81a70:	d503201f 	nop
   81a74:	d503201f 	nop
   81a78:	d503201f 	nop
   81a7c:	d503201f 	nop
   81a80:	17fffd63 	b	8100c <irq_handler>
   81a84:	d503201f 	nop
   81a88:	d503201f 	nop
   81a8c:	d503201f 	nop
   81a90:	d503201f 	nop
   81a94:	d503201f 	nop
   81a98:	d503201f 	nop
   81a9c:	d503201f 	nop
   81aa0:	d503201f 	nop
   81aa4:	d503201f 	nop
   81aa8:	d503201f 	nop
   81aac:	d503201f 	nop
   81ab0:	d503201f 	nop
   81ab4:	d503201f 	nop
   81ab8:	d503201f 	nop
   81abc:	d503201f 	nop
   81ac0:	d503201f 	nop
   81ac4:	d503201f 	nop
   81ac8:	d503201f 	nop
   81acc:	d503201f 	nop
   81ad0:	d503201f 	nop
   81ad4:	d503201f 	nop
   81ad8:	d503201f 	nop
   81adc:	d503201f 	nop
   81ae0:	d503201f 	nop
   81ae4:	d503201f 	nop
   81ae8:	d503201f 	nop
   81aec:	d503201f 	nop
   81af0:	d503201f 	nop
   81af4:	d503201f 	nop
   81af8:	d503201f 	nop
   81afc:	d503201f 	nop
   81b00:	17fff9b1 	b	801c4 <hang>
   81b04:	d503201f 	nop
   81b08:	d503201f 	nop
   81b0c:	d503201f 	nop
   81b10:	d503201f 	nop
   81b14:	d503201f 	nop
   81b18:	d503201f 	nop
   81b1c:	d503201f 	nop
   81b20:	d503201f 	nop
   81b24:	d503201f 	nop
   81b28:	d503201f 	nop
   81b2c:	d503201f 	nop
   81b30:	d503201f 	nop
   81b34:	d503201f 	nop
   81b38:	d503201f 	nop
   81b3c:	d503201f 	nop
   81b40:	d503201f 	nop
   81b44:	d503201f 	nop
   81b48:	d503201f 	nop
   81b4c:	d503201f 	nop
   81b50:	d503201f 	nop
   81b54:	d503201f 	nop
   81b58:	d503201f 	nop
   81b5c:	d503201f 	nop
   81b60:	d503201f 	nop
   81b64:	d503201f 	nop
   81b68:	d503201f 	nop
   81b6c:	d503201f 	nop
   81b70:	d503201f 	nop
   81b74:	d503201f 	nop
   81b78:	d503201f 	nop
   81b7c:	d503201f 	nop
   81b80:	17fff991 	b	801c4 <hang>
   81b84:	d503201f 	nop
   81b88:	d503201f 	nop
   81b8c:	d503201f 	nop
   81b90:	d503201f 	nop
   81b94:	d503201f 	nop
   81b98:	d503201f 	nop
   81b9c:	d503201f 	nop
   81ba0:	d503201f 	nop
   81ba4:	d503201f 	nop
   81ba8:	d503201f 	nop
   81bac:	d503201f 	nop
   81bb0:	d503201f 	nop
   81bb4:	d503201f 	nop
   81bb8:	d503201f 	nop
   81bbc:	d503201f 	nop
   81bc0:	d503201f 	nop
   81bc4:	d503201f 	nop
   81bc8:	d503201f 	nop
   81bcc:	d503201f 	nop
   81bd0:	d503201f 	nop
   81bd4:	d503201f 	nop
   81bd8:	d503201f 	nop
   81bdc:	d503201f 	nop
   81be0:	d503201f 	nop
   81be4:	d503201f 	nop
   81be8:	d503201f 	nop
   81bec:	d503201f 	nop
   81bf0:	d503201f 	nop
   81bf4:	d503201f 	nop
   81bf8:	d503201f 	nop
   81bfc:	d503201f 	nop
   81c00:	17fff971 	b	801c4 <hang>
   81c04:	d503201f 	nop
   81c08:	d503201f 	nop
   81c0c:	d503201f 	nop
   81c10:	d503201f 	nop
   81c14:	d503201f 	nop
   81c18:	d503201f 	nop
   81c1c:	d503201f 	nop
   81c20:	d503201f 	nop
   81c24:	d503201f 	nop
   81c28:	d503201f 	nop
   81c2c:	d503201f 	nop
   81c30:	d503201f 	nop
   81c34:	d503201f 	nop
   81c38:	d503201f 	nop
   81c3c:	d503201f 	nop
   81c40:	d503201f 	nop
   81c44:	d503201f 	nop
   81c48:	d503201f 	nop
   81c4c:	d503201f 	nop
   81c50:	d503201f 	nop
   81c54:	d503201f 	nop
   81c58:	d503201f 	nop
   81c5c:	d503201f 	nop
   81c60:	d503201f 	nop
   81c64:	d503201f 	nop
   81c68:	d503201f 	nop
   81c6c:	d503201f 	nop
   81c70:	d503201f 	nop
   81c74:	d503201f 	nop
   81c78:	d503201f 	nop
   81c7c:	d503201f 	nop
   81c80:	17fff951 	b	801c4 <hang>
   81c84:	d503201f 	nop
   81c88:	d503201f 	nop
   81c8c:	d503201f 	nop
   81c90:	d503201f 	nop
   81c94:	d503201f 	nop
   81c98:	d503201f 	nop
   81c9c:	d503201f 	nop
   81ca0:	d503201f 	nop
   81ca4:	d503201f 	nop
   81ca8:	d503201f 	nop
   81cac:	d503201f 	nop
   81cb0:	d503201f 	nop
   81cb4:	d503201f 	nop
   81cb8:	d503201f 	nop
   81cbc:	d503201f 	nop
   81cc0:	d503201f 	nop
   81cc4:	d503201f 	nop
   81cc8:	d503201f 	nop
   81ccc:	d503201f 	nop
   81cd0:	d503201f 	nop
   81cd4:	d503201f 	nop
   81cd8:	d503201f 	nop
   81cdc:	d503201f 	nop
   81ce0:	d503201f 	nop
   81ce4:	d503201f 	nop
   81ce8:	d503201f 	nop
   81cec:	d503201f 	nop
   81cf0:	d503201f 	nop
   81cf4:	d503201f 	nop
   81cf8:	d503201f 	nop
   81cfc:	d503201f 	nop
   81d00:	17fff931 	b	801c4 <hang>
   81d04:	d503201f 	nop
   81d08:	d503201f 	nop
   81d0c:	d503201f 	nop
   81d10:	d503201f 	nop
   81d14:	d503201f 	nop
   81d18:	d503201f 	nop
   81d1c:	d503201f 	nop
   81d20:	d503201f 	nop
   81d24:	d503201f 	nop
   81d28:	d503201f 	nop
   81d2c:	d503201f 	nop
   81d30:	d503201f 	nop
   81d34:	d503201f 	nop
   81d38:	d503201f 	nop
   81d3c:	d503201f 	nop
   81d40:	d503201f 	nop
   81d44:	d503201f 	nop
   81d48:	d503201f 	nop
   81d4c:	d503201f 	nop
   81d50:	d503201f 	nop
   81d54:	d503201f 	nop
   81d58:	d503201f 	nop
   81d5c:	d503201f 	nop
   81d60:	d503201f 	nop
   81d64:	d503201f 	nop
   81d68:	d503201f 	nop
   81d6c:	d503201f 	nop
   81d70:	d503201f 	nop
   81d74:	d503201f 	nop
   81d78:	d503201f 	nop
   81d7c:	d503201f 	nop
   81d80:	17fff911 	b	801c4 <hang>
   81d84:	d503201f 	nop
   81d88:	d503201f 	nop
   81d8c:	d503201f 	nop
   81d90:	d503201f 	nop
   81d94:	d503201f 	nop
   81d98:	d503201f 	nop
   81d9c:	d503201f 	nop
   81da0:	d503201f 	nop
   81da4:	d503201f 	nop
   81da8:	d503201f 	nop
   81dac:	d503201f 	nop
   81db0:	d503201f 	nop
   81db4:	d503201f 	nop
   81db8:	d503201f 	nop
   81dbc:	d503201f 	nop
   81dc0:	d503201f 	nop
   81dc4:	d503201f 	nop
   81dc8:	d503201f 	nop
   81dcc:	d503201f 	nop
   81dd0:	d503201f 	nop
   81dd4:	d503201f 	nop
   81dd8:	d503201f 	nop
   81ddc:	d503201f 	nop
   81de0:	d503201f 	nop
   81de4:	d503201f 	nop
   81de8:	d503201f 	nop
   81dec:	d503201f 	nop
   81df0:	d503201f 	nop
   81df4:	d503201f 	nop
   81df8:	d503201f 	nop
   81dfc:	d503201f 	nop
   81e00:	17fff8f1 	b	801c4 <hang>
   81e04:	d503201f 	nop
   81e08:	d503201f 	nop
   81e0c:	d503201f 	nop
   81e10:	d503201f 	nop
   81e14:	d503201f 	nop
   81e18:	d503201f 	nop
   81e1c:	d503201f 	nop
   81e20:	d503201f 	nop
   81e24:	d503201f 	nop
   81e28:	d503201f 	nop
   81e2c:	d503201f 	nop
   81e30:	d503201f 	nop
   81e34:	d503201f 	nop
   81e38:	d503201f 	nop
   81e3c:	d503201f 	nop
   81e40:	d503201f 	nop
   81e44:	d503201f 	nop
   81e48:	d503201f 	nop
   81e4c:	d503201f 	nop
   81e50:	d503201f 	nop
   81e54:	d503201f 	nop
   81e58:	d503201f 	nop
   81e5c:	d503201f 	nop
   81e60:	d503201f 	nop
   81e64:	d503201f 	nop
   81e68:	d503201f 	nop
   81e6c:	d503201f 	nop
   81e70:	d503201f 	nop
   81e74:	d503201f 	nop
   81e78:	d503201f 	nop
   81e7c:	d503201f 	nop
   81e80:	17fff8d1 	b	801c4 <hang>
   81e84:	d503201f 	nop
   81e88:	d503201f 	nop
   81e8c:	d503201f 	nop
   81e90:	d503201f 	nop
   81e94:	d503201f 	nop
   81e98:	d503201f 	nop
   81e9c:	d503201f 	nop
   81ea0:	d503201f 	nop
   81ea4:	d503201f 	nop
   81ea8:	d503201f 	nop
   81eac:	d503201f 	nop
   81eb0:	d503201f 	nop
   81eb4:	d503201f 	nop
   81eb8:	d503201f 	nop
   81ebc:	d503201f 	nop
   81ec0:	d503201f 	nop
   81ec4:	d503201f 	nop
   81ec8:	d503201f 	nop
   81ecc:	d503201f 	nop
   81ed0:	d503201f 	nop
   81ed4:	d503201f 	nop
   81ed8:	d503201f 	nop
   81edc:	d503201f 	nop
   81ee0:	d503201f 	nop
   81ee4:	d503201f 	nop
   81ee8:	d503201f 	nop
   81eec:	d503201f 	nop
   81ef0:	d503201f 	nop
   81ef4:	d503201f 	nop
   81ef8:	d503201f 	nop
   81efc:	d503201f 	nop
   81f00:	17fff8b1 	b	801c4 <hang>
   81f04:	d503201f 	nop
   81f08:	d503201f 	nop
   81f0c:	d503201f 	nop
   81f10:	d503201f 	nop
   81f14:	d503201f 	nop
   81f18:	d503201f 	nop
   81f1c:	d503201f 	nop
   81f20:	d503201f 	nop
   81f24:	d503201f 	nop
   81f28:	d503201f 	nop
   81f2c:	d503201f 	nop
   81f30:	d503201f 	nop
   81f34:	d503201f 	nop
   81f38:	d503201f 	nop
   81f3c:	d503201f 	nop
   81f40:	d503201f 	nop
   81f44:	d503201f 	nop
   81f48:	d503201f 	nop
   81f4c:	d503201f 	nop
   81f50:	d503201f 	nop
   81f54:	d503201f 	nop
   81f58:	d503201f 	nop
   81f5c:	d503201f 	nop
   81f60:	d503201f 	nop
   81f64:	d503201f 	nop
   81f68:	d503201f 	nop
   81f6c:	d503201f 	nop
   81f70:	d503201f 	nop
   81f74:	d503201f 	nop
   81f78:	d503201f 	nop
   81f7c:	d503201f 	nop
   81f80:	17fff891 	b	801c4 <hang>
   81f84:	00000000 	.inst	0x00000000 ; undefined
   81f88:	00095a70 	.word	0x00095a70
   81f8c:	00000000 	.word	0x00000000
   81f90:	00095a88 	.word	0x00095a88
   81f94:	00000000 	.word	0x00000000

0000000000081f98 <reset_cycle_counter>:
   81f98:	d10043ff 	sub	sp, sp, #0x10
   81f9c:	d53b9c00 	mrs	x0, pmcr_el0
   81fa0:	f90007e0 	str	x0, [sp, #8]
   81fa4:	f94007e0 	ldr	x0, [sp, #8]
   81fa8:	b27e0000 	orr	x0, x0, #0x4
   81fac:	f90007e0 	str	x0, [sp, #8]
   81fb0:	d51b9c00 	msr	pmcr_el0, x0
   81fb4:	f90007e0 	str	x0, [sp, #8]
   81fb8:	d503201f 	nop
   81fbc:	910043ff 	add	sp, sp, #0x10
   81fc0:	d65f03c0 	ret

0000000000081fc4 <get_cycle_counter>:
   81fc4:	d10043ff 	sub	sp, sp, #0x10
   81fc8:	d53b9d00 	mrs	x0, pmccntr_el0
   81fcc:	f90007e0 	str	x0, [sp, #8]
   81fd0:	f94007e0 	ldr	x0, [sp, #8]
   81fd4:	910043ff 	add	sp, sp, #0x10
   81fd8:	d65f03c0 	ret

0000000000081fdc <Check_Semaphore>:
   81fdc:	f81f0ffe 	str	x30, [sp, #-16]!
   81fe0:	97fffa18 	bl	80840 <GetCoreID>
   81fe4:	12001c00 	and	w0, w0, #0xff
   81fe8:	2a0003e1 	mov	w1, w0
   81fec:	f00000a0 	adrp	x0, 98000 <table_loaded>
   81ff0:	91000000 	add	x0, x0, #0x0
   81ff4:	b9400000 	ldr	w0, [x0]
   81ff8:	2a0003e2 	mov	w2, w0
   81ffc:	d0000080 	adrp	x0, 93000 <_malloc_r+0x348>
   82000:	91352000 	add	x0, x0, #0xd48
   82004:	94001274 	bl	869d4 <printf>
   82008:	b00000a0 	adrp	x0, 97000 <__bss_start__>
   8200c:	91000000 	add	x0, x0, #0x0
   82010:	97fffbfc 	bl	81000 <semaphore_dec>
   82014:	d503201f 	nop
   82018:	f84107fe 	ldr	x30, [sp], #16
   8201c:	d65f03c0 	ret

0000000000082020 <Core_SayHello>:
   82020:	f81f0ffe 	str	x30, [sp, #-16]!
   82024:	b00000a0 	adrp	x0, 97000 <__bss_start__>
   82028:	91001000 	add	x0, x0, #0x4
   8202c:	97fffa19 	bl	80890 <semaphore_inc>
   82030:	97fffa04 	bl	80840 <GetCoreID>
   82034:	12001c00 	and	w0, w0, #0xff
   82038:	2a0003e1 	mov	w1, w0
   8203c:	b0000080 	adrp	x0, 93000 <_malloc_r+0x348>
   82040:	9135e000 	add	x0, x0, #0xd78
   82044:	94001264 	bl	869d4 <printf>
   82048:	b00000a0 	adrp	x0, 97000 <__bss_start__>
   8204c:	91002000 	add	x0, x0, #0x8
   82050:	b9400000 	ldr	w0, [x0]
   82054:	11000401 	add	w1, w0, #0x1
   82058:	b00000a0 	adrp	x0, 97000 <__bss_start__>
   8205c:	91002000 	add	x0, x0, #0x8
   82060:	b9000001 	str	w1, [x0]
   82064:	b00000a0 	adrp	x0, 97000 <__bss_start__>
   82068:	91001000 	add	x0, x0, #0x4
   8206c:	97fffbe5 	bl	81000 <semaphore_dec>
   82070:	d503201f 	nop
   82074:	f84107fe 	ldr	x30, [sp], #16
   82078:	d65f03c0 	ret

000000000008207c <memory_access_benchmark>:
   8207c:	f81e0ffe 	str	x30, [sp, #-32]!
   82080:	b0000080 	adrp	x0, 93000 <_malloc_r+0x348>
   82084:	91364000 	add	x0, x0, #0xd90
   82088:	94001253 	bl	869d4 <printf>
   8208c:	97ffffc3 	bl	81f98 <reset_cycle_counter>
   82090:	97ffffcd 	bl	81fc4 <get_cycle_counter>
   82094:	f9000fe0 	str	x0, [sp, #24]
   82098:	d2800c84 	mov	x4, #0x64                  	// #100
   8209c:	d2800c84 	mov	x4, #0x64                  	// #100
   820a0:	d2800c84 	mov	x4, #0x64                  	// #100
   820a4:	d2800c84 	mov	x4, #0x64                  	// #100
   820a8:	d2800c84 	mov	x4, #0x64                  	// #100
   820ac:	d2800c84 	mov	x4, #0x64                  	// #100
   820b0:	d2800c84 	mov	x4, #0x64                  	// #100
   820b4:	d2800c84 	mov	x4, #0x64                  	// #100
   820b8:	d2800c84 	mov	x4, #0x64                  	// #100
   820bc:	d2800c84 	mov	x4, #0x64                  	// #100
   820c0:	d2800c84 	mov	x4, #0x64                  	// #100
   820c4:	d2800c84 	mov	x4, #0x64                  	// #100
   820c8:	d2800c84 	mov	x4, #0x64                  	// #100
   820cc:	d2800c84 	mov	x4, #0x64                  	// #100
   820d0:	d2800c84 	mov	x4, #0x64                  	// #100
   820d4:	d2800c84 	mov	x4, #0x64                  	// #100
   820d8:	d2800c84 	mov	x4, #0x64                  	// #100
   820dc:	d2800c84 	mov	x4, #0x64                  	// #100
   820e0:	d2800c84 	mov	x4, #0x64                  	// #100
   820e4:	d2800c84 	mov	x4, #0x64                  	// #100
   820e8:	d2800c84 	mov	x4, #0x64                  	// #100
   820ec:	d2800c84 	mov	x4, #0x64                  	// #100
   820f0:	d2800c84 	mov	x4, #0x64                  	// #100
   820f4:	d2800c84 	mov	x4, #0x64                  	// #100
   820f8:	d2800c84 	mov	x4, #0x64                  	// #100
   820fc:	d2800c84 	mov	x4, #0x64                  	// #100
   82100:	d2800c84 	mov	x4, #0x64                  	// #100
   82104:	d2800c84 	mov	x4, #0x64                  	// #100
   82108:	d2800c84 	mov	x4, #0x64                  	// #100
   8210c:	d2800c84 	mov	x4, #0x64                  	// #100
   82110:	d2800c84 	mov	x4, #0x64                  	// #100
   82114:	d2800c84 	mov	x4, #0x64                  	// #100
   82118:	d2800c84 	mov	x4, #0x64                  	// #100
   8211c:	d2800c84 	mov	x4, #0x64                  	// #100
   82120:	d2800c84 	mov	x4, #0x64                  	// #100
   82124:	d2800c84 	mov	x4, #0x64                  	// #100
   82128:	d2800c84 	mov	x4, #0x64                  	// #100
   8212c:	d2800c84 	mov	x4, #0x64                  	// #100
   82130:	d2800c84 	mov	x4, #0x64                  	// #100
   82134:	d2800c84 	mov	x4, #0x64                  	// #100
   82138:	d2800c84 	mov	x4, #0x64                  	// #100
   8213c:	d2800c84 	mov	x4, #0x64                  	// #100
   82140:	d2800c84 	mov	x4, #0x64                  	// #100
   82144:	d2800c84 	mov	x4, #0x64                  	// #100
   82148:	d2800c84 	mov	x4, #0x64                  	// #100
   8214c:	d2800c84 	mov	x4, #0x64                  	// #100
   82150:	d2800c84 	mov	x4, #0x64                  	// #100
   82154:	d2800c84 	mov	x4, #0x64                  	// #100
   82158:	d2800c84 	mov	x4, #0x64                  	// #100
   8215c:	d2800c84 	mov	x4, #0x64                  	// #100
   82160:	d2800c84 	mov	x4, #0x64                  	// #100
   82164:	d2800c84 	mov	x4, #0x64                  	// #100
   82168:	d2800c84 	mov	x4, #0x64                  	// #100
   8216c:	d2800c84 	mov	x4, #0x64                  	// #100
   82170:	d2800c84 	mov	x4, #0x64                  	// #100
   82174:	d2800c84 	mov	x4, #0x64                  	// #100
   82178:	d2800c84 	mov	x4, #0x64                  	// #100
   8217c:	d2800c84 	mov	x4, #0x64                  	// #100
   82180:	d2800c84 	mov	x4, #0x64                  	// #100
   82184:	d2800c84 	mov	x4, #0x64                  	// #100
   82188:	d2800c84 	mov	x4, #0x64                  	// #100
   8218c:	d2800c84 	mov	x4, #0x64                  	// #100
   82190:	d2800c84 	mov	x4, #0x64                  	// #100
   82194:	d2800c84 	mov	x4, #0x64                  	// #100
   82198:	d2800c84 	mov	x4, #0x64                  	// #100
   8219c:	d2800c84 	mov	x4, #0x64                  	// #100
   821a0:	d2800c84 	mov	x4, #0x64                  	// #100
   821a4:	d2800c84 	mov	x4, #0x64                  	// #100
   821a8:	d2800c84 	mov	x4, #0x64                  	// #100
   821ac:	d2800c84 	mov	x4, #0x64                  	// #100
   821b0:	d2800c84 	mov	x4, #0x64                  	// #100
   821b4:	d2800c84 	mov	x4, #0x64                  	// #100
   821b8:	d2800c84 	mov	x4, #0x64                  	// #100
   821bc:	d2800c84 	mov	x4, #0x64                  	// #100
   821c0:	d2800c84 	mov	x4, #0x64                  	// #100
   821c4:	d2800c84 	mov	x4, #0x64                  	// #100
   821c8:	d2800c84 	mov	x4, #0x64                  	// #100
   821cc:	d2800c84 	mov	x4, #0x64                  	// #100
   821d0:	d2800c84 	mov	x4, #0x64                  	// #100
   821d4:	d2800c84 	mov	x4, #0x64                  	// #100
   821d8:	d2800c84 	mov	x4, #0x64                  	// #100
   821dc:	d2800c84 	mov	x4, #0x64                  	// #100
   821e0:	d2800c84 	mov	x4, #0x64                  	// #100
   821e4:	d2800c84 	mov	x4, #0x64                  	// #100
   821e8:	d2800c84 	mov	x4, #0x64                  	// #100
   821ec:	d2800c84 	mov	x4, #0x64                  	// #100
   821f0:	d2800c84 	mov	x4, #0x64                  	// #100
   821f4:	d2800c84 	mov	x4, #0x64                  	// #100
   821f8:	d2800c84 	mov	x4, #0x64                  	// #100
   821fc:	d2800c84 	mov	x4, #0x64                  	// #100
   82200:	d2800c84 	mov	x4, #0x64                  	// #100
   82204:	d2800c84 	mov	x4, #0x64                  	// #100
   82208:	d2800c84 	mov	x4, #0x64                  	// #100
   8220c:	d2800c84 	mov	x4, #0x64                  	// #100
   82210:	d2800c84 	mov	x4, #0x64                  	// #100
   82214:	d2800c84 	mov	x4, #0x64                  	// #100
   82218:	d2800c84 	mov	x4, #0x64                  	// #100
   8221c:	d2800c84 	mov	x4, #0x64                  	// #100
   82220:	d2800c84 	mov	x4, #0x64                  	// #100
   82224:	d2800c84 	mov	x4, #0x64                  	// #100
   82228:	97ffff67 	bl	81fc4 <get_cycle_counter>
   8222c:	f9000be0 	str	x0, [sp, #16]
   82230:	f9400be1 	ldr	x1, [sp, #16]
   82234:	f9400fe0 	ldr	x0, [sp, #24]
   82238:	cb000020 	sub	x0, x1, x0
   8223c:	aa0003e1 	mov	x1, x0
   82240:	b0000080 	adrp	x0, 93000 <_malloc_r+0x348>
   82244:	9136a000 	add	x0, x0, #0xda8
   82248:	940011e3 	bl	869d4 <printf>
   8224c:	97ffff53 	bl	81f98 <reset_cycle_counter>
   82250:	97ffff5d 	bl	81fc4 <get_cycle_counter>
   82254:	f9000fe0 	str	x0, [sp, #24]
   82258:	f0000080 	adrp	x0, 95000 <BitFont+0xb40>
   8225c:	912a4000 	add	x0, x0, #0xa90
   82260:	f9400004 	ldr	x4, [x0]
   82264:	f9400004 	ldr	x4, [x0]
   82268:	f9400004 	ldr	x4, [x0]
   8226c:	f9400004 	ldr	x4, [x0]
   82270:	f9400004 	ldr	x4, [x0]
   82274:	f9400004 	ldr	x4, [x0]
   82278:	f9400004 	ldr	x4, [x0]
   8227c:	f9400004 	ldr	x4, [x0]
   82280:	f9400004 	ldr	x4, [x0]
   82284:	f9400004 	ldr	x4, [x0]
   82288:	f9400004 	ldr	x4, [x0]
   8228c:	f9400004 	ldr	x4, [x0]
   82290:	f9400004 	ldr	x4, [x0]
   82294:	f9400004 	ldr	x4, [x0]
   82298:	f9400004 	ldr	x4, [x0]
   8229c:	f9400004 	ldr	x4, [x0]
   822a0:	f9400004 	ldr	x4, [x0]
   822a4:	f9400004 	ldr	x4, [x0]
   822a8:	f9400004 	ldr	x4, [x0]
   822ac:	f9400004 	ldr	x4, [x0]
   822b0:	f9400004 	ldr	x4, [x0]
   822b4:	f9400004 	ldr	x4, [x0]
   822b8:	f9400004 	ldr	x4, [x0]
   822bc:	f9400004 	ldr	x4, [x0]
   822c0:	f9400004 	ldr	x4, [x0]
   822c4:	f9400004 	ldr	x4, [x0]
   822c8:	f9400004 	ldr	x4, [x0]
   822cc:	f9400004 	ldr	x4, [x0]
   822d0:	f9400004 	ldr	x4, [x0]
   822d4:	f9400004 	ldr	x4, [x0]
   822d8:	f9400004 	ldr	x4, [x0]
   822dc:	f9400004 	ldr	x4, [x0]
   822e0:	f9400004 	ldr	x4, [x0]
   822e4:	f9400004 	ldr	x4, [x0]
   822e8:	f9400004 	ldr	x4, [x0]
   822ec:	f9400004 	ldr	x4, [x0]
   822f0:	f9400004 	ldr	x4, [x0]
   822f4:	f9400004 	ldr	x4, [x0]
   822f8:	f9400004 	ldr	x4, [x0]
   822fc:	f9400004 	ldr	x4, [x0]
   82300:	f9400004 	ldr	x4, [x0]
   82304:	f9400004 	ldr	x4, [x0]
   82308:	f9400004 	ldr	x4, [x0]
   8230c:	f9400004 	ldr	x4, [x0]
   82310:	f9400004 	ldr	x4, [x0]
   82314:	f9400004 	ldr	x4, [x0]
   82318:	f9400004 	ldr	x4, [x0]
   8231c:	f9400004 	ldr	x4, [x0]
   82320:	f9400004 	ldr	x4, [x0]
   82324:	f9400004 	ldr	x4, [x0]
   82328:	f9400004 	ldr	x4, [x0]
   8232c:	f9400004 	ldr	x4, [x0]
   82330:	f9400004 	ldr	x4, [x0]
   82334:	f9400004 	ldr	x4, [x0]
   82338:	f9400004 	ldr	x4, [x0]
   8233c:	f9400004 	ldr	x4, [x0]
   82340:	f9400004 	ldr	x4, [x0]
   82344:	f9400004 	ldr	x4, [x0]
   82348:	f9400004 	ldr	x4, [x0]
   8234c:	f9400004 	ldr	x4, [x0]
   82350:	f9400004 	ldr	x4, [x0]
   82354:	f9400004 	ldr	x4, [x0]
   82358:	f9400004 	ldr	x4, [x0]
   8235c:	f9400004 	ldr	x4, [x0]
   82360:	f9400004 	ldr	x4, [x0]
   82364:	f9400004 	ldr	x4, [x0]
   82368:	f9400004 	ldr	x4, [x0]
   8236c:	f9400004 	ldr	x4, [x0]
   82370:	f9400004 	ldr	x4, [x0]
   82374:	f9400004 	ldr	x4, [x0]
   82378:	f9400004 	ldr	x4, [x0]
   8237c:	f9400004 	ldr	x4, [x0]
   82380:	f9400004 	ldr	x4, [x0]
   82384:	f9400004 	ldr	x4, [x0]
   82388:	f9400004 	ldr	x4, [x0]
   8238c:	f9400004 	ldr	x4, [x0]
   82390:	f9400004 	ldr	x4, [x0]
   82394:	f9400004 	ldr	x4, [x0]
   82398:	f9400004 	ldr	x4, [x0]
   8239c:	f9400004 	ldr	x4, [x0]
   823a0:	f9400004 	ldr	x4, [x0]
   823a4:	f9400004 	ldr	x4, [x0]
   823a8:	f9400004 	ldr	x4, [x0]
   823ac:	f9400004 	ldr	x4, [x0]
   823b0:	f9400004 	ldr	x4, [x0]
   823b4:	f9400004 	ldr	x4, [x0]
   823b8:	f9400004 	ldr	x4, [x0]
   823bc:	f9400004 	ldr	x4, [x0]
   823c0:	f9400004 	ldr	x4, [x0]
   823c4:	f9400004 	ldr	x4, [x0]
   823c8:	f9400004 	ldr	x4, [x0]
   823cc:	f9400004 	ldr	x4, [x0]
   823d0:	f9400004 	ldr	x4, [x0]
   823d4:	f9400004 	ldr	x4, [x0]
   823d8:	f9400004 	ldr	x4, [x0]
   823dc:	f9400004 	ldr	x4, [x0]
   823e0:	f9400004 	ldr	x4, [x0]
   823e4:	f9400004 	ldr	x4, [x0]
   823e8:	f9400004 	ldr	x4, [x0]
   823ec:	f9400004 	ldr	x4, [x0]
   823f0:	97fffef5 	bl	81fc4 <get_cycle_counter>
   823f4:	f9000be0 	str	x0, [sp, #16]
   823f8:	f9400be1 	ldr	x1, [sp, #16]
   823fc:	f9400fe0 	ldr	x0, [sp, #24]
   82400:	cb000020 	sub	x0, x1, x0
   82404:	aa0003e1 	mov	x1, x0
   82408:	b0000080 	adrp	x0, 93000 <_malloc_r+0x348>
   8240c:	9136e000 	add	x0, x0, #0xdb8
   82410:	94001171 	bl	869d4 <printf>
   82414:	17ffff1e 	b	8208c <memory_access_benchmark+0x10>

0000000000082418 <benchmark>:
   82418:	d2875a10 	mov	x16, #0x3ad0                	// #15056
   8241c:	cb3063ff 	sub	sp, sp, x16
   82420:	f90003fe 	str	x30, [sp]
   82424:	b0000080 	adrp	x0, 93000 <_malloc_r+0x348>
   82428:	91364000 	add	x0, x0, #0xd90
   8242c:	9400116a 	bl	869d4 <printf>
   82430:	b93acfff 	str	wzr, [sp, #15052]
   82434:	14000015 	b	82488 <benchmark+0x70>
   82438:	b97acfe0 	ldr	w0, [sp, #15052]
   8243c:	12001c02 	and	w2, w0, #0xff
   82440:	b9bacfe0 	ldrsw	x0, [sp, #15052]
   82444:	91400be1 	add	x1, sp, #0x2, lsl #12
   82448:	911c8021 	add	x1, x1, #0x720
   8244c:	38206822 	strb	w2, [x1, x0]
   82450:	b97acfe0 	ldr	w0, [sp, #15052]
   82454:	12001c00 	and	w0, w0, #0xff
   82458:	531f1800 	ubfiz	w0, w0, #1, #7
   8245c:	12001c02 	and	w2, w0, #0xff
   82460:	b9bacfe0 	ldrsw	x0, [sp, #15052]
   82464:	914007e1 	add	x1, sp, #0x1, lsl #12
   82468:	910e6021 	add	x1, x1, #0x398
   8246c:	38206822 	strb	w2, [x1, x0]
   82470:	b9bacfe0 	ldrsw	x0, [sp, #15052]
   82474:	910043e1 	add	x1, sp, #0x10
   82478:	3820683f 	strb	wzr, [x1, x0]
   8247c:	b97acfe0 	ldr	w0, [sp, #15052]
   82480:	11000400 	add	w0, w0, #0x1
   82484:	b93acfe0 	str	w0, [sp, #15052]
   82488:	b97acfe1 	ldr	w1, [sp, #15052]
   8248c:	528270e0 	mov	w0, #0x1387                	// #4999
   82490:	6b00003f 	cmp	w1, w0
   82494:	54fffd2d 	b.le	82438 <benchmark+0x20>
   82498:	97fffec0 	bl	81f98 <reset_cycle_counter>
   8249c:	97fffeca 	bl	81fc4 <get_cycle_counter>
   824a0:	f91d63e0 	str	x0, [sp, #15040]
   824a4:	52800020 	mov	w0, #0x1                   	// #1
   824a8:	b93acfe0 	str	w0, [sp, #15052]
   824ac:	14000018 	b	8250c <benchmark+0xf4>
   824b0:	b9bacfe0 	ldrsw	x0, [sp, #15052]
   824b4:	91400be1 	add	x1, sp, #0x2, lsl #12
   824b8:	911c8021 	add	x1, x1, #0x720
   824bc:	38606821 	ldrb	w1, [x1, x0]
   824c0:	b9bacfe0 	ldrsw	x0, [sp, #15052]
   824c4:	914007e2 	add	x2, sp, #0x1, lsl #12
   824c8:	910e6042 	add	x2, x2, #0x398
   824cc:	38606840 	ldrb	w0, [x2, x0]
   824d0:	0b000020 	add	w0, w1, w0
   824d4:	12001c01 	and	w1, w0, #0xff
   824d8:	b97acfe0 	ldr	w0, [sp, #15052]
   824dc:	51000400 	sub	w0, w0, #0x1
   824e0:	93407c00 	sxtw	x0, w0
   824e4:	910043e2 	add	x2, sp, #0x10
   824e8:	38606840 	ldrb	w0, [x2, x0]
   824ec:	0b000020 	add	w0, w1, w0
   824f0:	12001c02 	and	w2, w0, #0xff
   824f4:	b9bacfe0 	ldrsw	x0, [sp, #15052]
   824f8:	910043e1 	add	x1, sp, #0x10
   824fc:	38206822 	strb	w2, [x1, x0]
   82500:	b97acfe0 	ldr	w0, [sp, #15052]
   82504:	11000400 	add	w0, w0, #0x1
   82508:	b93acfe0 	str	w0, [sp, #15052]
   8250c:	b97acfe1 	ldr	w1, [sp, #15052]
   82510:	528270e0 	mov	w0, #0x1387                	// #4999
   82514:	6b00003f 	cmp	w1, w0
   82518:	54fffccd 	b.le	824b0 <benchmark+0x98>
   8251c:	97fffeaa 	bl	81fc4 <get_cycle_counter>
   82520:	f91d5fe0 	str	x0, [sp, #15032]
   82524:	f95d5fe1 	ldr	x1, [sp, #15032]
   82528:	f95d63e0 	ldr	x0, [sp, #15040]
   8252c:	cb000020 	sub	x0, x1, x0
   82530:	aa0003e1 	mov	x1, x0
   82534:	b0000080 	adrp	x0, 93000 <_malloc_r+0x348>
   82538:	91374000 	add	x0, x0, #0xdd0
   8253c:	94001126 	bl	869d4 <printf>
   82540:	914007e0 	add	x0, sp, #0x1, lsl #12
   82544:	394e5c00 	ldrb	w0, [x0, #919]
   82548:	2a0003e1 	mov	w1, w0
   8254c:	b0000080 	adrp	x0, 93000 <_malloc_r+0x348>
   82550:	91378000 	add	x0, x0, #0xde0
   82554:	94001120 	bl	869d4 <printf>
   82558:	b93acfff 	str	wzr, [sp, #15052]
   8255c:	14000007 	b	82578 <benchmark+0x160>
   82560:	b9bacfe0 	ldrsw	x0, [sp, #15052]
   82564:	910043e1 	add	x1, sp, #0x10
   82568:	3820683f 	strb	wzr, [x1, x0]
   8256c:	b97acfe0 	ldr	w0, [sp, #15052]
   82570:	11000400 	add	w0, w0, #0x1
   82574:	b93acfe0 	str	w0, [sp, #15052]
   82578:	b97acfe1 	ldr	w1, [sp, #15052]
   8257c:	528270e0 	mov	w0, #0x1387                	// #4999
   82580:	6b00003f 	cmp	w1, w0
   82584:	54fffeed 	b.le	82560 <benchmark+0x148>
   82588:	94001712 	bl	881d0 <timer_getTickCount64>
   8258c:	f91d5be0 	str	x0, [sp, #15024]
   82590:	52800020 	mov	w0, #0x1                   	// #1
   82594:	b93acfe0 	str	w0, [sp, #15052]
   82598:	14000018 	b	825f8 <benchmark+0x1e0>
   8259c:	b9bacfe0 	ldrsw	x0, [sp, #15052]
   825a0:	91400be1 	add	x1, sp, #0x2, lsl #12
   825a4:	911c8021 	add	x1, x1, #0x720
   825a8:	38606821 	ldrb	w1, [x1, x0]
   825ac:	b9bacfe0 	ldrsw	x0, [sp, #15052]
   825b0:	914007e2 	add	x2, sp, #0x1, lsl #12
   825b4:	910e6042 	add	x2, x2, #0x398
   825b8:	38606840 	ldrb	w0, [x2, x0]
   825bc:	0b000020 	add	w0, w1, w0
   825c0:	12001c01 	and	w1, w0, #0xff
   825c4:	b97acfe0 	ldr	w0, [sp, #15052]
   825c8:	51000400 	sub	w0, w0, #0x1
   825cc:	93407c00 	sxtw	x0, w0
   825d0:	910043e2 	add	x2, sp, #0x10
   825d4:	38606840 	ldrb	w0, [x2, x0]
   825d8:	0b000020 	add	w0, w1, w0
   825dc:	12001c02 	and	w2, w0, #0xff
   825e0:	b9bacfe0 	ldrsw	x0, [sp, #15052]
   825e4:	910043e1 	add	x1, sp, #0x10
   825e8:	38206822 	strb	w2, [x1, x0]
   825ec:	b97acfe0 	ldr	w0, [sp, #15052]
   825f0:	11000400 	add	w0, w0, #0x1
   825f4:	b93acfe0 	str	w0, [sp, #15052]
   825f8:	b97acfe1 	ldr	w1, [sp, #15052]
   825fc:	528270e0 	mov	w0, #0x1387                	// #4999
   82600:	6b00003f 	cmp	w1, w0
   82604:	54fffccd 	b.le	8259c <benchmark+0x184>
   82608:	940016f2 	bl	881d0 <timer_getTickCount64>
   8260c:	f91d57e0 	str	x0, [sp, #15016]
   82610:	f95d57e1 	ldr	x1, [sp, #15016]
   82614:	f95d5be0 	ldr	x0, [sp, #15024]
   82618:	cb000020 	sub	x0, x1, x0
   8261c:	aa0003e1 	mov	x1, x0
   82620:	b0000080 	adrp	x0, 93000 <_malloc_r+0x348>
   82624:	9137a000 	add	x0, x0, #0xde8
   82628:	940010eb 	bl	869d4 <printf>
   8262c:	914007e0 	add	x0, sp, #0x1, lsl #12
   82630:	394e5c00 	ldrb	w0, [x0, #919]
   82634:	2a0003e1 	mov	w1, w0
   82638:	b0000080 	adrp	x0, 93000 <_malloc_r+0x348>
   8263c:	91378000 	add	x0, x0, #0xde0
   82640:	940010e5 	bl	869d4 <printf>
   82644:	17ffff7b 	b	82430 <benchmark+0x18>

0000000000082648 <full_init>:
   82648:	f81f0ffe 	str	x30, [sp, #-16]!
   8264c:	94001362 	bl	873d4 <init_page_table>
   82650:	d00000a0 	adrp	x0, 98000 <table_loaded>
   82654:	91000000 	add	x0, x0, #0x0
   82658:	52800021 	mov	w1, #0x1                   	// #1
   8265c:	b9000001 	str	w1, [x0]
   82660:	9400149e 	bl	878d8 <mmu_init>
   82664:	d00000a0 	adrp	x0, 98000 <table_loaded>
   82668:	91000000 	add	x0, x0, #0x0
   8266c:	97fff889 	bl	80890 <semaphore_inc>
   82670:	b0000080 	adrp	x0, 93000 <_malloc_r+0x348>
   82674:	9137e000 	add	x0, x0, #0xdf8
   82678:	940010d7 	bl	869d4 <printf>
   8267c:	b0000020 	adrp	x0, 87000 <BENCHTEST_snprintf+0x16c>
   82680:	91236001 	add	x1, x0, #0x8d8
   82684:	52800020 	mov	w0, #0x1                   	// #1
   82688:	97fff871 	bl	8084c <CoreExecute>
   8268c:	d00000a0 	adrp	x0, 98000 <table_loaded>
   82690:	91000000 	add	x0, x0, #0x0
   82694:	97fff87f 	bl	80890 <semaphore_inc>
   82698:	b0000080 	adrp	x0, 93000 <_malloc_r+0x348>
   8269c:	91386000 	add	x0, x0, #0xe18
   826a0:	940010cd 	bl	869d4 <printf>
   826a4:	b0000020 	adrp	x0, 87000 <BENCHTEST_snprintf+0x16c>
   826a8:	91236001 	add	x1, x0, #0x8d8
   826ac:	52800040 	mov	w0, #0x2                   	// #2
   826b0:	97fff867 	bl	8084c <CoreExecute>
   826b4:	d00000a0 	adrp	x0, 98000 <table_loaded>
   826b8:	91000000 	add	x0, x0, #0x0
   826bc:	97fff875 	bl	80890 <semaphore_inc>
   826c0:	b0000080 	adrp	x0, 93000 <_malloc_r+0x348>
   826c4:	9138e000 	add	x0, x0, #0xe38
   826c8:	940010c3 	bl	869d4 <printf>
   826cc:	b0000020 	adrp	x0, 87000 <BENCHTEST_snprintf+0x16c>
   826d0:	91236001 	add	x1, x0, #0x8d8
   826d4:	52800060 	mov	w0, #0x3                   	// #3
   826d8:	97fff85d 	bl	8084c <CoreExecute>
   826dc:	d00000a0 	adrp	x0, 98000 <table_loaded>
   826e0:	91000000 	add	x0, x0, #0x0
   826e4:	97fff86b 	bl	80890 <semaphore_inc>
   826e8:	b0000080 	adrp	x0, 93000 <_malloc_r+0x348>
   826ec:	91396000 	add	x0, x0, #0xe58
   826f0:	940010b9 	bl	869d4 <printf>
   826f4:	d00000a0 	adrp	x0, 98000 <table_loaded>
   826f8:	91000000 	add	x0, x0, #0x0
   826fc:	97fffa41 	bl	81000 <semaphore_dec>
   82700:	d00000a0 	adrp	x0, 98000 <table_loaded>
   82704:	91000000 	add	x0, x0, #0x0
   82708:	97fff862 	bl	80890 <semaphore_inc>
   8270c:	b0000080 	adrp	x0, 93000 <_malloc_r+0x348>
   82710:	913a0000 	add	x0, x0, #0xe80
   82714:	940010b0 	bl	869d4 <printf>
   82718:	d00000a0 	adrp	x0, 98000 <table_loaded>
   8271c:	91000000 	add	x0, x0, #0x0
   82720:	d360fc00 	lsr	x0, x0, #32
   82724:	aa0003e1 	mov	x1, x0
   82728:	d00000a0 	adrp	x0, 98000 <table_loaded>
   8272c:	91000000 	add	x0, x0, #0x0
   82730:	92407c00 	and	x0, x0, #0xffffffff
   82734:	aa0003e2 	mov	x2, x0
   82738:	b0000080 	adrp	x0, 93000 <_malloc_r+0x348>
   8273c:	913b0000 	add	x0, x0, #0xec0
   82740:	940010a5 	bl	869d4 <printf>
   82744:	b00000a0 	adrp	x0, 97000 <__bss_start__>
   82748:	91000000 	add	x0, x0, #0x0
   8274c:	97fff851 	bl	80890 <semaphore_inc>
   82750:	f0ffffe0 	adrp	x0, 81000 <semaphore_dec>
   82754:	913f7001 	add	x1, x0, #0xfdc
   82758:	52800020 	mov	w0, #0x1                   	// #1
   8275c:	97fff83c 	bl	8084c <CoreExecute>
   82760:	b00000a0 	adrp	x0, 97000 <__bss_start__>
   82764:	91000000 	add	x0, x0, #0x0
   82768:	97fff84a 	bl	80890 <semaphore_inc>
   8276c:	f0ffffe0 	adrp	x0, 81000 <semaphore_dec>
   82770:	913f7001 	add	x1, x0, #0xfdc
   82774:	52800040 	mov	w0, #0x2                   	// #2
   82778:	97fff835 	bl	8084c <CoreExecute>
   8277c:	b00000a0 	adrp	x0, 97000 <__bss_start__>
   82780:	91000000 	add	x0, x0, #0x0
   82784:	97fff843 	bl	80890 <semaphore_inc>
   82788:	f0ffffe0 	adrp	x0, 81000 <semaphore_dec>
   8278c:	913f7001 	add	x1, x0, #0xfdc
   82790:	52800060 	mov	w0, #0x3                   	// #3
   82794:	97fff82e 	bl	8084c <CoreExecute>
   82798:	b00000a0 	adrp	x0, 97000 <__bss_start__>
   8279c:	91000000 	add	x0, x0, #0x0
   827a0:	97fff83c 	bl	80890 <semaphore_inc>
   827a4:	d00000a0 	adrp	x0, 98000 <table_loaded>
   827a8:	91000000 	add	x0, x0, #0x0
   827ac:	97fffa15 	bl	81000 <semaphore_dec>
   827b0:	b0000080 	adrp	x0, 93000 <_malloc_r+0x348>
   827b4:	913ba000 	add	x0, x0, #0xee8
   827b8:	94001087 	bl	869d4 <printf>
   827bc:	b00000a0 	adrp	x0, 97000 <__bss_start__>
   827c0:	91000000 	add	x0, x0, #0x0
   827c4:	97fffa0f 	bl	81000 <semaphore_dec>
   827c8:	b00000a0 	adrp	x0, 97000 <__bss_start__>
   827cc:	91000000 	add	x0, x0, #0x0
   827d0:	97fff830 	bl	80890 <semaphore_inc>
   827d4:	f0ffffe0 	adrp	x0, 81000 <semaphore_dec>
   827d8:	913f7001 	add	x1, x0, #0xfdc
   827dc:	52800020 	mov	w0, #0x1                   	// #1
   827e0:	97fff81b 	bl	8084c <CoreExecute>
   827e4:	b00000a0 	adrp	x0, 97000 <__bss_start__>
   827e8:	91000000 	add	x0, x0, #0x0
   827ec:	97fff829 	bl	80890 <semaphore_inc>
   827f0:	f0ffffe0 	adrp	x0, 81000 <semaphore_dec>
   827f4:	913f7001 	add	x1, x0, #0xfdc
   827f8:	52800040 	mov	w0, #0x2                   	// #2
   827fc:	97fff814 	bl	8084c <CoreExecute>
   82800:	b00000a0 	adrp	x0, 97000 <__bss_start__>
   82804:	91000000 	add	x0, x0, #0x0
   82808:	97fff822 	bl	80890 <semaphore_inc>
   8280c:	f0ffffe0 	adrp	x0, 81000 <semaphore_dec>
   82810:	913f7001 	add	x1, x0, #0xfdc
   82814:	52800060 	mov	w0, #0x3                   	// #3
   82818:	97fff80d 	bl	8084c <CoreExecute>
   8281c:	b00000a0 	adrp	x0, 97000 <__bss_start__>
   82820:	91000000 	add	x0, x0, #0x0
   82824:	97fff81b 	bl	80890 <semaphore_inc>
   82828:	b00000a0 	adrp	x0, 97000 <__bss_start__>
   8282c:	91000000 	add	x0, x0, #0x0
   82830:	97fff9f4 	bl	81000 <semaphore_dec>
   82834:	b0000080 	adrp	x0, 93000 <_malloc_r+0x348>
   82838:	913c6000 	add	x0, x0, #0xf18
   8283c:	94001066 	bl	869d4 <printf>
   82840:	b00000a0 	adrp	x0, 97000 <__bss_start__>
   82844:	91001000 	add	x0, x0, #0x4
   82848:	97fff812 	bl	80890 <semaphore_inc>
   8284c:	90000000 	adrp	x0, 82000 <Check_Semaphore+0x24>
   82850:	91008001 	add	x1, x0, #0x20
   82854:	52800020 	mov	w0, #0x1                   	// #1
   82858:	97fff7fd 	bl	8084c <CoreExecute>
   8285c:	90000000 	adrp	x0, 82000 <Check_Semaphore+0x24>
   82860:	91008001 	add	x1, x0, #0x20
   82864:	52800040 	mov	w0, #0x2                   	// #2
   82868:	97fff7f9 	bl	8084c <CoreExecute>
   8286c:	90000000 	adrp	x0, 82000 <Check_Semaphore+0x24>
   82870:	91008001 	add	x1, x0, #0x20
   82874:	52800060 	mov	w0, #0x3                   	// #3
   82878:	97fff7f5 	bl	8084c <CoreExecute>
   8287c:	b0000080 	adrp	x0, 93000 <_malloc_r+0x348>
   82880:	913d0000 	add	x0, x0, #0xf40
   82884:	94001054 	bl	869d4 <printf>
   82888:	b00000a0 	adrp	x0, 97000 <__bss_start__>
   8288c:	91001000 	add	x0, x0, #0x4
   82890:	97fff9dc 	bl	81000 <semaphore_dec>
   82894:	d503201f 	nop
   82898:	b00000a0 	adrp	x0, 97000 <__bss_start__>
   8289c:	91002000 	add	x0, x0, #0x8
   828a0:	b9400000 	ldr	w0, [x0]
   828a4:	71000c1f 	cmp	w0, #0x3
   828a8:	54ffff81 	b.ne	82898 <full_init+0x250>  // b.any
   828ac:	d503201f 	nop
   828b0:	f84107fe 	ldr	x30, [sp], #16
   828b4:	d65f03c0 	ret

00000000000828b8 <main>:
   828b8:	f81f0ffe 	str	x30, [sp, #-16]!
   828bc:	52984000 	mov	w0, #0xc200                	// #49664
   828c0:	72a00020 	movk	w0, #0x1, lsl #16
   828c4:	94001968 	bl	88e64 <pl011_uart_init>
   828c8:	f0000020 	adrp	x0, 89000 <pl011_uart_init+0x19c>
   828cc:	9103f000 	add	x0, x0, #0xfc
   828d0:	94001034 	bl	869a0 <Init_EmbStdio>
   828d4:	90000020 	adrp	x0, 86000 <vsscanf+0x1250>
   828d8:	91275000 	add	x0, x0, #0x9d4
   828dc:	94001858 	bl	88a3c <displaySmartStart>
   828e0:	90000020 	adrp	x0, 86000 <vsscanf+0x1250>
   828e4:	91275000 	add	x0, x0, #0x9d4
   828e8:	94001829 	bl	8898c <ARM_setmaxspeed>
   828ec:	97ffff57 	bl	82648 <full_init>
   828f0:	b0000080 	adrp	x0, 93000 <_malloc_r+0x348>
   828f4:	913d8000 	add	x0, x0, #0xf60
   828f8:	94001037 	bl	869d4 <printf>
   828fc:	97fffde0 	bl	8207c <memory_access_benchmark>
   82900:	d503201f 	nop
   82904:	f84107fe 	ldr	x30, [sp], #16
   82908:	d65f03c0 	ret

000000000008290c <cvt>:
   8290c:	f81a0ffe 	str	x30, [sp, #-96]!
   82910:	fd0017e0 	str	d0, [sp, #40]
   82914:	f90013e0 	str	x0, [sp, #32]
   82918:	f9000fe1 	str	x1, [sp, #24]
   8291c:	b90017e2 	str	w2, [sp, #20]
   82920:	b94017e0 	ldr	w0, [sp, #20]
   82924:	7102001f 	cmp	w0, #0x80
   82928:	5400006d 	b.le	82934 <cvt+0x28>
   8292c:	52801000 	mov	w0, #0x80                  	// #128
   82930:	b90017e0 	str	w0, [sp, #20]
   82934:	b9005fff 	str	wzr, [sp, #92]
   82938:	f94013e0 	ldr	x0, [sp, #32]
   8293c:	39400401 	ldrb	w1, [x0, #1]
   82940:	12197821 	and	w1, w1, #0xffffffbf
   82944:	39000401 	strb	w1, [x0, #1]
   82948:	f9400fe0 	ldr	x0, [sp, #24]
   8294c:	f9002be0 	str	x0, [sp, #80]
   82950:	fd4017e0 	ldr	d0, [sp, #40]
   82954:	1e602018 	fcmpe	d0, #0.0
   82958:	54000105 	b.pl	82978 <cvt+0x6c>  // b.nfrst
   8295c:	f94013e0 	ldr	x0, [sp, #32]
   82960:	39400401 	ldrb	w1, [x0, #1]
   82964:	321a0021 	orr	w1, w1, #0x40
   82968:	39000401 	strb	w1, [x0, #1]
   8296c:	fd4017e0 	ldr	d0, [sp, #40]
   82970:	1e614000 	fneg	d0, d0
   82974:	fd0017e0 	str	d0, [sp, #40]
   82978:	910103e0 	add	x0, sp, #0x40
   8297c:	fd4017e0 	ldr	d0, [sp, #40]
   82980:	94002886 	bl	8cb98 <modf>
   82984:	fd0017e0 	str	d0, [sp, #40]
   82988:	b98017e0 	ldrsw	x0, [sp, #20]
   8298c:	f9400fe1 	ldr	x1, [sp, #24]
   82990:	8b000020 	add	x0, x1, x0
   82994:	f90027e0 	str	x0, [sp, #72]
   82998:	fd4023e0 	ldr	d0, [sp, #64]
   8299c:	1e602008 	fcmp	d0, #0.0
   829a0:	54000780 	b.eq	82a90 <cvt+0x184>  // b.none
   829a4:	b98017e0 	ldrsw	x0, [sp, #20]
   829a8:	f9400fe1 	ldr	x1, [sp, #24]
   829ac:	8b000020 	add	x0, x1, x0
   829b0:	f90027e0 	str	x0, [sp, #72]
   829b4:	14000024 	b	82a44 <cvt+0x138>
   829b8:	fd4023e1 	ldr	d1, [sp, #64]
   829bc:	1e649000 	fmov	d0, #1.000000000000000000e+01
   829c0:	1e601820 	fdiv	d0, d1, d0
   829c4:	910103e0 	add	x0, sp, #0x40
   829c8:	94002874 	bl	8cb98 <modf>
   829cc:	fd001fe0 	str	d0, [sp, #56]
   829d0:	fd401fe0 	ldr	d0, [sp, #56]
   829d4:	d0000080 	adrp	x0, 94000 <digits+0x70>
   829d8:	fd425c01 	ldr	d1, [x0, #1208]
   829dc:	1e612801 	fadd	d1, d0, d1
   829e0:	1e649000 	fmov	d0, #1.000000000000000000e+01
   829e4:	1e600820 	fmul	d0, d1, d0
   829e8:	1e780000 	fcvtzs	w0, d0
   829ec:	12001c00 	and	w0, w0, #0xff
   829f0:	f94027e1 	ldr	x1, [sp, #72]
   829f4:	d1000421 	sub	x1, x1, #0x1
   829f8:	f90027e1 	str	x1, [sp, #72]
   829fc:	1100c000 	add	w0, w0, #0x30
   82a00:	12001c01 	and	w1, w0, #0xff
   82a04:	f94027e0 	ldr	x0, [sp, #72]
   82a08:	39000001 	strb	w1, [x0]
   82a0c:	b9405fe0 	ldr	w0, [sp, #92]
   82a10:	11000400 	add	w0, w0, #0x1
   82a14:	b9005fe0 	str	w0, [sp, #92]
   82a18:	f94013e0 	ldr	x0, [sp, #32]
   82a1c:	39400000 	ldrb	w0, [x0]
   82a20:	d3401800 	ubfx	x0, x0, #0, #7
   82a24:	12001c00 	and	w0, w0, #0xff
   82a28:	11000400 	add	w0, w0, #0x1
   82a2c:	12001800 	and	w0, w0, #0x7f
   82a30:	12001c02 	and	w2, w0, #0xff
   82a34:	f94013e1 	ldr	x1, [sp, #32]
   82a38:	39400020 	ldrb	w0, [x1]
   82a3c:	33001840 	bfxil	w0, w2, #0, #7
   82a40:	39000020 	strb	w0, [x1]
   82a44:	fd4023e0 	ldr	d0, [sp, #64]
   82a48:	1e602008 	fcmp	d0, #0.0
   82a4c:	54fffb61 	b.ne	829b8 <cvt+0xac>  // b.any
   82a50:	14000009 	b	82a74 <cvt+0x168>
   82a54:	f94027e1 	ldr	x1, [sp, #72]
   82a58:	91000420 	add	x0, x1, #0x1
   82a5c:	f90027e0 	str	x0, [sp, #72]
   82a60:	f9402be0 	ldr	x0, [sp, #80]
   82a64:	91000402 	add	x2, x0, #0x1
   82a68:	f9002be2 	str	x2, [sp, #80]
   82a6c:	39400021 	ldrb	w1, [x1]
   82a70:	39000001 	strb	w1, [x0]
   82a74:	b98017e0 	ldrsw	x0, [sp, #20]
   82a78:	f9400fe1 	ldr	x1, [sp, #24]
   82a7c:	8b000020 	add	x0, x1, x0
   82a80:	f94027e1 	ldr	x1, [sp, #72]
   82a84:	eb00003f 	cmp	x1, x0
   82a88:	54fffe63 	b.cc	82a54 <cvt+0x148>  // b.lo, b.ul, b.last
   82a8c:	14000012 	b	82ad4 <cvt+0x1c8>
   82a90:	fd4017e0 	ldr	d0, [sp, #40]
   82a94:	1e602018 	fcmpe	d0, #0.0
   82a98:	540001ed 	b.le	82ad4 <cvt+0x1c8>
   82a9c:	14000006 	b	82ab4 <cvt+0x1a8>
   82aa0:	f9401fe0 	ldr	x0, [sp, #56]
   82aa4:	f90017e0 	str	x0, [sp, #40]
   82aa8:	b9405fe0 	ldr	w0, [sp, #92]
   82aac:	51000400 	sub	w0, w0, #0x1
   82ab0:	b9005fe0 	str	w0, [sp, #92]
   82ab4:	fd4017e1 	ldr	d1, [sp, #40]
   82ab8:	1e649000 	fmov	d0, #1.000000000000000000e+01
   82abc:	1e600820 	fmul	d0, d1, d0
   82ac0:	fd001fe0 	str	d0, [sp, #56]
   82ac4:	fd401fe1 	ldr	d1, [sp, #56]
   82ac8:	1e6e1000 	fmov	d0, #1.000000000000000000e+00
   82acc:	1e602030 	fcmpe	d1, d0
   82ad0:	54fffe84 	b.mi	82aa0 <cvt+0x194>  // b.first
   82ad4:	b98017e0 	ldrsw	x0, [sp, #20]
   82ad8:	d1000800 	sub	x0, x0, #0x2
   82adc:	f9400fe1 	ldr	x1, [sp, #24]
   82ae0:	8b000020 	add	x0, x1, x0
   82ae4:	f90027e0 	str	x0, [sp, #72]
   82ae8:	f94013e0 	ldr	x0, [sp, #32]
   82aec:	39400400 	ldrb	w0, [x0, #1]
   82af0:	12196000 	and	w0, w0, #0xffffff80
   82af4:	12001c00 	and	w0, w0, #0xff
   82af8:	7100001f 	cmp	w0, #0x0
   82afc:	540000a1 	b.ne	82b10 <cvt+0x204>  // b.any
   82b00:	b9805fe0 	ldrsw	x0, [sp, #92]
   82b04:	f94027e1 	ldr	x1, [sp, #72]
   82b08:	8b000020 	add	x0, x1, x0
   82b0c:	f90027e0 	str	x0, [sp, #72]
   82b10:	b9405fe0 	ldr	w0, [sp, #92]
   82b14:	12001800 	and	w0, w0, #0x7f
   82b18:	12001c02 	and	w2, w0, #0xff
   82b1c:	f94013e1 	ldr	x1, [sp, #32]
   82b20:	79400020 	ldrh	w0, [x1]
   82b24:	33191840 	bfi	w0, w2, #7, #7
   82b28:	79000020 	strh	w0, [x1]
   82b2c:	f94027e1 	ldr	x1, [sp, #72]
   82b30:	f9400fe0 	ldr	x0, [sp, #24]
   82b34:	eb00003f 	cmp	x1, x0
   82b38:	54000422 	b.cs	82bbc <cvt+0x2b0>  // b.hs, b.nlast
   82b3c:	f9400fe0 	ldr	x0, [sp, #24]
   82b40:	3900001f 	strb	wzr, [x0]
   82b44:	f9400fe0 	ldr	x0, [sp, #24]
   82b48:	1400002f 	b	82c04 <cvt+0x2f8>
   82b4c:	fd4017e1 	ldr	d1, [sp, #40]
   82b50:	1e649000 	fmov	d0, #1.000000000000000000e+01
   82b54:	1e600820 	fmul	d0, d1, d0
   82b58:	fd0017e0 	str	d0, [sp, #40]
   82b5c:	9100e3e0 	add	x0, sp, #0x38
   82b60:	fd4017e0 	ldr	d0, [sp, #40]
   82b64:	9400280d 	bl	8cb98 <modf>
   82b68:	fd0017e0 	str	d0, [sp, #40]
   82b6c:	fd401fe0 	ldr	d0, [sp, #56]
   82b70:	1e780000 	fcvtzs	w0, d0
   82b74:	12001c01 	and	w1, w0, #0xff
   82b78:	f9402be0 	ldr	x0, [sp, #80]
   82b7c:	91000402 	add	x2, x0, #0x1
   82b80:	f9002be2 	str	x2, [sp, #80]
   82b84:	1100c021 	add	w1, w1, #0x30
   82b88:	12001c21 	and	w1, w1, #0xff
   82b8c:	39000001 	strb	w1, [x0]
   82b90:	f94013e0 	ldr	x0, [sp, #32]
   82b94:	39400000 	ldrb	w0, [x0]
   82b98:	d3401800 	ubfx	x0, x0, #0, #7
   82b9c:	12001c00 	and	w0, w0, #0xff
   82ba0:	11000400 	add	w0, w0, #0x1
   82ba4:	12001800 	and	w0, w0, #0x7f
   82ba8:	12001c02 	and	w2, w0, #0xff
   82bac:	f94013e1 	ldr	x1, [sp, #32]
   82bb0:	39400020 	ldrb	w0, [x1]
   82bb4:	33001840 	bfxil	w0, w2, #0, #7
   82bb8:	39000020 	strb	w0, [x1]
   82bbc:	f9402be1 	ldr	x1, [sp, #80]
   82bc0:	f94027e0 	ldr	x0, [sp, #72]
   82bc4:	eb00003f 	cmp	x1, x0
   82bc8:	54000188 	b.hi	82bf8 <cvt+0x2ec>  // b.pmore
   82bcc:	b98017e0 	ldrsw	x0, [sp, #20]
   82bd0:	f9400fe1 	ldr	x1, [sp, #24]
   82bd4:	8b000020 	add	x0, x1, x0
   82bd8:	f9402be1 	ldr	x1, [sp, #80]
   82bdc:	eb00003f 	cmp	x1, x0
   82be0:	540000c2 	b.cs	82bf8 <cvt+0x2ec>  // b.hs, b.nlast
   82be4:	fd4017e0 	ldr	d0, [sp, #40]
   82be8:	d2e79600 	mov	x0, #0x3cb0000000000000    	// #4372995238176751616
   82bec:	9e670001 	fmov	d1, x0
   82bf0:	1e612010 	fcmpe	d0, d1
   82bf4:	54fffacc 	b.gt	82b4c <cvt+0x240>
   82bf8:	f9402be0 	ldr	x0, [sp, #80]
   82bfc:	3900001f 	strb	wzr, [x0]
   82c00:	f9400fe0 	ldr	x0, [sp, #24]
   82c04:	f84607fe 	ldr	x30, [sp], #96
   82c08:	d65f03c0 	ret

0000000000082c0c <NumStr>:
   82c0c:	d104c3ff 	sub	sp, sp, #0x130
   82c10:	f90003fe 	str	x30, [sp]
   82c14:	f9000fe0 	str	x0, [sp, #24]
   82c18:	fd000be0 	str	d0, [sp, #16]
   82c1c:	b9012fff 	str	wzr, [sp, #300]
   82c20:	b90123ff 	str	wzr, [sp, #288]
   82c24:	f9400fe0 	ldr	x0, [sp, #24]
   82c28:	f100001f 	cmp	x0, #0x0
   82c2c:	54000061 	b.ne	82c38 <NumStr+0x2c>  // b.any
   82c30:	52800000 	mov	w0, #0x0                   	// #0
   82c34:	14000057 	b	82d90 <NumStr+0x184>
   82c38:	910083e1 	add	x1, sp, #0x20
   82c3c:	910483e0 	add	x0, sp, #0x120
   82c40:	52802002 	mov	w2, #0x100                 	// #256
   82c44:	fd400be0 	ldr	d0, [sp, #16]
   82c48:	97ffff31 	bl	8290c <cvt>
   82c4c:	394487e0 	ldrb	w0, [sp, #289]
   82c50:	121a0000 	and	w0, w0, #0x40
   82c54:	12001c00 	and	w0, w0, #0xff
   82c58:	7100001f 	cmp	w0, #0x0
   82c5c:	540000e0 	b.eq	82c78 <NumStr+0x6c>  // b.none
   82c60:	f9400fe1 	ldr	x1, [sp, #24]
   82c64:	528005a0 	mov	w0, #0x2d                  	// #45
   82c68:	d63f0020 	blr	x1
   82c6c:	b9412fe0 	ldr	w0, [sp, #300]
   82c70:	11000400 	add	w0, w0, #0x1
   82c74:	b9012fe0 	str	w0, [sp, #300]
   82c78:	794243e0 	ldrh	w0, [sp, #288]
   82c7c:	12191800 	and	w0, w0, #0x3f80
   82c80:	12003c00 	and	w0, w0, #0xffff
   82c84:	7100001f 	cmp	w0, #0x0
   82c88:	54000101 	b.ne	82ca8 <NumStr+0x9c>  // b.any
   82c8c:	f9400fe1 	ldr	x1, [sp, #24]
   82c90:	52800600 	mov	w0, #0x30                  	// #48
   82c94:	d63f0020 	blr	x1
   82c98:	b9412fe0 	ldr	w0, [sp, #300]
   82c9c:	11000400 	add	w0, w0, #0x1
   82ca0:	b9012fe0 	str	w0, [sp, #300]
   82ca4:	14000015 	b	82cf8 <NumStr+0xec>
   82ca8:	b9012bff 	str	wzr, [sp, #296]
   82cac:	1400000c 	b	82cdc <NumStr+0xd0>
   82cb0:	b9412be0 	ldr	w0, [sp, #296]
   82cb4:	910083e1 	add	x1, sp, #0x20
   82cb8:	38606820 	ldrb	w0, [x1, x0]
   82cbc:	f9400fe1 	ldr	x1, [sp, #24]
   82cc0:	d63f0020 	blr	x1
   82cc4:	b9412fe0 	ldr	w0, [sp, #300]
   82cc8:	11000400 	add	w0, w0, #0x1
   82ccc:	b9012fe0 	str	w0, [sp, #300]
   82cd0:	b9412be0 	ldr	w0, [sp, #296]
   82cd4:	11000400 	add	w0, w0, #0x1
   82cd8:	b9012be0 	str	w0, [sp, #296]
   82cdc:	794243e0 	ldrh	w0, [sp, #288]
   82ce0:	d3473400 	ubfx	x0, x0, #7, #7
   82ce4:	12001c00 	and	w0, w0, #0xff
   82ce8:	2a0003e1 	mov	w1, w0
   82cec:	b9412be0 	ldr	w0, [sp, #296]
   82cf0:	6b01001f 	cmp	w0, w1
   82cf4:	54fffde3 	b.cc	82cb0 <NumStr+0xa4>  // b.lo, b.ul, b.last
   82cf8:	794243e0 	ldrh	w0, [sp, #288]
   82cfc:	12191800 	and	w0, w0, #0x3f80
   82d00:	12003c00 	and	w0, w0, #0xffff
   82d04:	7100001f 	cmp	w0, #0x0
   82d08:	540003c0 	b.eq	82d80 <NumStr+0x174>  // b.none
   82d0c:	f9400fe1 	ldr	x1, [sp, #24]
   82d10:	528005c0 	mov	w0, #0x2e                  	// #46
   82d14:	d63f0020 	blr	x1
   82d18:	b9412fe0 	ldr	w0, [sp, #300]
   82d1c:	11000400 	add	w0, w0, #0x1
   82d20:	b9012fe0 	str	w0, [sp, #300]
   82d24:	794243e0 	ldrh	w0, [sp, #288]
   82d28:	d3473400 	ubfx	x0, x0, #7, #7
   82d2c:	12001c00 	and	w0, w0, #0xff
   82d30:	b90127e0 	str	w0, [sp, #292]
   82d34:	1400000c 	b	82d64 <NumStr+0x158>
   82d38:	b94127e0 	ldr	w0, [sp, #292]
   82d3c:	910083e1 	add	x1, sp, #0x20
   82d40:	38606820 	ldrb	w0, [x1, x0]
   82d44:	f9400fe1 	ldr	x1, [sp, #24]
   82d48:	d63f0020 	blr	x1
   82d4c:	b9412fe0 	ldr	w0, [sp, #300]
   82d50:	11000400 	add	w0, w0, #0x1
   82d54:	b9012fe0 	str	w0, [sp, #300]
   82d58:	b94127e0 	ldr	w0, [sp, #292]
   82d5c:	11000400 	add	w0, w0, #0x1
   82d60:	b90127e0 	str	w0, [sp, #292]
   82d64:	394483e0 	ldrb	w0, [sp, #288]
   82d68:	d3401800 	ubfx	x0, x0, #0, #7
   82d6c:	12001c00 	and	w0, w0, #0xff
   82d70:	2a0003e1 	mov	w1, w0
   82d74:	b94127e0 	ldr	w0, [sp, #292]
   82d78:	6b01001f 	cmp	w0, w1
   82d7c:	54fffde3 	b.cc	82d38 <NumStr+0x12c>  // b.lo, b.ul, b.last
   82d80:	f9400fe1 	ldr	x1, [sp, #24]
   82d84:	52800000 	mov	w0, #0x0                   	// #0
   82d88:	d63f0020 	blr	x1
   82d8c:	b9412fe0 	ldr	w0, [sp, #300]
   82d90:	f94003fe 	ldr	x30, [sp]
   82d94:	9104c3ff 	add	sp, sp, #0x130
   82d98:	d65f03c0 	ret

0000000000082d9c <cvt_int>:
   82d9c:	f81a0ffe 	str	x30, [sp, #-96]!
   82da0:	f9000fe0 	str	x0, [sp, #24]
   82da4:	b90017e1 	str	w1, [sp, #20]
   82da8:	b90013e2 	str	w2, [sp, #16]
   82dac:	b9005bff 	str	wzr, [sp, #88]
   82db0:	39015fff 	strb	wzr, [sp, #87]
   82db4:	394043e0 	ldrb	w0, [sp, #16]
   82db8:	121c0000 	and	w0, w0, #0x10
   82dbc:	12001c00 	and	w0, w0, #0xff
   82dc0:	7100001f 	cmp	w0, #0x0
   82dc4:	54000080 	b.eq	82dd4 <cvt_int+0x38>  // b.none
   82dc8:	394043e0 	ldrb	w0, [sp, #16]
   82dcc:	121f7800 	and	w0, w0, #0xfffffffe
   82dd0:	390043e0 	strb	w0, [sp, #16]
   82dd4:	394047e0 	ldrb	w0, [sp, #17]
   82dd8:	12001000 	and	w0, w0, #0x1f
   82ddc:	12001c00 	and	w0, w0, #0xff
   82de0:	7100081f 	cmp	w0, #0x2
   82de4:	540001e0 	b.eq	82e20 <cvt_int+0x84>  // b.none
   82de8:	394047e0 	ldrb	w0, [sp, #17]
   82dec:	12001000 	and	w0, w0, #0x1f
   82df0:	12001c00 	and	w0, w0, #0xff
   82df4:	7100201f 	cmp	w0, #0x8
   82df8:	54000140 	b.eq	82e20 <cvt_int+0x84>  // b.none
   82dfc:	394047e0 	ldrb	w0, [sp, #17]
   82e00:	12001000 	and	w0, w0, #0x1f
   82e04:	12001c00 	and	w0, w0, #0xff
   82e08:	7100401f 	cmp	w0, #0x10
   82e0c:	540000a0 	b.eq	82e20 <cvt_int+0x84>  // b.none
   82e10:	394047e0 	ldrb	w0, [sp, #17]
   82e14:	52800141 	mov	w1, #0xa                   	// #10
   82e18:	33001020 	bfxil	w0, w1, #0, #5
   82e1c:	390047e0 	strb	w0, [sp, #17]
   82e20:	394043e0 	ldrb	w0, [sp, #16]
   82e24:	121b0000 	and	w0, w0, #0x20
   82e28:	39013fe0 	strb	w0, [sp, #79]
   82e2c:	394043e0 	ldrb	w0, [sp, #16]
   82e30:	12000000 	and	w0, w0, #0x1
   82e34:	12001c00 	and	w0, w0, #0xff
   82e38:	7100001f 	cmp	w0, #0x0
   82e3c:	54000060 	b.eq	82e48 <cvt_int+0xac>  // b.none
   82e40:	52800600 	mov	w0, #0x30                  	// #48
   82e44:	14000002 	b	82e4c <cvt_int+0xb0>
   82e48:	52800400 	mov	w0, #0x20                  	// #32
   82e4c:	39013be0 	strb	w0, [sp, #78]
   82e50:	39c04be0 	ldrsb	w0, [sp, #18]
   82e54:	b9005fe0 	str	w0, [sp, #92]
   82e58:	394043e0 	ldrb	w0, [sp, #16]
   82e5c:	121f0000 	and	w0, w0, #0x2
   82e60:	12001c00 	and	w0, w0, #0xff
   82e64:	7100001f 	cmp	w0, #0x0
   82e68:	54000440 	b.eq	82ef0 <cvt_int+0x154>  // b.none
   82e6c:	b94017e0 	ldr	w0, [sp, #20]
   82e70:	7100001f 	cmp	w0, #0x0
   82e74:	5400014a 	b.ge	82e9c <cvt_int+0x100>  // b.tcont
   82e78:	528005a0 	mov	w0, #0x2d                  	// #45
   82e7c:	39015fe0 	strb	w0, [sp, #87]
   82e80:	b9405fe0 	ldr	w0, [sp, #92]
   82e84:	51000400 	sub	w0, w0, #0x1
   82e88:	b9005fe0 	str	w0, [sp, #92]
   82e8c:	b94017e0 	ldr	w0, [sp, #20]
   82e90:	4b0003e0 	neg	w0, w0
   82e94:	b90017e0 	str	w0, [sp, #20]
   82e98:	14000016 	b	82ef0 <cvt_int+0x154>
   82e9c:	394043e0 	ldrb	w0, [sp, #16]
   82ea0:	121e0000 	and	w0, w0, #0x4
   82ea4:	12001c00 	and	w0, w0, #0xff
   82ea8:	7100001f 	cmp	w0, #0x0
   82eac:	540000e0 	b.eq	82ec8 <cvt_int+0x12c>  // b.none
   82eb0:	52800560 	mov	w0, #0x2b                  	// #43
   82eb4:	39015fe0 	strb	w0, [sp, #87]
   82eb8:	b9405fe0 	ldr	w0, [sp, #92]
   82ebc:	51000400 	sub	w0, w0, #0x1
   82ec0:	b9005fe0 	str	w0, [sp, #92]
   82ec4:	1400000b 	b	82ef0 <cvt_int+0x154>
   82ec8:	394043e0 	ldrb	w0, [sp, #16]
   82ecc:	121d0000 	and	w0, w0, #0x8
   82ed0:	12001c00 	and	w0, w0, #0xff
   82ed4:	7100001f 	cmp	w0, #0x0
   82ed8:	540000c0 	b.eq	82ef0 <cvt_int+0x154>  // b.none
   82edc:	52800400 	mov	w0, #0x20                  	// #32
   82ee0:	39015fe0 	strb	w0, [sp, #87]
   82ee4:	b9405fe0 	ldr	w0, [sp, #92]
   82ee8:	51000400 	sub	w0, w0, #0x1
   82eec:	b9005fe0 	str	w0, [sp, #92]
   82ef0:	b90053ff 	str	wzr, [sp, #80]
   82ef4:	b94017e0 	ldr	w0, [sp, #20]
   82ef8:	7100001f 	cmp	w0, #0x0
   82efc:	540004c1 	b.ne	82f94 <cvt_int+0x1f8>  // b.any
   82f00:	b94053e0 	ldr	w0, [sp, #80]
   82f04:	11000401 	add	w1, w0, #0x1
   82f08:	b90053e1 	str	w1, [sp, #80]
   82f0c:	93407c00 	sxtw	x0, w0
   82f10:	910083e1 	add	x1, sp, #0x20
   82f14:	52800602 	mov	w2, #0x30                  	// #48
   82f18:	38206822 	strb	w2, [x1, x0]
   82f1c:	14000021 	b	82fa0 <cvt_int+0x204>
   82f20:	394047e0 	ldrb	w0, [sp, #17]
   82f24:	d3401000 	ubfx	x0, x0, #0, #5
   82f28:	12001c00 	and	w0, w0, #0xff
   82f2c:	2a0003e1 	mov	w1, w0
   82f30:	b94017e0 	ldr	w0, [sp, #20]
   82f34:	1ac10c02 	sdiv	w2, w0, w1
   82f38:	1b017c41 	mul	w1, w2, w1
   82f3c:	4b010000 	sub	w0, w0, w1
   82f40:	b9004be0 	str	w0, [sp, #72]
   82f44:	394047e0 	ldrb	w0, [sp, #17]
   82f48:	d3401000 	ubfx	x0, x0, #0, #5
   82f4c:	12001c00 	and	w0, w0, #0xff
   82f50:	2a0003e1 	mov	w1, w0
   82f54:	b94017e0 	ldr	w0, [sp, #20]
   82f58:	1ac10c00 	sdiv	w0, w0, w1
   82f5c:	b90017e0 	str	w0, [sp, #20]
   82f60:	b0000080 	adrp	x0, 93000 <_malloc_r+0x348>
   82f64:	913e4001 	add	x1, x0, #0xf90
   82f68:	b9804be0 	ldrsw	x0, [sp, #72]
   82f6c:	38606822 	ldrb	w2, [x1, x0]
   82f70:	b94053e0 	ldr	w0, [sp, #80]
   82f74:	11000401 	add	w1, w0, #0x1
   82f78:	b90053e1 	str	w1, [sp, #80]
   82f7c:	39413fe1 	ldrb	w1, [sp, #79]
   82f80:	2a010041 	orr	w1, w2, w1
   82f84:	12001c22 	and	w2, w1, #0xff
   82f88:	93407c00 	sxtw	x0, w0
   82f8c:	910083e1 	add	x1, sp, #0x20
   82f90:	38206822 	strb	w2, [x1, x0]
   82f94:	b94017e0 	ldr	w0, [sp, #20]
   82f98:	7100001f 	cmp	w0, #0x0
   82f9c:	54fffc21 	b.ne	82f20 <cvt_int+0x184>  // b.any
   82fa0:	39c04fe0 	ldrsb	w0, [sp, #19]
   82fa4:	2a0003e1 	mov	w1, w0
   82fa8:	b94053e0 	ldr	w0, [sp, #80]
   82fac:	6b01001f 	cmp	w0, w1
   82fb0:	5400008d 	b.le	82fc0 <cvt_int+0x224>
   82fb4:	b94053e0 	ldr	w0, [sp, #80]
   82fb8:	13001c00 	sxtb	w0, w0
   82fbc:	39004fe0 	strb	w0, [sp, #19]
   82fc0:	39c04fe0 	ldrsb	w0, [sp, #19]
   82fc4:	2a0003e1 	mov	w1, w0
   82fc8:	b9405fe0 	ldr	w0, [sp, #92]
   82fcc:	4b010000 	sub	w0, w0, w1
   82fd0:	b9005fe0 	str	w0, [sp, #92]
   82fd4:	394043e0 	ldrb	w0, [sp, #16]
   82fd8:	d3400000 	ubfx	x0, x0, #0, #1
   82fdc:	12001c00 	and	w0, w0, #0xff
   82fe0:	2a0003e1 	mov	w1, w0
   82fe4:	394043e0 	ldrb	w0, [sp, #16]
   82fe8:	d3441000 	ubfx	x0, x0, #4, #1
   82fec:	12001c00 	and	w0, w0, #0xff
   82ff0:	0b000020 	add	w0, w1, w0
   82ff4:	7100001f 	cmp	w0, #0x0
   82ff8:	540001a1 	b.ne	8302c <cvt_int+0x290>  // b.any
   82ffc:	14000007 	b	83018 <cvt_int+0x27c>
   83000:	f9400fe1 	ldr	x1, [sp, #24]
   83004:	52800400 	mov	w0, #0x20                  	// #32
   83008:	d63f0020 	blr	x1
   8300c:	b9405be0 	ldr	w0, [sp, #88]
   83010:	11000400 	add	w0, w0, #0x1
   83014:	b9005be0 	str	w0, [sp, #88]
   83018:	b9405fe0 	ldr	w0, [sp, #92]
   8301c:	51000401 	sub	w1, w0, #0x1
   83020:	b9005fe1 	str	w1, [sp, #92]
   83024:	7100001f 	cmp	w0, #0x0
   83028:	54fffecc 	b.gt	83000 <cvt_int+0x264>
   8302c:	394043e0 	ldrb	w0, [sp, #16]
   83030:	121c0000 	and	w0, w0, #0x10
   83034:	12001c00 	and	w0, w0, #0xff
   83038:	7100001f 	cmp	w0, #0x0
   8303c:	54000321 	b.ne	830a0 <cvt_int+0x304>  // b.any
   83040:	394043e0 	ldrb	w0, [sp, #16]
   83044:	12000000 	and	w0, w0, #0x1
   83048:	12001c00 	and	w0, w0, #0xff
   8304c:	7100001f 	cmp	w0, #0x0
   83050:	54000281 	b.ne	830a0 <cvt_int+0x304>  // b.any
   83054:	14000007 	b	83070 <cvt_int+0x2d4>
   83058:	f9400fe1 	ldr	x1, [sp, #24]
   8305c:	39413be0 	ldrb	w0, [sp, #78]
   83060:	d63f0020 	blr	x1
   83064:	b9405be0 	ldr	w0, [sp, #88]
   83068:	11000400 	add	w0, w0, #0x1
   8306c:	b9005be0 	str	w0, [sp, #88]
   83070:	b9405fe0 	ldr	w0, [sp, #92]
   83074:	51000401 	sub	w1, w0, #0x1
   83078:	b9005fe1 	str	w1, [sp, #92]
   8307c:	7100001f 	cmp	w0, #0x0
   83080:	54fffecc 	b.gt	83058 <cvt_int+0x2bc>
   83084:	14000007 	b	830a0 <cvt_int+0x304>
   83088:	f9400fe1 	ldr	x1, [sp, #24]
   8308c:	52800600 	mov	w0, #0x30                  	// #48
   83090:	d63f0020 	blr	x1
   83094:	b9405be0 	ldr	w0, [sp, #88]
   83098:	11000400 	add	w0, w0, #0x1
   8309c:	b9005be0 	str	w0, [sp, #88]
   830a0:	39c04fe1 	ldrsb	w1, [sp, #19]
   830a4:	12001c20 	and	w0, w1, #0xff
   830a8:	51000400 	sub	w0, w0, #0x1
   830ac:	12001c00 	and	w0, w0, #0xff
   830b0:	13001c00 	sxtb	w0, w0
   830b4:	39004fe0 	strb	w0, [sp, #19]
   830b8:	b94053e0 	ldr	w0, [sp, #80]
   830bc:	6b01001f 	cmp	w0, w1
   830c0:	54fffe4b 	b.lt	83088 <cvt_int+0x2ec>  // b.tstop
   830c4:	39415fe0 	ldrb	w0, [sp, #87]
   830c8:	7100001f 	cmp	w0, #0x0
   830cc:	540000e0 	b.eq	830e8 <cvt_int+0x34c>  // b.none
   830d0:	f9400fe1 	ldr	x1, [sp, #24]
   830d4:	39415fe0 	ldrb	w0, [sp, #87]
   830d8:	d63f0020 	blr	x1
   830dc:	b9405be0 	ldr	w0, [sp, #88]
   830e0:	11000400 	add	w0, w0, #0x1
   830e4:	b9005be0 	str	w0, [sp, #88]
   830e8:	394043e0 	ldrb	w0, [sp, #16]
   830ec:	121a0000 	and	w0, w0, #0x40
   830f0:	12001c00 	and	w0, w0, #0xff
   830f4:	7100001f 	cmp	w0, #0x0
   830f8:	54000620 	b.eq	831bc <cvt_int+0x420>  // b.none
   830fc:	394047e0 	ldrb	w0, [sp, #17]
   83100:	d3401000 	ubfx	x0, x0, #0, #5
   83104:	12001c00 	and	w0, w0, #0xff
   83108:	7100201f 	cmp	w0, #0x8
   8310c:	540002a0 	b.eq	83160 <cvt_int+0x3c4>  // b.none
   83110:	7100401f 	cmp	w0, #0x10
   83114:	54000340 	b.eq	8317c <cvt_int+0x3e0>  // b.none
   83118:	7100081f 	cmp	w0, #0x2
   8311c:	54000641 	b.ne	831e4 <cvt_int+0x448>  // b.any
   83120:	f9400fe1 	ldr	x1, [sp, #24]
   83124:	52800600 	mov	w0, #0x30                  	// #48
   83128:	d63f0020 	blr	x1
   8312c:	b9405be0 	ldr	w0, [sp, #88]
   83130:	11000400 	add	w0, w0, #0x1
   83134:	b9005be0 	str	w0, [sp, #88]
   83138:	39413fe1 	ldrb	w1, [sp, #79]
   8313c:	52800840 	mov	w0, #0x42                  	// #66
   83140:	2a000020 	orr	w0, w1, w0
   83144:	12001c00 	and	w0, w0, #0xff
   83148:	f9400fe1 	ldr	x1, [sp, #24]
   8314c:	d63f0020 	blr	x1
   83150:	b9405be0 	ldr	w0, [sp, #88]
   83154:	11000400 	add	w0, w0, #0x1
   83158:	b9005be0 	str	w0, [sp, #88]
   8315c:	14000019 	b	831c0 <cvt_int+0x424>
   83160:	f9400fe1 	ldr	x1, [sp, #24]
   83164:	52800600 	mov	w0, #0x30                  	// #48
   83168:	d63f0020 	blr	x1
   8316c:	b9405be0 	ldr	w0, [sp, #88]
   83170:	11000400 	add	w0, w0, #0x1
   83174:	b9005be0 	str	w0, [sp, #88]
   83178:	14000012 	b	831c0 <cvt_int+0x424>
   8317c:	f9400fe1 	ldr	x1, [sp, #24]
   83180:	52800600 	mov	w0, #0x30                  	// #48
   83184:	d63f0020 	blr	x1
   83188:	b9405be0 	ldr	w0, [sp, #88]
   8318c:	11000400 	add	w0, w0, #0x1
   83190:	b9005be0 	str	w0, [sp, #88]
   83194:	39413fe1 	ldrb	w1, [sp, #79]
   83198:	52800b00 	mov	w0, #0x58                  	// #88
   8319c:	2a000020 	orr	w0, w1, w0
   831a0:	12001c00 	and	w0, w0, #0xff
   831a4:	f9400fe1 	ldr	x1, [sp, #24]
   831a8:	d63f0020 	blr	x1
   831ac:	b9405be0 	ldr	w0, [sp, #88]
   831b0:	11000400 	add	w0, w0, #0x1
   831b4:	b9005be0 	str	w0, [sp, #88]
   831b8:	14000002 	b	831c0 <cvt_int+0x424>
   831bc:	d503201f 	nop
   831c0:	14000009 	b	831e4 <cvt_int+0x448>
   831c4:	b98053e0 	ldrsw	x0, [sp, #80]
   831c8:	910083e1 	add	x1, sp, #0x20
   831cc:	38606820 	ldrb	w0, [x1, x0]
   831d0:	f9400fe1 	ldr	x1, [sp, #24]
   831d4:	d63f0020 	blr	x1
   831d8:	b9405be0 	ldr	w0, [sp, #88]
   831dc:	11000400 	add	w0, w0, #0x1
   831e0:	b9005be0 	str	w0, [sp, #88]
   831e4:	b94053e0 	ldr	w0, [sp, #80]
   831e8:	51000401 	sub	w1, w0, #0x1
   831ec:	b90053e1 	str	w1, [sp, #80]
   831f0:	7100001f 	cmp	w0, #0x0
   831f4:	54fffe8c 	b.gt	831c4 <cvt_int+0x428>
   831f8:	14000007 	b	83214 <cvt_int+0x478>
   831fc:	f9400fe1 	ldr	x1, [sp, #24]
   83200:	52800400 	mov	w0, #0x20                  	// #32
   83204:	d63f0020 	blr	x1
   83208:	b9405be0 	ldr	w0, [sp, #88]
   8320c:	11000400 	add	w0, w0, #0x1
   83210:	b9005be0 	str	w0, [sp, #88]
   83214:	b9405fe0 	ldr	w0, [sp, #92]
   83218:	51000401 	sub	w1, w0, #0x1
   8321c:	b9005fe1 	str	w1, [sp, #92]
   83220:	7100001f 	cmp	w0, #0x0
   83224:	54fffecc 	b.gt	831fc <cvt_int+0x460>
   83228:	b9405be0 	ldr	w0, [sp, #88]
   8322c:	f84607fe 	ldr	x30, [sp], #96
   83230:	d65f03c0 	ret

0000000000083234 <number>:
   83234:	f8130ffe 	str	x30, [sp, #-208]!
   83238:	f90017e0 	str	x0, [sp, #40]
   8323c:	f90013e1 	str	x1, [sp, #32]
   83240:	b9001be2 	str	w2, [sp, #24]
   83244:	b900cbff 	str	wzr, [sp, #200]
   83248:	39031fff 	strb	wzr, [sp, #199]
   8324c:	394063e0 	ldrb	w0, [sp, #24]
   83250:	121c0000 	and	w0, w0, #0x10
   83254:	12001c00 	and	w0, w0, #0xff
   83258:	7100001f 	cmp	w0, #0x0
   8325c:	54000080 	b.eq	8326c <number+0x38>  // b.none
   83260:	394063e0 	ldrb	w0, [sp, #24]
   83264:	121f7800 	and	w0, w0, #0xfffffffe
   83268:	390063e0 	strb	w0, [sp, #24]
   8326c:	394067e0 	ldrb	w0, [sp, #25]
   83270:	12001000 	and	w0, w0, #0x1f
   83274:	12001c00 	and	w0, w0, #0xff
   83278:	7100081f 	cmp	w0, #0x2
   8327c:	540001e0 	b.eq	832b8 <number+0x84>  // b.none
   83280:	394067e0 	ldrb	w0, [sp, #25]
   83284:	12001000 	and	w0, w0, #0x1f
   83288:	12001c00 	and	w0, w0, #0xff
   8328c:	7100201f 	cmp	w0, #0x8
   83290:	54000140 	b.eq	832b8 <number+0x84>  // b.none
   83294:	394067e0 	ldrb	w0, [sp, #25]
   83298:	12001000 	and	w0, w0, #0x1f
   8329c:	12001c00 	and	w0, w0, #0xff
   832a0:	7100401f 	cmp	w0, #0x10
   832a4:	540000a0 	b.eq	832b8 <number+0x84>  // b.none
   832a8:	394067e0 	ldrb	w0, [sp, #25]
   832ac:	52800141 	mov	w1, #0xa                   	// #10
   832b0:	33001020 	bfxil	w0, w1, #0, #5
   832b4:	390067e0 	strb	w0, [sp, #25]
   832b8:	394063e0 	ldrb	w0, [sp, #24]
   832bc:	121b0000 	and	w0, w0, #0x20
   832c0:	3902ffe0 	strb	w0, [sp, #191]
   832c4:	394063e0 	ldrb	w0, [sp, #24]
   832c8:	12000000 	and	w0, w0, #0x1
   832cc:	12001c00 	and	w0, w0, #0xff
   832d0:	7100001f 	cmp	w0, #0x0
   832d4:	54000060 	b.eq	832e0 <number+0xac>  // b.none
   832d8:	52800600 	mov	w0, #0x30                  	// #48
   832dc:	14000002 	b	832e4 <number+0xb0>
   832e0:	52800400 	mov	w0, #0x20                  	// #32
   832e4:	3902fbe0 	strb	w0, [sp, #190]
   832e8:	39c06be0 	ldrsb	w0, [sp, #26]
   832ec:	b900cfe0 	str	w0, [sp, #204]
   832f0:	394063e0 	ldrb	w0, [sp, #24]
   832f4:	121f0000 	and	w0, w0, #0x2
   832f8:	12001c00 	and	w0, w0, #0xff
   832fc:	7100001f 	cmp	w0, #0x0
   83300:	54000440 	b.eq	83388 <number+0x154>  // b.none
   83304:	f94013e0 	ldr	x0, [sp, #32]
   83308:	f100001f 	cmp	x0, #0x0
   8330c:	5400014a 	b.ge	83334 <number+0x100>  // b.tcont
   83310:	528005a0 	mov	w0, #0x2d                  	// #45
   83314:	39031fe0 	strb	w0, [sp, #199]
   83318:	b940cfe0 	ldr	w0, [sp, #204]
   8331c:	51000400 	sub	w0, w0, #0x1
   83320:	b900cfe0 	str	w0, [sp, #204]
   83324:	f94013e0 	ldr	x0, [sp, #32]
   83328:	cb0003e0 	neg	x0, x0
   8332c:	f90013e0 	str	x0, [sp, #32]
   83330:	14000016 	b	83388 <number+0x154>
   83334:	394063e0 	ldrb	w0, [sp, #24]
   83338:	121e0000 	and	w0, w0, #0x4
   8333c:	12001c00 	and	w0, w0, #0xff
   83340:	7100001f 	cmp	w0, #0x0
   83344:	540000e0 	b.eq	83360 <number+0x12c>  // b.none
   83348:	52800560 	mov	w0, #0x2b                  	// #43
   8334c:	39031fe0 	strb	w0, [sp, #199]
   83350:	b940cfe0 	ldr	w0, [sp, #204]
   83354:	51000400 	sub	w0, w0, #0x1
   83358:	b900cfe0 	str	w0, [sp, #204]
   8335c:	1400000b 	b	83388 <number+0x154>
   83360:	394063e0 	ldrb	w0, [sp, #24]
   83364:	121d0000 	and	w0, w0, #0x8
   83368:	12001c00 	and	w0, w0, #0xff
   8336c:	7100001f 	cmp	w0, #0x0
   83370:	540000c0 	b.eq	83388 <number+0x154>  // b.none
   83374:	52800400 	mov	w0, #0x20                  	// #32
   83378:	39031fe0 	strb	w0, [sp, #199]
   8337c:	b940cfe0 	ldr	w0, [sp, #204]
   83380:	51000400 	sub	w0, w0, #0x1
   83384:	b900cfe0 	str	w0, [sp, #204]
   83388:	b900c3ff 	str	wzr, [sp, #192]
   8338c:	f94013e0 	ldr	x0, [sp, #32]
   83390:	f100001f 	cmp	x0, #0x0
   83394:	540004c1 	b.ne	8342c <number+0x1f8>  // b.any
   83398:	b940c3e0 	ldr	w0, [sp, #192]
   8339c:	11000401 	add	w1, w0, #0x1
   833a0:	b900c3e1 	str	w1, [sp, #192]
   833a4:	93407c00 	sxtw	x0, w0
   833a8:	9100e3e1 	add	x1, sp, #0x38
   833ac:	52800602 	mov	w2, #0x30                  	// #48
   833b0:	38206822 	strb	w2, [x1, x0]
   833b4:	14000021 	b	83438 <number+0x204>
   833b8:	394067e0 	ldrb	w0, [sp, #25]
   833bc:	d3401000 	ubfx	x0, x0, #0, #5
   833c0:	12001c00 	and	w0, w0, #0xff
   833c4:	92401c01 	and	x1, x0, #0xff
   833c8:	f94013e0 	ldr	x0, [sp, #32]
   833cc:	9ac10c02 	sdiv	x2, x0, x1
   833d0:	9b017c41 	mul	x1, x2, x1
   833d4:	cb010000 	sub	x0, x0, x1
   833d8:	b900bbe0 	str	w0, [sp, #184]
   833dc:	394067e0 	ldrb	w0, [sp, #25]
   833e0:	d3401000 	ubfx	x0, x0, #0, #5
   833e4:	12001c00 	and	w0, w0, #0xff
   833e8:	92401c00 	and	x0, x0, #0xff
   833ec:	f94013e1 	ldr	x1, [sp, #32]
   833f0:	9ac00c20 	sdiv	x0, x1, x0
   833f4:	f90013e0 	str	x0, [sp, #32]
   833f8:	90000080 	adrp	x0, 93000 <_malloc_r+0x348>
   833fc:	913e4001 	add	x1, x0, #0xf90
   83400:	b980bbe0 	ldrsw	x0, [sp, #184]
   83404:	38606822 	ldrb	w2, [x1, x0]
   83408:	b940c3e0 	ldr	w0, [sp, #192]
   8340c:	11000401 	add	w1, w0, #0x1
   83410:	b900c3e1 	str	w1, [sp, #192]
   83414:	3942ffe1 	ldrb	w1, [sp, #191]
   83418:	2a010041 	orr	w1, w2, w1
   8341c:	12001c22 	and	w2, w1, #0xff
   83420:	93407c00 	sxtw	x0, w0
   83424:	9100e3e1 	add	x1, sp, #0x38
   83428:	38206822 	strb	w2, [x1, x0]
   8342c:	f94013e0 	ldr	x0, [sp, #32]
   83430:	f100001f 	cmp	x0, #0x0
   83434:	54fffc21 	b.ne	833b8 <number+0x184>  // b.any
   83438:	39c06fe0 	ldrsb	w0, [sp, #27]
   8343c:	2a0003e1 	mov	w1, w0
   83440:	b940c3e0 	ldr	w0, [sp, #192]
   83444:	6b01001f 	cmp	w0, w1
   83448:	5400008d 	b.le	83458 <number+0x224>
   8344c:	b940c3e0 	ldr	w0, [sp, #192]
   83450:	13001c00 	sxtb	w0, w0
   83454:	39006fe0 	strb	w0, [sp, #27]
   83458:	39c06fe0 	ldrsb	w0, [sp, #27]
   8345c:	2a0003e1 	mov	w1, w0
   83460:	b940cfe0 	ldr	w0, [sp, #204]
   83464:	4b010000 	sub	w0, w0, w1
   83468:	b900cfe0 	str	w0, [sp, #204]
   8346c:	394063e0 	ldrb	w0, [sp, #24]
   83470:	d3400000 	ubfx	x0, x0, #0, #1
   83474:	12001c00 	and	w0, w0, #0xff
   83478:	2a0003e1 	mov	w1, w0
   8347c:	394063e0 	ldrb	w0, [sp, #24]
   83480:	d3441000 	ubfx	x0, x0, #4, #1
   83484:	12001c00 	and	w0, w0, #0xff
   83488:	0b000020 	add	w0, w1, w0
   8348c:	7100001f 	cmp	w0, #0x0
   83490:	540001a1 	b.ne	834c4 <number+0x290>  // b.any
   83494:	14000007 	b	834b0 <number+0x27c>
   83498:	f94017e1 	ldr	x1, [sp, #40]
   8349c:	52800400 	mov	w0, #0x20                  	// #32
   834a0:	d63f0020 	blr	x1
   834a4:	b940cbe0 	ldr	w0, [sp, #200]
   834a8:	11000400 	add	w0, w0, #0x1
   834ac:	b900cbe0 	str	w0, [sp, #200]
   834b0:	b940cfe0 	ldr	w0, [sp, #204]
   834b4:	51000401 	sub	w1, w0, #0x1
   834b8:	b900cfe1 	str	w1, [sp, #204]
   834bc:	7100001f 	cmp	w0, #0x0
   834c0:	54fffecc 	b.gt	83498 <number+0x264>
   834c4:	394063e0 	ldrb	w0, [sp, #24]
   834c8:	121c0000 	and	w0, w0, #0x10
   834cc:	12001c00 	and	w0, w0, #0xff
   834d0:	7100001f 	cmp	w0, #0x0
   834d4:	54000281 	b.ne	83524 <number+0x2f0>  // b.any
   834d8:	14000007 	b	834f4 <number+0x2c0>
   834dc:	f94017e1 	ldr	x1, [sp, #40]
   834e0:	3942fbe0 	ldrb	w0, [sp, #190]
   834e4:	d63f0020 	blr	x1
   834e8:	b940cbe0 	ldr	w0, [sp, #200]
   834ec:	11000400 	add	w0, w0, #0x1
   834f0:	b900cbe0 	str	w0, [sp, #200]
   834f4:	b940cfe0 	ldr	w0, [sp, #204]
   834f8:	51000401 	sub	w1, w0, #0x1
   834fc:	b900cfe1 	str	w1, [sp, #204]
   83500:	7100001f 	cmp	w0, #0x0
   83504:	54fffecc 	b.gt	834dc <number+0x2a8>
   83508:	14000007 	b	83524 <number+0x2f0>
   8350c:	f94017e1 	ldr	x1, [sp, #40]
   83510:	52800600 	mov	w0, #0x30                  	// #48
   83514:	d63f0020 	blr	x1
   83518:	b940cbe0 	ldr	w0, [sp, #200]
   8351c:	11000400 	add	w0, w0, #0x1
   83520:	b900cbe0 	str	w0, [sp, #200]
   83524:	39c06fe1 	ldrsb	w1, [sp, #27]
   83528:	12001c20 	and	w0, w1, #0xff
   8352c:	51000400 	sub	w0, w0, #0x1
   83530:	12001c00 	and	w0, w0, #0xff
   83534:	13001c00 	sxtb	w0, w0
   83538:	39006fe0 	strb	w0, [sp, #27]
   8353c:	b940c3e0 	ldr	w0, [sp, #192]
   83540:	6b01001f 	cmp	w0, w1
   83544:	54fffe4b 	b.lt	8350c <number+0x2d8>  // b.tstop
   83548:	39431fe0 	ldrb	w0, [sp, #199]
   8354c:	7100001f 	cmp	w0, #0x0
   83550:	540000e0 	b.eq	8356c <number+0x338>  // b.none
   83554:	f94017e1 	ldr	x1, [sp, #40]
   83558:	39431fe0 	ldrb	w0, [sp, #199]
   8355c:	d63f0020 	blr	x1
   83560:	b940cbe0 	ldr	w0, [sp, #200]
   83564:	11000400 	add	w0, w0, #0x1
   83568:	b900cbe0 	str	w0, [sp, #200]
   8356c:	394063e0 	ldrb	w0, [sp, #24]
   83570:	121a0000 	and	w0, w0, #0x40
   83574:	12001c00 	and	w0, w0, #0xff
   83578:	7100001f 	cmp	w0, #0x0
   8357c:	54000620 	b.eq	83640 <number+0x40c>  // b.none
   83580:	394067e0 	ldrb	w0, [sp, #25]
   83584:	d3401000 	ubfx	x0, x0, #0, #5
   83588:	12001c00 	and	w0, w0, #0xff
   8358c:	7100201f 	cmp	w0, #0x8
   83590:	540002a0 	b.eq	835e4 <number+0x3b0>  // b.none
   83594:	7100401f 	cmp	w0, #0x10
   83598:	54000340 	b.eq	83600 <number+0x3cc>  // b.none
   8359c:	7100081f 	cmp	w0, #0x2
   835a0:	54000641 	b.ne	83668 <number+0x434>  // b.any
   835a4:	f94017e1 	ldr	x1, [sp, #40]
   835a8:	52800600 	mov	w0, #0x30                  	// #48
   835ac:	d63f0020 	blr	x1
   835b0:	b940cbe0 	ldr	w0, [sp, #200]
   835b4:	11000400 	add	w0, w0, #0x1
   835b8:	b900cbe0 	str	w0, [sp, #200]
   835bc:	3942ffe1 	ldrb	w1, [sp, #191]
   835c0:	52800840 	mov	w0, #0x42                  	// #66
   835c4:	2a000020 	orr	w0, w1, w0
   835c8:	12001c00 	and	w0, w0, #0xff
   835cc:	f94017e1 	ldr	x1, [sp, #40]
   835d0:	d63f0020 	blr	x1
   835d4:	b940cbe0 	ldr	w0, [sp, #200]
   835d8:	11000400 	add	w0, w0, #0x1
   835dc:	b900cbe0 	str	w0, [sp, #200]
   835e0:	14000019 	b	83644 <number+0x410>
   835e4:	f94017e1 	ldr	x1, [sp, #40]
   835e8:	52800600 	mov	w0, #0x30                  	// #48
   835ec:	d63f0020 	blr	x1
   835f0:	b940cbe0 	ldr	w0, [sp, #200]
   835f4:	11000400 	add	w0, w0, #0x1
   835f8:	b900cbe0 	str	w0, [sp, #200]
   835fc:	14000012 	b	83644 <number+0x410>
   83600:	f94017e1 	ldr	x1, [sp, #40]
   83604:	52800600 	mov	w0, #0x30                  	// #48
   83608:	d63f0020 	blr	x1
   8360c:	b940cbe0 	ldr	w0, [sp, #200]
   83610:	11000400 	add	w0, w0, #0x1
   83614:	b900cbe0 	str	w0, [sp, #200]
   83618:	3942ffe1 	ldrb	w1, [sp, #191]
   8361c:	52800b00 	mov	w0, #0x58                  	// #88
   83620:	2a000020 	orr	w0, w1, w0
   83624:	12001c00 	and	w0, w0, #0xff
   83628:	f94017e1 	ldr	x1, [sp, #40]
   8362c:	d63f0020 	blr	x1
   83630:	b940cbe0 	ldr	w0, [sp, #200]
   83634:	11000400 	add	w0, w0, #0x1
   83638:	b900cbe0 	str	w0, [sp, #200]
   8363c:	14000002 	b	83644 <number+0x410>
   83640:	d503201f 	nop
   83644:	14000009 	b	83668 <number+0x434>
   83648:	b980c3e0 	ldrsw	x0, [sp, #192]
   8364c:	9100e3e1 	add	x1, sp, #0x38
   83650:	38606820 	ldrb	w0, [x1, x0]
   83654:	f94017e1 	ldr	x1, [sp, #40]
   83658:	d63f0020 	blr	x1
   8365c:	b940cbe0 	ldr	w0, [sp, #200]
   83660:	11000400 	add	w0, w0, #0x1
   83664:	b900cbe0 	str	w0, [sp, #200]
   83668:	b940c3e0 	ldr	w0, [sp, #192]
   8366c:	51000401 	sub	w1, w0, #0x1
   83670:	b900c3e1 	str	w1, [sp, #192]
   83674:	7100001f 	cmp	w0, #0x0
   83678:	54fffe8c 	b.gt	83648 <number+0x414>
   8367c:	14000007 	b	83698 <number+0x464>
   83680:	f94017e1 	ldr	x1, [sp, #40]
   83684:	52800400 	mov	w0, #0x20                  	// #32
   83688:	d63f0020 	blr	x1
   8368c:	b940cbe0 	ldr	w0, [sp, #200]
   83690:	11000400 	add	w0, w0, #0x1
   83694:	b900cbe0 	str	w0, [sp, #200]
   83698:	b940cfe0 	ldr	w0, [sp, #204]
   8369c:	51000401 	sub	w1, w0, #0x1
   836a0:	b900cfe1 	str	w1, [sp, #204]
   836a4:	7100001f 	cmp	w0, #0x0
   836a8:	54fffecc 	b.gt	83680 <number+0x44c>
   836ac:	b940cbe0 	ldr	w0, [sp, #200]
   836b0:	f84d07fe 	ldr	x30, [sp], #208
   836b4:	d65f03c0 	ret

00000000000836b8 <Process_Out>:
   836b8:	a9b07bf3 	stp	x19, x30, [sp, #-256]!
   836bc:	f90017e0 	str	x0, [sp, #40]
   836c0:	f90013e1 	str	x1, [sp, #32]
   836c4:	f9000fe2 	str	x2, [sp, #24]
   836c8:	aa0303f3 	mov	x19, x3
   836cc:	b900ffff 	str	wzr, [sp, #252]
   836d0:	f9007bff 	str	xzr, [sp, #240]
   836d4:	f94017e0 	ldr	x0, [sp, #40]
   836d8:	f100001f 	cmp	x0, #0x0
   836dc:	540000e0 	b.eq	836f8 <Process_Out+0x40>  // b.none
   836e0:	f94013e0 	ldr	x0, [sp, #32]
   836e4:	f100001f 	cmp	x0, #0x0
   836e8:	54000080 	b.eq	836f8 <Process_Out+0x40>  // b.none
   836ec:	f9400fe0 	ldr	x0, [sp, #24]
   836f0:	f100001f 	cmp	x0, #0x0
   836f4:	5400b441 	b.ne	84d7c <Process_Out+0x16c4>  // b.any
   836f8:	d2800000 	mov	x0, #0x0                   	// #0
   836fc:	140005ab 	b	84da8 <Process_Out+0x16f0>
   83700:	3903bfff 	strb	wzr, [sp, #239]
   83704:	f94013e1 	ldr	x1, [sp, #32]
   83708:	f9407be0 	ldr	x0, [sp, #240]
   8370c:	8b000020 	add	x0, x1, x0
   83710:	39400000 	ldrb	w0, [x0]
   83714:	7100941f 	cmp	w0, #0x25
   83718:	54000160 	b.eq	83744 <Process_Out+0x8c>  // b.none
   8371c:	f94013e1 	ldr	x1, [sp, #32]
   83720:	f9407be0 	ldr	x0, [sp, #240]
   83724:	8b000020 	add	x0, x1, x0
   83728:	39400000 	ldrb	w0, [x0]
   8372c:	f94017e1 	ldr	x1, [sp, #40]
   83730:	d63f0020 	blr	x1
   83734:	b940ffe0 	ldr	w0, [sp, #252]
   83738:	11000400 	add	w0, w0, #0x1
   8373c:	b900ffe0 	str	w0, [sp, #252]
   83740:	1400058c 	b	84d70 <Process_Out+0x16b8>
   83744:	b90033ff 	str	wzr, [sp, #48]
   83748:	12800000 	mov	w0, #0xffffffff            	// #-1
   8374c:	3900cbe0 	strb	w0, [sp, #50]
   83750:	12800000 	mov	w0, #0xffffffff            	// #-1
   83754:	3900cfe0 	strb	w0, [sp, #51]
   83758:	3940c7e0 	ldrb	w0, [sp, #49]
   8375c:	52800141 	mov	w1, #0xa                   	// #10
   83760:	33001020 	bfxil	w0, w1, #0, #5
   83764:	3900c7e0 	strb	w0, [sp, #49]
   83768:	12800000 	mov	w0, #0xffffffff            	// #-1
   8376c:	b900ebe0 	str	w0, [sp, #232]
   83770:	52800020 	mov	w0, #0x1                   	// #1
   83774:	39039fe0 	strb	w0, [sp, #231]
   83778:	14000032 	b	83840 <Process_Out+0x188>
   8377c:	f9407be0 	ldr	x0, [sp, #240]
   83780:	91000400 	add	x0, x0, #0x1
   83784:	f9007be0 	str	x0, [sp, #240]
   83788:	f9407be1 	ldr	x1, [sp, #240]
   8378c:	f9400fe0 	ldr	x0, [sp, #24]
   83790:	eb00003f 	cmp	x1, x0
   83794:	54000063 	b.cc	837a0 <Process_Out+0xe8>  // b.lo, b.ul, b.last
   83798:	b980ffe0 	ldrsw	x0, [sp, #252]
   8379c:	14000583 	b	84da8 <Process_Out+0x16f0>
   837a0:	f94013e1 	ldr	x1, [sp, #32]
   837a4:	f9407be0 	ldr	x0, [sp, #240]
   837a8:	8b000020 	add	x0, x1, x0
   837ac:	39400000 	ldrb	w0, [x0]
   837b0:	7100ac1f 	cmp	w0, #0x2b
   837b4:	54000220 	b.eq	837f8 <Process_Out+0x140>  // b.none
   837b8:	7100ac1f 	cmp	w0, #0x2b
   837bc:	540000cc 	b.gt	837d4 <Process_Out+0x11c>
   837c0:	7100801f 	cmp	w0, #0x20
   837c4:	54000220 	b.eq	83808 <Process_Out+0x150>  // b.none
   837c8:	71008c1f 	cmp	w0, #0x23
   837cc:	54000260 	b.eq	83818 <Process_Out+0x160>  // b.none
   837d0:	1400001a 	b	83838 <Process_Out+0x180>
   837d4:	7100b41f 	cmp	w0, #0x2d
   837d8:	54000080 	b.eq	837e8 <Process_Out+0x130>  // b.none
   837dc:	7100c01f 	cmp	w0, #0x30
   837e0:	54000240 	b.eq	83828 <Process_Out+0x170>  // b.none
   837e4:	14000015 	b	83838 <Process_Out+0x180>
   837e8:	3940c3e0 	ldrb	w0, [sp, #48]
   837ec:	321c0000 	orr	w0, w0, #0x10
   837f0:	3900c3e0 	strb	w0, [sp, #48]
   837f4:	14000013 	b	83840 <Process_Out+0x188>
   837f8:	3940c3e0 	ldrb	w0, [sp, #48]
   837fc:	321e0000 	orr	w0, w0, #0x4
   83800:	3900c3e0 	strb	w0, [sp, #48]
   83804:	1400000f 	b	83840 <Process_Out+0x188>
   83808:	3940c3e0 	ldrb	w0, [sp, #48]
   8380c:	321d0000 	orr	w0, w0, #0x8
   83810:	3900c3e0 	strb	w0, [sp, #48]
   83814:	1400000b 	b	83840 <Process_Out+0x188>
   83818:	3940c3e0 	ldrb	w0, [sp, #48]
   8381c:	321a0000 	orr	w0, w0, #0x40
   83820:	3900c3e0 	strb	w0, [sp, #48]
   83824:	14000007 	b	83840 <Process_Out+0x188>
   83828:	3940c3e0 	ldrb	w0, [sp, #48]
   8382c:	32000000 	orr	w0, w0, #0x1
   83830:	3900c3e0 	strb	w0, [sp, #48]
   83834:	14000003 	b	83840 <Process_Out+0x188>
   83838:	39039fff 	strb	wzr, [sp, #231]
   8383c:	d503201f 	nop
   83840:	39439fe0 	ldrb	w0, [sp, #231]
   83844:	7100001f 	cmp	w0, #0x0
   83848:	54fff9a1 	b.ne	8377c <Process_Out+0xc4>  // b.any
   8384c:	f94013e1 	ldr	x1, [sp, #32]
   83850:	f9407be0 	ldr	x0, [sp, #240]
   83854:	8b000020 	add	x0, x1, x0
   83858:	39400000 	ldrb	w0, [x0]
   8385c:	7100a81f 	cmp	w0, #0x2a
   83860:	54000aa1 	b.ne	839b4 <Process_Out+0x2fc>  // b.any
   83864:	f9407be0 	ldr	x0, [sp, #240]
   83868:	91000400 	add	x0, x0, #0x1
   8386c:	f9007be0 	str	x0, [sp, #240]
   83870:	f9407be1 	ldr	x1, [sp, #240]
   83874:	f9400fe0 	ldr	x0, [sp, #24]
   83878:	eb00003f 	cmp	x1, x0
   8387c:	54000063 	b.cc	83888 <Process_Out+0x1d0>  // b.lo, b.ul, b.last
   83880:	b980ffe0 	ldrsw	x0, [sp, #252]
   83884:	14000549 	b	84da8 <Process_Out+0x16f0>
   83888:	b9401a60 	ldr	w0, [x19, #24]
   8388c:	f9400261 	ldr	x1, [x19]
   83890:	7100001f 	cmp	w0, #0x0
   83894:	540000eb 	b.lt	838b0 <Process_Out+0x1f8>  // b.tstop
   83898:	aa0103e0 	mov	x0, x1
   8389c:	91002c00 	add	x0, x0, #0xb
   838a0:	927df000 	and	x0, x0, #0xfffffffffffffff8
   838a4:	f9000260 	str	x0, [x19]
   838a8:	aa0103e0 	mov	x0, x1
   838ac:	1400000f 	b	838e8 <Process_Out+0x230>
   838b0:	11002002 	add	w2, w0, #0x8
   838b4:	b9001a62 	str	w2, [x19, #24]
   838b8:	b9401a62 	ldr	w2, [x19, #24]
   838bc:	7100005f 	cmp	w2, #0x0
   838c0:	540000ed 	b.le	838dc <Process_Out+0x224>
   838c4:	aa0103e0 	mov	x0, x1
   838c8:	91002c00 	add	x0, x0, #0xb
   838cc:	927df000 	and	x0, x0, #0xfffffffffffffff8
   838d0:	f9000260 	str	x0, [x19]
   838d4:	aa0103e0 	mov	x0, x1
   838d8:	14000004 	b	838e8 <Process_Out+0x230>
   838dc:	f9400661 	ldr	x1, [x19, #8]
   838e0:	93407c00 	sxtw	x0, w0
   838e4:	8b000020 	add	x0, x1, x0
   838e8:	b9400000 	ldr	w0, [x0]
   838ec:	13001c00 	sxtb	w0, w0
   838f0:	3900cbe0 	strb	w0, [sp, #50]
   838f4:	39c0cbe0 	ldrsb	w0, [sp, #50]
   838f8:	7100001f 	cmp	w0, #0x0
   838fc:	5400076a 	b.ge	839e8 <Process_Out+0x330>  // b.tcont
   83900:	39c0cbe0 	ldrsb	w0, [sp, #50]
   83904:	12001c00 	and	w0, w0, #0xff
   83908:	4b0003e0 	neg	w0, w0
   8390c:	12001c00 	and	w0, w0, #0xff
   83910:	13001c00 	sxtb	w0, w0
   83914:	3900cbe0 	strb	w0, [sp, #50]
   83918:	3940c3e0 	ldrb	w0, [sp, #48]
   8391c:	321c0000 	orr	w0, w0, #0x10
   83920:	3900c3e0 	strb	w0, [sp, #48]
   83924:	14000031 	b	839e8 <Process_Out+0x330>
   83928:	39c0cbe0 	ldrsb	w0, [sp, #50]
   8392c:	7100001f 	cmp	w0, #0x0
   83930:	5400004a 	b.ge	83938 <Process_Out+0x280>  // b.tcont
   83934:	3900cbff 	strb	wzr, [sp, #50]
   83938:	39c0cbe0 	ldrsb	w0, [sp, #50]
   8393c:	12001c00 	and	w0, w0, #0xff
   83940:	2a0003e1 	mov	w1, w0
   83944:	2a0103e0 	mov	w0, w1
   83948:	531e1400 	ubfiz	w0, w0, #2, #6
   8394c:	0b010000 	add	w0, w0, w1
   83950:	531f1800 	ubfiz	w0, w0, #1, #7
   83954:	12001c00 	and	w0, w0, #0xff
   83958:	13001c00 	sxtb	w0, w0
   8395c:	3900cbe0 	strb	w0, [sp, #50]
   83960:	39c0cbe0 	ldrsb	w0, [sp, #50]
   83964:	12001c01 	and	w1, w0, #0xff
   83968:	f94013e2 	ldr	x2, [sp, #32]
   8396c:	f9407be0 	ldr	x0, [sp, #240]
   83970:	8b000040 	add	x0, x2, x0
   83974:	39400000 	ldrb	w0, [x0]
   83978:	0b000020 	add	w0, w1, w0
   8397c:	12001c00 	and	w0, w0, #0xff
   83980:	5100c000 	sub	w0, w0, #0x30
   83984:	12001c00 	and	w0, w0, #0xff
   83988:	13001c00 	sxtb	w0, w0
   8398c:	3900cbe0 	strb	w0, [sp, #50]
   83990:	f9407be0 	ldr	x0, [sp, #240]
   83994:	91000400 	add	x0, x0, #0x1
   83998:	f9007be0 	str	x0, [sp, #240]
   8399c:	f9407be1 	ldr	x1, [sp, #240]
   839a0:	f9400fe0 	ldr	x0, [sp, #24]
   839a4:	eb00003f 	cmp	x1, x0
   839a8:	54000063 	b.cc	839b4 <Process_Out+0x2fc>  // b.lo, b.ul, b.last
   839ac:	b980ffe0 	ldrsw	x0, [sp, #252]
   839b0:	140004fe 	b	84da8 <Process_Out+0x16f0>
   839b4:	94002411 	bl	8c9f8 <__locale_ctype_ptr>
   839b8:	aa0003e2 	mov	x2, x0
   839bc:	f94013e1 	ldr	x1, [sp, #32]
   839c0:	f9407be0 	ldr	x0, [sp, #240]
   839c4:	8b000020 	add	x0, x1, x0
   839c8:	39400000 	ldrb	w0, [x0]
   839cc:	92401c00 	and	x0, x0, #0xff
   839d0:	91000400 	add	x0, x0, #0x1
   839d4:	8b000040 	add	x0, x2, x0
   839d8:	39400000 	ldrb	w0, [x0]
   839dc:	121e0000 	and	w0, w0, #0x4
   839e0:	7100001f 	cmp	w0, #0x0
   839e4:	54fffa21 	b.ne	83928 <Process_Out+0x270>  // b.any
   839e8:	f94013e1 	ldr	x1, [sp, #32]
   839ec:	f9407be0 	ldr	x0, [sp, #240]
   839f0:	8b000020 	add	x0, x1, x0
   839f4:	39400000 	ldrb	w0, [x0]
   839f8:	7100b81f 	cmp	w0, #0x2e
   839fc:	54000d21 	b.ne	83ba0 <Process_Out+0x4e8>  // b.any
   83a00:	f9407be0 	ldr	x0, [sp, #240]
   83a04:	91000400 	add	x0, x0, #0x1
   83a08:	f9007be0 	str	x0, [sp, #240]
   83a0c:	f9407be1 	ldr	x1, [sp, #240]
   83a10:	f9400fe0 	ldr	x0, [sp, #24]
   83a14:	eb00003f 	cmp	x1, x0
   83a18:	54000063 	b.cc	83a24 <Process_Out+0x36c>  // b.lo, b.ul, b.last
   83a1c:	b980ffe0 	ldrsw	x0, [sp, #252]
   83a20:	140004e2 	b	84da8 <Process_Out+0x16f0>
   83a24:	f94013e1 	ldr	x1, [sp, #32]
   83a28:	f9407be0 	ldr	x0, [sp, #240]
   83a2c:	8b000020 	add	x0, x1, x0
   83a30:	39400000 	ldrb	w0, [x0]
   83a34:	7100a81f 	cmp	w0, #0x2a
   83a38:	540009a1 	b.ne	83b6c <Process_Out+0x4b4>  // b.any
   83a3c:	f9407be0 	ldr	x0, [sp, #240]
   83a40:	91000400 	add	x0, x0, #0x1
   83a44:	f9007be0 	str	x0, [sp, #240]
   83a48:	f9407be1 	ldr	x1, [sp, #240]
   83a4c:	f9400fe0 	ldr	x0, [sp, #24]
   83a50:	eb00003f 	cmp	x1, x0
   83a54:	54000063 	b.cc	83a60 <Process_Out+0x3a8>  // b.lo, b.ul, b.last
   83a58:	b980ffe0 	ldrsw	x0, [sp, #252]
   83a5c:	140004d3 	b	84da8 <Process_Out+0x16f0>
   83a60:	b9401a60 	ldr	w0, [x19, #24]
   83a64:	f9400261 	ldr	x1, [x19]
   83a68:	7100001f 	cmp	w0, #0x0
   83a6c:	540000eb 	b.lt	83a88 <Process_Out+0x3d0>  // b.tstop
   83a70:	aa0103e0 	mov	x0, x1
   83a74:	91002c00 	add	x0, x0, #0xb
   83a78:	927df000 	and	x0, x0, #0xfffffffffffffff8
   83a7c:	f9000260 	str	x0, [x19]
   83a80:	aa0103e0 	mov	x0, x1
   83a84:	1400000f 	b	83ac0 <Process_Out+0x408>
   83a88:	11002002 	add	w2, w0, #0x8
   83a8c:	b9001a62 	str	w2, [x19, #24]
   83a90:	b9401a62 	ldr	w2, [x19, #24]
   83a94:	7100005f 	cmp	w2, #0x0
   83a98:	540000ed 	b.le	83ab4 <Process_Out+0x3fc>
   83a9c:	aa0103e0 	mov	x0, x1
   83aa0:	91002c00 	add	x0, x0, #0xb
   83aa4:	927df000 	and	x0, x0, #0xfffffffffffffff8
   83aa8:	f9000260 	str	x0, [x19]
   83aac:	aa0103e0 	mov	x0, x1
   83ab0:	14000004 	b	83ac0 <Process_Out+0x408>
   83ab4:	f9400661 	ldr	x1, [x19, #8]
   83ab8:	93407c00 	sxtw	x0, w0
   83abc:	8b000020 	add	x0, x1, x0
   83ac0:	b9400000 	ldr	w0, [x0]
   83ac4:	13001c00 	sxtb	w0, w0
   83ac8:	3900cfe0 	strb	w0, [sp, #51]
   83acc:	39c0cfe0 	ldrsb	w0, [sp, #51]
   83ad0:	7100001f 	cmp	w0, #0x0
   83ad4:	5400066a 	b.ge	83ba0 <Process_Out+0x4e8>  // b.tcont
   83ad8:	3900cfff 	strb	wzr, [sp, #51]
   83adc:	14000031 	b	83ba0 <Process_Out+0x4e8>
   83ae0:	39c0cfe0 	ldrsb	w0, [sp, #51]
   83ae4:	7100001f 	cmp	w0, #0x0
   83ae8:	5400004a 	b.ge	83af0 <Process_Out+0x438>  // b.tcont
   83aec:	3900cfff 	strb	wzr, [sp, #51]
   83af0:	39c0cfe0 	ldrsb	w0, [sp, #51]
   83af4:	12001c00 	and	w0, w0, #0xff
   83af8:	2a0003e1 	mov	w1, w0
   83afc:	2a0103e0 	mov	w0, w1
   83b00:	531e1400 	ubfiz	w0, w0, #2, #6
   83b04:	0b010000 	add	w0, w0, w1
   83b08:	531f1800 	ubfiz	w0, w0, #1, #7
   83b0c:	12001c00 	and	w0, w0, #0xff
   83b10:	13001c00 	sxtb	w0, w0
   83b14:	3900cfe0 	strb	w0, [sp, #51]
   83b18:	39c0cfe0 	ldrsb	w0, [sp, #51]
   83b1c:	12001c01 	and	w1, w0, #0xff
   83b20:	f94013e2 	ldr	x2, [sp, #32]
   83b24:	f9407be0 	ldr	x0, [sp, #240]
   83b28:	8b000040 	add	x0, x2, x0
   83b2c:	39400000 	ldrb	w0, [x0]
   83b30:	0b000020 	add	w0, w1, w0
   83b34:	12001c00 	and	w0, w0, #0xff
   83b38:	5100c000 	sub	w0, w0, #0x30
   83b3c:	12001c00 	and	w0, w0, #0xff
   83b40:	13001c00 	sxtb	w0, w0
   83b44:	3900cfe0 	strb	w0, [sp, #51]
   83b48:	f9407be0 	ldr	x0, [sp, #240]
   83b4c:	91000400 	add	x0, x0, #0x1
   83b50:	f9007be0 	str	x0, [sp, #240]
   83b54:	f9407be1 	ldr	x1, [sp, #240]
   83b58:	f9400fe0 	ldr	x0, [sp, #24]
   83b5c:	eb00003f 	cmp	x1, x0
   83b60:	54000063 	b.cc	83b6c <Process_Out+0x4b4>  // b.lo, b.ul, b.last
   83b64:	b980ffe0 	ldrsw	x0, [sp, #252]
   83b68:	14000490 	b	84da8 <Process_Out+0x16f0>
   83b6c:	940023a3 	bl	8c9f8 <__locale_ctype_ptr>
   83b70:	aa0003e2 	mov	x2, x0
   83b74:	f94013e1 	ldr	x1, [sp, #32]
   83b78:	f9407be0 	ldr	x0, [sp, #240]
   83b7c:	8b000020 	add	x0, x1, x0
   83b80:	39400000 	ldrb	w0, [x0]
   83b84:	92401c00 	and	x0, x0, #0xff
   83b88:	91000400 	add	x0, x0, #0x1
   83b8c:	8b000040 	add	x0, x2, x0
   83b90:	39400000 	ldrb	w0, [x0]
   83b94:	121e0000 	and	w0, w0, #0x4
   83b98:	7100001f 	cmp	w0, #0x0
   83b9c:	54fffa21 	b.ne	83ae0 <Process_Out+0x428>  // b.any
   83ba0:	f94013e1 	ldr	x1, [sp, #32]
   83ba4:	f9407be0 	ldr	x0, [sp, #240]
   83ba8:	8b000020 	add	x0, x1, x0
   83bac:	39400000 	ldrb	w0, [x0]
   83bb0:	7101a01f 	cmp	w0, #0x68
   83bb4:	540003e0 	b.eq	83c30 <Process_Out+0x578>  // b.none
   83bb8:	f94013e1 	ldr	x1, [sp, #32]
   83bbc:	f9407be0 	ldr	x0, [sp, #240]
   83bc0:	8b000020 	add	x0, x1, x0
   83bc4:	39400000 	ldrb	w0, [x0]
   83bc8:	7101b01f 	cmp	w0, #0x6c
   83bcc:	54000320 	b.eq	83c30 <Process_Out+0x578>  // b.none
   83bd0:	f94013e1 	ldr	x1, [sp, #32]
   83bd4:	f9407be0 	ldr	x0, [sp, #240]
   83bd8:	8b000020 	add	x0, x1, x0
   83bdc:	39400000 	ldrb	w0, [x0]
   83be0:	7101a81f 	cmp	w0, #0x6a
   83be4:	54000260 	b.eq	83c30 <Process_Out+0x578>  // b.none
   83be8:	f94013e1 	ldr	x1, [sp, #32]
   83bec:	f9407be0 	ldr	x0, [sp, #240]
   83bf0:	8b000020 	add	x0, x1, x0
   83bf4:	39400000 	ldrb	w0, [x0]
   83bf8:	7101e81f 	cmp	w0, #0x7a
   83bfc:	540001a0 	b.eq	83c30 <Process_Out+0x578>  // b.none
   83c00:	f94013e1 	ldr	x1, [sp, #32]
   83c04:	f9407be0 	ldr	x0, [sp, #240]
   83c08:	8b000020 	add	x0, x1, x0
   83c0c:	39400000 	ldrb	w0, [x0]
   83c10:	7101d01f 	cmp	w0, #0x74
   83c14:	540000e0 	b.eq	83c30 <Process_Out+0x578>  // b.none
   83c18:	f94013e1 	ldr	x1, [sp, #32]
   83c1c:	f9407be0 	ldr	x0, [sp, #240]
   83c20:	8b000020 	add	x0, x1, x0
   83c24:	39400000 	ldrb	w0, [x0]
   83c28:	7101301f 	cmp	w0, #0x4c
   83c2c:	540006e1 	b.ne	83d08 <Process_Out+0x650>  // b.any
   83c30:	f94013e1 	ldr	x1, [sp, #32]
   83c34:	f9407be0 	ldr	x0, [sp, #240]
   83c38:	8b000020 	add	x0, x1, x0
   83c3c:	39400000 	ldrb	w0, [x0]
   83c40:	b900ebe0 	str	w0, [sp, #232]
   83c44:	f94013e1 	ldr	x1, [sp, #32]
   83c48:	f9407be0 	ldr	x0, [sp, #240]
   83c4c:	8b000020 	add	x0, x1, x0
   83c50:	39400000 	ldrb	w0, [x0]
   83c54:	7101a01f 	cmp	w0, #0x68
   83c58:	540000e0 	b.eq	83c74 <Process_Out+0x5bc>  // b.none
   83c5c:	f94013e1 	ldr	x1, [sp, #32]
   83c60:	f9407be0 	ldr	x0, [sp, #240]
   83c64:	8b000020 	add	x0, x1, x0
   83c68:	39400000 	ldrb	w0, [x0]
   83c6c:	7101b01f 	cmp	w0, #0x6c
   83c70:	540003a1 	b.ne	83ce4 <Process_Out+0x62c>  // b.any
   83c74:	f9400fe0 	ldr	x0, [sp, #24]
   83c78:	d1000400 	sub	x0, x0, #0x1
   83c7c:	f9407be1 	ldr	x1, [sp, #240]
   83c80:	eb00003f 	cmp	x1, x0
   83c84:	54000302 	b.cs	83ce4 <Process_Out+0x62c>  // b.hs, b.nlast
   83c88:	f9407be0 	ldr	x0, [sp, #240]
   83c8c:	91000400 	add	x0, x0, #0x1
   83c90:	f94013e1 	ldr	x1, [sp, #32]
   83c94:	8b000020 	add	x0, x1, x0
   83c98:	39400001 	ldrb	w1, [x0]
   83c9c:	f94013e2 	ldr	x2, [sp, #32]
   83ca0:	f9407be0 	ldr	x0, [sp, #240]
   83ca4:	8b000040 	add	x0, x2, x0
   83ca8:	39400000 	ldrb	w0, [x0]
   83cac:	6b00003f 	cmp	w1, w0
   83cb0:	540001a1 	b.ne	83ce4 <Process_Out+0x62c>  // b.any
   83cb4:	3940c3e0 	ldrb	w0, [sp, #48]
   83cb8:	32196000 	orr	w0, w0, #0xffffff80
   83cbc:	3900c3e0 	strb	w0, [sp, #48]
   83cc0:	f9407be0 	ldr	x0, [sp, #240]
   83cc4:	91000400 	add	x0, x0, #0x1
   83cc8:	f9007be0 	str	x0, [sp, #240]
   83ccc:	f9407be1 	ldr	x1, [sp, #240]
   83cd0:	f9400fe0 	ldr	x0, [sp, #24]
   83cd4:	eb00003f 	cmp	x1, x0
   83cd8:	54000063 	b.cc	83ce4 <Process_Out+0x62c>  // b.lo, b.ul, b.last
   83cdc:	b980ffe0 	ldrsw	x0, [sp, #252]
   83ce0:	14000432 	b	84da8 <Process_Out+0x16f0>
   83ce4:	f9407be0 	ldr	x0, [sp, #240]
   83ce8:	91000400 	add	x0, x0, #0x1
   83cec:	f9007be0 	str	x0, [sp, #240]
   83cf0:	f9407be1 	ldr	x1, [sp, #240]
   83cf4:	f9400fe0 	ldr	x0, [sp, #24]
   83cf8:	eb00003f 	cmp	x1, x0
   83cfc:	54000063 	b.cc	83d08 <Process_Out+0x650>  // b.lo, b.ul, b.last
   83d00:	b980ffe0 	ldrsw	x0, [sp, #252]
   83d04:	14000429 	b	84da8 <Process_Out+0x16f0>
   83d08:	f94013e1 	ldr	x1, [sp, #32]
   83d0c:	f9407be0 	ldr	x0, [sp, #240]
   83d10:	8b000020 	add	x0, x1, x0
   83d14:	39400000 	ldrb	w0, [x0]
   83d18:	51009400 	sub	w0, w0, #0x25
   83d1c:	71014c1f 	cmp	w0, #0x53
   83d20:	54005a68 	b.hi	8486c <Process_Out+0x11b4>  // b.pmore
   83d24:	90000081 	adrp	x1, 93000 <_malloc_r+0x348>
   83d28:	913e8021 	add	x1, x1, #0xfa0
   83d2c:	b8605820 	ldr	w0, [x1, w0, uxtw #2]
   83d30:	10000061 	adr	x1, 83d3c <Process_Out+0x684>
   83d34:	8b20c820 	add	x0, x1, w0, sxtw #2
   83d38:	d61f0000 	br	x0
   83d3c:	3940c3e0 	ldrb	w0, [sp, #48]
   83d40:	121c0000 	and	w0, w0, #0x10
   83d44:	12001c00 	and	w0, w0, #0xff
   83d48:	7100001f 	cmp	w0, #0x0
   83d4c:	54000341 	b.ne	83db4 <Process_Out+0x6fc>  // b.any
   83d50:	39c0cbe0 	ldrsb	w0, [sp, #50]
   83d54:	7100001f 	cmp	w0, #0x0
   83d58:	5400028d 	b.le	83da8 <Process_Out+0x6f0>
   83d5c:	39c0cbe0 	ldrsb	w0, [sp, #50]
   83d60:	12001c00 	and	w0, w0, #0xff
   83d64:	51000400 	sub	w0, w0, #0x1
   83d68:	12001c00 	and	w0, w0, #0xff
   83d6c:	13001c00 	sxtb	w0, w0
   83d70:	3900cbe0 	strb	w0, [sp, #50]
   83d74:	1400000d 	b	83da8 <Process_Out+0x6f0>
   83d78:	f94017e1 	ldr	x1, [sp, #40]
   83d7c:	52800400 	mov	w0, #0x20                  	// #32
   83d80:	d63f0020 	blr	x1
   83d84:	b940ffe0 	ldr	w0, [sp, #252]
   83d88:	11000400 	add	w0, w0, #0x1
   83d8c:	b900ffe0 	str	w0, [sp, #252]
   83d90:	39c0cbe0 	ldrsb	w0, [sp, #50]
   83d94:	12001c00 	and	w0, w0, #0xff
   83d98:	51000400 	sub	w0, w0, #0x1
   83d9c:	12001c00 	and	w0, w0, #0xff
   83da0:	13001c00 	sxtb	w0, w0
   83da4:	3900cbe0 	strb	w0, [sp, #50]
   83da8:	39c0cbe0 	ldrsb	w0, [sp, #50]
   83dac:	7100001f 	cmp	w0, #0x0
   83db0:	54fffe4c 	b.gt	83d78 <Process_Out+0x6c0>
   83db4:	b940ebe0 	ldr	w0, [sp, #232]
   83db8:	7101b01f 	cmp	w0, #0x6c
   83dbc:	54000481 	b.ne	83e4c <Process_Out+0x794>  // b.any
   83dc0:	b9401a60 	ldr	w0, [x19, #24]
   83dc4:	f9400261 	ldr	x1, [x19]
   83dc8:	7100001f 	cmp	w0, #0x0
   83dcc:	540000eb 	b.lt	83de8 <Process_Out+0x730>  // b.tstop
   83dd0:	aa0103e0 	mov	x0, x1
   83dd4:	91002c00 	add	x0, x0, #0xb
   83dd8:	927df000 	and	x0, x0, #0xfffffffffffffff8
   83ddc:	f9000260 	str	x0, [x19]
   83de0:	aa0103e0 	mov	x0, x1
   83de4:	1400000f 	b	83e20 <Process_Out+0x768>
   83de8:	11002002 	add	w2, w0, #0x8
   83dec:	b9001a62 	str	w2, [x19, #24]
   83df0:	b9401a62 	ldr	w2, [x19, #24]
   83df4:	7100005f 	cmp	w2, #0x0
   83df8:	540000ed 	b.le	83e14 <Process_Out+0x75c>
   83dfc:	aa0103e0 	mov	x0, x1
   83e00:	91002c00 	add	x0, x0, #0xb
   83e04:	927df000 	and	x0, x0, #0xfffffffffffffff8
   83e08:	f9000260 	str	x0, [x19]
   83e0c:	aa0103e0 	mov	x0, x1
   83e10:	14000004 	b	83e20 <Process_Out+0x768>
   83e14:	f9400661 	ldr	x1, [x19, #8]
   83e18:	93407c00 	sxtw	x0, w0
   83e1c:	8b000020 	add	x0, x1, x0
   83e20:	b9400000 	ldr	w0, [x0]
   83e24:	b900dfe0 	str	w0, [sp, #220]
   83e28:	b940dfe0 	ldr	w0, [sp, #220]
   83e2c:	94002c25 	bl	8eec0 <wctob>
   83e30:	12001c00 	and	w0, w0, #0xff
   83e34:	f94017e1 	ldr	x1, [sp, #40]
   83e38:	d63f0020 	blr	x1
   83e3c:	b940ffe0 	ldr	w0, [sp, #252]
   83e40:	11000400 	add	w0, w0, #0x1
   83e44:	b900ffe0 	str	w0, [sp, #252]
   83e48:	14000021 	b	83ecc <Process_Out+0x814>
   83e4c:	b9401a60 	ldr	w0, [x19, #24]
   83e50:	f9400261 	ldr	x1, [x19]
   83e54:	7100001f 	cmp	w0, #0x0
   83e58:	540000eb 	b.lt	83e74 <Process_Out+0x7bc>  // b.tstop
   83e5c:	aa0103e0 	mov	x0, x1
   83e60:	91002c00 	add	x0, x0, #0xb
   83e64:	927df000 	and	x0, x0, #0xfffffffffffffff8
   83e68:	f9000260 	str	x0, [x19]
   83e6c:	aa0103e0 	mov	x0, x1
   83e70:	1400000f 	b	83eac <Process_Out+0x7f4>
   83e74:	11002002 	add	w2, w0, #0x8
   83e78:	b9001a62 	str	w2, [x19, #24]
   83e7c:	b9401a62 	ldr	w2, [x19, #24]
   83e80:	7100005f 	cmp	w2, #0x0
   83e84:	540000ed 	b.le	83ea0 <Process_Out+0x7e8>
   83e88:	aa0103e0 	mov	x0, x1
   83e8c:	91002c00 	add	x0, x0, #0xb
   83e90:	927df000 	and	x0, x0, #0xfffffffffffffff8
   83e94:	f9000260 	str	x0, [x19]
   83e98:	aa0103e0 	mov	x0, x1
   83e9c:	14000004 	b	83eac <Process_Out+0x7f4>
   83ea0:	f9400661 	ldr	x1, [x19, #8]
   83ea4:	93407c00 	sxtw	x0, w0
   83ea8:	8b000020 	add	x0, x1, x0
   83eac:	b9400000 	ldr	w0, [x0]
   83eb0:	39036fe0 	strb	w0, [sp, #219]
   83eb4:	f94017e1 	ldr	x1, [sp, #40]
   83eb8:	39436fe0 	ldrb	w0, [sp, #219]
   83ebc:	d63f0020 	blr	x1
   83ec0:	b940ffe0 	ldr	w0, [sp, #252]
   83ec4:	11000400 	add	w0, w0, #0x1
   83ec8:	b900ffe0 	str	w0, [sp, #252]
   83ecc:	39c0cbe0 	ldrsb	w0, [sp, #50]
   83ed0:	7100001f 	cmp	w0, #0x0
   83ed4:	5400028d 	b.le	83f24 <Process_Out+0x86c>
   83ed8:	39c0cbe0 	ldrsb	w0, [sp, #50]
   83edc:	12001c00 	and	w0, w0, #0xff
   83ee0:	51000400 	sub	w0, w0, #0x1
   83ee4:	12001c00 	and	w0, w0, #0xff
   83ee8:	13001c00 	sxtb	w0, w0
   83eec:	3900cbe0 	strb	w0, [sp, #50]
   83ef0:	1400000d 	b	83f24 <Process_Out+0x86c>
   83ef4:	f94017e1 	ldr	x1, [sp, #40]
   83ef8:	52800400 	mov	w0, #0x20                  	// #32
   83efc:	d63f0020 	blr	x1
   83f00:	b940ffe0 	ldr	w0, [sp, #252]
   83f04:	11000400 	add	w0, w0, #0x1
   83f08:	b900ffe0 	str	w0, [sp, #252]
   83f0c:	39c0cbe0 	ldrsb	w0, [sp, #50]
   83f10:	12001c00 	and	w0, w0, #0xff
   83f14:	51000400 	sub	w0, w0, #0x1
   83f18:	12001c00 	and	w0, w0, #0xff
   83f1c:	13001c00 	sxtb	w0, w0
   83f20:	3900cbe0 	strb	w0, [sp, #50]
   83f24:	39c0cbe0 	ldrsb	w0, [sp, #50]
   83f28:	7100001f 	cmp	w0, #0x0
   83f2c:	54fffe4c 	b.gt	83ef4 <Process_Out+0x83c>
   83f30:	52800020 	mov	w0, #0x1                   	// #1
   83f34:	3903bfe0 	strb	w0, [sp, #239]
   83f38:	1400024d 	b	8486c <Process_Out+0x11b4>
   83f3c:	b9401a60 	ldr	w0, [x19, #24]
   83f40:	f9400261 	ldr	x1, [x19]
   83f44:	7100001f 	cmp	w0, #0x0
   83f48:	540000eb 	b.lt	83f64 <Process_Out+0x8ac>  // b.tstop
   83f4c:	aa0103e0 	mov	x0, x1
   83f50:	91003c00 	add	x0, x0, #0xf
   83f54:	927df000 	and	x0, x0, #0xfffffffffffffff8
   83f58:	f9000260 	str	x0, [x19]
   83f5c:	aa0103e0 	mov	x0, x1
   83f60:	1400000f 	b	83f9c <Process_Out+0x8e4>
   83f64:	11002002 	add	w2, w0, #0x8
   83f68:	b9001a62 	str	w2, [x19, #24]
   83f6c:	b9401a62 	ldr	w2, [x19, #24]
   83f70:	7100005f 	cmp	w2, #0x0
   83f74:	540000ed 	b.le	83f90 <Process_Out+0x8d8>
   83f78:	aa0103e0 	mov	x0, x1
   83f7c:	91003c00 	add	x0, x0, #0xf
   83f80:	927df000 	and	x0, x0, #0xfffffffffffffff8
   83f84:	f9000260 	str	x0, [x19]
   83f88:	aa0103e0 	mov	x0, x1
   83f8c:	14000004 	b	83f9c <Process_Out+0x8e4>
   83f90:	f9400661 	ldr	x1, [x19, #8]
   83f94:	93407c00 	sxtw	x0, w0
   83f98:	8b000020 	add	x0, x1, x0
   83f9c:	f9400000 	ldr	x0, [x0]
   83fa0:	f9006be0 	str	x0, [sp, #208]
   83fa4:	39c0cfe0 	ldrsb	w0, [sp, #51]
   83fa8:	93401c00 	sxtb	x0, w0
   83fac:	aa0003e1 	mov	x1, x0
   83fb0:	f9406be0 	ldr	x0, [sp, #208]
   83fb4:	940024ac 	bl	8d264 <strnlen>
   83fb8:	b900cfe0 	str	w0, [sp, #204]
   83fbc:	3940c3e0 	ldrb	w0, [sp, #48]
   83fc0:	121c0000 	and	w0, w0, #0x10
   83fc4:	12001c00 	and	w0, w0, #0xff
   83fc8:	7100001f 	cmp	w0, #0x0
   83fcc:	54000401 	b.ne	8404c <Process_Out+0x994>  // b.any
   83fd0:	39c0cbe0 	ldrsb	w0, [sp, #50]
   83fd4:	2a0003e1 	mov	w1, w0
   83fd8:	b940cfe0 	ldr	w0, [sp, #204]
   83fdc:	6b01001f 	cmp	w0, w1
   83fe0:	5400014a 	b.ge	84008 <Process_Out+0x950>  // b.tcont
   83fe4:	39c0cbe0 	ldrsb	w0, [sp, #50]
   83fe8:	12001c01 	and	w1, w0, #0xff
   83fec:	b940cfe0 	ldr	w0, [sp, #204]
   83ff0:	12001c00 	and	w0, w0, #0xff
   83ff4:	4b000020 	sub	w0, w1, w0
   83ff8:	12001c00 	and	w0, w0, #0xff
   83ffc:	13001c00 	sxtb	w0, w0
   84000:	3900cbe0 	strb	w0, [sp, #50]
   84004:	1400000f 	b	84040 <Process_Out+0x988>
   84008:	3900cbff 	strb	wzr, [sp, #50]
   8400c:	1400000d 	b	84040 <Process_Out+0x988>
   84010:	f94017e1 	ldr	x1, [sp, #40]
   84014:	52800400 	mov	w0, #0x20                  	// #32
   84018:	d63f0020 	blr	x1
   8401c:	b940ffe0 	ldr	w0, [sp, #252]
   84020:	11000400 	add	w0, w0, #0x1
   84024:	b900ffe0 	str	w0, [sp, #252]
   84028:	39c0cbe0 	ldrsb	w0, [sp, #50]
   8402c:	12001c00 	and	w0, w0, #0xff
   84030:	51000400 	sub	w0, w0, #0x1
   84034:	12001c00 	and	w0, w0, #0xff
   84038:	13001c00 	sxtb	w0, w0
   8403c:	3900cbe0 	strb	w0, [sp, #50]
   84040:	39c0cbe0 	ldrsb	w0, [sp, #50]
   84044:	7100001f 	cmp	w0, #0x0
   84048:	54fffe4c 	b.gt	84010 <Process_Out+0x958>
   8404c:	b900e3ff 	str	wzr, [sp, #224]
   84050:	1400000d 	b	84084 <Process_Out+0x9cc>
   84054:	b980e3e0 	ldrsw	x0, [sp, #224]
   84058:	f9406be1 	ldr	x1, [sp, #208]
   8405c:	8b000020 	add	x0, x1, x0
   84060:	39400000 	ldrb	w0, [x0]
   84064:	f94017e1 	ldr	x1, [sp, #40]
   84068:	d63f0020 	blr	x1
   8406c:	b940ffe0 	ldr	w0, [sp, #252]
   84070:	11000400 	add	w0, w0, #0x1
   84074:	b900ffe0 	str	w0, [sp, #252]
   84078:	b940e3e0 	ldr	w0, [sp, #224]
   8407c:	11000400 	add	w0, w0, #0x1
   84080:	b900e3e0 	str	w0, [sp, #224]
   84084:	b940e3e1 	ldr	w1, [sp, #224]
   84088:	b940cfe0 	ldr	w0, [sp, #204]
   8408c:	6b00003f 	cmp	w1, w0
   84090:	54fffe2b 	b.lt	84054 <Process_Out+0x99c>  // b.tstop
   84094:	39c0cbe0 	ldrsb	w0, [sp, #50]
   84098:	7100001f 	cmp	w0, #0x0
   8409c:	5400036d 	b.le	84108 <Process_Out+0xa50>
   840a0:	39c0cbe0 	ldrsb	w0, [sp, #50]
   840a4:	2a0003e1 	mov	w1, w0
   840a8:	b940cfe0 	ldr	w0, [sp, #204]
   840ac:	6b01001f 	cmp	w0, w1
   840b0:	540002ca 	b.ge	84108 <Process_Out+0xa50>  // b.tcont
   840b4:	39c0cbe0 	ldrsb	w0, [sp, #50]
   840b8:	12001c01 	and	w1, w0, #0xff
   840bc:	b940cfe0 	ldr	w0, [sp, #204]
   840c0:	12001c00 	and	w0, w0, #0xff
   840c4:	4b000020 	sub	w0, w1, w0
   840c8:	12001c00 	and	w0, w0, #0xff
   840cc:	13001c00 	sxtb	w0, w0
   840d0:	3900cbe0 	strb	w0, [sp, #50]
   840d4:	1400000d 	b	84108 <Process_Out+0xa50>
   840d8:	f94017e1 	ldr	x1, [sp, #40]
   840dc:	52800400 	mov	w0, #0x20                  	// #32
   840e0:	d63f0020 	blr	x1
   840e4:	b940ffe0 	ldr	w0, [sp, #252]
   840e8:	11000400 	add	w0, w0, #0x1
   840ec:	b900ffe0 	str	w0, [sp, #252]
   840f0:	39c0cbe0 	ldrsb	w0, [sp, #50]
   840f4:	12001c00 	and	w0, w0, #0xff
   840f8:	51000400 	sub	w0, w0, #0x1
   840fc:	12001c00 	and	w0, w0, #0xff
   84100:	13001c00 	sxtb	w0, w0
   84104:	3900cbe0 	strb	w0, [sp, #50]
   84108:	39c0cbe0 	ldrsb	w0, [sp, #50]
   8410c:	7100001f 	cmp	w0, #0x0
   84110:	54fffe4c 	b.gt	840d8 <Process_Out+0xa20>
   84114:	52800020 	mov	w0, #0x1                   	// #1
   84118:	3903bfe0 	strb	w0, [sp, #239]
   8411c:	140001d4 	b	8486c <Process_Out+0x11b4>
   84120:	f94017e1 	ldr	x1, [sp, #40]
   84124:	528004a0 	mov	w0, #0x25                  	// #37
   84128:	d63f0020 	blr	x1
   8412c:	b940ffe0 	ldr	w0, [sp, #252]
   84130:	11000400 	add	w0, w0, #0x1
   84134:	b900ffe0 	str	w0, [sp, #252]
   84138:	52800020 	mov	w0, #0x1                   	// #1
   8413c:	3903bfe0 	strb	w0, [sp, #239]
   84140:	140001cb 	b	8486c <Process_Out+0x11b4>
   84144:	3940c7e0 	ldrb	w0, [sp, #49]
   84148:	52800101 	mov	w1, #0x8                   	// #8
   8414c:	33001020 	bfxil	w0, w1, #0, #5
   84150:	3900c7e0 	strb	w0, [sp, #49]
   84154:	140001c6 	b	8486c <Process_Out+0x11b4>
   84158:	3940c3e0 	ldrb	w0, [sp, #48]
   8415c:	321b0000 	orr	w0, w0, #0x20
   84160:	3900c3e0 	strb	w0, [sp, #48]
   84164:	3940c7e0 	ldrb	w0, [sp, #49]
   84168:	52800201 	mov	w1, #0x10                  	// #16
   8416c:	33001020 	bfxil	w0, w1, #0, #5
   84170:	3900c7e0 	strb	w0, [sp, #49]
   84174:	140001be 	b	8486c <Process_Out+0x11b4>
   84178:	3940c3e0 	ldrb	w0, [sp, #48]
   8417c:	321f0000 	orr	w0, w0, #0x2
   84180:	3900c3e0 	strb	w0, [sp, #48]
   84184:	140001ba 	b	8486c <Process_Out+0x11b4>
   84188:	39c0cbe0 	ldrsb	w0, [sp, #50]
   8418c:	3100041f 	cmn	w0, #0x1
   84190:	540000c1 	b.ne	841a8 <Process_Out+0xaf0>  // b.any
   84194:	52800200 	mov	w0, #0x10                  	// #16
   84198:	3900cbe0 	strb	w0, [sp, #50]
   8419c:	3940c3e0 	ldrb	w0, [sp, #48]
   841a0:	32000000 	orr	w0, w0, #0x1
   841a4:	3900c3e0 	strb	w0, [sp, #48]
   841a8:	3940c7e0 	ldrb	w0, [sp, #49]
   841ac:	52800201 	mov	w1, #0x10                  	// #16
   841b0:	33001020 	bfxil	w0, w1, #0, #5
   841b4:	3900c7e0 	strb	w0, [sp, #49]
   841b8:	b9401a60 	ldr	w0, [x19, #24]
   841bc:	f9400261 	ldr	x1, [x19]
   841c0:	7100001f 	cmp	w0, #0x0
   841c4:	540000eb 	b.lt	841e0 <Process_Out+0xb28>  // b.tstop
   841c8:	aa0103e0 	mov	x0, x1
   841cc:	91003c00 	add	x0, x0, #0xf
   841d0:	927df000 	and	x0, x0, #0xfffffffffffffff8
   841d4:	f9000260 	str	x0, [x19]
   841d8:	aa0103e0 	mov	x0, x1
   841dc:	1400000f 	b	84218 <Process_Out+0xb60>
   841e0:	11002002 	add	w2, w0, #0x8
   841e4:	b9001a62 	str	w2, [x19, #24]
   841e8:	b9401a62 	ldr	w2, [x19, #24]
   841ec:	7100005f 	cmp	w2, #0x0
   841f0:	540000ed 	b.le	8420c <Process_Out+0xb54>
   841f4:	aa0103e0 	mov	x0, x1
   841f8:	91003c00 	add	x0, x0, #0xf
   841fc:	927df000 	and	x0, x0, #0xfffffffffffffff8
   84200:	f9000260 	str	x0, [x19]
   84204:	aa0103e0 	mov	x0, x1
   84208:	14000004 	b	84218 <Process_Out+0xb60>
   8420c:	f9400661 	ldr	x1, [x19, #8]
   84210:	93407c00 	sxtw	x0, w0
   84214:	8b000020 	add	x0, x1, x0
   84218:	f9400000 	ldr	x0, [x0]
   8421c:	b94033e2 	ldr	w2, [sp, #48]
   84220:	aa0003e1 	mov	x1, x0
   84224:	f94017e0 	ldr	x0, [sp, #40]
   84228:	97fffc03 	bl	83234 <number>
   8422c:	2a0003e1 	mov	w1, w0
   84230:	b940ffe0 	ldr	w0, [sp, #252]
   84234:	0b010000 	add	w0, w0, w1
   84238:	b900ffe0 	str	w0, [sp, #252]
   8423c:	52800020 	mov	w0, #0x1                   	// #1
   84240:	3903bfe0 	strb	w0, [sp, #239]
   84244:	1400018a 	b	8486c <Process_Out+0x11b4>
   84248:	b940ebe0 	ldr	w0, [sp, #232]
   8424c:	7101a81f 	cmp	w0, #0x6a
   84250:	54001320 	b.eq	844b4 <Process_Out+0xdfc>  // b.none
   84254:	b940ebe0 	ldr	w0, [sp, #232]
   84258:	7101a81f 	cmp	w0, #0x6a
   8425c:	5400010c 	b.gt	8427c <Process_Out+0xbc4>
   84260:	b940ebe0 	ldr	w0, [sp, #232]
   84264:	7101301f 	cmp	w0, #0x4c
   84268:	54001da0 	b.eq	8461c <Process_Out+0xf64>  // b.none
   8426c:	b940ebe0 	ldr	w0, [sp, #232]
   84270:	7101a01f 	cmp	w0, #0x68
   84274:	54000180 	b.eq	842a4 <Process_Out+0xbec>  // b.none
   84278:	14000108 	b	84698 <Process_Out+0xfe0>
   8427c:	b940ebe0 	ldr	w0, [sp, #232]
   84280:	7101d01f 	cmp	w0, #0x74
   84284:	54001900 	b.eq	845a4 <Process_Out+0xeec>  // b.none
   84288:	b940ebe0 	ldr	w0, [sp, #232]
   8428c:	7101e81f 	cmp	w0, #0x7a
   84290:	540014e0 	b.eq	8452c <Process_Out+0xe74>  // b.none
   84294:	b940ebe0 	ldr	w0, [sp, #232]
   84298:	7101b01f 	cmp	w0, #0x6c
   8429c:	540008a0 	b.eq	843b0 <Process_Out+0xcf8>  // b.none
   842a0:	140000fe 	b	84698 <Process_Out+0xfe0>
   842a4:	3940c3e0 	ldrb	w0, [sp, #48]
   842a8:	12196000 	and	w0, w0, #0xffffff80
   842ac:	12001c00 	and	w0, w0, #0xff
   842b0:	7100001f 	cmp	w0, #0x0
   842b4:	54000400 	b.eq	84334 <Process_Out+0xc7c>  // b.none
   842b8:	b9401a60 	ldr	w0, [x19, #24]
   842bc:	f9400261 	ldr	x1, [x19]
   842c0:	7100001f 	cmp	w0, #0x0
   842c4:	540000eb 	b.lt	842e0 <Process_Out+0xc28>  // b.tstop
   842c8:	aa0103e0 	mov	x0, x1
   842cc:	91003c00 	add	x0, x0, #0xf
   842d0:	927df000 	and	x0, x0, #0xfffffffffffffff8
   842d4:	f9000260 	str	x0, [x19]
   842d8:	aa0103e0 	mov	x0, x1
   842dc:	1400000f 	b	84318 <Process_Out+0xc60>
   842e0:	11002002 	add	w2, w0, #0x8
   842e4:	b9001a62 	str	w2, [x19, #24]
   842e8:	b9401a62 	ldr	w2, [x19, #24]
   842ec:	7100005f 	cmp	w2, #0x0
   842f0:	540000ed 	b.le	8430c <Process_Out+0xc54>
   842f4:	aa0103e0 	mov	x0, x1
   842f8:	91003c00 	add	x0, x0, #0xf
   842fc:	927df000 	and	x0, x0, #0xfffffffffffffff8
   84300:	f9000260 	str	x0, [x19]
   84304:	aa0103e0 	mov	x0, x1
   84308:	14000004 	b	84318 <Process_Out+0xc60>
   8430c:	f9400661 	ldr	x1, [x19, #8]
   84310:	93407c00 	sxtw	x0, w0
   84314:	8b000020 	add	x0, x1, x0
   84318:	f9400000 	ldr	x0, [x0]
   8431c:	f90063e0 	str	x0, [sp, #192]
   84320:	b940ffe0 	ldr	w0, [sp, #252]
   84324:	13001c01 	sxtb	w1, w0
   84328:	f94063e0 	ldr	x0, [sp, #192]
   8432c:	39000001 	strb	w1, [x0]
   84330:	140000f8 	b	84710 <Process_Out+0x1058>
   84334:	b9401a60 	ldr	w0, [x19, #24]
   84338:	f9400261 	ldr	x1, [x19]
   8433c:	7100001f 	cmp	w0, #0x0
   84340:	540000eb 	b.lt	8435c <Process_Out+0xca4>  // b.tstop
   84344:	aa0103e0 	mov	x0, x1
   84348:	91003c00 	add	x0, x0, #0xf
   8434c:	927df000 	and	x0, x0, #0xfffffffffffffff8
   84350:	f9000260 	str	x0, [x19]
   84354:	aa0103e0 	mov	x0, x1
   84358:	1400000f 	b	84394 <Process_Out+0xcdc>
   8435c:	11002002 	add	w2, w0, #0x8
   84360:	b9001a62 	str	w2, [x19, #24]
   84364:	b9401a62 	ldr	w2, [x19, #24]
   84368:	7100005f 	cmp	w2, #0x0
   8436c:	540000ed 	b.le	84388 <Process_Out+0xcd0>
   84370:	aa0103e0 	mov	x0, x1
   84374:	91003c00 	add	x0, x0, #0xf
   84378:	927df000 	and	x0, x0, #0xfffffffffffffff8
   8437c:	f9000260 	str	x0, [x19]
   84380:	aa0103e0 	mov	x0, x1
   84384:	14000004 	b	84394 <Process_Out+0xcdc>
   84388:	f9400661 	ldr	x1, [x19, #8]
   8438c:	93407c00 	sxtw	x0, w0
   84390:	8b000020 	add	x0, x1, x0
   84394:	f9400000 	ldr	x0, [x0]
   84398:	f9005fe0 	str	x0, [sp, #184]
   8439c:	b940ffe0 	ldr	w0, [sp, #252]
   843a0:	13003c01 	sxth	w1, w0
   843a4:	f9405fe0 	ldr	x0, [sp, #184]
   843a8:	79000001 	strh	w1, [x0]
   843ac:	140000d9 	b	84710 <Process_Out+0x1058>
   843b0:	3940c3e0 	ldrb	w0, [sp, #48]
   843b4:	12196000 	and	w0, w0, #0xffffff80
   843b8:	12001c00 	and	w0, w0, #0xff
   843bc:	7100001f 	cmp	w0, #0x0
   843c0:	540003e0 	b.eq	8443c <Process_Out+0xd84>  // b.none
   843c4:	b9401a60 	ldr	w0, [x19, #24]
   843c8:	f9400261 	ldr	x1, [x19]
   843cc:	7100001f 	cmp	w0, #0x0
   843d0:	540000eb 	b.lt	843ec <Process_Out+0xd34>  // b.tstop
   843d4:	aa0103e0 	mov	x0, x1
   843d8:	91003c00 	add	x0, x0, #0xf
   843dc:	927df000 	and	x0, x0, #0xfffffffffffffff8
   843e0:	f9000260 	str	x0, [x19]
   843e4:	aa0103e0 	mov	x0, x1
   843e8:	1400000f 	b	84424 <Process_Out+0xd6c>
   843ec:	11002002 	add	w2, w0, #0x8
   843f0:	b9001a62 	str	w2, [x19, #24]
   843f4:	b9401a62 	ldr	w2, [x19, #24]
   843f8:	7100005f 	cmp	w2, #0x0
   843fc:	540000ed 	b.le	84418 <Process_Out+0xd60>
   84400:	aa0103e0 	mov	x0, x1
   84404:	91003c00 	add	x0, x0, #0xf
   84408:	927df000 	and	x0, x0, #0xfffffffffffffff8
   8440c:	f9000260 	str	x0, [x19]
   84410:	aa0103e0 	mov	x0, x1
   84414:	14000004 	b	84424 <Process_Out+0xd6c>
   84418:	f9400661 	ldr	x1, [x19, #8]
   8441c:	93407c00 	sxtw	x0, w0
   84420:	8b000020 	add	x0, x1, x0
   84424:	f9400000 	ldr	x0, [x0]
   84428:	f9005be0 	str	x0, [sp, #176]
   8442c:	b980ffe1 	ldrsw	x1, [sp, #252]
   84430:	f9405be0 	ldr	x0, [sp, #176]
   84434:	f9000001 	str	x1, [x0]
   84438:	140000b6 	b	84710 <Process_Out+0x1058>
   8443c:	b9401a60 	ldr	w0, [x19, #24]
   84440:	f9400261 	ldr	x1, [x19]
   84444:	7100001f 	cmp	w0, #0x0
   84448:	540000eb 	b.lt	84464 <Process_Out+0xdac>  // b.tstop
   8444c:	aa0103e0 	mov	x0, x1
   84450:	91003c00 	add	x0, x0, #0xf
   84454:	927df000 	and	x0, x0, #0xfffffffffffffff8
   84458:	f9000260 	str	x0, [x19]
   8445c:	aa0103e0 	mov	x0, x1
   84460:	1400000f 	b	8449c <Process_Out+0xde4>
   84464:	11002002 	add	w2, w0, #0x8
   84468:	b9001a62 	str	w2, [x19, #24]
   8446c:	b9401a62 	ldr	w2, [x19, #24]
   84470:	7100005f 	cmp	w2, #0x0
   84474:	540000ed 	b.le	84490 <Process_Out+0xdd8>
   84478:	aa0103e0 	mov	x0, x1
   8447c:	91003c00 	add	x0, x0, #0xf
   84480:	927df000 	and	x0, x0, #0xfffffffffffffff8
   84484:	f9000260 	str	x0, [x19]
   84488:	aa0103e0 	mov	x0, x1
   8448c:	14000004 	b	8449c <Process_Out+0xde4>
   84490:	f9400661 	ldr	x1, [x19, #8]
   84494:	93407c00 	sxtw	x0, w0
   84498:	8b000020 	add	x0, x1, x0
   8449c:	f9400000 	ldr	x0, [x0]
   844a0:	f90057e0 	str	x0, [sp, #168]
   844a4:	b980ffe1 	ldrsw	x1, [sp, #252]
   844a8:	f94057e0 	ldr	x0, [sp, #168]
   844ac:	f9000001 	str	x1, [x0]
   844b0:	14000098 	b	84710 <Process_Out+0x1058>
   844b4:	b9401a60 	ldr	w0, [x19, #24]
   844b8:	f9400261 	ldr	x1, [x19]
   844bc:	7100001f 	cmp	w0, #0x0
   844c0:	540000eb 	b.lt	844dc <Process_Out+0xe24>  // b.tstop
   844c4:	aa0103e0 	mov	x0, x1
   844c8:	91003c00 	add	x0, x0, #0xf
   844cc:	927df000 	and	x0, x0, #0xfffffffffffffff8
   844d0:	f9000260 	str	x0, [x19]
   844d4:	aa0103e0 	mov	x0, x1
   844d8:	1400000f 	b	84514 <Process_Out+0xe5c>
   844dc:	11002002 	add	w2, w0, #0x8
   844e0:	b9001a62 	str	w2, [x19, #24]
   844e4:	b9401a62 	ldr	w2, [x19, #24]
   844e8:	7100005f 	cmp	w2, #0x0
   844ec:	540000ed 	b.le	84508 <Process_Out+0xe50>
   844f0:	aa0103e0 	mov	x0, x1
   844f4:	91003c00 	add	x0, x0, #0xf
   844f8:	927df000 	and	x0, x0, #0xfffffffffffffff8
   844fc:	f9000260 	str	x0, [x19]
   84500:	aa0103e0 	mov	x0, x1
   84504:	14000004 	b	84514 <Process_Out+0xe5c>
   84508:	f9400661 	ldr	x1, [x19, #8]
   8450c:	93407c00 	sxtw	x0, w0
   84510:	8b000020 	add	x0, x1, x0
   84514:	f9400000 	ldr	x0, [x0]
   84518:	f90053e0 	str	x0, [sp, #160]
   8451c:	b980ffe1 	ldrsw	x1, [sp, #252]
   84520:	f94053e0 	ldr	x0, [sp, #160]
   84524:	f9000001 	str	x1, [x0]
   84528:	1400007a 	b	84710 <Process_Out+0x1058>
   8452c:	b9401a60 	ldr	w0, [x19, #24]
   84530:	f9400261 	ldr	x1, [x19]
   84534:	7100001f 	cmp	w0, #0x0
   84538:	540000eb 	b.lt	84554 <Process_Out+0xe9c>  // b.tstop
   8453c:	aa0103e0 	mov	x0, x1
   84540:	91003c00 	add	x0, x0, #0xf
   84544:	927df000 	and	x0, x0, #0xfffffffffffffff8
   84548:	f9000260 	str	x0, [x19]
   8454c:	aa0103e0 	mov	x0, x1
   84550:	1400000f 	b	8458c <Process_Out+0xed4>
   84554:	11002002 	add	w2, w0, #0x8
   84558:	b9001a62 	str	w2, [x19, #24]
   8455c:	b9401a62 	ldr	w2, [x19, #24]
   84560:	7100005f 	cmp	w2, #0x0
   84564:	540000ed 	b.le	84580 <Process_Out+0xec8>
   84568:	aa0103e0 	mov	x0, x1
   8456c:	91003c00 	add	x0, x0, #0xf
   84570:	927df000 	and	x0, x0, #0xfffffffffffffff8
   84574:	f9000260 	str	x0, [x19]
   84578:	aa0103e0 	mov	x0, x1
   8457c:	14000004 	b	8458c <Process_Out+0xed4>
   84580:	f9400661 	ldr	x1, [x19, #8]
   84584:	93407c00 	sxtw	x0, w0
   84588:	8b000020 	add	x0, x1, x0
   8458c:	f9400000 	ldr	x0, [x0]
   84590:	f9004fe0 	str	x0, [sp, #152]
   84594:	b980ffe1 	ldrsw	x1, [sp, #252]
   84598:	f9404fe0 	ldr	x0, [sp, #152]
   8459c:	f9000001 	str	x1, [x0]
   845a0:	1400005c 	b	84710 <Process_Out+0x1058>
   845a4:	b9401a60 	ldr	w0, [x19, #24]
   845a8:	f9400261 	ldr	x1, [x19]
   845ac:	7100001f 	cmp	w0, #0x0
   845b0:	540000eb 	b.lt	845cc <Process_Out+0xf14>  // b.tstop
   845b4:	aa0103e0 	mov	x0, x1
   845b8:	91003c00 	add	x0, x0, #0xf
   845bc:	927df000 	and	x0, x0, #0xfffffffffffffff8
   845c0:	f9000260 	str	x0, [x19]
   845c4:	aa0103e0 	mov	x0, x1
   845c8:	1400000f 	b	84604 <Process_Out+0xf4c>
   845cc:	11002002 	add	w2, w0, #0x8
   845d0:	b9001a62 	str	w2, [x19, #24]
   845d4:	b9401a62 	ldr	w2, [x19, #24]
   845d8:	7100005f 	cmp	w2, #0x0
   845dc:	540000ed 	b.le	845f8 <Process_Out+0xf40>
   845e0:	aa0103e0 	mov	x0, x1
   845e4:	91003c00 	add	x0, x0, #0xf
   845e8:	927df000 	and	x0, x0, #0xfffffffffffffff8
   845ec:	f9000260 	str	x0, [x19]
   845f0:	aa0103e0 	mov	x0, x1
   845f4:	14000004 	b	84604 <Process_Out+0xf4c>
   845f8:	f9400661 	ldr	x1, [x19, #8]
   845fc:	93407c00 	sxtw	x0, w0
   84600:	8b000020 	add	x0, x1, x0
   84604:	f9400000 	ldr	x0, [x0]
   84608:	f9004be0 	str	x0, [sp, #144]
   8460c:	b980ffe1 	ldrsw	x1, [sp, #252]
   84610:	f9404be0 	ldr	x0, [sp, #144]
   84614:	f9000001 	str	x1, [x0]
   84618:	1400003e 	b	84710 <Process_Out+0x1058>
   8461c:	b9401a60 	ldr	w0, [x19, #24]
   84620:	f9400261 	ldr	x1, [x19]
   84624:	7100001f 	cmp	w0, #0x0
   84628:	540000eb 	b.lt	84644 <Process_Out+0xf8c>  // b.tstop
   8462c:	aa0103e0 	mov	x0, x1
   84630:	91003c00 	add	x0, x0, #0xf
   84634:	927df000 	and	x0, x0, #0xfffffffffffffff8
   84638:	f9000260 	str	x0, [x19]
   8463c:	aa0103e0 	mov	x0, x1
   84640:	1400000f 	b	8467c <Process_Out+0xfc4>
   84644:	11002002 	add	w2, w0, #0x8
   84648:	b9001a62 	str	w2, [x19, #24]
   8464c:	b9401a62 	ldr	w2, [x19, #24]
   84650:	7100005f 	cmp	w2, #0x0
   84654:	540000ed 	b.le	84670 <Process_Out+0xfb8>
   84658:	aa0103e0 	mov	x0, x1
   8465c:	91003c00 	add	x0, x0, #0xf
   84660:	927df000 	and	x0, x0, #0xfffffffffffffff8
   84664:	f9000260 	str	x0, [x19]
   84668:	aa0103e0 	mov	x0, x1
   8466c:	14000004 	b	8467c <Process_Out+0xfc4>
   84670:	f9400661 	ldr	x1, [x19, #8]
   84674:	93407c00 	sxtw	x0, w0
   84678:	8b000020 	add	x0, x1, x0
   8467c:	f9400000 	ldr	x0, [x0]
   84680:	f90047e0 	str	x0, [sp, #136]
   84684:	b940ffe0 	ldr	w0, [sp, #252]
   84688:	94003ca0 	bl	93908 <__floatsitf>
   8468c:	f94047e0 	ldr	x0, [sp, #136]
   84690:	3d800000 	str	q0, [x0]
   84694:	1400001f 	b	84710 <Process_Out+0x1058>
   84698:	b9401a60 	ldr	w0, [x19, #24]
   8469c:	f9400261 	ldr	x1, [x19]
   846a0:	7100001f 	cmp	w0, #0x0
   846a4:	540000eb 	b.lt	846c0 <Process_Out+0x1008>  // b.tstop
   846a8:	aa0103e0 	mov	x0, x1
   846ac:	91003c00 	add	x0, x0, #0xf
   846b0:	927df000 	and	x0, x0, #0xfffffffffffffff8
   846b4:	f9000260 	str	x0, [x19]
   846b8:	aa0103e0 	mov	x0, x1
   846bc:	1400000f 	b	846f8 <Process_Out+0x1040>
   846c0:	11002002 	add	w2, w0, #0x8
   846c4:	b9001a62 	str	w2, [x19, #24]
   846c8:	b9401a62 	ldr	w2, [x19, #24]
   846cc:	7100005f 	cmp	w2, #0x0
   846d0:	540000ed 	b.le	846ec <Process_Out+0x1034>
   846d4:	aa0103e0 	mov	x0, x1
   846d8:	91003c00 	add	x0, x0, #0xf
   846dc:	927df000 	and	x0, x0, #0xfffffffffffffff8
   846e0:	f9000260 	str	x0, [x19]
   846e4:	aa0103e0 	mov	x0, x1
   846e8:	14000004 	b	846f8 <Process_Out+0x1040>
   846ec:	f9400661 	ldr	x1, [x19, #8]
   846f0:	93407c00 	sxtw	x0, w0
   846f4:	8b000020 	add	x0, x1, x0
   846f8:	f9400000 	ldr	x0, [x0]
   846fc:	f90043e0 	str	x0, [sp, #128]
   84700:	f94043e0 	ldr	x0, [sp, #128]
   84704:	b940ffe1 	ldr	w1, [sp, #252]
   84708:	b9000001 	str	w1, [x0]
   8470c:	d503201f 	nop
   84710:	52800020 	mov	w0, #0x1                   	// #1
   84714:	3903bfe0 	strb	w0, [sp, #239]
   84718:	14000055 	b	8486c <Process_Out+0x11b4>
   8471c:	b940ebe0 	ldr	w0, [sp, #232]
   84720:	7101301f 	cmp	w0, #0x4c
   84724:	54000581 	b.ne	847d4 <Process_Out+0x111c>  // b.any
   84728:	b9401e60 	ldr	w0, [x19, #28]
   8472c:	f9400262 	ldr	x2, [x19]
   84730:	7100001f 	cmp	w0, #0x0
   84734:	5400016b 	b.lt	84760 <Process_Out+0x10a8>  // b.tstop
   84738:	aa0203e0 	mov	x0, x2
   8473c:	91003c00 	add	x0, x0, #0xf
   84740:	927cec00 	and	x0, x0, #0xfffffffffffffff0
   84744:	aa0003e1 	mov	x1, x0
   84748:	aa0103e0 	mov	x0, x1
   8474c:	91005c00 	add	x0, x0, #0x17
   84750:	927df000 	and	x0, x0, #0xfffffffffffffff8
   84754:	f9000260 	str	x0, [x19]
   84758:	aa0103e0 	mov	x0, x1
   8475c:	14000013 	b	847a8 <Process_Out+0x10f0>
   84760:	11004001 	add	w1, w0, #0x10
   84764:	b9001e61 	str	w1, [x19, #28]
   84768:	b9401e61 	ldr	w1, [x19, #28]
   8476c:	7100003f 	cmp	w1, #0x0
   84770:	5400016d 	b.le	8479c <Process_Out+0x10e4>
   84774:	aa0203e0 	mov	x0, x2
   84778:	91003c00 	add	x0, x0, #0xf
   8477c:	927cec00 	and	x0, x0, #0xfffffffffffffff0
   84780:	aa0003e1 	mov	x1, x0
   84784:	aa0103e0 	mov	x0, x1
   84788:	91005c00 	add	x0, x0, #0x17
   8478c:	927df000 	and	x0, x0, #0xfffffffffffffff8
   84790:	f9000260 	str	x0, [x19]
   84794:	aa0103e0 	mov	x0, x1
   84798:	14000004 	b	847a8 <Process_Out+0x10f0>
   8479c:	f9400a61 	ldr	x1, [x19, #16]
   847a0:	93407c00 	sxtw	x0, w0
   847a4:	8b000020 	add	x0, x1, x0
   847a8:	3dc00000 	ldr	q0, [x0]
   847ac:	3d801fe0 	str	q0, [sp, #112]
   847b0:	3dc01fe0 	ldr	q0, [sp, #112]
   847b4:	94003c75 	bl	93988 <__trunctfdf2>
   847b8:	f94017e0 	ldr	x0, [sp, #40]
   847bc:	97fff914 	bl	82c0c <NumStr>
   847c0:	2a0003e1 	mov	w1, w0
   847c4:	b940ffe0 	ldr	w0, [sp, #252]
   847c8:	0b010000 	add	w0, w0, w1
   847cc:	b900ffe0 	str	w0, [sp, #252]
   847d0:	14000024 	b	84860 <Process_Out+0x11a8>
   847d4:	b9401e60 	ldr	w0, [x19, #28]
   847d8:	f9400261 	ldr	x1, [x19]
   847dc:	7100001f 	cmp	w0, #0x0
   847e0:	540000eb 	b.lt	847fc <Process_Out+0x1144>  // b.tstop
   847e4:	aa0103e0 	mov	x0, x1
   847e8:	91003c00 	add	x0, x0, #0xf
   847ec:	927df000 	and	x0, x0, #0xfffffffffffffff8
   847f0:	f9000260 	str	x0, [x19]
   847f4:	aa0103e0 	mov	x0, x1
   847f8:	1400000f 	b	84834 <Process_Out+0x117c>
   847fc:	11004002 	add	w2, w0, #0x10
   84800:	b9001e62 	str	w2, [x19, #28]
   84804:	b9401e62 	ldr	w2, [x19, #28]
   84808:	7100005f 	cmp	w2, #0x0
   8480c:	540000ed 	b.le	84828 <Process_Out+0x1170>
   84810:	aa0103e0 	mov	x0, x1
   84814:	91003c00 	add	x0, x0, #0xf
   84818:	927df000 	and	x0, x0, #0xfffffffffffffff8
   8481c:	f9000260 	str	x0, [x19]
   84820:	aa0103e0 	mov	x0, x1
   84824:	14000004 	b	84834 <Process_Out+0x117c>
   84828:	f9400a61 	ldr	x1, [x19, #16]
   8482c:	93407c00 	sxtw	x0, w0
   84830:	8b000020 	add	x0, x1, x0
   84834:	fd400000 	ldr	d0, [x0]
   84838:	1e624000 	fcvt	s0, d0
   8483c:	1e22c000 	fcvt	d0, s0
   84840:	fd0037e0 	str	d0, [sp, #104]
   84844:	fd4037e0 	ldr	d0, [sp, #104]
   84848:	f94017e0 	ldr	x0, [sp, #40]
   8484c:	97fff8f0 	bl	82c0c <NumStr>
   84850:	2a0003e1 	mov	w1, w0
   84854:	b940ffe0 	ldr	w0, [sp, #252]
   84858:	0b010000 	add	w0, w0, w1
   8485c:	b900ffe0 	str	w0, [sp, #252]
   84860:	52800020 	mov	w0, #0x1                   	// #1
   84864:	3903bfe0 	strb	w0, [sp, #239]
   84868:	d503201f 	nop
   8486c:	3943bfe0 	ldrb	w0, [sp, #239]
   84870:	52000000 	eor	w0, w0, #0x1
   84874:	12001c00 	and	w0, w0, #0xff
   84878:	7100001f 	cmp	w0, #0x0
   8487c:	54002780 	b.eq	84d6c <Process_Out+0x16b4>  // b.none
   84880:	b940ebe0 	ldr	w0, [sp, #232]
   84884:	7101b01f 	cmp	w0, #0x6c
   84888:	54000be0 	b.eq	84a04 <Process_Out+0x134c>  // b.none
   8488c:	b940ebe0 	ldr	w0, [sp, #232]
   84890:	7101b01f 	cmp	w0, #0x6c
   84894:	5400010c 	b.gt	848b4 <Process_Out+0x11fc>
   84898:	b940ebe0 	ldr	w0, [sp, #232]
   8489c:	7101a01f 	cmp	w0, #0x68
   848a0:	54000180 	b.eq	848d0 <Process_Out+0x1218>  // b.none
   848a4:	b940ebe0 	ldr	w0, [sp, #232]
   848a8:	7101a81f 	cmp	w0, #0x6a
   848ac:	54001420 	b.eq	84b30 <Process_Out+0x1478>  // b.none
   848b0:	1400010b 	b	84cdc <Process_Out+0x1624>
   848b4:	b940ebe0 	ldr	w0, [sp, #232]
   848b8:	7101d01f 	cmp	w0, #0x74
   848bc:	54001ca0 	b.eq	84c50 <Process_Out+0x1598>  // b.none
   848c0:	b940ebe0 	ldr	w0, [sp, #232]
   848c4:	7101e81f 	cmp	w0, #0x7a
   848c8:	540017c0 	b.eq	84bc0 <Process_Out+0x1508>  // b.none
   848cc:	14000104 	b	84cdc <Process_Out+0x1624>
   848d0:	3940c3e0 	ldrb	w0, [sp, #48]
   848d4:	12196000 	and	w0, w0, #0xffffff80
   848d8:	12001c00 	and	w0, w0, #0xff
   848dc:	7100001f 	cmp	w0, #0x0
   848e0:	540004a0 	b.eq	84974 <Process_Out+0x12bc>  // b.none
   848e4:	b9401a60 	ldr	w0, [x19, #24]
   848e8:	f9400261 	ldr	x1, [x19]
   848ec:	7100001f 	cmp	w0, #0x0
   848f0:	540000eb 	b.lt	8490c <Process_Out+0x1254>  // b.tstop
   848f4:	aa0103e0 	mov	x0, x1
   848f8:	91002c00 	add	x0, x0, #0xb
   848fc:	927df000 	and	x0, x0, #0xfffffffffffffff8
   84900:	f9000260 	str	x0, [x19]
   84904:	aa0103e0 	mov	x0, x1
   84908:	1400000f 	b	84944 <Process_Out+0x128c>
   8490c:	11002002 	add	w2, w0, #0x8
   84910:	b9001a62 	str	w2, [x19, #24]
   84914:	b9401a62 	ldr	w2, [x19, #24]
   84918:	7100005f 	cmp	w2, #0x0
   8491c:	540000ed 	b.le	84938 <Process_Out+0x1280>
   84920:	aa0103e0 	mov	x0, x1
   84924:	91002c00 	add	x0, x0, #0xb
   84928:	927df000 	and	x0, x0, #0xfffffffffffffff8
   8492c:	f9000260 	str	x0, [x19]
   84930:	aa0103e0 	mov	x0, x1
   84934:	14000004 	b	84944 <Process_Out+0x128c>
   84938:	f9400661 	ldr	x1, [x19, #8]
   8493c:	93407c00 	sxtw	x0, w0
   84940:	8b000020 	add	x0, x1, x0
   84944:	b9400000 	ldr	w0, [x0]
   84948:	39019fe0 	strb	w0, [sp, #103]
   8494c:	39c19fe0 	ldrsb	w0, [sp, #103]
   84950:	b94033e2 	ldr	w2, [sp, #48]
   84954:	2a0003e1 	mov	w1, w0
   84958:	f94017e0 	ldr	x0, [sp, #40]
   8495c:	97fff910 	bl	82d9c <cvt_int>
   84960:	2a0003e1 	mov	w1, w0
   84964:	b940ffe0 	ldr	w0, [sp, #252]
   84968:	0b010000 	add	w0, w0, w1
   8496c:	b900ffe0 	str	w0, [sp, #252]
   84970:	14000100 	b	84d70 <Process_Out+0x16b8>
   84974:	b9401a60 	ldr	w0, [x19, #24]
   84978:	f9400261 	ldr	x1, [x19]
   8497c:	7100001f 	cmp	w0, #0x0
   84980:	540000eb 	b.lt	8499c <Process_Out+0x12e4>  // b.tstop
   84984:	aa0103e0 	mov	x0, x1
   84988:	91002c00 	add	x0, x0, #0xb
   8498c:	927df000 	and	x0, x0, #0xfffffffffffffff8
   84990:	f9000260 	str	x0, [x19]
   84994:	aa0103e0 	mov	x0, x1
   84998:	1400000f 	b	849d4 <Process_Out+0x131c>
   8499c:	11002002 	add	w2, w0, #0x8
   849a0:	b9001a62 	str	w2, [x19, #24]
   849a4:	b9401a62 	ldr	w2, [x19, #24]
   849a8:	7100005f 	cmp	w2, #0x0
   849ac:	540000ed 	b.le	849c8 <Process_Out+0x1310>
   849b0:	aa0103e0 	mov	x0, x1
   849b4:	91002c00 	add	x0, x0, #0xb
   849b8:	927df000 	and	x0, x0, #0xfffffffffffffff8
   849bc:	f9000260 	str	x0, [x19]
   849c0:	aa0103e0 	mov	x0, x1
   849c4:	14000004 	b	849d4 <Process_Out+0x131c>
   849c8:	f9400661 	ldr	x1, [x19, #8]
   849cc:	93407c00 	sxtw	x0, w0
   849d0:	8b000020 	add	x0, x1, x0
   849d4:	b9400000 	ldr	w0, [x0]
   849d8:	7900cbe0 	strh	w0, [sp, #100]
   849dc:	79c0cbe0 	ldrsh	w0, [sp, #100]
   849e0:	b94033e2 	ldr	w2, [sp, #48]
   849e4:	2a0003e1 	mov	w1, w0
   849e8:	f94017e0 	ldr	x0, [sp, #40]
   849ec:	97fff8ec 	bl	82d9c <cvt_int>
   849f0:	2a0003e1 	mov	w1, w0
   849f4:	b940ffe0 	ldr	w0, [sp, #252]
   849f8:	0b010000 	add	w0, w0, w1
   849fc:	b900ffe0 	str	w0, [sp, #252]
   84a00:	140000dc 	b	84d70 <Process_Out+0x16b8>
   84a04:	3940c3e0 	ldrb	w0, [sp, #48]
   84a08:	12196000 	and	w0, w0, #0xffffff80
   84a0c:	12001c00 	and	w0, w0, #0xff
   84a10:	7100001f 	cmp	w0, #0x0
   84a14:	54000480 	b.eq	84aa4 <Process_Out+0x13ec>  // b.none
   84a18:	b9401a60 	ldr	w0, [x19, #24]
   84a1c:	f9400261 	ldr	x1, [x19]
   84a20:	7100001f 	cmp	w0, #0x0
   84a24:	540000eb 	b.lt	84a40 <Process_Out+0x1388>  // b.tstop
   84a28:	aa0103e0 	mov	x0, x1
   84a2c:	91003c00 	add	x0, x0, #0xf
   84a30:	927df000 	and	x0, x0, #0xfffffffffffffff8
   84a34:	f9000260 	str	x0, [x19]
   84a38:	aa0103e0 	mov	x0, x1
   84a3c:	1400000f 	b	84a78 <Process_Out+0x13c0>
   84a40:	11002002 	add	w2, w0, #0x8
   84a44:	b9001a62 	str	w2, [x19, #24]
   84a48:	b9401a62 	ldr	w2, [x19, #24]
   84a4c:	7100005f 	cmp	w2, #0x0
   84a50:	540000ed 	b.le	84a6c <Process_Out+0x13b4>
   84a54:	aa0103e0 	mov	x0, x1
   84a58:	91003c00 	add	x0, x0, #0xf
   84a5c:	927df000 	and	x0, x0, #0xfffffffffffffff8
   84a60:	f9000260 	str	x0, [x19]
   84a64:	aa0103e0 	mov	x0, x1
   84a68:	14000004 	b	84a78 <Process_Out+0x13c0>
   84a6c:	f9400661 	ldr	x1, [x19, #8]
   84a70:	93407c00 	sxtw	x0, w0
   84a74:	8b000020 	add	x0, x1, x0
   84a78:	f9400000 	ldr	x0, [x0]
   84a7c:	f9002fe0 	str	x0, [sp, #88]
   84a80:	b94033e2 	ldr	w2, [sp, #48]
   84a84:	f9402fe1 	ldr	x1, [sp, #88]
   84a88:	f94017e0 	ldr	x0, [sp, #40]
   84a8c:	97fff9ea 	bl	83234 <number>
   84a90:	2a0003e1 	mov	w1, w0
   84a94:	b940ffe0 	ldr	w0, [sp, #252]
   84a98:	0b010000 	add	w0, w0, w1
   84a9c:	b900ffe0 	str	w0, [sp, #252]
   84aa0:	140000b4 	b	84d70 <Process_Out+0x16b8>
   84aa4:	b9401a60 	ldr	w0, [x19, #24]
   84aa8:	f9400261 	ldr	x1, [x19]
   84aac:	7100001f 	cmp	w0, #0x0
   84ab0:	540000eb 	b.lt	84acc <Process_Out+0x1414>  // b.tstop
   84ab4:	aa0103e0 	mov	x0, x1
   84ab8:	91003c00 	add	x0, x0, #0xf
   84abc:	927df000 	and	x0, x0, #0xfffffffffffffff8
   84ac0:	f9000260 	str	x0, [x19]
   84ac4:	aa0103e0 	mov	x0, x1
   84ac8:	1400000f 	b	84b04 <Process_Out+0x144c>
   84acc:	11002002 	add	w2, w0, #0x8
   84ad0:	b9001a62 	str	w2, [x19, #24]
   84ad4:	b9401a62 	ldr	w2, [x19, #24]
   84ad8:	7100005f 	cmp	w2, #0x0
   84adc:	540000ed 	b.le	84af8 <Process_Out+0x1440>
   84ae0:	aa0103e0 	mov	x0, x1
   84ae4:	91003c00 	add	x0, x0, #0xf
   84ae8:	927df000 	and	x0, x0, #0xfffffffffffffff8
   84aec:	f9000260 	str	x0, [x19]
   84af0:	aa0103e0 	mov	x0, x1
   84af4:	14000004 	b	84b04 <Process_Out+0x144c>
   84af8:	f9400661 	ldr	x1, [x19, #8]
   84afc:	93407c00 	sxtw	x0, w0
   84b00:	8b000020 	add	x0, x1, x0
   84b04:	f9400000 	ldr	x0, [x0]
   84b08:	f9002be0 	str	x0, [sp, #80]
   84b0c:	b94033e2 	ldr	w2, [sp, #48]
   84b10:	f9402be1 	ldr	x1, [sp, #80]
   84b14:	f94017e0 	ldr	x0, [sp, #40]
   84b18:	97fff9c7 	bl	83234 <number>
   84b1c:	2a0003e1 	mov	w1, w0
   84b20:	b940ffe0 	ldr	w0, [sp, #252]
   84b24:	0b010000 	add	w0, w0, w1
   84b28:	b900ffe0 	str	w0, [sp, #252]
   84b2c:	14000091 	b	84d70 <Process_Out+0x16b8>
   84b30:	b9401a60 	ldr	w0, [x19, #24]
   84b34:	f9400261 	ldr	x1, [x19]
   84b38:	7100001f 	cmp	w0, #0x0
   84b3c:	540000eb 	b.lt	84b58 <Process_Out+0x14a0>  // b.tstop
   84b40:	aa0103e0 	mov	x0, x1
   84b44:	91003c00 	add	x0, x0, #0xf
   84b48:	927df000 	and	x0, x0, #0xfffffffffffffff8
   84b4c:	f9000260 	str	x0, [x19]
   84b50:	aa0103e0 	mov	x0, x1
   84b54:	1400000f 	b	84b90 <Process_Out+0x14d8>
   84b58:	11002002 	add	w2, w0, #0x8
   84b5c:	b9001a62 	str	w2, [x19, #24]
   84b60:	b9401a62 	ldr	w2, [x19, #24]
   84b64:	7100005f 	cmp	w2, #0x0
   84b68:	540000ed 	b.le	84b84 <Process_Out+0x14cc>
   84b6c:	aa0103e0 	mov	x0, x1
   84b70:	91003c00 	add	x0, x0, #0xf
   84b74:	927df000 	and	x0, x0, #0xfffffffffffffff8
   84b78:	f9000260 	str	x0, [x19]
   84b7c:	aa0103e0 	mov	x0, x1
   84b80:	14000004 	b	84b90 <Process_Out+0x14d8>
   84b84:	f9400661 	ldr	x1, [x19, #8]
   84b88:	93407c00 	sxtw	x0, w0
   84b8c:	8b000020 	add	x0, x1, x0
   84b90:	f9400000 	ldr	x0, [x0]
   84b94:	f90027e0 	str	x0, [sp, #72]
   84b98:	f94027e0 	ldr	x0, [sp, #72]
   84b9c:	b94033e2 	ldr	w2, [sp, #48]
   84ba0:	2a0003e1 	mov	w1, w0
   84ba4:	f94017e0 	ldr	x0, [sp, #40]
   84ba8:	97fff87d 	bl	82d9c <cvt_int>
   84bac:	2a0003e1 	mov	w1, w0
   84bb0:	b940ffe0 	ldr	w0, [sp, #252]
   84bb4:	0b010000 	add	w0, w0, w1
   84bb8:	b900ffe0 	str	w0, [sp, #252]
   84bbc:	1400006d 	b	84d70 <Process_Out+0x16b8>
   84bc0:	b9401a60 	ldr	w0, [x19, #24]
   84bc4:	f9400261 	ldr	x1, [x19]
   84bc8:	7100001f 	cmp	w0, #0x0
   84bcc:	540000eb 	b.lt	84be8 <Process_Out+0x1530>  // b.tstop
   84bd0:	aa0103e0 	mov	x0, x1
   84bd4:	91003c00 	add	x0, x0, #0xf
   84bd8:	927df000 	and	x0, x0, #0xfffffffffffffff8
   84bdc:	f9000260 	str	x0, [x19]
   84be0:	aa0103e0 	mov	x0, x1
   84be4:	1400000f 	b	84c20 <Process_Out+0x1568>
   84be8:	11002002 	add	w2, w0, #0x8
   84bec:	b9001a62 	str	w2, [x19, #24]
   84bf0:	b9401a62 	ldr	w2, [x19, #24]
   84bf4:	7100005f 	cmp	w2, #0x0
   84bf8:	540000ed 	b.le	84c14 <Process_Out+0x155c>
   84bfc:	aa0103e0 	mov	x0, x1
   84c00:	91003c00 	add	x0, x0, #0xf
   84c04:	927df000 	and	x0, x0, #0xfffffffffffffff8
   84c08:	f9000260 	str	x0, [x19]
   84c0c:	aa0103e0 	mov	x0, x1
   84c10:	14000004 	b	84c20 <Process_Out+0x1568>
   84c14:	f9400661 	ldr	x1, [x19, #8]
   84c18:	93407c00 	sxtw	x0, w0
   84c1c:	8b000020 	add	x0, x1, x0
   84c20:	f9400000 	ldr	x0, [x0]
   84c24:	f90023e0 	str	x0, [sp, #64]
   84c28:	f94023e0 	ldr	x0, [sp, #64]
   84c2c:	b94033e2 	ldr	w2, [sp, #48]
   84c30:	aa0003e1 	mov	x1, x0
   84c34:	f94017e0 	ldr	x0, [sp, #40]
   84c38:	97fff97f 	bl	83234 <number>
   84c3c:	2a0003e1 	mov	w1, w0
   84c40:	b940ffe0 	ldr	w0, [sp, #252]
   84c44:	0b010000 	add	w0, w0, w1
   84c48:	b900ffe0 	str	w0, [sp, #252]
   84c4c:	14000049 	b	84d70 <Process_Out+0x16b8>
   84c50:	b9401a60 	ldr	w0, [x19, #24]
   84c54:	f9400261 	ldr	x1, [x19]
   84c58:	7100001f 	cmp	w0, #0x0
   84c5c:	540000eb 	b.lt	84c78 <Process_Out+0x15c0>  // b.tstop
   84c60:	aa0103e0 	mov	x0, x1
   84c64:	91003c00 	add	x0, x0, #0xf
   84c68:	927df000 	and	x0, x0, #0xfffffffffffffff8
   84c6c:	f9000260 	str	x0, [x19]
   84c70:	aa0103e0 	mov	x0, x1
   84c74:	1400000f 	b	84cb0 <Process_Out+0x15f8>
   84c78:	11002002 	add	w2, w0, #0x8
   84c7c:	b9001a62 	str	w2, [x19, #24]
   84c80:	b9401a62 	ldr	w2, [x19, #24]
   84c84:	7100005f 	cmp	w2, #0x0
   84c88:	540000ed 	b.le	84ca4 <Process_Out+0x15ec>
   84c8c:	aa0103e0 	mov	x0, x1
   84c90:	91003c00 	add	x0, x0, #0xf
   84c94:	927df000 	and	x0, x0, #0xfffffffffffffff8
   84c98:	f9000260 	str	x0, [x19]
   84c9c:	aa0103e0 	mov	x0, x1
   84ca0:	14000004 	b	84cb0 <Process_Out+0x15f8>
   84ca4:	f9400661 	ldr	x1, [x19, #8]
   84ca8:	93407c00 	sxtw	x0, w0
   84cac:	8b000020 	add	x0, x1, x0
   84cb0:	f9400000 	ldr	x0, [x0]
   84cb4:	f9001fe0 	str	x0, [sp, #56]
   84cb8:	b94033e2 	ldr	w2, [sp, #48]
   84cbc:	f9401fe1 	ldr	x1, [sp, #56]
   84cc0:	f94017e0 	ldr	x0, [sp, #40]
   84cc4:	97fff95c 	bl	83234 <number>
   84cc8:	2a0003e1 	mov	w1, w0
   84ccc:	b940ffe0 	ldr	w0, [sp, #252]
   84cd0:	0b010000 	add	w0, w0, w1
   84cd4:	b900ffe0 	str	w0, [sp, #252]
   84cd8:	14000026 	b	84d70 <Process_Out+0x16b8>
   84cdc:	b9401a60 	ldr	w0, [x19, #24]
   84ce0:	f9400261 	ldr	x1, [x19]
   84ce4:	7100001f 	cmp	w0, #0x0
   84ce8:	540000eb 	b.lt	84d04 <Process_Out+0x164c>  // b.tstop
   84cec:	aa0103e0 	mov	x0, x1
   84cf0:	91002c00 	add	x0, x0, #0xb
   84cf4:	927df000 	and	x0, x0, #0xfffffffffffffff8
   84cf8:	f9000260 	str	x0, [x19]
   84cfc:	aa0103e0 	mov	x0, x1
   84d00:	1400000f 	b	84d3c <Process_Out+0x1684>
   84d04:	11002002 	add	w2, w0, #0x8
   84d08:	b9001a62 	str	w2, [x19, #24]
   84d0c:	b9401a62 	ldr	w2, [x19, #24]
   84d10:	7100005f 	cmp	w2, #0x0
   84d14:	540000ed 	b.le	84d30 <Process_Out+0x1678>
   84d18:	aa0103e0 	mov	x0, x1
   84d1c:	91002c00 	add	x0, x0, #0xb
   84d20:	927df000 	and	x0, x0, #0xfffffffffffffff8
   84d24:	f9000260 	str	x0, [x19]
   84d28:	aa0103e0 	mov	x0, x1
   84d2c:	14000004 	b	84d3c <Process_Out+0x1684>
   84d30:	f9400661 	ldr	x1, [x19, #8]
   84d34:	93407c00 	sxtw	x0, w0
   84d38:	8b000020 	add	x0, x1, x0
   84d3c:	b9400000 	ldr	w0, [x0]
   84d40:	b90037e0 	str	w0, [sp, #52]
   84d44:	b94033e2 	ldr	w2, [sp, #48]
   84d48:	b94037e1 	ldr	w1, [sp, #52]
   84d4c:	f94017e0 	ldr	x0, [sp, #40]
   84d50:	97fff813 	bl	82d9c <cvt_int>
   84d54:	2a0003e1 	mov	w1, w0
   84d58:	b940ffe0 	ldr	w0, [sp, #252]
   84d5c:	0b010000 	add	w0, w0, w1
   84d60:	b900ffe0 	str	w0, [sp, #252]
   84d64:	d503201f 	nop
   84d68:	14000002 	b	84d70 <Process_Out+0x16b8>
   84d6c:	d503201f 	nop
   84d70:	f9407be0 	ldr	x0, [sp, #240]
   84d74:	91000400 	add	x0, x0, #0x1
   84d78:	f9007be0 	str	x0, [sp, #240]
   84d7c:	f94013e1 	ldr	x1, [sp, #32]
   84d80:	f9407be0 	ldr	x0, [sp, #240]
   84d84:	8b000020 	add	x0, x1, x0
   84d88:	39400000 	ldrb	w0, [x0]
   84d8c:	7100001f 	cmp	w0, #0x0
   84d90:	540000a0 	b.eq	84da4 <Process_Out+0x16ec>  // b.none
   84d94:	f9407be1 	ldr	x1, [sp, #240]
   84d98:	f9400fe0 	ldr	x0, [sp, #24]
   84d9c:	eb00003f 	cmp	x1, x0
   84da0:	54ff4b03 	b.cc	83700 <Process_Out+0x48>  // b.lo, b.ul, b.last
   84da4:	b980ffe0 	ldrsw	x0, [sp, #252]
   84da8:	a8d07bf3 	ldp	x19, x30, [sp], #256
   84dac:	d65f03c0 	ret

0000000000084db0 <vsscanf>:
   84db0:	d11843ff 	sub	sp, sp, #0x610
   84db4:	a9007bf3 	stp	x19, x30, [sp]
   84db8:	f9000fe0 	str	x0, [sp, #24]
   84dbc:	f9000be1 	str	x1, [sp, #16]
   84dc0:	aa0203f3 	mov	x19, x2
   84dc4:	b9060fff 	str	wzr, [sp, #1548]
   84dc8:	52800140 	mov	w0, #0xa                   	// #10
   84dcc:	b9060be0 	str	w0, [sp, #1544]
   84dd0:	b90607ff 	str	wzr, [sp, #1540]
   84dd4:	f9400fe0 	ldr	x0, [sp, #24]
   84dd8:	f902ffe0 	str	x0, [sp, #1528]
   84ddc:	3917bbff 	strb	wzr, [sp, #1518]
   84de0:	3917b7ff 	strb	wzr, [sp, #1517]
   84de4:	3917b3ff 	strb	wzr, [sp, #1516]
   84de8:	f9400be0 	ldr	x0, [sp, #16]
   84dec:	f100001f 	cmp	x0, #0x0
   84df0:	54000080 	b.eq	84e00 <vsscanf+0x50>  // b.none
   84df4:	f9400fe0 	ldr	x0, [sp, #24]
   84df8:	f100001f 	cmp	x0, #0x0
   84dfc:	5400cc41 	b.ne	86784 <vsscanf+0x19d4>  // b.any
   84e00:	52800000 	mov	w0, #0x0                   	// #0
   84e04:	14000669 	b	867a8 <vsscanf+0x19f8>
   84e08:	f9400be0 	ldr	x0, [sp, #16]
   84e0c:	91000400 	add	x0, x0, #0x1
   84e10:	f9000be0 	str	x0, [sp, #16]
   84e14:	94001ef9 	bl	8c9f8 <__locale_ctype_ptr>
   84e18:	aa0003e1 	mov	x1, x0
   84e1c:	f9400be0 	ldr	x0, [sp, #16]
   84e20:	39400000 	ldrb	w0, [x0]
   84e24:	92401c00 	and	x0, x0, #0xff
   84e28:	91000400 	add	x0, x0, #0x1
   84e2c:	8b000020 	add	x0, x1, x0
   84e30:	39400000 	ldrb	w0, [x0]
   84e34:	121d0000 	and	w0, w0, #0x8
   84e38:	7100001f 	cmp	w0, #0x0
   84e3c:	54fffe61 	b.ne	84e08 <vsscanf+0x58>  // b.any
   84e40:	f9400be0 	ldr	x0, [sp, #16]
   84e44:	39400000 	ldrb	w0, [x0]
   84e48:	7100941f 	cmp	w0, #0x25
   84e4c:	5400c801 	b.ne	8674c <vsscanf+0x199c>  // b.any
   84e50:	f9400be0 	ldr	x0, [sp, #16]
   84e54:	91000400 	add	x0, x0, #0x1
   84e58:	f9000be0 	str	x0, [sp, #16]
   84e5c:	f9400be0 	ldr	x0, [sp, #16]
   84e60:	39400000 	ldrb	w0, [x0]
   84e64:	7100a81f 	cmp	w0, #0x2a
   84e68:	540000c1 	b.ne	84e80 <vsscanf+0xd0>  // b.any
   84e6c:	52800020 	mov	w0, #0x1                   	// #1
   84e70:	3917bbe0 	strb	w0, [sp, #1518]
   84e74:	f942ffe0 	ldr	x0, [sp, #1528]
   84e78:	91000400 	add	x0, x0, #0x1
   84e7c:	f902ffe0 	str	x0, [sp, #1528]
   84e80:	94001ede 	bl	8c9f8 <__locale_ctype_ptr>
   84e84:	aa0003e1 	mov	x1, x0
   84e88:	f9400be0 	ldr	x0, [sp, #16]
   84e8c:	39400000 	ldrb	w0, [x0]
   84e90:	92401c00 	and	x0, x0, #0xff
   84e94:	91000400 	add	x0, x0, #0x1
   84e98:	8b000020 	add	x0, x1, x0
   84e9c:	39400000 	ldrb	w0, [x0]
   84ea0:	121e0000 	and	w0, w0, #0x4
   84ea4:	7100001f 	cmp	w0, #0x0
   84ea8:	540004a0 	b.eq	84f3c <vsscanf+0x18c>  // b.none
   84eac:	f9400be0 	ldr	x0, [sp, #16]
   84eb0:	f902efe0 	str	x0, [sp, #1496]
   84eb4:	14000004 	b	84ec4 <vsscanf+0x114>
   84eb8:	f9400be0 	ldr	x0, [sp, #16]
   84ebc:	91000400 	add	x0, x0, #0x1
   84ec0:	f9000be0 	str	x0, [sp, #16]
   84ec4:	94001ecd 	bl	8c9f8 <__locale_ctype_ptr>
   84ec8:	aa0003e1 	mov	x1, x0
   84ecc:	f9400be0 	ldr	x0, [sp, #16]
   84ed0:	39400000 	ldrb	w0, [x0]
   84ed4:	92401c00 	and	x0, x0, #0xff
   84ed8:	91000400 	add	x0, x0, #0x1
   84edc:	8b000020 	add	x0, x1, x0
   84ee0:	39400000 	ldrb	w0, [x0]
   84ee4:	121e0000 	and	w0, w0, #0x4
   84ee8:	7100001f 	cmp	w0, #0x0
   84eec:	54fffe61 	b.ne	84eb8 <vsscanf+0x108>  // b.any
   84ef0:	f9400be1 	ldr	x1, [sp, #16]
   84ef4:	f942efe0 	ldr	x0, [sp, #1496]
   84ef8:	cb000020 	sub	x0, x1, x0
   84efc:	b905d7e0 	str	w0, [sp, #1492]
   84f00:	b985d7e1 	ldrsw	x1, [sp, #1492]
   84f04:	9110c3e0 	add	x0, sp, #0x430
   84f08:	aa0103e2 	mov	x2, x1
   84f0c:	f942efe1 	ldr	x1, [sp, #1496]
   84f10:	94002096 	bl	8d168 <strncpy>
   84f14:	b985d7e0 	ldrsw	x0, [sp, #1492]
   84f18:	9110c3e1 	add	x1, sp, #0x430
   84f1c:	3820683f 	strb	wzr, [x1, x0]
   84f20:	9114c3e0 	add	x0, sp, #0x530
   84f24:	52800142 	mov	w2, #0xa                   	// #10
   84f28:	aa0003e1 	mov	x1, x0
   84f2c:	f942efe0 	ldr	x0, [sp, #1496]
   84f30:	940025ec 	bl	8e6e0 <strtol>
   84f34:	b90607e0 	str	w0, [sp, #1540]
   84f38:	14000003 	b	84f44 <vsscanf+0x194>
   84f3c:	52802000 	mov	w0, #0x100                 	// #256
   84f40:	b90607e0 	str	w0, [sp, #1540]
   84f44:	f9400be0 	ldr	x0, [sp, #16]
   84f48:	39400000 	ldrb	w0, [x0]
   84f4c:	7101a01f 	cmp	w0, #0x68
   84f50:	540002a0 	b.eq	84fa4 <vsscanf+0x1f4>  // b.none
   84f54:	f9400be0 	ldr	x0, [sp, #16]
   84f58:	39400000 	ldrb	w0, [x0]
   84f5c:	7101b01f 	cmp	w0, #0x6c
   84f60:	54000220 	b.eq	84fa4 <vsscanf+0x1f4>  // b.none
   84f64:	f9400be0 	ldr	x0, [sp, #16]
   84f68:	39400000 	ldrb	w0, [x0]
   84f6c:	7101a81f 	cmp	w0, #0x6a
   84f70:	540001a0 	b.eq	84fa4 <vsscanf+0x1f4>  // b.none
   84f74:	f9400be0 	ldr	x0, [sp, #16]
   84f78:	39400000 	ldrb	w0, [x0]
   84f7c:	7101e81f 	cmp	w0, #0x7a
   84f80:	54000120 	b.eq	84fa4 <vsscanf+0x1f4>  // b.none
   84f84:	f9400be0 	ldr	x0, [sp, #16]
   84f88:	39400000 	ldrb	w0, [x0]
   84f8c:	7101d01f 	cmp	w0, #0x74
   84f90:	540000a0 	b.eq	84fa4 <vsscanf+0x1f4>  // b.none
   84f94:	f9400be0 	ldr	x0, [sp, #16]
   84f98:	39400000 	ldrb	w0, [x0]
   84f9c:	7101301f 	cmp	w0, #0x4c
   84fa0:	54000381 	b.ne	85010 <vsscanf+0x260>  // b.any
   84fa4:	f9400be0 	ldr	x0, [sp, #16]
   84fa8:	39400000 	ldrb	w0, [x0]
   84fac:	3917bfe0 	strb	w0, [sp, #1519]
   84fb0:	f9400be0 	ldr	x0, [sp, #16]
   84fb4:	39400000 	ldrb	w0, [x0]
   84fb8:	7101a01f 	cmp	w0, #0x68
   84fbc:	540000a0 	b.eq	84fd0 <vsscanf+0x220>  // b.none
   84fc0:	f9400be0 	ldr	x0, [sp, #16]
   84fc4:	39400000 	ldrb	w0, [x0]
   84fc8:	7101b01f 	cmp	w0, #0x6c
   84fcc:	540001a1 	b.ne	85000 <vsscanf+0x250>  // b.any
   84fd0:	f9400be0 	ldr	x0, [sp, #16]
   84fd4:	91000400 	add	x0, x0, #0x1
   84fd8:	39400001 	ldrb	w1, [x0]
   84fdc:	f9400be0 	ldr	x0, [sp, #16]
   84fe0:	39400000 	ldrb	w0, [x0]
   84fe4:	6b00003f 	cmp	w1, w0
   84fe8:	540000c1 	b.ne	85000 <vsscanf+0x250>  // b.any
   84fec:	52800020 	mov	w0, #0x1                   	// #1
   84ff0:	3917b3e0 	strb	w0, [sp, #1516]
   84ff4:	f9400be0 	ldr	x0, [sp, #16]
   84ff8:	91000400 	add	x0, x0, #0x1
   84ffc:	f9000be0 	str	x0, [sp, #16]
   85000:	f9400be0 	ldr	x0, [sp, #16]
   85004:	91000400 	add	x0, x0, #0x1
   85008:	f9000be0 	str	x0, [sp, #16]
   8500c:	14000002 	b	85014 <vsscanf+0x264>
   85010:	3917bfff 	strb	wzr, [sp, #1519]
   85014:	f9400be0 	ldr	x0, [sp, #16]
   85018:	91000401 	add	x1, x0, #0x1
   8501c:	f9000be1 	str	x1, [sp, #16]
   85020:	39400000 	ldrb	w0, [x0]
   85024:	39174fe0 	strb	w0, [sp, #1491]
   85028:	39574fe0 	ldrb	w0, [sp, #1491]
   8502c:	7101e01f 	cmp	w0, #0x78
   85030:	54000ec8 	b.hi	85208 <vsscanf+0x458>  // b.pmore
   85034:	f0000061 	adrp	x1, 94000 <digits+0x70>
   85038:	9103c021 	add	x1, x1, #0xf0
   8503c:	b8605820 	ldr	w0, [x1, w0, uxtw #2]
   85040:	10000061 	adr	x1, 8504c <vsscanf+0x29c>
   85044:	8b20c820 	add	x0, x1, w0, sxtw #2
   85048:	d61f0000 	br	x0
   8504c:	b9460fe0 	ldr	w0, [sp, #1548]
   85050:	140005d6 	b	867a8 <vsscanf+0x19f8>
   85054:	f9400be0 	ldr	x0, [sp, #16]
   85058:	39400000 	ldrb	w0, [x0]
   8505c:	7101781f 	cmp	w0, #0x5e
   85060:	54000c61 	b.ne	851ec <vsscanf+0x43c>  // b.any
   85064:	52800020 	mov	w0, #0x1                   	// #1
   85068:	3917b7e0 	strb	w0, [sp, #1517]
   8506c:	f9400be0 	ldr	x0, [sp, #16]
   85070:	91000400 	add	x0, x0, #0x1
   85074:	f9000be0 	str	x0, [sp, #16]
   85078:	1400005d 	b	851ec <vsscanf+0x43c>
   8507c:	f942ffe0 	ldr	x0, [sp, #1528]
   85080:	91000400 	add	x0, x0, #0x1
   85084:	f902ffe0 	str	x0, [sp, #1528]
   85088:	94001e5c 	bl	8c9f8 <__locale_ctype_ptr>
   8508c:	aa0003e1 	mov	x1, x0
   85090:	f942ffe0 	ldr	x0, [sp, #1528]
   85094:	39400000 	ldrb	w0, [x0]
   85098:	92401c00 	and	x0, x0, #0xff
   8509c:	91000400 	add	x0, x0, #0x1
   850a0:	8b000020 	add	x0, x1, x0
   850a4:	39400000 	ldrb	w0, [x0]
   850a8:	121d0000 	and	w0, w0, #0x8
   850ac:	7100001f 	cmp	w0, #0x0
   850b0:	54fffe61 	b.ne	8507c <vsscanf+0x2cc>  // b.any
   850b4:	14000055 	b	85208 <vsscanf+0x458>
   850b8:	f942ffe0 	ldr	x0, [sp, #1528]
   850bc:	91000400 	add	x0, x0, #0x1
   850c0:	f902ffe0 	str	x0, [sp, #1528]
   850c4:	94001e4d 	bl	8c9f8 <__locale_ctype_ptr>
   850c8:	aa0003e1 	mov	x1, x0
   850cc:	f942ffe0 	ldr	x0, [sp, #1528]
   850d0:	39400000 	ldrb	w0, [x0]
   850d4:	92401c00 	and	x0, x0, #0xff
   850d8:	91000400 	add	x0, x0, #0x1
   850dc:	8b000020 	add	x0, x1, x0
   850e0:	39400000 	ldrb	w0, [x0]
   850e4:	121e0000 	and	w0, w0, #0x4
   850e8:	7100001f 	cmp	w0, #0x0
   850ec:	54000841 	b.ne	851f4 <vsscanf+0x444>  // b.any
   850f0:	f942ffe0 	ldr	x0, [sp, #1528]
   850f4:	39400000 	ldrb	w0, [x0]
   850f8:	7100b41f 	cmp	w0, #0x2d
   850fc:	540007c0 	b.eq	851f4 <vsscanf+0x444>  // b.none
   85100:	f942ffe0 	ldr	x0, [sp, #1528]
   85104:	39400000 	ldrb	w0, [x0]
   85108:	7100ac1f 	cmp	w0, #0x2b
   8510c:	54000740 	b.eq	851f4 <vsscanf+0x444>  // b.none
   85110:	f942ffe0 	ldr	x0, [sp, #1528]
   85114:	39400000 	ldrb	w0, [x0]
   85118:	7100001f 	cmp	w0, #0x0
   8511c:	54fffce1 	b.ne	850b8 <vsscanf+0x308>  // b.any
   85120:	14000035 	b	851f4 <vsscanf+0x444>
   85124:	f942ffe0 	ldr	x0, [sp, #1528]
   85128:	91000400 	add	x0, x0, #0x1
   8512c:	f902ffe0 	str	x0, [sp, #1528]
   85130:	94001e32 	bl	8c9f8 <__locale_ctype_ptr>
   85134:	aa0003e1 	mov	x1, x0
   85138:	f942ffe0 	ldr	x0, [sp, #1528]
   8513c:	39400000 	ldrb	w0, [x0]
   85140:	92401c00 	and	x0, x0, #0xff
   85144:	91000400 	add	x0, x0, #0x1
   85148:	8b000020 	add	x0, x1, x0
   8514c:	39400000 	ldrb	w0, [x0]
   85150:	121e0000 	and	w0, w0, #0x4
   85154:	7100001f 	cmp	w0, #0x0
   85158:	54000521 	b.ne	851fc <vsscanf+0x44c>  // b.any
   8515c:	f942ffe0 	ldr	x0, [sp, #1528]
   85160:	39400000 	ldrb	w0, [x0]
   85164:	7100001f 	cmp	w0, #0x0
   85168:	54fffde1 	b.ne	85124 <vsscanf+0x374>  // b.any
   8516c:	14000024 	b	851fc <vsscanf+0x44c>
   85170:	f942ffe0 	ldr	x0, [sp, #1528]
   85174:	91000400 	add	x0, x0, #0x1
   85178:	f902ffe0 	str	x0, [sp, #1528]
   8517c:	94001e1f 	bl	8c9f8 <__locale_ctype_ptr>
   85180:	aa0003e1 	mov	x1, x0
   85184:	f942ffe0 	ldr	x0, [sp, #1528]
   85188:	39400000 	ldrb	w0, [x0]
   8518c:	92401c00 	and	x0, x0, #0xff
   85190:	91000400 	add	x0, x0, #0x1
   85194:	8b000020 	add	x0, x1, x0
   85198:	39400000 	ldrb	w0, [x0]
   8519c:	121e0000 	and	w0, w0, #0x4
   851a0:	7100001f 	cmp	w0, #0x0
   851a4:	54000301 	b.ne	85204 <vsscanf+0x454>  // b.any
   851a8:	f942ffe0 	ldr	x0, [sp, #1528]
   851ac:	39400000 	ldrb	w0, [x0]
   851b0:	7100b81f 	cmp	w0, #0x2e
   851b4:	54000280 	b.eq	85204 <vsscanf+0x454>  // b.none
   851b8:	f942ffe0 	ldr	x0, [sp, #1528]
   851bc:	39400000 	ldrb	w0, [x0]
   851c0:	7100b41f 	cmp	w0, #0x2d
   851c4:	54000200 	b.eq	85204 <vsscanf+0x454>  // b.none
   851c8:	f942ffe0 	ldr	x0, [sp, #1528]
   851cc:	39400000 	ldrb	w0, [x0]
   851d0:	7100ac1f 	cmp	w0, #0x2b
   851d4:	54000180 	b.eq	85204 <vsscanf+0x454>  // b.none
   851d8:	f942ffe0 	ldr	x0, [sp, #1528]
   851dc:	39400000 	ldrb	w0, [x0]
   851e0:	7100001f 	cmp	w0, #0x0
   851e4:	54fffc61 	b.ne	85170 <vsscanf+0x3c0>  // b.any
   851e8:	14000007 	b	85204 <vsscanf+0x454>
   851ec:	d503201f 	nop
   851f0:	14000006 	b	85208 <vsscanf+0x458>
   851f4:	d503201f 	nop
   851f8:	14000004 	b	85208 <vsscanf+0x458>
   851fc:	d503201f 	nop
   85200:	14000002 	b	85208 <vsscanf+0x458>
   85204:	d503201f 	nop
   85208:	39574fe0 	ldrb	w0, [sp, #1491]
   8520c:	71016c1f 	cmp	w0, #0x5b
   85210:	54000240 	b.eq	85258 <vsscanf+0x4a8>  // b.none
   85214:	f942ffe0 	ldr	x0, [sp, #1528]
   85218:	39400000 	ldrb	w0, [x0]
   8521c:	7100001f 	cmp	w0, #0x0
   85220:	54000061 	b.ne	8522c <vsscanf+0x47c>  // b.any
   85224:	b9460fe0 	ldr	w0, [sp, #1548]
   85228:	14000560 	b	867a8 <vsscanf+0x19f8>
   8522c:	f942ffe0 	ldr	x0, [sp, #1528]
   85230:	f902fbe0 	str	x0, [sp, #1520]
   85234:	f942ffe0 	ldr	x0, [sp, #1528]
   85238:	91000400 	add	x0, x0, #0x1
   8523c:	f902ffe0 	str	x0, [sp, #1528]
   85240:	f942ffe0 	ldr	x0, [sp, #1528]
   85244:	39400000 	ldrb	w0, [x0]
   85248:	7100001f 	cmp	w0, #0x0
   8524c:	54000281 	b.ne	8529c <vsscanf+0x4ec>  // b.any
   85250:	b9460fe0 	ldr	w0, [sp, #1548]
   85254:	14000555 	b	867a8 <vsscanf+0x19f8>
   85258:	f9400be0 	ldr	x0, [sp, #16]
   8525c:	39400000 	ldrb	w0, [x0]
   85260:	7100001f 	cmp	w0, #0x0
   85264:	54000061 	b.ne	85270 <vsscanf+0x4c0>  // b.any
   85268:	b9460fe0 	ldr	w0, [sp, #1548]
   8526c:	1400054f 	b	867a8 <vsscanf+0x19f8>
   85270:	f9400be0 	ldr	x0, [sp, #16]
   85274:	f902fbe0 	str	x0, [sp, #1520]
   85278:	f9400be0 	ldr	x0, [sp, #16]
   8527c:	91000400 	add	x0, x0, #0x1
   85280:	f9000be0 	str	x0, [sp, #16]
   85284:	f9400be0 	ldr	x0, [sp, #16]
   85288:	39400000 	ldrb	w0, [x0]
   8528c:	7100001f 	cmp	w0, #0x0
   85290:	54000061 	b.ne	8529c <vsscanf+0x4ec>  // b.any
   85294:	b9460fe0 	ldr	w0, [sp, #1548]
   85298:	14000544 	b	867a8 <vsscanf+0x19f8>
   8529c:	39574fe0 	ldrb	w0, [sp, #1491]
   852a0:	7101901f 	cmp	w0, #0x64
   852a4:	54000a60 	b.eq	853f0 <vsscanf+0x640>  // b.none
   852a8:	7101901f 	cmp	w0, #0x64
   852ac:	5400028c 	b.gt	852fc <vsscanf+0x54c>
   852b0:	7101601f 	cmp	w0, #0x58
   852b4:	54000d40 	b.eq	8545c <vsscanf+0x6ac>  // b.none
   852b8:	7101601f 	cmp	w0, #0x58
   852bc:	5400012c 	b.gt	852e0 <vsscanf+0x530>
   852c0:	7101041f 	cmp	w0, #0x41
   852c4:	54001de0 	b.eq	85680 <vsscanf+0x8d0>  // b.none
   852c8:	7101041f 	cmp	w0, #0x41
   852cc:	540027ab 	b.lt	857c0 <vsscanf+0xa10>  // b.tstop
   852d0:	51011400 	sub	w0, w0, #0x45
   852d4:	7100081f 	cmp	w0, #0x2
   852d8:	54002748 	b.hi	857c0 <vsscanf+0xa10>  // b.pmore
   852dc:	140000e9 	b	85680 <vsscanf+0x8d0>
   852e0:	7101841f 	cmp	w0, #0x61
   852e4:	54001ce0 	b.eq	85680 <vsscanf+0x8d0>  // b.none
   852e8:	71018c1f 	cmp	w0, #0x63
   852ec:	54002580 	b.eq	8579c <vsscanf+0x9ec>  // b.none
   852f0:	71016c1f 	cmp	w0, #0x5b
   852f4:	54000340 	b.eq	8535c <vsscanf+0x5ac>  // b.none
   852f8:	14000132 	b	857c0 <vsscanf+0xa10>
   852fc:	7101bc1f 	cmp	w0, #0x6f
   85300:	54000900 	b.eq	85420 <vsscanf+0x670>  // b.none
   85304:	7101bc1f 	cmp	w0, #0x6f
   85308:	540000cc 	b.gt	85320 <vsscanf+0x570>
   8530c:	71019c1f 	cmp	w0, #0x67
   85310:	54001b8d 	b.le	85680 <vsscanf+0x8d0>
   85314:	7101a41f 	cmp	w0, #0x69
   85318:	54000e60 	b.eq	854e4 <vsscanf+0x734>  // b.none
   8531c:	14000129 	b	857c0 <vsscanf+0xa10>
   85320:	7101cc1f 	cmp	w0, #0x73
   85324:	540003a0 	b.eq	85398 <vsscanf+0x5e8>  // b.none
   85328:	7101cc1f 	cmp	w0, #0x73
   8532c:	5400008c 	b.gt	8533c <vsscanf+0x58c>
   85330:	7101c01f 	cmp	w0, #0x70
   85334:	54000d80 	b.eq	854e4 <vsscanf+0x734>  // b.none
   85338:	14000122 	b	857c0 <vsscanf+0xa10>
   8533c:	7101d41f 	cmp	w0, #0x75
   85340:	54000580 	b.eq	853f0 <vsscanf+0x640>  // b.none
   85344:	7101e01f 	cmp	w0, #0x78
   85348:	540008a0 	b.eq	8545c <vsscanf+0x6ac>  // b.none
   8534c:	1400011d 	b	857c0 <vsscanf+0xa10>
   85350:	f9400be0 	ldr	x0, [sp, #16]
   85354:	91000400 	add	x0, x0, #0x1
   85358:	f9000be0 	str	x0, [sp, #16]
   8535c:	f9400be0 	ldr	x0, [sp, #16]
   85360:	39400000 	ldrb	w0, [x0]
   85364:	7101741f 	cmp	w0, #0x5d
   85368:	540021e0 	b.eq	857a4 <vsscanf+0x9f4>  // b.none
   8536c:	f9400be0 	ldr	x0, [sp, #16]
   85370:	39400000 	ldrb	w0, [x0]
   85374:	7100001f 	cmp	w0, #0x0
   85378:	54fffec1 	b.ne	85350 <vsscanf+0x5a0>  // b.any
   8537c:	1400010a 	b	857a4 <vsscanf+0x9f4>
   85380:	f942ffe0 	ldr	x0, [sp, #1528]
   85384:	91000400 	add	x0, x0, #0x1
   85388:	f902ffe0 	str	x0, [sp, #1528]
   8538c:	b94607e0 	ldr	w0, [sp, #1540]
   85390:	51000400 	sub	w0, w0, #0x1
   85394:	b90607e0 	str	w0, [sp, #1540]
   85398:	94001d98 	bl	8c9f8 <__locale_ctype_ptr>
   8539c:	aa0003e1 	mov	x1, x0
   853a0:	f942ffe0 	ldr	x0, [sp, #1528]
   853a4:	39400000 	ldrb	w0, [x0]
   853a8:	92401c00 	and	x0, x0, #0xff
   853ac:	91000400 	add	x0, x0, #0x1
   853b0:	8b000020 	add	x0, x1, x0
   853b4:	39400000 	ldrb	w0, [x0]
   853b8:	121d0000 	and	w0, w0, #0x8
   853bc:	7100001f 	cmp	w0, #0x0
   853c0:	54001f61 	b.ne	857ac <vsscanf+0x9fc>  // b.any
   853c4:	f942ffe0 	ldr	x0, [sp, #1528]
   853c8:	39400000 	ldrb	w0, [x0]
   853cc:	7100001f 	cmp	w0, #0x0
   853d0:	54001ee0 	b.eq	857ac <vsscanf+0x9fc>  // b.none
   853d4:	b94607e0 	ldr	w0, [sp, #1540]
   853d8:	7100001f 	cmp	w0, #0x0
   853dc:	54fffd21 	b.ne	85380 <vsscanf+0x5d0>  // b.any
   853e0:	140000f3 	b	857ac <vsscanf+0x9fc>
   853e4:	f942ffe0 	ldr	x0, [sp, #1528]
   853e8:	91000400 	add	x0, x0, #0x1
   853ec:	f902ffe0 	str	x0, [sp, #1528]
   853f0:	94001d82 	bl	8c9f8 <__locale_ctype_ptr>
   853f4:	aa0003e1 	mov	x1, x0
   853f8:	f942ffe0 	ldr	x0, [sp, #1528]
   853fc:	39400000 	ldrb	w0, [x0]
   85400:	92401c00 	and	x0, x0, #0xff
   85404:	91000400 	add	x0, x0, #0x1
   85408:	8b000020 	add	x0, x1, x0
   8540c:	39400000 	ldrb	w0, [x0]
   85410:	121e0000 	and	w0, w0, #0x4
   85414:	7100001f 	cmp	w0, #0x0
   85418:	54fffe61 	b.ne	853e4 <vsscanf+0x634>  // b.any
   8541c:	140000e9 	b	857c0 <vsscanf+0xa10>
   85420:	52800100 	mov	w0, #0x8                   	// #8
   85424:	b9060be0 	str	w0, [sp, #1544]
   85428:	14000004 	b	85438 <vsscanf+0x688>
   8542c:	f942ffe0 	ldr	x0, [sp, #1528]
   85430:	91000400 	add	x0, x0, #0x1
   85434:	f902ffe0 	str	x0, [sp, #1528]
   85438:	f942ffe0 	ldr	x0, [sp, #1528]
   8543c:	39400000 	ldrb	w0, [x0]
   85440:	7100bc1f 	cmp	w0, #0x2f
   85444:	54001b89 	b.ls	857b4 <vsscanf+0xa04>  // b.plast
   85448:	f942ffe0 	ldr	x0, [sp, #1528]
   8544c:	39400000 	ldrb	w0, [x0]
   85450:	7100dc1f 	cmp	w0, #0x37
   85454:	54fffec9 	b.ls	8542c <vsscanf+0x67c>  // b.plast
   85458:	140000d7 	b	857b4 <vsscanf+0xa04>
   8545c:	52800200 	mov	w0, #0x10                  	// #16
   85460:	b9060be0 	str	w0, [sp, #1544]
   85464:	14000004 	b	85474 <vsscanf+0x6c4>
   85468:	f942ffe0 	ldr	x0, [sp, #1528]
   8546c:	91000400 	add	x0, x0, #0x1
   85470:	f902ffe0 	str	x0, [sp, #1528]
   85474:	94001d61 	bl	8c9f8 <__locale_ctype_ptr>
   85478:	aa0003e1 	mov	x1, x0
   8547c:	f942ffe0 	ldr	x0, [sp, #1528]
   85480:	39400000 	ldrb	w0, [x0]
   85484:	92401c00 	and	x0, x0, #0xff
   85488:	91000400 	add	x0, x0, #0x1
   8548c:	8b000020 	add	x0, x1, x0
   85490:	39400000 	ldrb	w0, [x0]
   85494:	121e0000 	and	w0, w0, #0x4
   85498:	7100001f 	cmp	w0, #0x0
   8549c:	54fffe61 	b.ne	85468 <vsscanf+0x6b8>  // b.any
   854a0:	f942ffe0 	ldr	x0, [sp, #1528]
   854a4:	39400000 	ldrb	w0, [x0]
   854a8:	7101801f 	cmp	w0, #0x60
   854ac:	540000a9 	b.ls	854c0 <vsscanf+0x710>  // b.plast
   854b0:	f942ffe0 	ldr	x0, [sp, #1528]
   854b4:	39400000 	ldrb	w0, [x0]
   854b8:	7101981f 	cmp	w0, #0x66
   854bc:	54fffd69 	b.ls	85468 <vsscanf+0x6b8>  // b.plast
   854c0:	f942ffe0 	ldr	x0, [sp, #1528]
   854c4:	39400000 	ldrb	w0, [x0]
   854c8:	7101001f 	cmp	w0, #0x40
   854cc:	54001789 	b.ls	857bc <vsscanf+0xa0c>  // b.plast
   854d0:	f942ffe0 	ldr	x0, [sp, #1528]
   854d4:	39400000 	ldrb	w0, [x0]
   854d8:	7101181f 	cmp	w0, #0x46
   854dc:	54fffc69 	b.ls	85468 <vsscanf+0x6b8>  // b.plast
   854e0:	140000b7 	b	857bc <vsscanf+0xa0c>
   854e4:	f942fbe0 	ldr	x0, [sp, #1520]
   854e8:	39400000 	ldrb	w0, [x0]
   854ec:	7100c01f 	cmp	w0, #0x30
   854f0:	54000a81 	b.ne	85640 <vsscanf+0x890>  // b.any
   854f4:	f942ffe0 	ldr	x0, [sp, #1528]
   854f8:	39400000 	ldrb	w0, [x0]
   854fc:	7101881f 	cmp	w0, #0x62
   85500:	54000500 	b.eq	855a0 <vsscanf+0x7f0>  // b.none
   85504:	7101e01f 	cmp	w0, #0x78
   85508:	54000701 	b.ne	855e8 <vsscanf+0x838>  // b.any
   8550c:	52800200 	mov	w0, #0x10                  	// #16
   85510:	b9060be0 	str	w0, [sp, #1544]
   85514:	f942ffe0 	ldr	x0, [sp, #1528]
   85518:	91000400 	add	x0, x0, #0x1
   8551c:	f902ffe0 	str	x0, [sp, #1528]
   85520:	14000004 	b	85530 <vsscanf+0x780>
   85524:	f942ffe0 	ldr	x0, [sp, #1528]
   85528:	91000400 	add	x0, x0, #0x1
   8552c:	f902ffe0 	str	x0, [sp, #1528]
   85530:	94001d32 	bl	8c9f8 <__locale_ctype_ptr>
   85534:	aa0003e1 	mov	x1, x0
   85538:	f942ffe0 	ldr	x0, [sp, #1528]
   8553c:	39400000 	ldrb	w0, [x0]
   85540:	92401c00 	and	x0, x0, #0xff
   85544:	91000400 	add	x0, x0, #0x1
   85548:	8b000020 	add	x0, x1, x0
   8554c:	39400000 	ldrb	w0, [x0]
   85550:	121e0000 	and	w0, w0, #0x4
   85554:	7100001f 	cmp	w0, #0x0
   85558:	54fffe61 	b.ne	85524 <vsscanf+0x774>  // b.any
   8555c:	f942ffe0 	ldr	x0, [sp, #1528]
   85560:	39400000 	ldrb	w0, [x0]
   85564:	7101801f 	cmp	w0, #0x60
   85568:	540000a9 	b.ls	8557c <vsscanf+0x7cc>  // b.plast
   8556c:	f942ffe0 	ldr	x0, [sp, #1528]
   85570:	39400000 	ldrb	w0, [x0]
   85574:	7101981f 	cmp	w0, #0x66
   85578:	54fffd69 	b.ls	85524 <vsscanf+0x774>  // b.plast
   8557c:	f942ffe0 	ldr	x0, [sp, #1528]
   85580:	39400000 	ldrb	w0, [x0]
   85584:	7101001f 	cmp	w0, #0x40
   85588:	54000749 	b.ls	85670 <vsscanf+0x8c0>  // b.plast
   8558c:	f942ffe0 	ldr	x0, [sp, #1528]
   85590:	39400000 	ldrb	w0, [x0]
   85594:	7101181f 	cmp	w0, #0x46
   85598:	54fffc69 	b.ls	85524 <vsscanf+0x774>  // b.plast
   8559c:	14000035 	b	85670 <vsscanf+0x8c0>
   855a0:	52800040 	mov	w0, #0x2                   	// #2
   855a4:	b9060be0 	str	w0, [sp, #1544]
   855a8:	f942ffe0 	ldr	x0, [sp, #1528]
   855ac:	91000400 	add	x0, x0, #0x1
   855b0:	f902ffe0 	str	x0, [sp, #1528]
   855b4:	14000004 	b	855c4 <vsscanf+0x814>
   855b8:	f942ffe0 	ldr	x0, [sp, #1528]
   855bc:	91000400 	add	x0, x0, #0x1
   855c0:	f902ffe0 	str	x0, [sp, #1528]
   855c4:	f942ffe0 	ldr	x0, [sp, #1528]
   855c8:	39400000 	ldrb	w0, [x0]
   855cc:	7100c01f 	cmp	w0, #0x30
   855d0:	54ffff40 	b.eq	855b8 <vsscanf+0x808>  // b.none
   855d4:	f942ffe0 	ldr	x0, [sp, #1528]
   855d8:	39400000 	ldrb	w0, [x0]
   855dc:	7100c41f 	cmp	w0, #0x31
   855e0:	54fffec0 	b.eq	855b8 <vsscanf+0x808>  // b.none
   855e4:	14000026 	b	8567c <vsscanf+0x8cc>
   855e8:	52800100 	mov	w0, #0x8                   	// #8
   855ec:	b9060be0 	str	w0, [sp, #1544]
   855f0:	f942ffe0 	ldr	x0, [sp, #1528]
   855f4:	91000400 	add	x0, x0, #0x1
   855f8:	f902ffe0 	str	x0, [sp, #1528]
   855fc:	14000004 	b	8560c <vsscanf+0x85c>
   85600:	f942ffe0 	ldr	x0, [sp, #1528]
   85604:	91000400 	add	x0, x0, #0x1
   85608:	f902ffe0 	str	x0, [sp, #1528]
   8560c:	f942ffe0 	ldr	x0, [sp, #1528]
   85610:	39400000 	ldrb	w0, [x0]
   85614:	7100bc1f 	cmp	w0, #0x2f
   85618:	54000309 	b.ls	85678 <vsscanf+0x8c8>  // b.plast
   8561c:	f942ffe0 	ldr	x0, [sp, #1528]
   85620:	39400000 	ldrb	w0, [x0]
   85624:	7100dc1f 	cmp	w0, #0x37
   85628:	54fffec9 	b.ls	85600 <vsscanf+0x850>  // b.plast
   8562c:	d503201f 	nop
   85630:	14000012 	b	85678 <vsscanf+0x8c8>
   85634:	f942ffe0 	ldr	x0, [sp, #1528]
   85638:	91000400 	add	x0, x0, #0x1
   8563c:	f902ffe0 	str	x0, [sp, #1528]
   85640:	94001cee 	bl	8c9f8 <__locale_ctype_ptr>
   85644:	aa0003e1 	mov	x1, x0
   85648:	f942ffe0 	ldr	x0, [sp, #1528]
   8564c:	39400000 	ldrb	w0, [x0]
   85650:	92401c00 	and	x0, x0, #0xff
   85654:	91000400 	add	x0, x0, #0x1
   85658:	8b000020 	add	x0, x1, x0
   8565c:	39400000 	ldrb	w0, [x0]
   85660:	121e0000 	and	w0, w0, #0x4
   85664:	7100001f 	cmp	w0, #0x0
   85668:	54fffe61 	b.ne	85634 <vsscanf+0x884>  // b.any
   8566c:	14000055 	b	857c0 <vsscanf+0xa10>
   85670:	d503201f 	nop
   85674:	14000053 	b	857c0 <vsscanf+0xa10>
   85678:	d503201f 	nop
   8567c:	14000051 	b	857c0 <vsscanf+0xa10>
   85680:	3917afff 	strb	wzr, [sp, #1515]
   85684:	3917abff 	strb	wzr, [sp, #1514]
   85688:	3917a7ff 	strb	wzr, [sp, #1513]
   8568c:	f942fbe0 	ldr	x0, [sp, #1520]
   85690:	39400000 	ldrb	w0, [x0]
   85694:	7100b81f 	cmp	w0, #0x2e
   85698:	54000061 	b.ne	856a4 <vsscanf+0x8f4>  // b.any
   8569c:	52800020 	mov	w0, #0x1                   	// #1
   856a0:	3917abe0 	strb	w0, [sp, #1514]
   856a4:	3957abe0 	ldrb	w0, [sp, #1514]
   856a8:	52000000 	eor	w0, w0, #0x1
   856ac:	12001c00 	and	w0, w0, #0xff
   856b0:	7100001f 	cmp	w0, #0x0
   856b4:	54000140 	b.eq	856dc <vsscanf+0x92c>  // b.none
   856b8:	f942ffe0 	ldr	x0, [sp, #1528]
   856bc:	39400000 	ldrb	w0, [x0]
   856c0:	7100b81f 	cmp	w0, #0x2e
   856c4:	540000c1 	b.ne	856dc <vsscanf+0x92c>  // b.any
   856c8:	52800020 	mov	w0, #0x1                   	// #1
   856cc:	3917abe0 	strb	w0, [sp, #1514]
   856d0:	f942ffe0 	ldr	x0, [sp, #1528]
   856d4:	91000400 	add	x0, x0, #0x1
   856d8:	f902ffe0 	str	x0, [sp, #1528]
   856dc:	3957a7e0 	ldrb	w0, [sp, #1513]
   856e0:	52000000 	eor	w0, w0, #0x1
   856e4:	12001c00 	and	w0, w0, #0xff
   856e8:	7100001f 	cmp	w0, #0x0
   856ec:	540002a0 	b.eq	85740 <vsscanf+0x990>  // b.none
   856f0:	f942ffe0 	ldr	x0, [sp, #1528]
   856f4:	39400000 	ldrb	w0, [x0]
   856f8:	7101941f 	cmp	w0, #0x65
   856fc:	540000a0 	b.eq	85710 <vsscanf+0x960>  // b.none
   85700:	f942ffe0 	ldr	x0, [sp, #1528]
   85704:	39400000 	ldrb	w0, [x0]
   85708:	7101141f 	cmp	w0, #0x45
   8570c:	540001a1 	b.ne	85740 <vsscanf+0x990>  // b.any
   85710:	52800020 	mov	w0, #0x1                   	// #1
   85714:	3917a7e0 	strb	w0, [sp, #1513]
   85718:	f942ffe0 	ldr	x0, [sp, #1528]
   8571c:	91000400 	add	x0, x0, #0x1
   85720:	f902ffe0 	str	x0, [sp, #1528]
   85724:	f942ffe0 	ldr	x0, [sp, #1528]
   85728:	39400000 	ldrb	w0, [x0]
   8572c:	7100b41f 	cmp	w0, #0x2d
   85730:	54000081 	b.ne	85740 <vsscanf+0x990>  // b.any
   85734:	f942ffe0 	ldr	x0, [sp, #1528]
   85738:	91000400 	add	x0, x0, #0x1
   8573c:	f902ffe0 	str	x0, [sp, #1528]
   85740:	94001cae 	bl	8c9f8 <__locale_ctype_ptr>
   85744:	aa0003e1 	mov	x1, x0
   85748:	f942ffe0 	ldr	x0, [sp, #1528]
   8574c:	39400000 	ldrb	w0, [x0]
   85750:	92401c00 	and	x0, x0, #0xff
   85754:	91000400 	add	x0, x0, #0x1
   85758:	8b000020 	add	x0, x1, x0
   8575c:	39400000 	ldrb	w0, [x0]
   85760:	121e0000 	and	w0, w0, #0x4
   85764:	7100001f 	cmp	w0, #0x0
   85768:	540000a0 	b.eq	8577c <vsscanf+0x9cc>  // b.none
   8576c:	f942ffe0 	ldr	x0, [sp, #1528]
   85770:	91000400 	add	x0, x0, #0x1
   85774:	f902ffe0 	str	x0, [sp, #1528]
   85778:	14000003 	b	85784 <vsscanf+0x9d4>
   8577c:	52800020 	mov	w0, #0x1                   	// #1
   85780:	3917afe0 	strb	w0, [sp, #1515]
   85784:	3957afe0 	ldrb	w0, [sp, #1515]
   85788:	52000000 	eor	w0, w0, #0x1
   8578c:	12001c00 	and	w0, w0, #0xff
   85790:	7100001f 	cmp	w0, #0x0
   85794:	54fff881 	b.ne	856a4 <vsscanf+0x8f4>  // b.any
   85798:	1400000a 	b	857c0 <vsscanf+0xa10>
   8579c:	d503201f 	nop
   857a0:	14000008 	b	857c0 <vsscanf+0xa10>
   857a4:	d503201f 	nop
   857a8:	14000006 	b	857c0 <vsscanf+0xa10>
   857ac:	d503201f 	nop
   857b0:	14000004 	b	857c0 <vsscanf+0xa10>
   857b4:	d503201f 	nop
   857b8:	14000002 	b	857c0 <vsscanf+0xa10>
   857bc:	d503201f 	nop
   857c0:	39574fe0 	ldrb	w0, [sp, #1491]
   857c4:	71018c1f 	cmp	w0, #0x63
   857c8:	540002a0 	b.eq	8581c <vsscanf+0xa6c>  // b.none
   857cc:	39574fe0 	ldrb	w0, [sp, #1491]
   857d0:	71016c1f 	cmp	w0, #0x5b
   857d4:	540000c0 	b.eq	857ec <vsscanf+0xa3c>  // b.none
   857d8:	f942ffe1 	ldr	x1, [sp, #1528]
   857dc:	f942fbe0 	ldr	x0, [sp, #1520]
   857e0:	cb000020 	sub	x0, x1, x0
   857e4:	b905e7e0 	str	w0, [sp, #1508]
   857e8:	14000005 	b	857fc <vsscanf+0xa4c>
   857ec:	f9400be1 	ldr	x1, [sp, #16]
   857f0:	f942fbe0 	ldr	x0, [sp, #1520]
   857f4:	cb000020 	sub	x0, x1, x0
   857f8:	b905e7e0 	str	w0, [sp, #1508]
   857fc:	b985e7e1 	ldrsw	x1, [sp, #1508]
   85800:	9110c3e0 	add	x0, sp, #0x430
   85804:	aa0103e2 	mov	x2, x1
   85808:	f942fbe1 	ldr	x1, [sp, #1520]
   8580c:	94001e57 	bl	8d168 <strncpy>
   85810:	b985e7e0 	ldrsw	x0, [sp, #1508]
   85814:	9110c3e1 	add	x1, sp, #0x430
   85818:	3820683f 	strb	wzr, [x1, x0]
   8581c:	39574fe0 	ldrb	w0, [sp, #1491]
   85820:	71019c1f 	cmp	w0, #0x67
   85824:	5400024c 	b.gt	8586c <vsscanf+0xabc>
   85828:	7101941f 	cmp	w0, #0x65
   8582c:	54004cca 	b.ge	861c4 <vsscanf+0x1414>  // b.tcont
   85830:	7101601f 	cmp	w0, #0x58
   85834:	540003c0 	b.eq	858ac <vsscanf+0xafc>  // b.none
   85838:	7101601f 	cmp	w0, #0x58
   8583c:	540000ac 	b.gt	85850 <vsscanf+0xaa0>
   85840:	51011400 	sub	w0, w0, #0x45
   85844:	7100081f 	cmp	w0, #0x2
   85848:	54007748 	b.hi	86730 <vsscanf+0x1980>  // b.pmore
   8584c:	1400025e 	b	861c4 <vsscanf+0x1414>
   85850:	71018c1f 	cmp	w0, #0x63
   85854:	54006720 	b.eq	86538 <vsscanf+0x1788>  // b.none
   85858:	71018c1f 	cmp	w0, #0x63
   8585c:	540026ec 	b.gt	85d38 <vsscanf+0xf88>
   85860:	71016c1f 	cmp	w0, #0x5b
   85864:	54006fc0 	b.eq	8665c <vsscanf+0x18ac>  // b.none
   85868:	140003b2 	b	86730 <vsscanf+0x1980>
   8586c:	7101c01f 	cmp	w0, #0x70
   85870:	54005840 	b.eq	86378 <vsscanf+0x15c8>  // b.none
   85874:	7101c01f 	cmp	w0, #0x70
   85878:	540000cc 	b.gt	85890 <vsscanf+0xae0>
   8587c:	7101a41f 	cmp	w0, #0x69
   85880:	540025c0 	b.eq	85d38 <vsscanf+0xf88>  // b.none
   85884:	7101bc1f 	cmp	w0, #0x6f
   85888:	54000120 	b.eq	858ac <vsscanf+0xafc>  // b.none
   8588c:	140003a9 	b	86730 <vsscanf+0x1980>
   85890:	7101d41f 	cmp	w0, #0x75
   85894:	540000c0 	b.eq	858ac <vsscanf+0xafc>  // b.none
   85898:	7101e01f 	cmp	w0, #0x78
   8589c:	54000080 	b.eq	858ac <vsscanf+0xafc>  // b.none
   858a0:	7101cc1f 	cmp	w0, #0x73
   858a4:	54005b60 	b.eq	86410 <vsscanf+0x1660>  // b.none
   858a8:	140003a2 	b	86730 <vsscanf+0x1980>
   858ac:	3957bbe0 	ldrb	w0, [sp, #1518]
   858b0:	7100001f 	cmp	w0, #0x0
   858b4:	54007201 	b.ne	866f4 <vsscanf+0x1944>  // b.any
   858b8:	3957bfe0 	ldrb	w0, [sp, #1519]
   858bc:	7101a81f 	cmp	w0, #0x6a
   858c0:	54001740 	b.eq	85ba8 <vsscanf+0xdf8>  // b.none
   858c4:	7101a81f 	cmp	w0, #0x6a
   858c8:	540000cc 	b.gt	858e0 <vsscanf+0xb30>
   858cc:	7100001f 	cmp	w0, #0x0
   858d0:	54000160 	b.eq	858fc <vsscanf+0xb4c>  // b.none
   858d4:	7101a01f 	cmp	w0, #0x68
   858d8:	54000540 	b.eq	85980 <vsscanf+0xbd0>  // b.none
   858dc:	14000395 	b	86730 <vsscanf+0x1980>
   858e0:	7101d01f 	cmp	w0, #0x74
   858e4:	54001e60 	b.eq	85cb0 <vsscanf+0xf00>  // b.none
   858e8:	7101e81f 	cmp	w0, #0x7a
   858ec:	54001a00 	b.eq	85c2c <vsscanf+0xe7c>  // b.none
   858f0:	7101b01f 	cmp	w0, #0x6c
   858f4:	54000d00 	b.eq	85a94 <vsscanf+0xce4>  // b.none
   858f8:	1400038e 	b	86730 <vsscanf+0x1980>
   858fc:	9114c3e1 	add	x1, sp, #0x530
   85900:	9110c3e0 	add	x0, sp, #0x430
   85904:	b9460be2 	ldr	w2, [sp, #1544]
   85908:	940024d4 	bl	8ec58 <strtoul>
   8590c:	b905cfe0 	str	w0, [sp, #1484]
   85910:	b9401a60 	ldr	w0, [x19, #24]
   85914:	f9400261 	ldr	x1, [x19]
   85918:	7100001f 	cmp	w0, #0x0
   8591c:	540000eb 	b.lt	85938 <vsscanf+0xb88>  // b.tstop
   85920:	aa0103e0 	mov	x0, x1
   85924:	91003c00 	add	x0, x0, #0xf
   85928:	927df000 	and	x0, x0, #0xfffffffffffffff8
   8592c:	f9000260 	str	x0, [x19]
   85930:	aa0103e0 	mov	x0, x1
   85934:	1400000f 	b	85970 <vsscanf+0xbc0>
   85938:	11002002 	add	w2, w0, #0x8
   8593c:	b9001a62 	str	w2, [x19, #24]
   85940:	b9401a62 	ldr	w2, [x19, #24]
   85944:	7100005f 	cmp	w2, #0x0
   85948:	540000ed 	b.le	85964 <vsscanf+0xbb4>
   8594c:	aa0103e0 	mov	x0, x1
   85950:	91003c00 	add	x0, x0, #0xf
   85954:	927df000 	and	x0, x0, #0xfffffffffffffff8
   85958:	f9000260 	str	x0, [x19]
   8595c:	aa0103e0 	mov	x0, x1
   85960:	14000004 	b	85970 <vsscanf+0xbc0>
   85964:	f9400661 	ldr	x1, [x19, #8]
   85968:	93407c00 	sxtw	x0, w0
   8596c:	8b000020 	add	x0, x1, x0
   85970:	f9400000 	ldr	x0, [x0]
   85974:	b945cfe1 	ldr	w1, [sp, #1484]
   85978:	b9000001 	str	w1, [x0]
   8597c:	140000ee 	b	85d34 <vsscanf+0xf84>
   85980:	3957b3e0 	ldrb	w0, [sp, #1516]
   85984:	7100001f 	cmp	w0, #0x0
   85988:	54000440 	b.eq	85a10 <vsscanf+0xc60>  // b.none
   8598c:	9114c3e1 	add	x1, sp, #0x530
   85990:	9110c3e0 	add	x0, sp, #0x430
   85994:	b9460be2 	ldr	w2, [sp, #1544]
   85998:	940024b0 	bl	8ec58 <strtoul>
   8599c:	39172fe0 	strb	w0, [sp, #1483]
   859a0:	b9401a60 	ldr	w0, [x19, #24]
   859a4:	f9400261 	ldr	x1, [x19]
   859a8:	7100001f 	cmp	w0, #0x0
   859ac:	540000eb 	b.lt	859c8 <vsscanf+0xc18>  // b.tstop
   859b0:	aa0103e0 	mov	x0, x1
   859b4:	91003c00 	add	x0, x0, #0xf
   859b8:	927df000 	and	x0, x0, #0xfffffffffffffff8
   859bc:	f9000260 	str	x0, [x19]
   859c0:	aa0103e0 	mov	x0, x1
   859c4:	1400000f 	b	85a00 <vsscanf+0xc50>
   859c8:	11002002 	add	w2, w0, #0x8
   859cc:	b9001a62 	str	w2, [x19, #24]
   859d0:	b9401a62 	ldr	w2, [x19, #24]
   859d4:	7100005f 	cmp	w2, #0x0
   859d8:	540000ed 	b.le	859f4 <vsscanf+0xc44>
   859dc:	aa0103e0 	mov	x0, x1
   859e0:	91003c00 	add	x0, x0, #0xf
   859e4:	927df000 	and	x0, x0, #0xfffffffffffffff8
   859e8:	f9000260 	str	x0, [x19]
   859ec:	aa0103e0 	mov	x0, x1
   859f0:	14000004 	b	85a00 <vsscanf+0xc50>
   859f4:	f9400661 	ldr	x1, [x19, #8]
   859f8:	93407c00 	sxtw	x0, w0
   859fc:	8b000020 	add	x0, x1, x0
   85a00:	f9400000 	ldr	x0, [x0]
   85a04:	39572fe1 	ldrb	w1, [sp, #1483]
   85a08:	39000001 	strb	w1, [x0]
   85a0c:	140000ca 	b	85d34 <vsscanf+0xf84>
   85a10:	9114c3e1 	add	x1, sp, #0x530
   85a14:	9110c3e0 	add	x0, sp, #0x430
   85a18:	b9460be2 	ldr	w2, [sp, #1544]
   85a1c:	9400248f 	bl	8ec58 <strtoul>
   85a20:	790b93e0 	strh	w0, [sp, #1480]
   85a24:	b9401a60 	ldr	w0, [x19, #24]
   85a28:	f9400261 	ldr	x1, [x19]
   85a2c:	7100001f 	cmp	w0, #0x0
   85a30:	540000eb 	b.lt	85a4c <vsscanf+0xc9c>  // b.tstop
   85a34:	aa0103e0 	mov	x0, x1
   85a38:	91003c00 	add	x0, x0, #0xf
   85a3c:	927df000 	and	x0, x0, #0xfffffffffffffff8
   85a40:	f9000260 	str	x0, [x19]
   85a44:	aa0103e0 	mov	x0, x1
   85a48:	1400000f 	b	85a84 <vsscanf+0xcd4>
   85a4c:	11002002 	add	w2, w0, #0x8
   85a50:	b9001a62 	str	w2, [x19, #24]
   85a54:	b9401a62 	ldr	w2, [x19, #24]
   85a58:	7100005f 	cmp	w2, #0x0
   85a5c:	540000ed 	b.le	85a78 <vsscanf+0xcc8>
   85a60:	aa0103e0 	mov	x0, x1
   85a64:	91003c00 	add	x0, x0, #0xf
   85a68:	927df000 	and	x0, x0, #0xfffffffffffffff8
   85a6c:	f9000260 	str	x0, [x19]
   85a70:	aa0103e0 	mov	x0, x1
   85a74:	14000004 	b	85a84 <vsscanf+0xcd4>
   85a78:	f9400661 	ldr	x1, [x19, #8]
   85a7c:	93407c00 	sxtw	x0, w0
   85a80:	8b000020 	add	x0, x1, x0
   85a84:	f9400000 	ldr	x0, [x0]
   85a88:	794b93e1 	ldrh	w1, [sp, #1480]
   85a8c:	79000001 	strh	w1, [x0]
   85a90:	140000a9 	b	85d34 <vsscanf+0xf84>
   85a94:	3957b3e0 	ldrb	w0, [sp, #1516]
   85a98:	7100001f 	cmp	w0, #0x0
   85a9c:	54000440 	b.eq	85b24 <vsscanf+0xd74>  // b.none
   85aa0:	9114c3e1 	add	x1, sp, #0x530
   85aa4:	9110c3e0 	add	x0, sp, #0x430
   85aa8:	b9460be2 	ldr	w2, [sp, #1544]
   85aac:	940024ef 	bl	8ee68 <strtoull>
   85ab0:	f902e3e0 	str	x0, [sp, #1472]
   85ab4:	b9401a60 	ldr	w0, [x19, #24]
   85ab8:	f9400261 	ldr	x1, [x19]
   85abc:	7100001f 	cmp	w0, #0x0
   85ac0:	540000eb 	b.lt	85adc <vsscanf+0xd2c>  // b.tstop
   85ac4:	aa0103e0 	mov	x0, x1
   85ac8:	91003c00 	add	x0, x0, #0xf
   85acc:	927df000 	and	x0, x0, #0xfffffffffffffff8
   85ad0:	f9000260 	str	x0, [x19]
   85ad4:	aa0103e0 	mov	x0, x1
   85ad8:	1400000f 	b	85b14 <vsscanf+0xd64>
   85adc:	11002002 	add	w2, w0, #0x8
   85ae0:	b9001a62 	str	w2, [x19, #24]
   85ae4:	b9401a62 	ldr	w2, [x19, #24]
   85ae8:	7100005f 	cmp	w2, #0x0
   85aec:	540000ed 	b.le	85b08 <vsscanf+0xd58>
   85af0:	aa0103e0 	mov	x0, x1
   85af4:	91003c00 	add	x0, x0, #0xf
   85af8:	927df000 	and	x0, x0, #0xfffffffffffffff8
   85afc:	f9000260 	str	x0, [x19]
   85b00:	aa0103e0 	mov	x0, x1
   85b04:	14000004 	b	85b14 <vsscanf+0xd64>
   85b08:	f9400661 	ldr	x1, [x19, #8]
   85b0c:	93407c00 	sxtw	x0, w0
   85b10:	8b000020 	add	x0, x1, x0
   85b14:	f9400000 	ldr	x0, [x0]
   85b18:	f942e3e1 	ldr	x1, [sp, #1472]
   85b1c:	f9000001 	str	x1, [x0]
   85b20:	14000085 	b	85d34 <vsscanf+0xf84>
   85b24:	9114c3e1 	add	x1, sp, #0x530
   85b28:	9110c3e0 	add	x0, sp, #0x430
   85b2c:	b9460be2 	ldr	w2, [sp, #1544]
   85b30:	9400244a 	bl	8ec58 <strtoul>
   85b34:	f902dfe0 	str	x0, [sp, #1464]
   85b38:	b9401a60 	ldr	w0, [x19, #24]
   85b3c:	f9400261 	ldr	x1, [x19]
   85b40:	7100001f 	cmp	w0, #0x0
   85b44:	540000eb 	b.lt	85b60 <vsscanf+0xdb0>  // b.tstop
   85b48:	aa0103e0 	mov	x0, x1
   85b4c:	91003c00 	add	x0, x0, #0xf
   85b50:	927df000 	and	x0, x0, #0xfffffffffffffff8
   85b54:	f9000260 	str	x0, [x19]
   85b58:	aa0103e0 	mov	x0, x1
   85b5c:	1400000f 	b	85b98 <vsscanf+0xde8>
   85b60:	11002002 	add	w2, w0, #0x8
   85b64:	b9001a62 	str	w2, [x19, #24]
   85b68:	b9401a62 	ldr	w2, [x19, #24]
   85b6c:	7100005f 	cmp	w2, #0x0
   85b70:	540000ed 	b.le	85b8c <vsscanf+0xddc>
   85b74:	aa0103e0 	mov	x0, x1
   85b78:	91003c00 	add	x0, x0, #0xf
   85b7c:	927df000 	and	x0, x0, #0xfffffffffffffff8
   85b80:	f9000260 	str	x0, [x19]
   85b84:	aa0103e0 	mov	x0, x1
   85b88:	14000004 	b	85b98 <vsscanf+0xde8>
   85b8c:	f9400661 	ldr	x1, [x19, #8]
   85b90:	93407c00 	sxtw	x0, w0
   85b94:	8b000020 	add	x0, x1, x0
   85b98:	f9400000 	ldr	x0, [x0]
   85b9c:	f942dfe1 	ldr	x1, [sp, #1464]
   85ba0:	f9000001 	str	x1, [x0]
   85ba4:	14000064 	b	85d34 <vsscanf+0xf84>
   85ba8:	9114c3e1 	add	x1, sp, #0x530
   85bac:	9110c3e0 	add	x0, sp, #0x430
   85bb0:	b9460be2 	ldr	w2, [sp, #1544]
   85bb4:	94002429 	bl	8ec58 <strtoul>
   85bb8:	f902dbe0 	str	x0, [sp, #1456]
   85bbc:	b9401a60 	ldr	w0, [x19, #24]
   85bc0:	f9400261 	ldr	x1, [x19]
   85bc4:	7100001f 	cmp	w0, #0x0
   85bc8:	540000eb 	b.lt	85be4 <vsscanf+0xe34>  // b.tstop
   85bcc:	aa0103e0 	mov	x0, x1
   85bd0:	91003c00 	add	x0, x0, #0xf
   85bd4:	927df000 	and	x0, x0, #0xfffffffffffffff8
   85bd8:	f9000260 	str	x0, [x19]
   85bdc:	aa0103e0 	mov	x0, x1
   85be0:	1400000f 	b	85c1c <vsscanf+0xe6c>
   85be4:	11002002 	add	w2, w0, #0x8
   85be8:	b9001a62 	str	w2, [x19, #24]
   85bec:	b9401a62 	ldr	w2, [x19, #24]
   85bf0:	7100005f 	cmp	w2, #0x0
   85bf4:	540000ed 	b.le	85c10 <vsscanf+0xe60>
   85bf8:	aa0103e0 	mov	x0, x1
   85bfc:	91003c00 	add	x0, x0, #0xf
   85c00:	927df000 	and	x0, x0, #0xfffffffffffffff8
   85c04:	f9000260 	str	x0, [x19]
   85c08:	aa0103e0 	mov	x0, x1
   85c0c:	14000004 	b	85c1c <vsscanf+0xe6c>
   85c10:	f9400661 	ldr	x1, [x19, #8]
   85c14:	93407c00 	sxtw	x0, w0
   85c18:	8b000020 	add	x0, x1, x0
   85c1c:	f9400000 	ldr	x0, [x0]
   85c20:	f942dbe1 	ldr	x1, [sp, #1456]
   85c24:	f9000001 	str	x1, [x0]
   85c28:	14000043 	b	85d34 <vsscanf+0xf84>
   85c2c:	9114c3e1 	add	x1, sp, #0x530
   85c30:	9110c3e0 	add	x0, sp, #0x430
   85c34:	b9460be2 	ldr	w2, [sp, #1544]
   85c38:	94002408 	bl	8ec58 <strtoul>
   85c3c:	f902d7e0 	str	x0, [sp, #1448]
   85c40:	b9401a60 	ldr	w0, [x19, #24]
   85c44:	f9400261 	ldr	x1, [x19]
   85c48:	7100001f 	cmp	w0, #0x0
   85c4c:	540000eb 	b.lt	85c68 <vsscanf+0xeb8>  // b.tstop
   85c50:	aa0103e0 	mov	x0, x1
   85c54:	91003c00 	add	x0, x0, #0xf
   85c58:	927df000 	and	x0, x0, #0xfffffffffffffff8
   85c5c:	f9000260 	str	x0, [x19]
   85c60:	aa0103e0 	mov	x0, x1
   85c64:	1400000f 	b	85ca0 <vsscanf+0xef0>
   85c68:	11002002 	add	w2, w0, #0x8
   85c6c:	b9001a62 	str	w2, [x19, #24]
   85c70:	b9401a62 	ldr	w2, [x19, #24]
   85c74:	7100005f 	cmp	w2, #0x0
   85c78:	540000ed 	b.le	85c94 <vsscanf+0xee4>
   85c7c:	aa0103e0 	mov	x0, x1
   85c80:	91003c00 	add	x0, x0, #0xf
   85c84:	927df000 	and	x0, x0, #0xfffffffffffffff8
   85c88:	f9000260 	str	x0, [x19]
   85c8c:	aa0103e0 	mov	x0, x1
   85c90:	14000004 	b	85ca0 <vsscanf+0xef0>
   85c94:	f9400661 	ldr	x1, [x19, #8]
   85c98:	93407c00 	sxtw	x0, w0
   85c9c:	8b000020 	add	x0, x1, x0
   85ca0:	f9400000 	ldr	x0, [x0]
   85ca4:	f942d7e1 	ldr	x1, [sp, #1448]
   85ca8:	f9000001 	str	x1, [x0]
   85cac:	14000022 	b	85d34 <vsscanf+0xf84>
   85cb0:	9114c3e1 	add	x1, sp, #0x530
   85cb4:	9110c3e0 	add	x0, sp, #0x430
   85cb8:	b9460be2 	ldr	w2, [sp, #1544]
   85cbc:	940023e7 	bl	8ec58 <strtoul>
   85cc0:	f902d3e0 	str	x0, [sp, #1440]
   85cc4:	b9401a60 	ldr	w0, [x19, #24]
   85cc8:	f9400261 	ldr	x1, [x19]
   85ccc:	7100001f 	cmp	w0, #0x0
   85cd0:	540000eb 	b.lt	85cec <vsscanf+0xf3c>  // b.tstop
   85cd4:	aa0103e0 	mov	x0, x1
   85cd8:	91003c00 	add	x0, x0, #0xf
   85cdc:	927df000 	and	x0, x0, #0xfffffffffffffff8
   85ce0:	f9000260 	str	x0, [x19]
   85ce4:	aa0103e0 	mov	x0, x1
   85ce8:	1400000f 	b	85d24 <vsscanf+0xf74>
   85cec:	11002002 	add	w2, w0, #0x8
   85cf0:	b9001a62 	str	w2, [x19, #24]
   85cf4:	b9401a62 	ldr	w2, [x19, #24]
   85cf8:	7100005f 	cmp	w2, #0x0
   85cfc:	540000ed 	b.le	85d18 <vsscanf+0xf68>
   85d00:	aa0103e0 	mov	x0, x1
   85d04:	91003c00 	add	x0, x0, #0xf
   85d08:	927df000 	and	x0, x0, #0xfffffffffffffff8
   85d0c:	f9000260 	str	x0, [x19]
   85d10:	aa0103e0 	mov	x0, x1
   85d14:	14000004 	b	85d24 <vsscanf+0xf74>
   85d18:	f9400661 	ldr	x1, [x19, #8]
   85d1c:	93407c00 	sxtw	x0, w0
   85d20:	8b000020 	add	x0, x1, x0
   85d24:	f9400000 	ldr	x0, [x0]
   85d28:	f942d3e1 	ldr	x1, [sp, #1440]
   85d2c:	f9000001 	str	x1, [x0]
   85d30:	d503201f 	nop
   85d34:	1400027f 	b	86730 <vsscanf+0x1980>
   85d38:	3957bbe0 	ldrb	w0, [sp, #1518]
   85d3c:	7100001f 	cmp	w0, #0x0
   85d40:	54004de1 	b.ne	866fc <vsscanf+0x194c>  // b.any
   85d44:	3957bfe0 	ldrb	w0, [sp, #1519]
   85d48:	7101a81f 	cmp	w0, #0x6a
   85d4c:	54001740 	b.eq	86034 <vsscanf+0x1284>  // b.none
   85d50:	7101a81f 	cmp	w0, #0x6a
   85d54:	540000cc 	b.gt	85d6c <vsscanf+0xfbc>
   85d58:	7100001f 	cmp	w0, #0x0
   85d5c:	54000160 	b.eq	85d88 <vsscanf+0xfd8>  // b.none
   85d60:	7101a01f 	cmp	w0, #0x68
   85d64:	54000540 	b.eq	85e0c <vsscanf+0x105c>  // b.none
   85d68:	14000272 	b	86730 <vsscanf+0x1980>
   85d6c:	7101d01f 	cmp	w0, #0x74
   85d70:	54001e60 	b.eq	8613c <vsscanf+0x138c>  // b.none
   85d74:	7101e81f 	cmp	w0, #0x7a
   85d78:	54001a00 	b.eq	860b8 <vsscanf+0x1308>  // b.none
   85d7c:	7101b01f 	cmp	w0, #0x6c
   85d80:	54000d00 	b.eq	85f20 <vsscanf+0x1170>  // b.none
   85d84:	1400026b 	b	86730 <vsscanf+0x1980>
   85d88:	9114c3e1 	add	x1, sp, #0x530
   85d8c:	9110c3e0 	add	x0, sp, #0x430
   85d90:	b9460be2 	ldr	w2, [sp, #1544]
   85d94:	94002253 	bl	8e6e0 <strtol>
   85d98:	b9059fe0 	str	w0, [sp, #1436]
   85d9c:	b9401a60 	ldr	w0, [x19, #24]
   85da0:	f9400261 	ldr	x1, [x19]
   85da4:	7100001f 	cmp	w0, #0x0
   85da8:	540000eb 	b.lt	85dc4 <vsscanf+0x1014>  // b.tstop
   85dac:	aa0103e0 	mov	x0, x1
   85db0:	91003c00 	add	x0, x0, #0xf
   85db4:	927df000 	and	x0, x0, #0xfffffffffffffff8
   85db8:	f9000260 	str	x0, [x19]
   85dbc:	aa0103e0 	mov	x0, x1
   85dc0:	1400000f 	b	85dfc <vsscanf+0x104c>
   85dc4:	11002002 	add	w2, w0, #0x8
   85dc8:	b9001a62 	str	w2, [x19, #24]
   85dcc:	b9401a62 	ldr	w2, [x19, #24]
   85dd0:	7100005f 	cmp	w2, #0x0
   85dd4:	540000ed 	b.le	85df0 <vsscanf+0x1040>
   85dd8:	aa0103e0 	mov	x0, x1
   85ddc:	91003c00 	add	x0, x0, #0xf
   85de0:	927df000 	and	x0, x0, #0xfffffffffffffff8
   85de4:	f9000260 	str	x0, [x19]
   85de8:	aa0103e0 	mov	x0, x1
   85dec:	14000004 	b	85dfc <vsscanf+0x104c>
   85df0:	f9400661 	ldr	x1, [x19, #8]
   85df4:	93407c00 	sxtw	x0, w0
   85df8:	8b000020 	add	x0, x1, x0
   85dfc:	f9400000 	ldr	x0, [x0]
   85e00:	b9459fe1 	ldr	w1, [sp, #1436]
   85e04:	b9000001 	str	w1, [x0]
   85e08:	140000ee 	b	861c0 <vsscanf+0x1410>
   85e0c:	3957b3e0 	ldrb	w0, [sp, #1516]
   85e10:	7100001f 	cmp	w0, #0x0
   85e14:	54000440 	b.eq	85e9c <vsscanf+0x10ec>  // b.none
   85e18:	9114c3e1 	add	x1, sp, #0x530
   85e1c:	9110c3e0 	add	x0, sp, #0x430
   85e20:	b9460be2 	ldr	w2, [sp, #1544]
   85e24:	9400222f 	bl	8e6e0 <strtol>
   85e28:	39166fe0 	strb	w0, [sp, #1435]
   85e2c:	b9401a60 	ldr	w0, [x19, #24]
   85e30:	f9400261 	ldr	x1, [x19]
   85e34:	7100001f 	cmp	w0, #0x0
   85e38:	540000eb 	b.lt	85e54 <vsscanf+0x10a4>  // b.tstop
   85e3c:	aa0103e0 	mov	x0, x1
   85e40:	91003c00 	add	x0, x0, #0xf
   85e44:	927df000 	and	x0, x0, #0xfffffffffffffff8
   85e48:	f9000260 	str	x0, [x19]
   85e4c:	aa0103e0 	mov	x0, x1
   85e50:	1400000f 	b	85e8c <vsscanf+0x10dc>
   85e54:	11002002 	add	w2, w0, #0x8
   85e58:	b9001a62 	str	w2, [x19, #24]
   85e5c:	b9401a62 	ldr	w2, [x19, #24]
   85e60:	7100005f 	cmp	w2, #0x0
   85e64:	540000ed 	b.le	85e80 <vsscanf+0x10d0>
   85e68:	aa0103e0 	mov	x0, x1
   85e6c:	91003c00 	add	x0, x0, #0xf
   85e70:	927df000 	and	x0, x0, #0xfffffffffffffff8
   85e74:	f9000260 	str	x0, [x19]
   85e78:	aa0103e0 	mov	x0, x1
   85e7c:	14000004 	b	85e8c <vsscanf+0x10dc>
   85e80:	f9400661 	ldr	x1, [x19, #8]
   85e84:	93407c00 	sxtw	x0, w0
   85e88:	8b000020 	add	x0, x1, x0
   85e8c:	f9400000 	ldr	x0, [x0]
   85e90:	39566fe1 	ldrb	w1, [sp, #1435]
   85e94:	39000001 	strb	w1, [x0]
   85e98:	140000ca 	b	861c0 <vsscanf+0x1410>
   85e9c:	9114c3e1 	add	x1, sp, #0x530
   85ea0:	9110c3e0 	add	x0, sp, #0x430
   85ea4:	b9460be2 	ldr	w2, [sp, #1544]
   85ea8:	9400220e 	bl	8e6e0 <strtol>
   85eac:	790b33e0 	strh	w0, [sp, #1432]
   85eb0:	b9401a60 	ldr	w0, [x19, #24]
   85eb4:	f9400261 	ldr	x1, [x19]
   85eb8:	7100001f 	cmp	w0, #0x0
   85ebc:	540000eb 	b.lt	85ed8 <vsscanf+0x1128>  // b.tstop
   85ec0:	aa0103e0 	mov	x0, x1
   85ec4:	91003c00 	add	x0, x0, #0xf
   85ec8:	927df000 	and	x0, x0, #0xfffffffffffffff8
   85ecc:	f9000260 	str	x0, [x19]
   85ed0:	aa0103e0 	mov	x0, x1
   85ed4:	1400000f 	b	85f10 <vsscanf+0x1160>
   85ed8:	11002002 	add	w2, w0, #0x8
   85edc:	b9001a62 	str	w2, [x19, #24]
   85ee0:	b9401a62 	ldr	w2, [x19, #24]
   85ee4:	7100005f 	cmp	w2, #0x0
   85ee8:	540000ed 	b.le	85f04 <vsscanf+0x1154>
   85eec:	aa0103e0 	mov	x0, x1
   85ef0:	91003c00 	add	x0, x0, #0xf
   85ef4:	927df000 	and	x0, x0, #0xfffffffffffffff8
   85ef8:	f9000260 	str	x0, [x19]
   85efc:	aa0103e0 	mov	x0, x1
   85f00:	14000004 	b	85f10 <vsscanf+0x1160>
   85f04:	f9400661 	ldr	x1, [x19, #8]
   85f08:	93407c00 	sxtw	x0, w0
   85f0c:	8b000020 	add	x0, x1, x0
   85f10:	f9400000 	ldr	x0, [x0]
   85f14:	794b33e1 	ldrh	w1, [sp, #1432]
   85f18:	79000001 	strh	w1, [x0]
   85f1c:	140000a9 	b	861c0 <vsscanf+0x1410>
   85f20:	3957b3e0 	ldrb	w0, [sp, #1516]
   85f24:	7100001f 	cmp	w0, #0x0
   85f28:	54000440 	b.eq	85fb0 <vsscanf+0x1200>  // b.none
   85f2c:	9114c3e1 	add	x1, sp, #0x530
   85f30:	9110c3e0 	add	x0, sp, #0x430
   85f34:	b9460be2 	ldr	w2, [sp, #1544]
   85f38:	9400227c 	bl	8e928 <strtoll>
   85f3c:	f902cbe0 	str	x0, [sp, #1424]
   85f40:	b9401a60 	ldr	w0, [x19, #24]
   85f44:	f9400261 	ldr	x1, [x19]
   85f48:	7100001f 	cmp	w0, #0x0
   85f4c:	540000eb 	b.lt	85f68 <vsscanf+0x11b8>  // b.tstop
   85f50:	aa0103e0 	mov	x0, x1
   85f54:	91003c00 	add	x0, x0, #0xf
   85f58:	927df000 	and	x0, x0, #0xfffffffffffffff8
   85f5c:	f9000260 	str	x0, [x19]
   85f60:	aa0103e0 	mov	x0, x1
   85f64:	1400000f 	b	85fa0 <vsscanf+0x11f0>
   85f68:	11002002 	add	w2, w0, #0x8
   85f6c:	b9001a62 	str	w2, [x19, #24]
   85f70:	b9401a62 	ldr	w2, [x19, #24]
   85f74:	7100005f 	cmp	w2, #0x0
   85f78:	540000ed 	b.le	85f94 <vsscanf+0x11e4>
   85f7c:	aa0103e0 	mov	x0, x1
   85f80:	91003c00 	add	x0, x0, #0xf
   85f84:	927df000 	and	x0, x0, #0xfffffffffffffff8
   85f88:	f9000260 	str	x0, [x19]
   85f8c:	aa0103e0 	mov	x0, x1
   85f90:	14000004 	b	85fa0 <vsscanf+0x11f0>
   85f94:	f9400661 	ldr	x1, [x19, #8]
   85f98:	93407c00 	sxtw	x0, w0
   85f9c:	8b000020 	add	x0, x1, x0
   85fa0:	f9400000 	ldr	x0, [x0]
   85fa4:	f942cbe1 	ldr	x1, [sp, #1424]
   85fa8:	f9000001 	str	x1, [x0]
   85fac:	14000085 	b	861c0 <vsscanf+0x1410>
   85fb0:	9114c3e1 	add	x1, sp, #0x530
   85fb4:	9110c3e0 	add	x0, sp, #0x430
   85fb8:	b9460be2 	ldr	w2, [sp, #1544]
   85fbc:	940021c9 	bl	8e6e0 <strtol>
   85fc0:	f902c7e0 	str	x0, [sp, #1416]
   85fc4:	b9401a60 	ldr	w0, [x19, #24]
   85fc8:	f9400261 	ldr	x1, [x19]
   85fcc:	7100001f 	cmp	w0, #0x0
   85fd0:	540000eb 	b.lt	85fec <vsscanf+0x123c>  // b.tstop
   85fd4:	aa0103e0 	mov	x0, x1
   85fd8:	91003c00 	add	x0, x0, #0xf
   85fdc:	927df000 	and	x0, x0, #0xfffffffffffffff8
   85fe0:	f9000260 	str	x0, [x19]
   85fe4:	aa0103e0 	mov	x0, x1
   85fe8:	1400000f 	b	86024 <vsscanf+0x1274>
   85fec:	11002002 	add	w2, w0, #0x8
   85ff0:	b9001a62 	str	w2, [x19, #24]
   85ff4:	b9401a62 	ldr	w2, [x19, #24]
   85ff8:	7100005f 	cmp	w2, #0x0
   85ffc:	540000ed 	b.le	86018 <vsscanf+0x1268>
   86000:	aa0103e0 	mov	x0, x1
   86004:	91003c00 	add	x0, x0, #0xf
   86008:	927df000 	and	x0, x0, #0xfffffffffffffff8
   8600c:	f9000260 	str	x0, [x19]
   86010:	aa0103e0 	mov	x0, x1
   86014:	14000004 	b	86024 <vsscanf+0x1274>
   86018:	f9400661 	ldr	x1, [x19, #8]
   8601c:	93407c00 	sxtw	x0, w0
   86020:	8b000020 	add	x0, x1, x0
   86024:	f9400000 	ldr	x0, [x0]
   86028:	f942c7e1 	ldr	x1, [sp, #1416]
   8602c:	f9000001 	str	x1, [x0]
   86030:	14000064 	b	861c0 <vsscanf+0x1410>
   86034:	9114c3e1 	add	x1, sp, #0x530
   86038:	9110c3e0 	add	x0, sp, #0x430
   8603c:	b9460be2 	ldr	w2, [sp, #1544]
   86040:	940021a8 	bl	8e6e0 <strtol>
   86044:	f902c3e0 	str	x0, [sp, #1408]
   86048:	b9401a60 	ldr	w0, [x19, #24]
   8604c:	f9400261 	ldr	x1, [x19]
   86050:	7100001f 	cmp	w0, #0x0
   86054:	540000eb 	b.lt	86070 <vsscanf+0x12c0>  // b.tstop
   86058:	aa0103e0 	mov	x0, x1
   8605c:	91003c00 	add	x0, x0, #0xf
   86060:	927df000 	and	x0, x0, #0xfffffffffffffff8
   86064:	f9000260 	str	x0, [x19]
   86068:	aa0103e0 	mov	x0, x1
   8606c:	1400000f 	b	860a8 <vsscanf+0x12f8>
   86070:	11002002 	add	w2, w0, #0x8
   86074:	b9001a62 	str	w2, [x19, #24]
   86078:	b9401a62 	ldr	w2, [x19, #24]
   8607c:	7100005f 	cmp	w2, #0x0
   86080:	540000ed 	b.le	8609c <vsscanf+0x12ec>
   86084:	aa0103e0 	mov	x0, x1
   86088:	91003c00 	add	x0, x0, #0xf
   8608c:	927df000 	and	x0, x0, #0xfffffffffffffff8
   86090:	f9000260 	str	x0, [x19]
   86094:	aa0103e0 	mov	x0, x1
   86098:	14000004 	b	860a8 <vsscanf+0x12f8>
   8609c:	f9400661 	ldr	x1, [x19, #8]
   860a0:	93407c00 	sxtw	x0, w0
   860a4:	8b000020 	add	x0, x1, x0
   860a8:	f9400000 	ldr	x0, [x0]
   860ac:	f942c3e1 	ldr	x1, [sp, #1408]
   860b0:	f9000001 	str	x1, [x0]
   860b4:	14000043 	b	861c0 <vsscanf+0x1410>
   860b8:	9114c3e1 	add	x1, sp, #0x530
   860bc:	9110c3e0 	add	x0, sp, #0x430
   860c0:	b9460be2 	ldr	w2, [sp, #1544]
   860c4:	94002187 	bl	8e6e0 <strtol>
   860c8:	f902bfe0 	str	x0, [sp, #1400]
   860cc:	b9401a60 	ldr	w0, [x19, #24]
   860d0:	f9400261 	ldr	x1, [x19]
   860d4:	7100001f 	cmp	w0, #0x0
   860d8:	540000eb 	b.lt	860f4 <vsscanf+0x1344>  // b.tstop
   860dc:	aa0103e0 	mov	x0, x1
   860e0:	91003c00 	add	x0, x0, #0xf
   860e4:	927df000 	and	x0, x0, #0xfffffffffffffff8
   860e8:	f9000260 	str	x0, [x19]
   860ec:	aa0103e0 	mov	x0, x1
   860f0:	1400000f 	b	8612c <vsscanf+0x137c>
   860f4:	11002002 	add	w2, w0, #0x8
   860f8:	b9001a62 	str	w2, [x19, #24]
   860fc:	b9401a62 	ldr	w2, [x19, #24]
   86100:	7100005f 	cmp	w2, #0x0
   86104:	540000ed 	b.le	86120 <vsscanf+0x1370>
   86108:	aa0103e0 	mov	x0, x1
   8610c:	91003c00 	add	x0, x0, #0xf
   86110:	927df000 	and	x0, x0, #0xfffffffffffffff8
   86114:	f9000260 	str	x0, [x19]
   86118:	aa0103e0 	mov	x0, x1
   8611c:	14000004 	b	8612c <vsscanf+0x137c>
   86120:	f9400661 	ldr	x1, [x19, #8]
   86124:	93407c00 	sxtw	x0, w0
   86128:	8b000020 	add	x0, x1, x0
   8612c:	f9400000 	ldr	x0, [x0]
   86130:	f942bfe1 	ldr	x1, [sp, #1400]
   86134:	f9000001 	str	x1, [x0]
   86138:	14000022 	b	861c0 <vsscanf+0x1410>
   8613c:	9114c3e1 	add	x1, sp, #0x530
   86140:	9110c3e0 	add	x0, sp, #0x430
   86144:	b9460be2 	ldr	w2, [sp, #1544]
   86148:	94002166 	bl	8e6e0 <strtol>
   8614c:	f902bbe0 	str	x0, [sp, #1392]
   86150:	b9401a60 	ldr	w0, [x19, #24]
   86154:	f9400261 	ldr	x1, [x19]
   86158:	7100001f 	cmp	w0, #0x0
   8615c:	540000eb 	b.lt	86178 <vsscanf+0x13c8>  // b.tstop
   86160:	aa0103e0 	mov	x0, x1
   86164:	91003c00 	add	x0, x0, #0xf
   86168:	927df000 	and	x0, x0, #0xfffffffffffffff8
   8616c:	f9000260 	str	x0, [x19]
   86170:	aa0103e0 	mov	x0, x1
   86174:	1400000f 	b	861b0 <vsscanf+0x1400>
   86178:	11002002 	add	w2, w0, #0x8
   8617c:	b9001a62 	str	w2, [x19, #24]
   86180:	b9401a62 	ldr	w2, [x19, #24]
   86184:	7100005f 	cmp	w2, #0x0
   86188:	540000ed 	b.le	861a4 <vsscanf+0x13f4>
   8618c:	aa0103e0 	mov	x0, x1
   86190:	91003c00 	add	x0, x0, #0xf
   86194:	927df000 	and	x0, x0, #0xfffffffffffffff8
   86198:	f9000260 	str	x0, [x19]
   8619c:	aa0103e0 	mov	x0, x1
   861a0:	14000004 	b	861b0 <vsscanf+0x1400>
   861a4:	f9400661 	ldr	x1, [x19, #8]
   861a8:	93407c00 	sxtw	x0, w0
   861ac:	8b000020 	add	x0, x1, x0
   861b0:	f9400000 	ldr	x0, [x0]
   861b4:	f942bbe1 	ldr	x1, [sp, #1392]
   861b8:	f9000001 	str	x1, [x0]
   861bc:	d503201f 	nop
   861c0:	1400015c 	b	86730 <vsscanf+0x1980>
   861c4:	3957bbe0 	ldrb	w0, [sp, #1518]
   861c8:	7100001f 	cmp	w0, #0x0
   861cc:	540029c1 	b.ne	86704 <vsscanf+0x1954>  // b.any
   861d0:	3957bfe0 	ldrb	w0, [sp, #1519]
   861d4:	7101301f 	cmp	w0, #0x4c
   861d8:	540008a0 	b.eq	862ec <vsscanf+0x153c>  // b.none
   861dc:	7101b01f 	cmp	w0, #0x6c
   861e0:	54000460 	b.eq	8626c <vsscanf+0x14bc>  // b.none
   861e4:	7100001f 	cmp	w0, #0x0
   861e8:	54002921 	b.ne	8670c <vsscanf+0x195c>  // b.any
   861ec:	9114c3e1 	add	x1, sp, #0x530
   861f0:	9110c3e0 	add	x0, sp, #0x430
   861f4:	940020a1 	bl	8e478 <strtof>
   861f8:	bd056fe0 	str	s0, [sp, #1388]
   861fc:	b9401a60 	ldr	w0, [x19, #24]
   86200:	f9400261 	ldr	x1, [x19]
   86204:	7100001f 	cmp	w0, #0x0
   86208:	540000eb 	b.lt	86224 <vsscanf+0x1474>  // b.tstop
   8620c:	aa0103e0 	mov	x0, x1
   86210:	91003c00 	add	x0, x0, #0xf
   86214:	927df000 	and	x0, x0, #0xfffffffffffffff8
   86218:	f9000260 	str	x0, [x19]
   8621c:	aa0103e0 	mov	x0, x1
   86220:	1400000f 	b	8625c <vsscanf+0x14ac>
   86224:	11002002 	add	w2, w0, #0x8
   86228:	b9001a62 	str	w2, [x19, #24]
   8622c:	b9401a62 	ldr	w2, [x19, #24]
   86230:	7100005f 	cmp	w2, #0x0
   86234:	540000ed 	b.le	86250 <vsscanf+0x14a0>
   86238:	aa0103e0 	mov	x0, x1
   8623c:	91003c00 	add	x0, x0, #0xf
   86240:	927df000 	and	x0, x0, #0xfffffffffffffff8
   86244:	f9000260 	str	x0, [x19]
   86248:	aa0103e0 	mov	x0, x1
   8624c:	14000004 	b	8625c <vsscanf+0x14ac>
   86250:	f9400661 	ldr	x1, [x19, #8]
   86254:	93407c00 	sxtw	x0, w0
   86258:	8b000020 	add	x0, x1, x0
   8625c:	f9400000 	ldr	x0, [x0]
   86260:	b9456fe1 	ldr	w1, [sp, #1388]
   86264:	b9000001 	str	w1, [x0]
   86268:	14000043 	b	86374 <vsscanf+0x15c4>
   8626c:	9114c3e1 	add	x1, sp, #0x530
   86270:	9110c3e0 	add	x0, sp, #0x430
   86274:	94002075 	bl	8e448 <strtod>
   86278:	fd02b3e0 	str	d0, [sp, #1376]
   8627c:	b9401a60 	ldr	w0, [x19, #24]
   86280:	f9400261 	ldr	x1, [x19]
   86284:	7100001f 	cmp	w0, #0x0
   86288:	540000eb 	b.lt	862a4 <vsscanf+0x14f4>  // b.tstop
   8628c:	aa0103e0 	mov	x0, x1
   86290:	91003c00 	add	x0, x0, #0xf
   86294:	927df000 	and	x0, x0, #0xfffffffffffffff8
   86298:	f9000260 	str	x0, [x19]
   8629c:	aa0103e0 	mov	x0, x1
   862a0:	1400000f 	b	862dc <vsscanf+0x152c>
   862a4:	11002002 	add	w2, w0, #0x8
   862a8:	b9001a62 	str	w2, [x19, #24]
   862ac:	b9401a62 	ldr	w2, [x19, #24]
   862b0:	7100005f 	cmp	w2, #0x0
   862b4:	540000ed 	b.le	862d0 <vsscanf+0x1520>
   862b8:	aa0103e0 	mov	x0, x1
   862bc:	91003c00 	add	x0, x0, #0xf
   862c0:	927df000 	and	x0, x0, #0xfffffffffffffff8
   862c4:	f9000260 	str	x0, [x19]
   862c8:	aa0103e0 	mov	x0, x1
   862cc:	14000004 	b	862dc <vsscanf+0x152c>
   862d0:	f9400661 	ldr	x1, [x19, #8]
   862d4:	93407c00 	sxtw	x0, w0
   862d8:	8b000020 	add	x0, x1, x0
   862dc:	f9400000 	ldr	x0, [x0]
   862e0:	f942b3e1 	ldr	x1, [sp, #1376]
   862e4:	f9000001 	str	x1, [x0]
   862e8:	14000023 	b	86374 <vsscanf+0x15c4>
   862ec:	9114c3e1 	add	x1, sp, #0x530
   862f0:	9110c3e0 	add	x0, sp, #0x430
   862f4:	94002107 	bl	8e710 <strtold>
   862f8:	911803e0 	add	x0, sp, #0x600
   862fc:	3c950000 	stur	q0, [x0, #-176]
   86300:	b9401a60 	ldr	w0, [x19, #24]
   86304:	f9400261 	ldr	x1, [x19]
   86308:	7100001f 	cmp	w0, #0x0
   8630c:	540000eb 	b.lt	86328 <vsscanf+0x1578>  // b.tstop
   86310:	aa0103e0 	mov	x0, x1
   86314:	91003c00 	add	x0, x0, #0xf
   86318:	927df000 	and	x0, x0, #0xfffffffffffffff8
   8631c:	f9000260 	str	x0, [x19]
   86320:	aa0103e0 	mov	x0, x1
   86324:	1400000f 	b	86360 <vsscanf+0x15b0>
   86328:	11002002 	add	w2, w0, #0x8
   8632c:	b9001a62 	str	w2, [x19, #24]
   86330:	b9401a62 	ldr	w2, [x19, #24]
   86334:	7100005f 	cmp	w2, #0x0
   86338:	540000ed 	b.le	86354 <vsscanf+0x15a4>
   8633c:	aa0103e0 	mov	x0, x1
   86340:	91003c00 	add	x0, x0, #0xf
   86344:	927df000 	and	x0, x0, #0xfffffffffffffff8
   86348:	f9000260 	str	x0, [x19]
   8634c:	aa0103e0 	mov	x0, x1
   86350:	14000004 	b	86360 <vsscanf+0x15b0>
   86354:	f9400661 	ldr	x1, [x19, #8]
   86358:	93407c00 	sxtw	x0, w0
   8635c:	8b000020 	add	x0, x1, x0
   86360:	f9400000 	ldr	x0, [x0]
   86364:	911803e1 	add	x1, sp, #0x600
   86368:	3cd50020 	ldur	q0, [x1, #-176]
   8636c:	3d800000 	str	q0, [x0]
   86370:	d503201f 	nop
   86374:	140000e6 	b	8670c <vsscanf+0x195c>
   86378:	9114c3e1 	add	x1, sp, #0x530
   8637c:	9110c3e0 	add	x0, sp, #0x430
   86380:	52800202 	mov	w2, #0x10                  	// #16
   86384:	940020d7 	bl	8e6e0 <strtol>
   86388:	f902a7e0 	str	x0, [sp, #1352]
   8638c:	3957bbe0 	ldrb	w0, [sp, #1518]
   86390:	52000000 	eor	w0, w0, #0x1
   86394:	12001c00 	and	w0, w0, #0xff
   86398:	7100001f 	cmp	w0, #0x0
   8639c:	54001bc0 	b.eq	86714 <vsscanf+0x1964>  // b.none
   863a0:	b9401a60 	ldr	w0, [x19, #24]
   863a4:	f9400261 	ldr	x1, [x19]
   863a8:	7100001f 	cmp	w0, #0x0
   863ac:	540000eb 	b.lt	863c8 <vsscanf+0x1618>  // b.tstop
   863b0:	aa0103e0 	mov	x0, x1
   863b4:	91003c00 	add	x0, x0, #0xf
   863b8:	927df000 	and	x0, x0, #0xfffffffffffffff8
   863bc:	f9000260 	str	x0, [x19]
   863c0:	aa0103e0 	mov	x0, x1
   863c4:	1400000f 	b	86400 <vsscanf+0x1650>
   863c8:	11002002 	add	w2, w0, #0x8
   863cc:	b9001a62 	str	w2, [x19, #24]
   863d0:	b9401a62 	ldr	w2, [x19, #24]
   863d4:	7100005f 	cmp	w2, #0x0
   863d8:	540000ed 	b.le	863f4 <vsscanf+0x1644>
   863dc:	aa0103e0 	mov	x0, x1
   863e0:	91003c00 	add	x0, x0, #0xf
   863e4:	927df000 	and	x0, x0, #0xfffffffffffffff8
   863e8:	f9000260 	str	x0, [x19]
   863ec:	aa0103e0 	mov	x0, x1
   863f0:	14000004 	b	86400 <vsscanf+0x1650>
   863f4:	f9400661 	ldr	x1, [x19, #8]
   863f8:	93407c00 	sxtw	x0, w0
   863fc:	8b000020 	add	x0, x1, x0
   86400:	f9400000 	ldr	x0, [x0]
   86404:	f942a7e1 	ldr	x1, [sp, #1352]
   86408:	f9000001 	str	x1, [x0]
   8640c:	140000c2 	b	86714 <vsscanf+0x1964>
   86410:	3957bbe0 	ldrb	w0, [sp, #1518]
   86414:	7100001f 	cmp	w0, #0x0
   86418:	54001821 	b.ne	8671c <vsscanf+0x196c>  // b.any
   8641c:	3957bfe0 	ldrb	w0, [sp, #1519]
   86420:	7100001f 	cmp	w0, #0x0
   86424:	54000080 	b.eq	86434 <vsscanf+0x1684>  // b.none
   86428:	7101b01f 	cmp	w0, #0x6c
   8642c:	540003c0 	b.eq	864a4 <vsscanf+0x16f4>  // b.none
   86430:	140000c0 	b	86730 <vsscanf+0x1980>
   86434:	b9401a60 	ldr	w0, [x19, #24]
   86438:	f9400261 	ldr	x1, [x19]
   8643c:	7100001f 	cmp	w0, #0x0
   86440:	540000eb 	b.lt	8645c <vsscanf+0x16ac>  // b.tstop
   86444:	aa0103e0 	mov	x0, x1
   86448:	91003c00 	add	x0, x0, #0xf
   8644c:	927df000 	and	x0, x0, #0xfffffffffffffff8
   86450:	f9000260 	str	x0, [x19]
   86454:	aa0103e0 	mov	x0, x1
   86458:	1400000f 	b	86494 <vsscanf+0x16e4>
   8645c:	11002002 	add	w2, w0, #0x8
   86460:	b9001a62 	str	w2, [x19, #24]
   86464:	b9401a62 	ldr	w2, [x19, #24]
   86468:	7100005f 	cmp	w2, #0x0
   8646c:	540000ed 	b.le	86488 <vsscanf+0x16d8>
   86470:	aa0103e0 	mov	x0, x1
   86474:	91003c00 	add	x0, x0, #0xf
   86478:	927df000 	and	x0, x0, #0xfffffffffffffff8
   8647c:	f9000260 	str	x0, [x19]
   86480:	aa0103e0 	mov	x0, x1
   86484:	14000004 	b	86494 <vsscanf+0x16e4>
   86488:	f9400661 	ldr	x1, [x19, #8]
   8648c:	93407c00 	sxtw	x0, w0
   86490:	8b000020 	add	x0, x1, x0
   86494:	f9400000 	ldr	x0, [x0]
   86498:	9110c3e1 	add	x1, sp, #0x430
   8649c:	94001a29 	bl	8cd40 <strcpy>
   864a0:	14000025 	b	86534 <vsscanf+0x1784>
   864a4:	9110c3e0 	add	x0, sp, #0x430
   864a8:	94001a96 	bl	8cf00 <strlen>
   864ac:	91000400 	add	x0, x0, #0x1
   864b0:	f902a3e0 	str	x0, [sp, #1344]
   864b4:	9110c3e1 	add	x1, sp, #0x430
   864b8:	9100a3e0 	add	x0, sp, #0x28
   864bc:	f942a3e2 	ldr	x2, [sp, #1344]
   864c0:	94001958 	bl	8ca20 <mbstowcs>
   864c4:	b9401a60 	ldr	w0, [x19, #24]
   864c8:	f9400261 	ldr	x1, [x19]
   864cc:	7100001f 	cmp	w0, #0x0
   864d0:	540000eb 	b.lt	864ec <vsscanf+0x173c>  // b.tstop
   864d4:	aa0103e0 	mov	x0, x1
   864d8:	91003c00 	add	x0, x0, #0xf
   864dc:	927df000 	and	x0, x0, #0xfffffffffffffff8
   864e0:	f9000260 	str	x0, [x19]
   864e4:	aa0103e0 	mov	x0, x1
   864e8:	1400000f 	b	86524 <vsscanf+0x1774>
   864ec:	11002002 	add	w2, w0, #0x8
   864f0:	b9001a62 	str	w2, [x19, #24]
   864f4:	b9401a62 	ldr	w2, [x19, #24]
   864f8:	7100005f 	cmp	w2, #0x0
   864fc:	540000ed 	b.le	86518 <vsscanf+0x1768>
   86500:	aa0103e0 	mov	x0, x1
   86504:	91003c00 	add	x0, x0, #0xf
   86508:	927df000 	and	x0, x0, #0xfffffffffffffff8
   8650c:	f9000260 	str	x0, [x19]
   86510:	aa0103e0 	mov	x0, x1
   86514:	14000004 	b	86524 <vsscanf+0x1774>
   86518:	f9400661 	ldr	x1, [x19, #8]
   8651c:	93407c00 	sxtw	x0, w0
   86520:	8b000020 	add	x0, x1, x0
   86524:	f9400000 	ldr	x0, [x0]
   86528:	9100a3e1 	add	x1, sp, #0x28
   8652c:	9400225b 	bl	8ee98 <wcscpy>
   86530:	d503201f 	nop
   86534:	1400007f 	b	86730 <vsscanf+0x1980>
   86538:	3957bbe0 	ldrb	w0, [sp, #1518]
   8653c:	7100001f 	cmp	w0, #0x0
   86540:	54000f21 	b.ne	86724 <vsscanf+0x1974>  // b.any
   86544:	3957bfe0 	ldrb	w0, [sp, #1519]
   86548:	7100001f 	cmp	w0, #0x0
   8654c:	54000080 	b.eq	8655c <vsscanf+0x17ac>  // b.none
   86550:	7101b01f 	cmp	w0, #0x6c
   86554:	54000420 	b.eq	865d8 <vsscanf+0x1828>  // b.none
   86558:	14000076 	b	86730 <vsscanf+0x1980>
   8655c:	f942fbe0 	ldr	x0, [sp, #1520]
   86560:	39400000 	ldrb	w0, [x0]
   86564:	3914ffe0 	strb	w0, [sp, #1343]
   86568:	b9401a60 	ldr	w0, [x19, #24]
   8656c:	f9400261 	ldr	x1, [x19]
   86570:	7100001f 	cmp	w0, #0x0
   86574:	540000eb 	b.lt	86590 <vsscanf+0x17e0>  // b.tstop
   86578:	aa0103e0 	mov	x0, x1
   8657c:	91003c00 	add	x0, x0, #0xf
   86580:	927df000 	and	x0, x0, #0xfffffffffffffff8
   86584:	f9000260 	str	x0, [x19]
   86588:	aa0103e0 	mov	x0, x1
   8658c:	1400000f 	b	865c8 <vsscanf+0x1818>
   86590:	11002002 	add	w2, w0, #0x8
   86594:	b9001a62 	str	w2, [x19, #24]
   86598:	b9401a62 	ldr	w2, [x19, #24]
   8659c:	7100005f 	cmp	w2, #0x0
   865a0:	540000ed 	b.le	865bc <vsscanf+0x180c>
   865a4:	aa0103e0 	mov	x0, x1
   865a8:	91003c00 	add	x0, x0, #0xf
   865ac:	927df000 	and	x0, x0, #0xfffffffffffffff8
   865b0:	f9000260 	str	x0, [x19]
   865b4:	aa0103e0 	mov	x0, x1
   865b8:	14000004 	b	865c8 <vsscanf+0x1818>
   865bc:	f9400661 	ldr	x1, [x19, #8]
   865c0:	93407c00 	sxtw	x0, w0
   865c4:	8b000020 	add	x0, x1, x0
   865c8:	f9400000 	ldr	x0, [x0]
   865cc:	3954ffe1 	ldrb	w1, [sp, #1343]
   865d0:	39000001 	strb	w1, [x0]
   865d4:	14000021 	b	86658 <vsscanf+0x18a8>
   865d8:	9110b3e0 	add	x0, sp, #0x42c
   865dc:	d2800022 	mov	x2, #0x1                   	// #1
   865e0:	f942fbe1 	ldr	x1, [sp, #1520]
   865e4:	9400190f 	bl	8ca20 <mbstowcs>
   865e8:	b9401a60 	ldr	w0, [x19, #24]
   865ec:	f9400261 	ldr	x1, [x19]
   865f0:	7100001f 	cmp	w0, #0x0
   865f4:	540000eb 	b.lt	86610 <vsscanf+0x1860>  // b.tstop
   865f8:	aa0103e0 	mov	x0, x1
   865fc:	91003c00 	add	x0, x0, #0xf
   86600:	927df000 	and	x0, x0, #0xfffffffffffffff8
   86604:	f9000260 	str	x0, [x19]
   86608:	aa0103e0 	mov	x0, x1
   8660c:	1400000f 	b	86648 <vsscanf+0x1898>
   86610:	11002002 	add	w2, w0, #0x8
   86614:	b9001a62 	str	w2, [x19, #24]
   86618:	b9401a62 	ldr	w2, [x19, #24]
   8661c:	7100005f 	cmp	w2, #0x0
   86620:	540000ed 	b.le	8663c <vsscanf+0x188c>
   86624:	aa0103e0 	mov	x0, x1
   86628:	91003c00 	add	x0, x0, #0xf
   8662c:	927df000 	and	x0, x0, #0xfffffffffffffff8
   86630:	f9000260 	str	x0, [x19]
   86634:	aa0103e0 	mov	x0, x1
   86638:	14000004 	b	86648 <vsscanf+0x1898>
   8663c:	f9400661 	ldr	x1, [x19, #8]
   86640:	93407c00 	sxtw	x0, w0
   86644:	8b000020 	add	x0, x1, x0
   86648:	f9400000 	ldr	x0, [x0]
   8664c:	b9442fe1 	ldr	w1, [sp, #1068]
   86650:	b9000001 	str	w1, [x0]
   86654:	d503201f 	nop
   86658:	14000036 	b	86730 <vsscanf+0x1980>
   8665c:	3957b7e0 	ldrb	w0, [sp, #1517]
   86660:	7100001f 	cmp	w0, #0x0
   86664:	54000320 	b.eq	866c8 <vsscanf+0x1918>  // b.none
   86668:	14000007 	b	86684 <vsscanf+0x18d4>
   8666c:	f942ffe0 	ldr	x0, [sp, #1528]
   86670:	91000400 	add	x0, x0, #0x1
   86674:	f902ffe0 	str	x0, [sp, #1528]
   86678:	b94607e0 	ldr	w0, [sp, #1540]
   8667c:	51000400 	sub	w0, w0, #0x1
   86680:	b90607e0 	str	w0, [sp, #1540]
   86684:	f942ffe0 	ldr	x0, [sp, #1528]
   86688:	39400000 	ldrb	w0, [x0]
   8668c:	2a0003e1 	mov	w1, w0
   86690:	9110c3e0 	add	x0, sp, #0x430
   86694:	9400196f 	bl	8cc50 <strchr>
   86698:	f100001f 	cmp	x0, #0x0
   8669c:	54000481 	b.ne	8672c <vsscanf+0x197c>  // b.any
   866a0:	b94607e0 	ldr	w0, [sp, #1540]
   866a4:	7100001f 	cmp	w0, #0x0
   866a8:	54fffe21 	b.ne	8666c <vsscanf+0x18bc>  // b.any
   866ac:	14000020 	b	8672c <vsscanf+0x197c>
   866b0:	f942ffe0 	ldr	x0, [sp, #1528]
   866b4:	91000400 	add	x0, x0, #0x1
   866b8:	f902ffe0 	str	x0, [sp, #1528]
   866bc:	b94607e0 	ldr	w0, [sp, #1540]
   866c0:	51000400 	sub	w0, w0, #0x1
   866c4:	b90607e0 	str	w0, [sp, #1540]
   866c8:	f942ffe0 	ldr	x0, [sp, #1528]
   866cc:	39400000 	ldrb	w0, [x0]
   866d0:	2a0003e1 	mov	w1, w0
   866d4:	9110c3e0 	add	x0, sp, #0x430
   866d8:	9400195e 	bl	8cc50 <strchr>
   866dc:	f100001f 	cmp	x0, #0x0
   866e0:	54000260 	b.eq	8672c <vsscanf+0x197c>  // b.none
   866e4:	b94607e0 	ldr	w0, [sp, #1540]
   866e8:	7100001f 	cmp	w0, #0x0
   866ec:	54fffe21 	b.ne	866b0 <vsscanf+0x1900>  // b.any
   866f0:	1400000f 	b	8672c <vsscanf+0x197c>
   866f4:	d503201f 	nop
   866f8:	1400000e 	b	86730 <vsscanf+0x1980>
   866fc:	d503201f 	nop
   86700:	1400000c 	b	86730 <vsscanf+0x1980>
   86704:	d503201f 	nop
   86708:	1400000a 	b	86730 <vsscanf+0x1980>
   8670c:	d503201f 	nop
   86710:	14000008 	b	86730 <vsscanf+0x1980>
   86714:	d503201f 	nop
   86718:	14000006 	b	86730 <vsscanf+0x1980>
   8671c:	d503201f 	nop
   86720:	14000004 	b	86730 <vsscanf+0x1980>
   86724:	d503201f 	nop
   86728:	14000002 	b	86730 <vsscanf+0x1980>
   8672c:	d503201f 	nop
   86730:	39574fe0 	ldrb	w0, [sp, #1491]
   86734:	71016c1f 	cmp	w0, #0x5b
   86738:	54000260 	b.eq	86784 <vsscanf+0x19d4>  // b.none
   8673c:	b9460fe0 	ldr	w0, [sp, #1548]
   86740:	11000400 	add	w0, w0, #0x1
   86744:	b9060fe0 	str	w0, [sp, #1548]
   86748:	1400000f 	b	86784 <vsscanf+0x19d4>
   8674c:	f942ffe0 	ldr	x0, [sp, #1528]
   86750:	39400001 	ldrb	w1, [x0]
   86754:	f9400be0 	ldr	x0, [sp, #16]
   86758:	39400000 	ldrb	w0, [x0]
   8675c:	6b00003f 	cmp	w1, w0
   86760:	54000060 	b.eq	8676c <vsscanf+0x19bc>  // b.none
   86764:	b9460fe0 	ldr	w0, [sp, #1548]
   86768:	14000010 	b	867a8 <vsscanf+0x19f8>
   8676c:	f9400be0 	ldr	x0, [sp, #16]
   86770:	91000400 	add	x0, x0, #0x1
   86774:	f9000be0 	str	x0, [sp, #16]
   86778:	f942ffe0 	ldr	x0, [sp, #1528]
   8677c:	91000400 	add	x0, x0, #0x1
   86780:	f902ffe0 	str	x0, [sp, #1528]
   86784:	f942ffe0 	ldr	x0, [sp, #1528]
   86788:	39400000 	ldrb	w0, [x0]
   8678c:	7100001f 	cmp	w0, #0x0
   86790:	540000a0 	b.eq	867a4 <vsscanf+0x19f4>  // b.none
   86794:	f9400be0 	ldr	x0, [sp, #16]
   86798:	39400000 	ldrb	w0, [x0]
   8679c:	7100001f 	cmp	w0, #0x0
   867a0:	54ff33a1 	b.ne	84e14 <vsscanf+0x64>  // b.any
   867a4:	b9460fe0 	ldr	w0, [sp, #1548]
   867a8:	a9407bf3 	ldp	x19, x30, [sp]
   867ac:	911843ff 	add	sp, sp, #0x610
   867b0:	d65f03c0 	ret

00000000000867b4 <sscanf>:
   867b4:	d10483ff 	sub	sp, sp, #0x120
   867b8:	f90003fe 	str	x30, [sp]
   867bc:	f9001fe0 	str	x0, [sp, #56]
   867c0:	f9001be1 	str	x1, [sp, #48]
   867c4:	f9007be2 	str	x2, [sp, #240]
   867c8:	f9007fe3 	str	x3, [sp, #248]
   867cc:	f90083e4 	str	x4, [sp, #256]
   867d0:	f90087e5 	str	x5, [sp, #264]
   867d4:	f9008be6 	str	x6, [sp, #272]
   867d8:	f9008fe7 	str	x7, [sp, #280]
   867dc:	3d801fe0 	str	q0, [sp, #112]
   867e0:	3d8023e1 	str	q1, [sp, #128]
   867e4:	3d8027e2 	str	q2, [sp, #144]
   867e8:	3d802be3 	str	q3, [sp, #160]
   867ec:	3d802fe4 	str	q4, [sp, #176]
   867f0:	3d8033e5 	str	q5, [sp, #192]
   867f4:	3d8037e6 	str	q6, [sp, #208]
   867f8:	3d803be7 	str	q7, [sp, #224]
   867fc:	b9006fff 	str	wzr, [sp, #108]
   86800:	f9401fe0 	ldr	x0, [sp, #56]
   86804:	f100001f 	cmp	x0, #0x0
   86808:	54000320 	b.eq	8686c <sscanf+0xb8>  // b.none
   8680c:	910483e0 	add	x0, sp, #0x120
   86810:	f90027e0 	str	x0, [sp, #72]
   86814:	910483e0 	add	x0, sp, #0x120
   86818:	f9002be0 	str	x0, [sp, #80]
   8681c:	9103c3e0 	add	x0, sp, #0xf0
   86820:	f9002fe0 	str	x0, [sp, #88]
   86824:	128005e0 	mov	w0, #0xffffffd0            	// #-48
   86828:	b90063e0 	str	w0, [sp, #96]
   8682c:	12800fe0 	mov	w0, #0xffffff80            	// #-128
   86830:	b90067e0 	str	w0, [sp, #100]
   86834:	f94027e0 	ldr	x0, [sp, #72]
   86838:	f9000be0 	str	x0, [sp, #16]
   8683c:	f9402be0 	ldr	x0, [sp, #80]
   86840:	f9000fe0 	str	x0, [sp, #24]
   86844:	f9402fe0 	ldr	x0, [sp, #88]
   86848:	f90013e0 	str	x0, [sp, #32]
   8684c:	f94033e0 	ldr	x0, [sp, #96]
   86850:	f90017e0 	str	x0, [sp, #40]
   86854:	910043e0 	add	x0, sp, #0x10
   86858:	aa0003e2 	mov	x2, x0
   8685c:	f9401be1 	ldr	x1, [sp, #48]
   86860:	f9401fe0 	ldr	x0, [sp, #56]
   86864:	97fff953 	bl	84db0 <vsscanf>
   86868:	b9006fe0 	str	w0, [sp, #108]
   8686c:	b9406fe0 	ldr	w0, [sp, #108]
   86870:	f94003fe 	ldr	x30, [sp]
   86874:	910483ff 	add	sp, sp, #0x120
   86878:	d65f03c0 	ret

000000000008687c <Buffer_WriteChar>:
   8687c:	d10043ff 	sub	sp, sp, #0x10
   86880:	39003fe0 	strb	w0, [sp, #15]
   86884:	b0000080 	adrp	x0, 97000 <__bss_start__>
   86888:	91008000 	add	x0, x0, #0x20
   8688c:	b9400000 	ldr	w0, [x0]
   86890:	3100041f 	cmn	w0, #0x1
   86894:	54000120 	b.eq	868b8 <Buffer_WriteChar+0x3c>  // b.none
   86898:	b0000080 	adrp	x0, 97000 <__bss_start__>
   8689c:	91009000 	add	x0, x0, #0x24
   868a0:	b9400001 	ldr	w1, [x0]
   868a4:	b0000080 	adrp	x0, 97000 <__bss_start__>
   868a8:	91008000 	add	x0, x0, #0x20
   868ac:	b9400000 	ldr	w0, [x0]
   868b0:	6b00003f 	cmp	w1, w0
   868b4:	540002ea 	b.ge	86910 <Buffer_WriteChar+0x94>  // b.tcont
   868b8:	b0000080 	adrp	x0, 97000 <__bss_start__>
   868bc:	91006000 	add	x0, x0, #0x18
   868c0:	f9400000 	ldr	x0, [x0]
   868c4:	f100001f 	cmp	x0, #0x0
   868c8:	54000240 	b.eq	86910 <Buffer_WriteChar+0x94>  // b.none
   868cc:	b0000080 	adrp	x0, 97000 <__bss_start__>
   868d0:	91006000 	add	x0, x0, #0x18
   868d4:	f9400001 	ldr	x1, [x0]
   868d8:	b0000080 	adrp	x0, 97000 <__bss_start__>
   868dc:	91009000 	add	x0, x0, #0x24
   868e0:	b9400000 	ldr	w0, [x0]
   868e4:	93407c00 	sxtw	x0, w0
   868e8:	8b000020 	add	x0, x1, x0
   868ec:	39403fe1 	ldrb	w1, [sp, #15]
   868f0:	39000001 	strb	w1, [x0]
   868f4:	b0000080 	adrp	x0, 97000 <__bss_start__>
   868f8:	91009000 	add	x0, x0, #0x24
   868fc:	b9400000 	ldr	w0, [x0]
   86900:	11000401 	add	w1, w0, #0x1
   86904:	b0000080 	adrp	x0, 97000 <__bss_start__>
   86908:	91009000 	add	x0, x0, #0x24
   8690c:	b9000001 	str	w1, [x0]
   86910:	d503201f 	nop
   86914:	910043ff 	add	sp, sp, #0x10
   86918:	d65f03c0 	ret

000000000008691c <SetBufferOutput>:
   8691c:	d10043ff 	sub	sp, sp, #0x10
   86920:	f90007e0 	str	x0, [sp, #8]
   86924:	b90007e1 	str	w1, [sp, #4]
   86928:	b0000080 	adrp	x0, 97000 <__bss_start__>
   8692c:	91009000 	add	x0, x0, #0x24
   86930:	b900001f 	str	wzr, [x0]
   86934:	b0000080 	adrp	x0, 97000 <__bss_start__>
   86938:	91006000 	add	x0, x0, #0x18
   8693c:	f94007e1 	ldr	x1, [sp, #8]
   86940:	f9000001 	str	x1, [x0]
   86944:	b0000080 	adrp	x0, 97000 <__bss_start__>
   86948:	91008000 	add	x0, x0, #0x20
   8694c:	b94007e1 	ldr	w1, [sp, #4]
   86950:	b9000001 	str	w1, [x0]
   86954:	d503201f 	nop
   86958:	910043ff 	add	sp, sp, #0x10
   8695c:	d65f03c0 	ret

0000000000086960 <DoneBufferOutput>:
   86960:	f81e0ffe 	str	x30, [sp, #-32]!
   86964:	f9000fe0 	str	x0, [sp, #24]
   86968:	52800000 	mov	w0, #0x0                   	// #0
   8696c:	97ffffc4 	bl	8687c <Buffer_WriteChar>
   86970:	b0000080 	adrp	x0, 97000 <__bss_start__>
   86974:	91006000 	add	x0, x0, #0x18
   86978:	f9400000 	ldr	x0, [x0]
   8697c:	f9400fe1 	ldr	x1, [sp, #24]
   86980:	eb00003f 	cmp	x1, x0
   86984:	54000081 	b.ne	86994 <DoneBufferOutput+0x34>  // b.any
   86988:	b0000080 	adrp	x0, 97000 <__bss_start__>
   8698c:	91006000 	add	x0, x0, #0x18
   86990:	f900001f 	str	xzr, [x0]
   86994:	d503201f 	nop
   86998:	f84207fe 	ldr	x30, [sp], #32
   8699c:	d65f03c0 	ret

00000000000869a0 <Init_EmbStdio>:
   869a0:	d10083ff 	sub	sp, sp, #0x20
   869a4:	f90007e0 	str	x0, [sp, #8]
   869a8:	b0000080 	adrp	x0, 97000 <__bss_start__>
   869ac:	91004000 	add	x0, x0, #0x10
   869b0:	f9400000 	ldr	x0, [x0]
   869b4:	f9000fe0 	str	x0, [sp, #24]
   869b8:	b0000080 	adrp	x0, 97000 <__bss_start__>
   869bc:	91004000 	add	x0, x0, #0x10
   869c0:	f94007e1 	ldr	x1, [sp, #8]
   869c4:	f9000001 	str	x1, [x0]
   869c8:	f9400fe0 	ldr	x0, [sp, #24]
   869cc:	910083ff 	add	sp, sp, #0x20
   869d0:	d65f03c0 	ret

00000000000869d4 <printf>:
   869d4:	a9ad7bf3 	stp	x19, x30, [sp, #-304]!
   869d8:	f9001fe0 	str	x0, [sp, #56]
   869dc:	f9007fe1 	str	x1, [sp, #248]
   869e0:	f90083e2 	str	x2, [sp, #256]
   869e4:	f90087e3 	str	x3, [sp, #264]
   869e8:	f9008be4 	str	x4, [sp, #272]
   869ec:	f9008fe5 	str	x5, [sp, #280]
   869f0:	f90093e6 	str	x6, [sp, #288]
   869f4:	f90097e7 	str	x7, [sp, #296]
   869f8:	3d801fe0 	str	q0, [sp, #112]
   869fc:	3d8023e1 	str	q1, [sp, #128]
   86a00:	3d8027e2 	str	q2, [sp, #144]
   86a04:	3d802be3 	str	q3, [sp, #160]
   86a08:	3d802fe4 	str	q4, [sp, #176]
   86a0c:	3d8033e5 	str	q5, [sp, #192]
   86a10:	3d8037e6 	str	q6, [sp, #208]
   86a14:	3d803be7 	str	q7, [sp, #224]
   86a18:	9104c3e0 	add	x0, sp, #0x130
   86a1c:	f90027e0 	str	x0, [sp, #72]
   86a20:	9104c3e0 	add	x0, sp, #0x130
   86a24:	f9002be0 	str	x0, [sp, #80]
   86a28:	9103c3e0 	add	x0, sp, #0xf0
   86a2c:	f9002fe0 	str	x0, [sp, #88]
   86a30:	128006e0 	mov	w0, #0xffffffc8            	// #-56
   86a34:	b90063e0 	str	w0, [sp, #96]
   86a38:	12800fe0 	mov	w0, #0xffffff80            	// #-128
   86a3c:	b90067e0 	str	w0, [sp, #100]
   86a40:	b0000080 	adrp	x0, 97000 <__bss_start__>
   86a44:	91004000 	add	x0, x0, #0x10
   86a48:	f9400013 	ldr	x19, [x0]
   86a4c:	f9401fe0 	ldr	x0, [sp, #56]
   86a50:	9400192c 	bl	8cf00 <strlen>
   86a54:	aa0003e1 	mov	x1, x0
   86a58:	f94027e0 	ldr	x0, [sp, #72]
   86a5c:	f9000be0 	str	x0, [sp, #16]
   86a60:	f9402be0 	ldr	x0, [sp, #80]
   86a64:	f9000fe0 	str	x0, [sp, #24]
   86a68:	f9402fe0 	ldr	x0, [sp, #88]
   86a6c:	f90013e0 	str	x0, [sp, #32]
   86a70:	f94033e0 	ldr	x0, [sp, #96]
   86a74:	f90017e0 	str	x0, [sp, #40]
   86a78:	910043e0 	add	x0, sp, #0x10
   86a7c:	aa0003e3 	mov	x3, x0
   86a80:	aa0103e2 	mov	x2, x1
   86a84:	f9401fe1 	ldr	x1, [sp, #56]
   86a88:	aa1303e0 	mov	x0, x19
   86a8c:	97fff30b 	bl	836b8 <Process_Out>
   86a90:	b9006fe0 	str	w0, [sp, #108]
   86a94:	b9406fe0 	ldr	w0, [sp, #108]
   86a98:	a8d37bf3 	ldp	x19, x30, [sp], #304
   86a9c:	d65f03c0 	ret

0000000000086aa0 <sprintf>:
   86aa0:	d10483ff 	sub	sp, sp, #0x120
   86aa4:	f90003fe 	str	x30, [sp]
   86aa8:	f9001fe0 	str	x0, [sp, #56]
   86aac:	f9001be1 	str	x1, [sp, #48]
   86ab0:	f9007be2 	str	x2, [sp, #240]
   86ab4:	f9007fe3 	str	x3, [sp, #248]
   86ab8:	f90083e4 	str	x4, [sp, #256]
   86abc:	f90087e5 	str	x5, [sp, #264]
   86ac0:	f9008be6 	str	x6, [sp, #272]
   86ac4:	f9008fe7 	str	x7, [sp, #280]
   86ac8:	3d801fe0 	str	q0, [sp, #112]
   86acc:	3d8023e1 	str	q1, [sp, #128]
   86ad0:	3d8027e2 	str	q2, [sp, #144]
   86ad4:	3d802be3 	str	q3, [sp, #160]
   86ad8:	3d802fe4 	str	q4, [sp, #176]
   86adc:	3d8033e5 	str	q5, [sp, #192]
   86ae0:	3d8037e6 	str	q6, [sp, #208]
   86ae4:	3d803be7 	str	q7, [sp, #224]
   86ae8:	12800001 	mov	w1, #0xffffffff            	// #-1
   86aec:	f9401fe0 	ldr	x0, [sp, #56]
   86af0:	97ffff8b 	bl	8691c <SetBufferOutput>
   86af4:	910483e0 	add	x0, sp, #0x120
   86af8:	f90027e0 	str	x0, [sp, #72]
   86afc:	910483e0 	add	x0, sp, #0x120
   86b00:	f9002be0 	str	x0, [sp, #80]
   86b04:	9103c3e0 	add	x0, sp, #0xf0
   86b08:	f9002fe0 	str	x0, [sp, #88]
   86b0c:	128005e0 	mov	w0, #0xffffffd0            	// #-48
   86b10:	b90063e0 	str	w0, [sp, #96]
   86b14:	12800fe0 	mov	w0, #0xffffff80            	// #-128
   86b18:	b90067e0 	str	w0, [sp, #100]
   86b1c:	f9401be0 	ldr	x0, [sp, #48]
   86b20:	940018f8 	bl	8cf00 <strlen>
   86b24:	aa0003e1 	mov	x1, x0
   86b28:	f94027e0 	ldr	x0, [sp, #72]
   86b2c:	f9000be0 	str	x0, [sp, #16]
   86b30:	f9402be0 	ldr	x0, [sp, #80]
   86b34:	f9000fe0 	str	x0, [sp, #24]
   86b38:	f9402fe0 	ldr	x0, [sp, #88]
   86b3c:	f90013e0 	str	x0, [sp, #32]
   86b40:	f94033e0 	ldr	x0, [sp, #96]
   86b44:	f90017e0 	str	x0, [sp, #40]
   86b48:	910043e0 	add	x0, sp, #0x10
   86b4c:	aa0003e3 	mov	x3, x0
   86b50:	aa0103e2 	mov	x2, x1
   86b54:	f9401be1 	ldr	x1, [sp, #48]
   86b58:	90000000 	adrp	x0, 86000 <vsscanf+0x1250>
   86b5c:	9121f000 	add	x0, x0, #0x87c
   86b60:	97fff2d6 	bl	836b8 <Process_Out>
   86b64:	b9006fe0 	str	w0, [sp, #108]
   86b68:	f9401fe0 	ldr	x0, [sp, #56]
   86b6c:	97ffff7d 	bl	86960 <DoneBufferOutput>
   86b70:	b9406fe0 	ldr	w0, [sp, #108]
   86b74:	f94003fe 	ldr	x30, [sp]
   86b78:	910483ff 	add	sp, sp, #0x120
   86b7c:	d65f03c0 	ret

0000000000086b80 <snprintf>:
   86b80:	d104c3ff 	sub	sp, sp, #0x130
   86b84:	f90003fe 	str	x30, [sp]
   86b88:	f90027e0 	str	x0, [sp, #72]
   86b8c:	f90023e1 	str	x1, [sp, #64]
   86b90:	f9001fe2 	str	x2, [sp, #56]
   86b94:	f90087e3 	str	x3, [sp, #264]
   86b98:	f9008be4 	str	x4, [sp, #272]
   86b9c:	f9008fe5 	str	x5, [sp, #280]
   86ba0:	f90093e6 	str	x6, [sp, #288]
   86ba4:	f90097e7 	str	x7, [sp, #296]
   86ba8:	3d8023e0 	str	q0, [sp, #128]
   86bac:	3d8027e1 	str	q1, [sp, #144]
   86bb0:	3d802be2 	str	q2, [sp, #160]
   86bb4:	3d802fe3 	str	q3, [sp, #176]
   86bb8:	3d8033e4 	str	q4, [sp, #192]
   86bbc:	3d8037e5 	str	q5, [sp, #208]
   86bc0:	3d803be6 	str	q6, [sp, #224]
   86bc4:	3d803fe7 	str	q7, [sp, #240]
   86bc8:	f94023e0 	ldr	x0, [sp, #64]
   86bcc:	2a0003e1 	mov	w1, w0
   86bd0:	f94027e0 	ldr	x0, [sp, #72]
   86bd4:	97ffff52 	bl	8691c <SetBufferOutput>
   86bd8:	9104c3e0 	add	x0, sp, #0x130
   86bdc:	f9002fe0 	str	x0, [sp, #88]
   86be0:	9104c3e0 	add	x0, sp, #0x130
   86be4:	f90033e0 	str	x0, [sp, #96]
   86be8:	910403e0 	add	x0, sp, #0x100
   86bec:	f90037e0 	str	x0, [sp, #104]
   86bf0:	128004e0 	mov	w0, #0xffffffd8            	// #-40
   86bf4:	b90073e0 	str	w0, [sp, #112]
   86bf8:	12800fe0 	mov	w0, #0xffffff80            	// #-128
   86bfc:	b90077e0 	str	w0, [sp, #116]
   86c00:	f9401fe0 	ldr	x0, [sp, #56]
   86c04:	940018bf 	bl	8cf00 <strlen>
   86c08:	aa0003e1 	mov	x1, x0
   86c0c:	f9402fe0 	ldr	x0, [sp, #88]
   86c10:	f9000be0 	str	x0, [sp, #16]
   86c14:	f94033e0 	ldr	x0, [sp, #96]
   86c18:	f9000fe0 	str	x0, [sp, #24]
   86c1c:	f94037e0 	ldr	x0, [sp, #104]
   86c20:	f90013e0 	str	x0, [sp, #32]
   86c24:	f9403be0 	ldr	x0, [sp, #112]
   86c28:	f90017e0 	str	x0, [sp, #40]
   86c2c:	910043e0 	add	x0, sp, #0x10
   86c30:	aa0003e3 	mov	x3, x0
   86c34:	aa0103e2 	mov	x2, x1
   86c38:	f9401fe1 	ldr	x1, [sp, #56]
   86c3c:	90000000 	adrp	x0, 86000 <vsscanf+0x1250>
   86c40:	9121f000 	add	x0, x0, #0x87c
   86c44:	97fff29d 	bl	836b8 <Process_Out>
   86c48:	b9007fe0 	str	w0, [sp, #124]
   86c4c:	f94027e0 	ldr	x0, [sp, #72]
   86c50:	97ffff44 	bl	86960 <DoneBufferOutput>
   86c54:	b9407fe0 	ldr	w0, [sp, #124]
   86c58:	f94003fe 	ldr	x30, [sp]
   86c5c:	9104c3ff 	add	sp, sp, #0x130
   86c60:	d65f03c0 	ret

0000000000086c64 <vprintf>:
   86c64:	a9ba53f3 	stp	x19, x20, [sp, #-96]!
   86c68:	f9000bfe 	str	x30, [sp, #16]
   86c6c:	f90027e0 	str	x0, [sp, #72]
   86c70:	aa0103f3 	mov	x19, x1
   86c74:	b0000080 	adrp	x0, 97000 <__bss_start__>
   86c78:	91004000 	add	x0, x0, #0x10
   86c7c:	f9400014 	ldr	x20, [x0]
   86c80:	f94027e0 	ldr	x0, [sp, #72]
   86c84:	9400189f 	bl	8cf00 <strlen>
   86c88:	aa0003e1 	mov	x1, x0
   86c8c:	f9400260 	ldr	x0, [x19]
   86c90:	f90013e0 	str	x0, [sp, #32]
   86c94:	f9400660 	ldr	x0, [x19, #8]
   86c98:	f90017e0 	str	x0, [sp, #40]
   86c9c:	f9400a60 	ldr	x0, [x19, #16]
   86ca0:	f9001be0 	str	x0, [sp, #48]
   86ca4:	f9400e60 	ldr	x0, [x19, #24]
   86ca8:	f9001fe0 	str	x0, [sp, #56]
   86cac:	910083e0 	add	x0, sp, #0x20
   86cb0:	aa0003e3 	mov	x3, x0
   86cb4:	aa0103e2 	mov	x2, x1
   86cb8:	f94027e1 	ldr	x1, [sp, #72]
   86cbc:	aa1403e0 	mov	x0, x20
   86cc0:	97fff27e 	bl	836b8 <Process_Out>
   86cc4:	b9005fe0 	str	w0, [sp, #92]
   86cc8:	b9405fe0 	ldr	w0, [sp, #92]
   86ccc:	f9400bfe 	ldr	x30, [sp, #16]
   86cd0:	a8c653f3 	ldp	x19, x20, [sp], #96
   86cd4:	d65f03c0 	ret

0000000000086cd8 <vsprintf>:
   86cd8:	a9bb7bf3 	stp	x19, x30, [sp, #-80]!
   86cdc:	f9001fe0 	str	x0, [sp, #56]
   86ce0:	f9001be1 	str	x1, [sp, #48]
   86ce4:	aa0203f3 	mov	x19, x2
   86ce8:	12800001 	mov	w1, #0xffffffff            	// #-1
   86cec:	f9401fe0 	ldr	x0, [sp, #56]
   86cf0:	97ffff0b 	bl	8691c <SetBufferOutput>
   86cf4:	f9401be0 	ldr	x0, [sp, #48]
   86cf8:	94001882 	bl	8cf00 <strlen>
   86cfc:	aa0003e1 	mov	x1, x0
   86d00:	f9400260 	ldr	x0, [x19]
   86d04:	f9000be0 	str	x0, [sp, #16]
   86d08:	f9400660 	ldr	x0, [x19, #8]
   86d0c:	f9000fe0 	str	x0, [sp, #24]
   86d10:	f9400a60 	ldr	x0, [x19, #16]
   86d14:	f90013e0 	str	x0, [sp, #32]
   86d18:	f9400e60 	ldr	x0, [x19, #24]
   86d1c:	f90017e0 	str	x0, [sp, #40]
   86d20:	910043e0 	add	x0, sp, #0x10
   86d24:	aa0003e3 	mov	x3, x0
   86d28:	aa0103e2 	mov	x2, x1
   86d2c:	f9401be1 	ldr	x1, [sp, #48]
   86d30:	90000000 	adrp	x0, 86000 <vsscanf+0x1250>
   86d34:	9121f000 	add	x0, x0, #0x87c
   86d38:	97fff260 	bl	836b8 <Process_Out>
   86d3c:	b9004fe0 	str	w0, [sp, #76]
   86d40:	f9401fe0 	ldr	x0, [sp, #56]
   86d44:	97ffff07 	bl	86960 <DoneBufferOutput>
   86d48:	b9404fe0 	ldr	w0, [sp, #76]
   86d4c:	a8c57bf3 	ldp	x19, x30, [sp], #80
   86d50:	d65f03c0 	ret

0000000000086d54 <vsnprintf>:
   86d54:	a9ba7bf3 	stp	x19, x30, [sp, #-96]!
   86d58:	f90027e0 	str	x0, [sp, #72]
   86d5c:	f90023e1 	str	x1, [sp, #64]
   86d60:	f9001fe2 	str	x2, [sp, #56]
   86d64:	aa0303f3 	mov	x19, x3
   86d68:	f94023e0 	ldr	x0, [sp, #64]
   86d6c:	2a0003e1 	mov	w1, w0
   86d70:	f94027e0 	ldr	x0, [sp, #72]
   86d74:	97fffeea 	bl	8691c <SetBufferOutput>
   86d78:	f9401fe0 	ldr	x0, [sp, #56]
   86d7c:	94001861 	bl	8cf00 <strlen>
   86d80:	aa0003e1 	mov	x1, x0
   86d84:	f9400260 	ldr	x0, [x19]
   86d88:	f9000be0 	str	x0, [sp, #16]
   86d8c:	f9400660 	ldr	x0, [x19, #8]
   86d90:	f9000fe0 	str	x0, [sp, #24]
   86d94:	f9400a60 	ldr	x0, [x19, #16]
   86d98:	f90013e0 	str	x0, [sp, #32]
   86d9c:	f9400e60 	ldr	x0, [x19, #24]
   86da0:	f90017e0 	str	x0, [sp, #40]
   86da4:	910043e0 	add	x0, sp, #0x10
   86da8:	aa0003e3 	mov	x3, x0
   86dac:	aa0103e2 	mov	x2, x1
   86db0:	f9401fe1 	ldr	x1, [sp, #56]
   86db4:	90000000 	adrp	x0, 86000 <vsscanf+0x1250>
   86db8:	9121f000 	add	x0, x0, #0x87c
   86dbc:	97fff23f 	bl	836b8 <Process_Out>
   86dc0:	b9005fe0 	str	w0, [sp, #92]
   86dc4:	f94027e0 	ldr	x0, [sp, #72]
   86dc8:	97fffee6 	bl	86960 <DoneBufferOutput>
   86dcc:	b9405fe0 	ldr	w0, [sp, #92]
   86dd0:	a8c67bf3 	ldp	x19, x30, [sp], #96
   86dd4:	d65f03c0 	ret

0000000000086dd8 <check_buffer>:
   86dd8:	f81c0ffe 	str	x30, [sp, #-64]!
   86ddc:	f90017e0 	str	x0, [sp, #40]
   86de0:	f90013e1 	str	x1, [sp, #32]
   86de4:	f9000fe2 	str	x2, [sp, #24]
   86de8:	f94013e0 	ldr	x0, [sp, #32]
   86dec:	f9001fe0 	str	x0, [sp, #56]
   86df0:	f9400fe0 	ldr	x0, [sp, #24]
   86df4:	f9001be0 	str	x0, [sp, #48]
   86df8:	f94017e0 	ldr	x0, [sp, #40]
   86dfc:	b9400000 	ldr	w0, [x0]
   86e00:	11000401 	add	w1, w0, #0x1
   86e04:	f94017e0 	ldr	x0, [sp, #40]
   86e08:	b9000001 	str	w1, [x0]
   86e0c:	14000017 	b	86e68 <check_buffer+0x90>
   86e10:	f9401fe0 	ldr	x0, [sp, #56]
   86e14:	39400001 	ldrb	w1, [x0]
   86e18:	f9401be0 	ldr	x0, [sp, #48]
   86e1c:	39400000 	ldrb	w0, [x0]
   86e20:	6b00003f 	cmp	w1, w0
   86e24:	54000160 	b.eq	86e50 <check_buffer+0x78>  // b.none
   86e28:	f94017e0 	ldr	x0, [sp, #40]
   86e2c:	b9400000 	ldr	w0, [x0]
   86e30:	f9400fe3 	ldr	x3, [sp, #24]
   86e34:	f94013e2 	ldr	x2, [sp, #32]
   86e38:	2a0003e1 	mov	w1, w0
   86e3c:	d0000060 	adrp	x0, 94000 <digits+0x70>
   86e40:	910b6000 	add	x0, x0, #0x2d8
   86e44:	97fffee4 	bl	869d4 <printf>
   86e48:	52800000 	mov	w0, #0x0                   	// #0
   86e4c:	14000010 	b	86e8c <check_buffer+0xb4>
   86e50:	f9401fe0 	ldr	x0, [sp, #56]
   86e54:	91000400 	add	x0, x0, #0x1
   86e58:	f9001fe0 	str	x0, [sp, #56]
   86e5c:	f9401be0 	ldr	x0, [sp, #48]
   86e60:	91000400 	add	x0, x0, #0x1
   86e64:	f9001be0 	str	x0, [sp, #48]
   86e68:	f9401fe0 	ldr	x0, [sp, #56]
   86e6c:	39400000 	ldrb	w0, [x0]
   86e70:	7100001f 	cmp	w0, #0x0
   86e74:	540000a0 	b.eq	86e88 <check_buffer+0xb0>  // b.none
   86e78:	f9401be0 	ldr	x0, [sp, #48]
   86e7c:	39400000 	ldrb	w0, [x0]
   86e80:	7100001f 	cmp	w0, #0x0
   86e84:	54fffc61 	b.ne	86e10 <check_buffer+0x38>  // b.any
   86e88:	52800020 	mov	w0, #0x1                   	// #1
   86e8c:	f84407fe 	ldr	x30, [sp], #64
   86e90:	d65f03c0 	ret

0000000000086e94 <BENCHTEST_snprintf>:
   86e94:	d10883ff 	sub	sp, sp, #0x220
   86e98:	f90003fe 	str	x30, [sp]
   86e9c:	b9021bff 	str	wzr, [sp, #536]
   86ea0:	b9021fff 	str	wzr, [sp, #540]
   86ea4:	910063e4 	add	x4, sp, #0x18
   86ea8:	52800003 	mov	w3, #0x0                   	// #0
   86eac:	d0000060 	adrp	x0, 94000 <digits+0x70>
   86eb0:	910ea002 	add	x2, x0, #0x3a8
   86eb4:	d2804001 	mov	x1, #0x200                 	// #512
   86eb8:	aa0403e0 	mov	x0, x4
   86ebc:	97ffff31 	bl	86b80 <snprintf>
   86ec0:	b9421be1 	ldr	w1, [sp, #536]
   86ec4:	f0000060 	adrp	x0, 95000 <BitFont+0xb40>
   86ec8:	912a6000 	add	x0, x0, #0xa98
   86ecc:	93407c21 	sxtw	x1, w1
   86ed0:	f8617802 	ldr	x2, [x0, x1, lsl #3]
   86ed4:	910063e1 	add	x1, sp, #0x18
   86ed8:	910863e0 	add	x0, sp, #0x218
   86edc:	97ffffbf 	bl	86dd8 <check_buffer>
   86ee0:	12001c00 	and	w0, w0, #0xff
   86ee4:	7100001f 	cmp	w0, #0x0
   86ee8:	54000080 	b.eq	86ef8 <BENCHTEST_snprintf+0x64>  // b.none
   86eec:	b9421fe0 	ldr	w0, [sp, #540]
   86ef0:	11000400 	add	w0, w0, #0x1
   86ef4:	b9021fe0 	str	w0, [sp, #540]
   86ef8:	910063e4 	add	x4, sp, #0x18
   86efc:	5299a2a3 	mov	w3, #0xcd15                	// #52501
   86f00:	72a0eb63 	movk	w3, #0x75b, lsl #16
   86f04:	d0000060 	adrp	x0, 94000 <digits+0x70>
   86f08:	910ea002 	add	x2, x0, #0x3a8
   86f0c:	d2804001 	mov	x1, #0x200                 	// #512
   86f10:	aa0403e0 	mov	x0, x4
   86f14:	97ffff1b 	bl	86b80 <snprintf>
   86f18:	b9421be1 	ldr	w1, [sp, #536]
   86f1c:	f0000060 	adrp	x0, 95000 <BitFont+0xb40>
   86f20:	912a6000 	add	x0, x0, #0xa98
   86f24:	93407c21 	sxtw	x1, w1
   86f28:	f8617802 	ldr	x2, [x0, x1, lsl #3]
   86f2c:	910063e1 	add	x1, sp, #0x18
   86f30:	910863e0 	add	x0, sp, #0x218
   86f34:	97ffffa9 	bl	86dd8 <check_buffer>
   86f38:	12001c00 	and	w0, w0, #0xff
   86f3c:	7100001f 	cmp	w0, #0x0
   86f40:	54000080 	b.eq	86f50 <BENCHTEST_snprintf+0xbc>  // b.none
   86f44:	b9421fe0 	ldr	w0, [sp, #540]
   86f48:	11000400 	add	w0, w0, #0x1
   86f4c:	b9021fe0 	str	w0, [sp, #540]
   86f50:	910063e4 	add	x4, sp, #0x18
   86f54:	12800123 	mov	w3, #0xfffffff6            	// #-10
   86f58:	d0000060 	adrp	x0, 94000 <digits+0x70>
   86f5c:	910ec002 	add	x2, x0, #0x3b0
   86f60:	d2804001 	mov	x1, #0x200                 	// #512
   86f64:	aa0403e0 	mov	x0, x4
   86f68:	97ffff06 	bl	86b80 <snprintf>
   86f6c:	b9421be1 	ldr	w1, [sp, #536]
   86f70:	f0000060 	adrp	x0, 95000 <BitFont+0xb40>
   86f74:	912a6000 	add	x0, x0, #0xa98
   86f78:	93407c21 	sxtw	x1, w1
   86f7c:	f8617802 	ldr	x2, [x0, x1, lsl #3]
   86f80:	910063e1 	add	x1, sp, #0x18
   86f84:	910863e0 	add	x0, sp, #0x218
   86f88:	97ffff94 	bl	86dd8 <check_buffer>
   86f8c:	12001c00 	and	w0, w0, #0xff
   86f90:	7100001f 	cmp	w0, #0x0
   86f94:	54000080 	b.eq	86fa4 <BENCHTEST_snprintf+0x110>  // b.none
   86f98:	b9421fe0 	ldr	w0, [sp, #540]
   86f9c:	11000400 	add	w0, w0, #0x1
   86fa0:	b9021fe0 	str	w0, [sp, #540]
   86fa4:	910063e4 	add	x4, sp, #0x18
   86fa8:	52800143 	mov	w3, #0xa                   	// #10
   86fac:	d0000060 	adrp	x0, 94000 <digits+0x70>
   86fb0:	910ee002 	add	x2, x0, #0x3b8
   86fb4:	d2804001 	mov	x1, #0x200                 	// #512
   86fb8:	aa0403e0 	mov	x0, x4
   86fbc:	97fffef1 	bl	86b80 <snprintf>
   86fc0:	b9421be1 	ldr	w1, [sp, #536]
   86fc4:	f0000060 	adrp	x0, 95000 <BitFont+0xb40>
   86fc8:	912a6000 	add	x0, x0, #0xa98
   86fcc:	93407c21 	sxtw	x1, w1
   86fd0:	f8617802 	ldr	x2, [x0, x1, lsl #3]
   86fd4:	910063e1 	add	x1, sp, #0x18
   86fd8:	910863e0 	add	x0, sp, #0x218
   86fdc:	97ffff7f 	bl	86dd8 <check_buffer>
   86fe0:	12001c00 	and	w0, w0, #0xff
   86fe4:	7100001f 	cmp	w0, #0x0
   86fe8:	54000080 	b.eq	86ff8 <BENCHTEST_snprintf+0x164>  // b.none
   86fec:	b9421fe0 	ldr	w0, [sp, #540]
   86ff0:	11000400 	add	w0, w0, #0x1
   86ff4:	b9021fe0 	str	w0, [sp, #540]
   86ff8:	910063e4 	add	x4, sp, #0x18
   86ffc:	52800143 	mov	w3, #0xa                   	// #10
   87000:	b0000060 	adrp	x0, 94000 <digits+0x70>
   87004:	910f0002 	add	x2, x0, #0x3c0
   87008:	d2804001 	mov	x1, #0x200                 	// #512
   8700c:	aa0403e0 	mov	x0, x4
   87010:	97fffedc 	bl	86b80 <snprintf>
   87014:	b9421be1 	ldr	w1, [sp, #536]
   87018:	d0000060 	adrp	x0, 95000 <BitFont+0xb40>
   8701c:	912a6000 	add	x0, x0, #0xa98
   87020:	93407c21 	sxtw	x1, w1
   87024:	f8617802 	ldr	x2, [x0, x1, lsl #3]
   87028:	910063e1 	add	x1, sp, #0x18
   8702c:	910863e0 	add	x0, sp, #0x218
   87030:	97ffff6a 	bl	86dd8 <check_buffer>
   87034:	12001c00 	and	w0, w0, #0xff
   87038:	7100001f 	cmp	w0, #0x0
   8703c:	54000080 	b.eq	8704c <BENCHTEST_snprintf+0x1b8>  // b.none
   87040:	b9421fe0 	ldr	w0, [sp, #540]
   87044:	11000400 	add	w0, w0, #0x1
   87048:	b9021fe0 	str	w0, [sp, #540]
   8704c:	910063e4 	add	x4, sp, #0x18
   87050:	52800183 	mov	w3, #0xc                   	// #12
   87054:	b0000060 	adrp	x0, 94000 <digits+0x70>
   87058:	910f2002 	add	x2, x0, #0x3c8
   8705c:	d2804001 	mov	x1, #0x200                 	// #512
   87060:	aa0403e0 	mov	x0, x4
   87064:	97fffec7 	bl	86b80 <snprintf>
   87068:	b9421be1 	ldr	w1, [sp, #536]
   8706c:	d0000060 	adrp	x0, 95000 <BitFont+0xb40>
   87070:	912a6000 	add	x0, x0, #0xa98
   87074:	93407c21 	sxtw	x1, w1
   87078:	f8617802 	ldr	x2, [x0, x1, lsl #3]
   8707c:	910063e1 	add	x1, sp, #0x18
   87080:	910863e0 	add	x0, sp, #0x218
   87084:	97ffff55 	bl	86dd8 <check_buffer>
   87088:	12001c00 	and	w0, w0, #0xff
   8708c:	7100001f 	cmp	w0, #0x0
   87090:	54000080 	b.eq	870a0 <BENCHTEST_snprintf+0x20c>  // b.none
   87094:	b9421fe0 	ldr	w0, [sp, #540]
   87098:	11000400 	add	w0, w0, #0x1
   8709c:	b9021fe0 	str	w0, [sp, #540]
   870a0:	910063e4 	add	x4, sp, #0x18
   870a4:	52829ca3 	mov	w3, #0x14e5                	// #5349
   870a8:	b0000060 	adrp	x0, 94000 <digits+0x70>
   870ac:	910f4002 	add	x2, x0, #0x3d0
   870b0:	d2804001 	mov	x1, #0x200                 	// #512
   870b4:	aa0403e0 	mov	x0, x4
   870b8:	97fffeb2 	bl	86b80 <snprintf>
   870bc:	b9421be1 	ldr	w1, [sp, #536]
   870c0:	d0000060 	adrp	x0, 95000 <BitFont+0xb40>
   870c4:	912a6000 	add	x0, x0, #0xa98
   870c8:	93407c21 	sxtw	x1, w1
   870cc:	f8617802 	ldr	x2, [x0, x1, lsl #3]
   870d0:	910063e1 	add	x1, sp, #0x18
   870d4:	910863e0 	add	x0, sp, #0x218
   870d8:	97ffff40 	bl	86dd8 <check_buffer>
   870dc:	12001c00 	and	w0, w0, #0xff
   870e0:	7100001f 	cmp	w0, #0x0
   870e4:	54000080 	b.eq	870f4 <BENCHTEST_snprintf+0x260>  // b.none
   870e8:	b9421fe0 	ldr	w0, [sp, #540]
   870ec:	11000400 	add	w0, w0, #0x1
   870f0:	b9021fe0 	str	w0, [sp, #540]
   870f4:	910063e4 	add	x4, sp, #0x18
   870f8:	b0000060 	adrp	x0, 94000 <digits+0x70>
   870fc:	910f6003 	add	x3, x0, #0x3d8
   87100:	b0000060 	adrp	x0, 94000 <digits+0x70>
   87104:	910f8002 	add	x2, x0, #0x3e0
   87108:	d2804001 	mov	x1, #0x200                 	// #512
   8710c:	aa0403e0 	mov	x0, x4
   87110:	97fffe9c 	bl	86b80 <snprintf>
   87114:	b9421be1 	ldr	w1, [sp, #536]
   87118:	d0000060 	adrp	x0, 95000 <BitFont+0xb40>
   8711c:	912a6000 	add	x0, x0, #0xa98
   87120:	93407c21 	sxtw	x1, w1
   87124:	f8617802 	ldr	x2, [x0, x1, lsl #3]
   87128:	910063e1 	add	x1, sp, #0x18
   8712c:	910863e0 	add	x0, sp, #0x218
   87130:	97ffff2a 	bl	86dd8 <check_buffer>
   87134:	12001c00 	and	w0, w0, #0xff
   87138:	7100001f 	cmp	w0, #0x0
   8713c:	54000080 	b.eq	8714c <BENCHTEST_snprintf+0x2b8>  // b.none
   87140:	b9421fe0 	ldr	w0, [sp, #540]
   87144:	11000400 	add	w0, w0, #0x1
   87148:	b9021fe0 	str	w0, [sp, #540]
   8714c:	910063e6 	add	x6, sp, #0x18
   87150:	b0000060 	adrp	x0, 94000 <digits+0x70>
   87154:	910fa005 	add	x5, x0, #0x3e8
   87158:	b0000060 	adrp	x0, 94000 <digits+0x70>
   8715c:	910fc004 	add	x4, x0, #0x3f0
   87160:	b0000060 	adrp	x0, 94000 <digits+0x70>
   87164:	910fe003 	add	x3, x0, #0x3f8
   87168:	b0000060 	adrp	x0, 94000 <digits+0x70>
   8716c:	91100002 	add	x2, x0, #0x400
   87170:	d2804001 	mov	x1, #0x200                 	// #512
   87174:	aa0603e0 	mov	x0, x6
   87178:	97fffe82 	bl	86b80 <snprintf>
   8717c:	b9421be1 	ldr	w1, [sp, #536]
   87180:	d0000060 	adrp	x0, 95000 <BitFont+0xb40>
   87184:	912a6000 	add	x0, x0, #0xa98
   87188:	93407c21 	sxtw	x1, w1
   8718c:	f8617802 	ldr	x2, [x0, x1, lsl #3]
   87190:	910063e1 	add	x1, sp, #0x18
   87194:	910863e0 	add	x0, sp, #0x218
   87198:	97ffff10 	bl	86dd8 <check_buffer>
   8719c:	12001c00 	and	w0, w0, #0xff
   871a0:	7100001f 	cmp	w0, #0x0
   871a4:	54000080 	b.eq	871b4 <BENCHTEST_snprintf+0x320>  // b.none
   871a8:	b9421fe0 	ldr	w0, [sp, #540]
   871ac:	11000400 	add	w0, w0, #0x1
   871b0:	b9021fe0 	str	w0, [sp, #540]
   871b4:	910063e4 	add	x4, sp, #0x18
   871b8:	b0000060 	adrp	x0, 94000 <digits+0x70>
   871bc:	91104003 	add	x3, x0, #0x410
   871c0:	b0000060 	adrp	x0, 94000 <digits+0x70>
   871c4:	91108002 	add	x2, x0, #0x420
   871c8:	d2804001 	mov	x1, #0x200                 	// #512
   871cc:	aa0403e0 	mov	x0, x4
   871d0:	97fffe6c 	bl	86b80 <snprintf>
   871d4:	b9421be1 	ldr	w1, [sp, #536]
   871d8:	d0000060 	adrp	x0, 95000 <BitFont+0xb40>
   871dc:	912a6000 	add	x0, x0, #0xa98
   871e0:	93407c21 	sxtw	x1, w1
   871e4:	f8617802 	ldr	x2, [x0, x1, lsl #3]
   871e8:	910063e1 	add	x1, sp, #0x18
   871ec:	910863e0 	add	x0, sp, #0x218
   871f0:	97fffefa 	bl	86dd8 <check_buffer>
   871f4:	12001c00 	and	w0, w0, #0xff
   871f8:	7100001f 	cmp	w0, #0x0
   871fc:	54000080 	b.eq	8720c <BENCHTEST_snprintf+0x378>  // b.none
   87200:	b9421fe0 	ldr	w0, [sp, #540]
   87204:	11000400 	add	w0, w0, #0x1
   87208:	b9021fe0 	str	w0, [sp, #540]
   8720c:	910063e5 	add	x5, sp, #0x18
   87210:	528000a4 	mov	w4, #0x5                   	// #5
   87214:	528001c3 	mov	w3, #0xe                   	// #14
   87218:	b0000060 	adrp	x0, 94000 <digits+0x70>
   8721c:	9110a002 	add	x2, x0, #0x428
   87220:	d2804001 	mov	x1, #0x200                 	// #512
   87224:	aa0503e0 	mov	x0, x5
   87228:	97fffe56 	bl	86b80 <snprintf>
   8722c:	b9421be1 	ldr	w1, [sp, #536]
   87230:	d0000060 	adrp	x0, 95000 <BitFont+0xb40>
   87234:	912a6000 	add	x0, x0, #0xa98
   87238:	93407c21 	sxtw	x1, w1
   8723c:	f8617802 	ldr	x2, [x0, x1, lsl #3]
   87240:	910063e1 	add	x1, sp, #0x18
   87244:	910863e0 	add	x0, sp, #0x218
   87248:	97fffee4 	bl	86dd8 <check_buffer>
   8724c:	12001c00 	and	w0, w0, #0xff
   87250:	7100001f 	cmp	w0, #0x0
   87254:	54000080 	b.eq	87264 <BENCHTEST_snprintf+0x3d0>  // b.none
   87258:	b9421fe0 	ldr	w0, [sp, #540]
   8725c:	11000400 	add	w0, w0, #0x1
   87260:	b9021fe0 	str	w0, [sp, #540]
   87264:	910063e4 	add	x4, sp, #0x18
   87268:	52800c63 	mov	w3, #0x63                  	// #99
   8726c:	b0000060 	adrp	x0, 94000 <digits+0x70>
   87270:	9110c002 	add	x2, x0, #0x430
   87274:	d2804001 	mov	x1, #0x200                 	// #512
   87278:	aa0403e0 	mov	x0, x4
   8727c:	97fffe41 	bl	86b80 <snprintf>
   87280:	b9421be1 	ldr	w1, [sp, #536]
   87284:	d0000060 	adrp	x0, 95000 <BitFont+0xb40>
   87288:	912a6000 	add	x0, x0, #0xa98
   8728c:	93407c21 	sxtw	x1, w1
   87290:	f8617802 	ldr	x2, [x0, x1, lsl #3]
   87294:	910063e1 	add	x1, sp, #0x18
   87298:	910863e0 	add	x0, sp, #0x218
   8729c:	97fffecf 	bl	86dd8 <check_buffer>
   872a0:	12001c00 	and	w0, w0, #0xff
   872a4:	7100001f 	cmp	w0, #0x0
   872a8:	54000080 	b.eq	872b8 <BENCHTEST_snprintf+0x424>  // b.none
   872ac:	b9421fe0 	ldr	w0, [sp, #540]
   872b0:	11000400 	add	w0, w0, #0x1
   872b4:	b9021fe0 	str	w0, [sp, #540]
   872b8:	910063e4 	add	x4, sp, #0x18
   872bc:	52800b03 	mov	w3, #0x58                  	// #88
   872c0:	b0000060 	adrp	x0, 94000 <digits+0x70>
   872c4:	91112002 	add	x2, x0, #0x448
   872c8:	d2804001 	mov	x1, #0x200                 	// #512
   872cc:	aa0403e0 	mov	x0, x4
   872d0:	97fffe2c 	bl	86b80 <snprintf>
   872d4:	b9421be1 	ldr	w1, [sp, #536]
   872d8:	d0000060 	adrp	x0, 95000 <BitFont+0xb40>
   872dc:	912a6000 	add	x0, x0, #0xa98
   872e0:	93407c21 	sxtw	x1, w1
   872e4:	f8617802 	ldr	x2, [x0, x1, lsl #3]
   872e8:	910063e1 	add	x1, sp, #0x18
   872ec:	910863e0 	add	x0, sp, #0x218
   872f0:	97fffeba 	bl	86dd8 <check_buffer>
   872f4:	12001c00 	and	w0, w0, #0xff
   872f8:	7100001f 	cmp	w0, #0x0
   872fc:	54000080 	b.eq	8730c <BENCHTEST_snprintf+0x478>  // b.none
   87300:	b9421fe0 	ldr	w0, [sp, #540]
   87304:	11000400 	add	w0, w0, #0x1
   87308:	b9021fe0 	str	w0, [sp, #540]
   8730c:	910063e4 	add	x4, sp, #0x18
   87310:	52800143 	mov	w3, #0xa                   	// #10
   87314:	b0000060 	adrp	x0, 94000 <digits+0x70>
   87318:	91114002 	add	x2, x0, #0x450
   8731c:	d2804001 	mov	x1, #0x200                 	// #512
   87320:	aa0403e0 	mov	x0, x4
   87324:	97fffe17 	bl	86b80 <snprintf>
   87328:	b9421be1 	ldr	w1, [sp, #536]
   8732c:	d0000060 	adrp	x0, 95000 <BitFont+0xb40>
   87330:	912a6000 	add	x0, x0, #0xa98
   87334:	93407c21 	sxtw	x1, w1
   87338:	f8617802 	ldr	x2, [x0, x1, lsl #3]
   8733c:	910063e1 	add	x1, sp, #0x18
   87340:	910863e0 	add	x0, sp, #0x218
   87344:	97fffea5 	bl	86dd8 <check_buffer>
   87348:	12001c00 	and	w0, w0, #0xff
   8734c:	7100001f 	cmp	w0, #0x0
   87350:	54000080 	b.eq	87360 <BENCHTEST_snprintf+0x4cc>  // b.none
   87354:	b9421fe0 	ldr	w0, [sp, #540]
   87358:	11000400 	add	w0, w0, #0x1
   8735c:	b9021fe0 	str	w0, [sp, #540]
   87360:	b0000060 	adrp	x0, 94000 <digits+0x70>
   87364:	91116000 	add	x0, x0, #0x458
   87368:	97fffd9b 	bl	869d4 <printf>
   8736c:	b0000060 	adrp	x0, 94000 <digits+0x70>
   87370:	9111c000 	add	x0, x0, #0x470
   87374:	97fffd98 	bl	869d4 <printf>
   87378:	b0000060 	adrp	x0, 94000 <digits+0x70>
   8737c:	91116000 	add	x0, x0, #0x458
   87380:	97fffd95 	bl	869d4 <printf>
   87384:	b9421be0 	ldr	w0, [sp, #536]
   87388:	2a0003e1 	mov	w1, w0
   8738c:	b0000060 	adrp	x0, 94000 <digits+0x70>
   87390:	91122000 	add	x0, x0, #0x488
   87394:	97fffd90 	bl	869d4 <printf>
   87398:	b9421fe1 	ldr	w1, [sp, #540]
   8739c:	b0000060 	adrp	x0, 94000 <digits+0x70>
   873a0:	91126000 	add	x0, x0, #0x498
   873a4:	97fffd8c 	bl	869d4 <printf>
   873a8:	b9421be1 	ldr	w1, [sp, #536]
   873ac:	b9421fe0 	ldr	w0, [sp, #540]
   873b0:	4b000020 	sub	w0, w1, w0
   873b4:	2a0003e1 	mov	w1, w0
   873b8:	b0000060 	adrp	x0, 94000 <digits+0x70>
   873bc:	9112a000 	add	x0, x0, #0x4a8
   873c0:	97fffd85 	bl	869d4 <printf>
   873c4:	d503201f 	nop
   873c8:	f94003fe 	ldr	x30, [sp]
   873cc:	910883ff 	add	sp, sp, #0x220
   873d0:	d65f03c0 	ret

00000000000873d4 <init_page_table>:
   873d4:	d10083ff 	sub	sp, sp, #0x20
   873d8:	b9001fff 	str	wzr, [sp, #28]
   873dc:	b9001fff 	str	wzr, [sp, #28]
   873e0:	14000035 	b	874b4 <init_page_table+0xe0>
   873e4:	b9401fe0 	ldr	w0, [sp, #28]
   873e8:	d377d800 	lsl	x0, x0, #9
   873ec:	92408c02 	and	x2, x0, #0xfffffffff
   873f0:	f0000080 	adrp	x0, 9a000 <Stage2map1to1>
   873f4:	91000000 	add	x0, x0, #0x0
   873f8:	b9401fe1 	ldr	w1, [sp, #28]
   873fc:	f821781f 	str	xzr, [x0, x1, lsl #3]
   87400:	f0000080 	adrp	x0, 9a000 <Stage2map1to1>
   87404:	91000001 	add	x1, x0, #0x0
   87408:	b9401fe0 	ldr	w0, [sp, #28]
   8740c:	d37df000 	lsl	x0, x0, #3
   87410:	8b000021 	add	x1, x1, x0
   87414:	39400020 	ldrb	w0, [x1]
   87418:	52800023 	mov	w3, #0x1                   	// #1
   8741c:	33000460 	bfxil	w0, w3, #0, #2
   87420:	39000020 	strb	w0, [x1]
   87424:	f0000080 	adrp	x0, 9a000 <Stage2map1to1>
   87428:	91000001 	add	x1, x0, #0x0
   8742c:	b9401fe0 	ldr	w0, [sp, #28]
   87430:	d37df000 	lsl	x0, x0, #3
   87434:	8b000021 	add	x1, x1, x0
   87438:	39400020 	ldrb	w0, [x1]
   8743c:	52800083 	mov	w3, #0x4                   	// #4
   87440:	331e0c60 	bfi	w0, w3, #2, #4
   87444:	39000020 	strb	w0, [x1]
   87448:	f0000080 	adrp	x0, 9a000 <Stage2map1to1>
   8744c:	91000001 	add	x1, x0, #0x0
   87450:	b9401fe0 	ldr	w0, [sp, #28]
   87454:	d37df000 	lsl	x0, x0, #3
   87458:	8b000020 	add	x0, x1, x0
   8745c:	39400401 	ldrb	w1, [x0, #1]
   87460:	32000421 	orr	w1, w1, #0x3
   87464:	39000401 	strb	w1, [x0, #1]
   87468:	f0000080 	adrp	x0, 9a000 <Stage2map1to1>
   8746c:	91000001 	add	x1, x0, #0x0
   87470:	b9401fe0 	ldr	w0, [sp, #28]
   87474:	d37df000 	lsl	x0, x0, #3
   87478:	8b000020 	add	x0, x1, x0
   8747c:	39400401 	ldrb	w1, [x0, #1]
   87480:	321e0021 	orr	w1, w1, #0x4
   87484:	39000401 	strb	w1, [x0, #1]
   87488:	f0000080 	adrp	x0, 9a000 <Stage2map1to1>
   8748c:	91000001 	add	x1, x0, #0x0
   87490:	b9401fe0 	ldr	w0, [sp, #28]
   87494:	d37df000 	lsl	x0, x0, #3
   87498:	8b000021 	add	x1, x1, x0
   8749c:	f9400020 	ldr	x0, [x1]
   874a0:	b3748c40 	bfi	x0, x2, #12, #36
   874a4:	f9000020 	str	x0, [x1]
   874a8:	b9401fe0 	ldr	w0, [sp, #28]
   874ac:	11000400 	add	w0, w0, #0x1
   874b0:	b9001fe0 	str	w0, [sp, #28]
   874b4:	b9401fe0 	ldr	w0, [sp, #28]
   874b8:	7106dc1f 	cmp	w0, #0x1b7
   874bc:	54fff949 	b.ls	873e4 <init_page_table+0x10>  // b.plast
   874c0:	1400002d 	b	87574 <init_page_table+0x1a0>
   874c4:	b9401fe0 	ldr	w0, [sp, #28]
   874c8:	d377d800 	lsl	x0, x0, #9
   874cc:	92408c02 	and	x2, x0, #0xfffffffff
   874d0:	f0000080 	adrp	x0, 9a000 <Stage2map1to1>
   874d4:	91000000 	add	x0, x0, #0x0
   874d8:	b9401fe1 	ldr	w1, [sp, #28]
   874dc:	f821781f 	str	xzr, [x0, x1, lsl #3]
   874e0:	f0000080 	adrp	x0, 9a000 <Stage2map1to1>
   874e4:	91000001 	add	x1, x0, #0x0
   874e8:	b9401fe0 	ldr	w0, [sp, #28]
   874ec:	d37df000 	lsl	x0, x0, #3
   874f0:	8b000021 	add	x1, x1, x0
   874f4:	39400020 	ldrb	w0, [x1]
   874f8:	52800023 	mov	w3, #0x1                   	// #1
   874fc:	33000460 	bfxil	w0, w3, #0, #2
   87500:	39000020 	strb	w0, [x1]
   87504:	f0000080 	adrp	x0, 9a000 <Stage2map1to1>
   87508:	91000001 	add	x1, x0, #0x0
   8750c:	b9401fe0 	ldr	w0, [sp, #28]
   87510:	d37df000 	lsl	x0, x0, #3
   87514:	8b000021 	add	x1, x1, x0
   87518:	39400020 	ldrb	w0, [x1]
   8751c:	52800063 	mov	w3, #0x3                   	// #3
   87520:	331e0c60 	bfi	w0, w3, #2, #4
   87524:	39000020 	strb	w0, [x1]
   87528:	f0000080 	adrp	x0, 9a000 <Stage2map1to1>
   8752c:	91000001 	add	x1, x0, #0x0
   87530:	b9401fe0 	ldr	w0, [sp, #28]
   87534:	d37df000 	lsl	x0, x0, #3
   87538:	8b000020 	add	x0, x1, x0
   8753c:	39400401 	ldrb	w1, [x0, #1]
   87540:	321e0021 	orr	w1, w1, #0x4
   87544:	39000401 	strb	w1, [x0, #1]
   87548:	f0000080 	adrp	x0, 9a000 <Stage2map1to1>
   8754c:	91000001 	add	x1, x0, #0x0
   87550:	b9401fe0 	ldr	w0, [sp, #28]
   87554:	d37df000 	lsl	x0, x0, #3
   87558:	8b000021 	add	x1, x1, x0
   8755c:	f9400020 	ldr	x0, [x1]
   87560:	b3748c40 	bfi	x0, x2, #12, #36
   87564:	f9000020 	str	x0, [x1]
   87568:	b9401fe0 	ldr	w0, [sp, #28]
   8756c:	11000400 	add	w0, w0, #0x1
   87570:	b9001fe0 	str	w0, [sp, #28]
   87574:	b9401fe0 	ldr	w0, [sp, #28]
   87578:	7107dc1f 	cmp	w0, #0x1f7
   8757c:	54fffa49 	b.ls	874c4 <init_page_table+0xf0>  // b.plast
   87580:	14000024 	b	87610 <init_page_table+0x23c>
   87584:	b9401fe0 	ldr	w0, [sp, #28]
   87588:	d377d800 	lsl	x0, x0, #9
   8758c:	92408c02 	and	x2, x0, #0xfffffffff
   87590:	f0000080 	adrp	x0, 9a000 <Stage2map1to1>
   87594:	91000000 	add	x0, x0, #0x0
   87598:	b9401fe1 	ldr	w1, [sp, #28]
   8759c:	f821781f 	str	xzr, [x0, x1, lsl #3]
   875a0:	f0000080 	adrp	x0, 9a000 <Stage2map1to1>
   875a4:	91000001 	add	x1, x0, #0x0
   875a8:	b9401fe0 	ldr	w0, [sp, #28]
   875ac:	d37df000 	lsl	x0, x0, #3
   875b0:	8b000021 	add	x1, x1, x0
   875b4:	39400020 	ldrb	w0, [x1]
   875b8:	52800023 	mov	w3, #0x1                   	// #1
   875bc:	33000460 	bfxil	w0, w3, #0, #2
   875c0:	39000020 	strb	w0, [x1]
   875c4:	f0000080 	adrp	x0, 9a000 <Stage2map1to1>
   875c8:	91000001 	add	x1, x0, #0x0
   875cc:	b9401fe0 	ldr	w0, [sp, #28]
   875d0:	d37df000 	lsl	x0, x0, #3
   875d4:	8b000020 	add	x0, x1, x0
   875d8:	39400401 	ldrb	w1, [x0, #1]
   875dc:	321e0021 	orr	w1, w1, #0x4
   875e0:	39000401 	strb	w1, [x0, #1]
   875e4:	f0000080 	adrp	x0, 9a000 <Stage2map1to1>
   875e8:	91000001 	add	x1, x0, #0x0
   875ec:	b9401fe0 	ldr	w0, [sp, #28]
   875f0:	d37df000 	lsl	x0, x0, #3
   875f4:	8b000021 	add	x1, x1, x0
   875f8:	f9400020 	ldr	x0, [x1]
   875fc:	b3748c40 	bfi	x0, x2, #12, #36
   87600:	f9000020 	str	x0, [x1]
   87604:	b9401fe0 	ldr	w0, [sp, #28]
   87608:	11000400 	add	w0, w0, #0x1
   8760c:	b9001fe0 	str	w0, [sp, #28]
   87610:	b9401fe0 	ldr	w0, [sp, #28]
   87614:	7107fc1f 	cmp	w0, #0x1ff
   87618:	54fffb69 	b.ls	87584 <init_page_table+0x1b0>  // b.plast
   8761c:	f0000080 	adrp	x0, 9a000 <Stage2map1to1>
   87620:	91000000 	add	x0, x0, #0x0
   87624:	f908001f 	str	xzr, [x0, #4096]
   87628:	f0000080 	adrp	x0, 9a000 <Stage2map1to1>
   8762c:	91000000 	add	x0, x0, #0x0
   87630:	91400401 	add	x1, x0, #0x1, lsl #12
   87634:	39400020 	ldrb	w0, [x1]
   87638:	52800022 	mov	w2, #0x1                   	// #1
   8763c:	33000440 	bfxil	w0, w2, #0, #2
   87640:	39000020 	strb	w0, [x1]
   87644:	f0000080 	adrp	x0, 9a000 <Stage2map1to1>
   87648:	91000000 	add	x0, x0, #0x0
   8764c:	91400400 	add	x0, x0, #0x1, lsl #12
   87650:	39400401 	ldrb	w1, [x0, #1]
   87654:	321e0021 	orr	w1, w1, #0x4
   87658:	39000401 	strb	w1, [x0, #1]
   8765c:	f0000080 	adrp	x0, 9a000 <Stage2map1to1>
   87660:	91000001 	add	x1, x0, #0x0
   87664:	f9480020 	ldr	x0, [x1, #4096]
   87668:	d2a00082 	mov	x2, #0x40000               	// #262144
   8766c:	b3748c40 	bfi	x0, x2, #12, #36
   87670:	f9080020 	str	x0, [x1, #4096]
   87674:	52804020 	mov	w0, #0x201                 	// #513
   87678:	b9001fe0 	str	w0, [sp, #28]
   8767c:	14000008 	b	8769c <init_page_table+0x2c8>
   87680:	f0000080 	adrp	x0, 9a000 <Stage2map1to1>
   87684:	91000000 	add	x0, x0, #0x0
   87688:	b9401fe1 	ldr	w1, [sp, #28]
   8768c:	f821781f 	str	xzr, [x0, x1, lsl #3]
   87690:	b9401fe0 	ldr	w0, [sp, #28]
   87694:	11000400 	add	w0, w0, #0x1
   87698:	b9001fe0 	str	w0, [sp, #28]
   8769c:	b9401fe0 	ldr	w0, [sp, #28]
   876a0:	710ffc1f 	cmp	w0, #0x3ff
   876a4:	54fffee9 	b.ls	87680 <init_page_table+0x2ac>  // b.plast
   876a8:	d0000080 	adrp	x0, 99000 <Stage1map1to1>
   876ac:	91000000 	add	x0, x0, #0x0
   876b0:	f900001f 	str	xzr, [x0]
   876b4:	d0000080 	adrp	x0, 99000 <Stage1map1to1>
   876b8:	91000000 	add	x0, x0, #0x0
   876bc:	39400001 	ldrb	w1, [x0]
   876c0:	32000421 	orr	w1, w1, #0x3
   876c4:	39000001 	strb	w1, [x0]
   876c8:	f0000080 	adrp	x0, 9a000 <Stage2map1to1>
   876cc:	91000000 	add	x0, x0, #0x0
   876d0:	d34cfc00 	lsr	x0, x0, #12
   876d4:	92408c02 	and	x2, x0, #0xfffffffff
   876d8:	d0000080 	adrp	x0, 99000 <Stage1map1to1>
   876dc:	91000001 	add	x1, x0, #0x0
   876e0:	f9400020 	ldr	x0, [x1]
   876e4:	b3748c40 	bfi	x0, x2, #12, #36
   876e8:	f9000020 	str	x0, [x1]
   876ec:	d0000080 	adrp	x0, 99000 <Stage1map1to1>
   876f0:	91000000 	add	x0, x0, #0x0
   876f4:	39401c01 	ldrb	w1, [x0, #7]
   876f8:	32196021 	orr	w1, w1, #0xffffff80
   876fc:	39001c01 	strb	w1, [x0, #7]
   87700:	d0000080 	adrp	x0, 99000 <Stage1map1to1>
   87704:	91000000 	add	x0, x0, #0x0
   87708:	f900041f 	str	xzr, [x0, #8]
   8770c:	d0000080 	adrp	x0, 99000 <Stage1map1to1>
   87710:	91000000 	add	x0, x0, #0x0
   87714:	39402001 	ldrb	w1, [x0, #8]
   87718:	32000421 	orr	w1, w1, #0x3
   8771c:	39002001 	strb	w1, [x0, #8]
   87720:	900000a0 	adrp	x0, 9b000 <Stage2map1to1+0x1000>
   87724:	91000000 	add	x0, x0, #0x0
   87728:	d34cfc00 	lsr	x0, x0, #12
   8772c:	92408c02 	and	x2, x0, #0xfffffffff
   87730:	d0000080 	adrp	x0, 99000 <Stage1map1to1>
   87734:	91000001 	add	x1, x0, #0x0
   87738:	f9400420 	ldr	x0, [x1, #8]
   8773c:	b3748c40 	bfi	x0, x2, #12, #36
   87740:	f9000420 	str	x0, [x1, #8]
   87744:	d0000080 	adrp	x0, 99000 <Stage1map1to1>
   87748:	91000000 	add	x0, x0, #0x0
   8774c:	39403c01 	ldrb	w1, [x0, #15]
   87750:	32196021 	orr	w1, w1, #0xffffff80
   87754:	39003c01 	strb	w1, [x0, #15]
   87758:	52800040 	mov	w0, #0x2                   	// #2
   8775c:	b9001be0 	str	w0, [sp, #24]
   87760:	14000008 	b	87780 <init_page_table+0x3ac>
   87764:	d0000080 	adrp	x0, 99000 <Stage1map1to1>
   87768:	91000000 	add	x0, x0, #0x0
   8776c:	b9401be1 	ldr	w1, [sp, #24]
   87770:	f821781f 	str	xzr, [x0, x1, lsl #3]
   87774:	b9401be0 	ldr	w0, [sp, #24]
   87778:	11000400 	add	w0, w0, #0x1
   8777c:	b9001be0 	str	w0, [sp, #24]
   87780:	b9401be0 	ldr	w0, [sp, #24]
   87784:	7107fc1f 	cmp	w0, #0x1ff
   87788:	54fffee9 	b.ls	87764 <init_page_table+0x390>  // b.plast
   8778c:	b90017ff 	str	wzr, [sp, #20]
   87790:	14000008 	b	877b0 <init_page_table+0x3dc>
   87794:	f00000a0 	adrp	x0, 9e000 <Stage3virtual>
   87798:	91000000 	add	x0, x0, #0x0
   8779c:	b94017e1 	ldr	w1, [sp, #20]
   877a0:	f821781f 	str	xzr, [x0, x1, lsl #3]
   877a4:	b94017e0 	ldr	w0, [sp, #20]
   877a8:	11000400 	add	w0, w0, #0x1
   877ac:	b90017e0 	str	w0, [sp, #20]
   877b0:	b94017e0 	ldr	w0, [sp, #20]
   877b4:	7107fc1f 	cmp	w0, #0x1ff
   877b8:	54fffee9 	b.ls	87794 <init_page_table+0x3c0>  // b.plast
   877bc:	d00000a0 	adrp	x0, 9d000 <Stage2virtual>
   877c0:	91000000 	add	x0, x0, #0x0
   877c4:	f907fc1f 	str	xzr, [x0, #4088]
   877c8:	d00000a0 	adrp	x0, 9d000 <Stage2virtual>
   877cc:	91000000 	add	x0, x0, #0x0
   877d0:	397fe001 	ldrb	w1, [x0, #4088]
   877d4:	32000421 	orr	w1, w1, #0x3
   877d8:	393fe001 	strb	w1, [x0, #4088]
   877dc:	f00000a0 	adrp	x0, 9e000 <Stage3virtual>
   877e0:	91000000 	add	x0, x0, #0x0
   877e4:	d34cfc00 	lsr	x0, x0, #12
   877e8:	92408c02 	and	x2, x0, #0xfffffffff
   877ec:	d00000a0 	adrp	x0, 9d000 <Stage2virtual>
   877f0:	91000001 	add	x1, x0, #0x0
   877f4:	f947fc20 	ldr	x0, [x1, #4088]
   877f8:	b3748c40 	bfi	x0, x2, #12, #36
   877fc:	f907fc20 	str	x0, [x1, #4088]
   87800:	d00000a0 	adrp	x0, 9d000 <Stage2virtual>
   87804:	91000000 	add	x0, x0, #0x0
   87808:	397ffc01 	ldrb	w1, [x0, #4095]
   8780c:	32196021 	orr	w1, w1, #0xffffff80
   87810:	393ffc01 	strb	w1, [x0, #4095]
   87814:	b90013ff 	str	wzr, [sp, #16]
   87818:	14000008 	b	87838 <init_page_table+0x464>
   8781c:	d00000a0 	adrp	x0, 9d000 <Stage2virtual>
   87820:	91000000 	add	x0, x0, #0x0
   87824:	b94013e1 	ldr	w1, [sp, #16]
   87828:	f821781f 	str	xzr, [x0, x1, lsl #3]
   8782c:	b94013e0 	ldr	w0, [sp, #16]
   87830:	11000400 	add	w0, w0, #0x1
   87834:	b90013e0 	str	w0, [sp, #16]
   87838:	b94013e0 	ldr	w0, [sp, #16]
   8783c:	7107f81f 	cmp	w0, #0x1fe
   87840:	54fffee9 	b.ls	8781c <init_page_table+0x448>  // b.plast
   87844:	b00000a0 	adrp	x0, 9c000 <Stage1virtual>
   87848:	91000000 	add	x0, x0, #0x0
   8784c:	f907fc1f 	str	xzr, [x0, #4088]
   87850:	b00000a0 	adrp	x0, 9c000 <Stage1virtual>
   87854:	91000000 	add	x0, x0, #0x0
   87858:	397fe001 	ldrb	w1, [x0, #4088]
   8785c:	32000421 	orr	w1, w1, #0x3
   87860:	393fe001 	strb	w1, [x0, #4088]
   87864:	d00000a0 	adrp	x0, 9d000 <Stage2virtual>
   87868:	91000000 	add	x0, x0, #0x0
   8786c:	d34cfc00 	lsr	x0, x0, #12
   87870:	92408c02 	and	x2, x0, #0xfffffffff
   87874:	b00000a0 	adrp	x0, 9c000 <Stage1virtual>
   87878:	91000001 	add	x1, x0, #0x0
   8787c:	f947fc20 	ldr	x0, [x1, #4088]
   87880:	b3748c40 	bfi	x0, x2, #12, #36
   87884:	f907fc20 	str	x0, [x1, #4088]
   87888:	b00000a0 	adrp	x0, 9c000 <Stage1virtual>
   8788c:	91000000 	add	x0, x0, #0x0
   87890:	397ffc01 	ldrb	w1, [x0, #4095]
   87894:	32196021 	orr	w1, w1, #0xffffff80
   87898:	393ffc01 	strb	w1, [x0, #4095]
   8789c:	b9000fff 	str	wzr, [sp, #12]
   878a0:	14000008 	b	878c0 <init_page_table+0x4ec>
   878a4:	b00000a0 	adrp	x0, 9c000 <Stage1virtual>
   878a8:	91000000 	add	x0, x0, #0x0
   878ac:	b9400fe1 	ldr	w1, [sp, #12]
   878b0:	f821781f 	str	xzr, [x0, x1, lsl #3]
   878b4:	b9400fe0 	ldr	w0, [sp, #12]
   878b8:	11000400 	add	w0, w0, #0x1
   878bc:	b9000fe0 	str	w0, [sp, #12]
   878c0:	b9400fe0 	ldr	w0, [sp, #12]
   878c4:	7107f81f 	cmp	w0, #0x1fe
   878c8:	54fffee9 	b.ls	878a4 <init_page_table+0x4d0>  // b.plast
   878cc:	d503201f 	nop
   878d0:	910083ff 	add	sp, sp, #0x20
   878d4:	d65f03c0 	ret

00000000000878d8 <mmu_init>:
   878d8:	f81e0ffe 	str	x30, [sp, #-32]!
   878dc:	d5033f9f 	dsb	sy
   878e0:	d2808000 	mov	x0, #0x400                 	// #1024
   878e4:	f2a88180 	movk	x0, #0x440c, lsl #16
   878e8:	f2c01fe0 	movk	x0, #0xff, lsl #32
   878ec:	f9000fe0 	str	x0, [sp, #24]
   878f0:	f9400fe0 	ldr	x0, [sp, #24]
   878f4:	d518a200 	msr	mair_el1, x0
   878f8:	d0000080 	adrp	x0, 99000 <Stage1map1to1>
   878fc:	91000000 	add	x0, x0, #0x0
   87900:	d5182000 	msr	ttbr0_el1, x0
   87904:	b00000a0 	adrp	x0, 9c000 <Stage1virtual>
   87908:	91000000 	add	x0, x0, #0x0
   8790c:	d5182020 	msr	ttbr1_el1, x0
   87910:	d5033fdf 	isb
   87914:	d286a320 	mov	x0, #0x3519                	// #13593
   87918:	f2b6a320 	movk	x0, #0xb519, lsl #16
   8791c:	f9000fe0 	str	x0, [sp, #24]
   87920:	f9400fe0 	ldr	x0, [sp, #24]
   87924:	d5182040 	msr	tcr_el1, x0
   87928:	d5033fdf 	isb
   8792c:	d5033fdf 	isb
   87930:	d5381000 	mrs	x0, sctlr_el1
   87934:	f9000fe0 	str	x0, [sp, #24]
   87938:	f9400fe1 	ldr	x1, [sp, #24]
   8793c:	d2810000 	mov	x0, #0x800                 	// #2048
   87940:	f2a01800 	movk	x0, #0xc0, lsl #16
   87944:	aa000020 	orr	x0, x1, x0
   87948:	f9000fe0 	str	x0, [sp, #24]
   8794c:	f9400fe1 	ldr	x1, [sp, #24]
   87950:	d28203e0 	mov	x0, #0x101f                	// #4127
   87954:	aa000020 	orr	x0, x1, x0
   87958:	f9000fe0 	str	x0, [sp, #24]
   8795c:	f9400fe0 	ldr	x0, [sp, #24]
   87960:	d5181000 	msr	sctlr_el1, x0
   87964:	d5033fdf 	isb
   87968:	b0000080 	adrp	x0, 98000 <table_loaded>
   8796c:	91000000 	add	x0, x0, #0x0
   87970:	97ffe5a4 	bl	81000 <semaphore_dec>
   87974:	d503201f 	nop
   87978:	f84207fe 	ldr	x30, [sp], #32
   8797c:	d65f03c0 	ret

0000000000087980 <virtualmap>:
   87980:	d100c3ff 	sub	sp, sp, #0x30
   87984:	b9000fe0 	str	w0, [sp, #12]
   87988:	39002fe1 	strb	w1, [sp, #11]
   8798c:	f90013ff 	str	xzr, [sp, #32]
   87990:	b9002fff 	str	wzr, [sp, #44]
   87994:	14000044 	b	87aa4 <virtualmap+0x124>
   87998:	f00000a0 	adrp	x0, 9e000 <Stage3virtual>
   8799c:	91000000 	add	x0, x0, #0x0
   879a0:	b9802fe1 	ldrsw	x1, [sp, #44]
   879a4:	f8617800 	ldr	x0, [x0, x1, lsl #3]
   879a8:	f100001f 	cmp	x0, #0x0
   879ac:	54000761 	b.ne	87a98 <virtualmap+0x118>  // b.any
   879b0:	39402fe0 	ldrb	w0, [sp, #11]
   879b4:	12000c00 	and	w0, w0, #0xf
   879b8:	12001c03 	and	w3, w0, #0xff
   879bc:	b9400fe0 	ldr	w0, [sp, #12]
   879c0:	d377d800 	lsl	x0, x0, #9
   879c4:	92408c02 	and	x2, x0, #0xfffffffff
   879c8:	f00000a0 	adrp	x0, 9e000 <Stage3virtual>
   879cc:	91000000 	add	x0, x0, #0x0
   879d0:	b9802fe1 	ldrsw	x1, [sp, #44]
   879d4:	f821781f 	str	xzr, [x0, x1, lsl #3]
   879d8:	f00000a0 	adrp	x0, 9e000 <Stage3virtual>
   879dc:	91000001 	add	x1, x0, #0x0
   879e0:	b9802fe0 	ldrsw	x0, [sp, #44]
   879e4:	d37df000 	lsl	x0, x0, #3
   879e8:	8b000020 	add	x0, x1, x0
   879ec:	39400001 	ldrb	w1, [x0]
   879f0:	32000421 	orr	w1, w1, #0x3
   879f4:	39000001 	strb	w1, [x0]
   879f8:	f00000a0 	adrp	x0, 9e000 <Stage3virtual>
   879fc:	91000001 	add	x1, x0, #0x0
   87a00:	b9802fe0 	ldrsw	x0, [sp, #44]
   87a04:	d37df000 	lsl	x0, x0, #3
   87a08:	8b000021 	add	x1, x1, x0
   87a0c:	39400020 	ldrb	w0, [x1]
   87a10:	331e0c60 	bfi	w0, w3, #2, #4
   87a14:	39000020 	strb	w0, [x1]
   87a18:	f00000a0 	adrp	x0, 9e000 <Stage3virtual>
   87a1c:	91000001 	add	x1, x0, #0x0
   87a20:	b9802fe0 	ldrsw	x0, [sp, #44]
   87a24:	d37df000 	lsl	x0, x0, #3
   87a28:	8b000020 	add	x0, x1, x0
   87a2c:	39400401 	ldrb	w1, [x0, #1]
   87a30:	321e0021 	orr	w1, w1, #0x4
   87a34:	39000401 	strb	w1, [x0, #1]
   87a38:	f00000a0 	adrp	x0, 9e000 <Stage3virtual>
   87a3c:	91000001 	add	x1, x0, #0x0
   87a40:	b9802fe0 	ldrsw	x0, [sp, #44]
   87a44:	d37df000 	lsl	x0, x0, #3
   87a48:	8b000021 	add	x1, x1, x0
   87a4c:	f9400020 	ldr	x0, [x1]
   87a50:	b3748c40 	bfi	x0, x2, #12, #36
   87a54:	f9000020 	str	x0, [x1]
   87a58:	d5033fbf 	dmb	sy
   87a5c:	52804001 	mov	w1, #0x200                 	// #512
   87a60:	b9402fe0 	ldr	w0, [sp, #44]
   87a64:	4b000020 	sub	w0, w1, w0
   87a68:	53144c00 	lsl	w0, w0, #12
   87a6c:	51000400 	sub	w0, w0, #0x1
   87a70:	93407c00 	sxtw	x0, w0
   87a74:	f9000fe0 	str	x0, [sp, #24]
   87a78:	92800000 	mov	x0, #0xffffffffffffffff    	// #-1
   87a7c:	f90013e0 	str	x0, [sp, #32]
   87a80:	f94013e1 	ldr	x1, [sp, #32]
   87a84:	f9400fe0 	ldr	x0, [sp, #24]
   87a88:	cb000020 	sub	x0, x1, x0
   87a8c:	f90013e0 	str	x0, [sp, #32]
   87a90:	f94013e0 	ldr	x0, [sp, #32]
   87a94:	14000008 	b	87ab4 <virtualmap+0x134>
   87a98:	b9402fe0 	ldr	w0, [sp, #44]
   87a9c:	11000400 	add	w0, w0, #0x1
   87aa0:	b9002fe0 	str	w0, [sp, #44]
   87aa4:	b9402fe0 	ldr	w0, [sp, #44]
   87aa8:	7107fc1f 	cmp	w0, #0x1ff
   87aac:	54fff76d 	b.le	87998 <virtualmap+0x18>
   87ab0:	f94013e0 	ldr	x0, [sp, #32]
   87ab4:	9100c3ff 	add	sp, sp, #0x30
   87ab8:	d65f03c0 	ret

0000000000087abc <RPi_CpuIdString>:
   87abc:	d0000060 	adrp	x0, 95000 <BitFont+0xb40>
   87ac0:	912a0000 	add	x0, x0, #0xa80
   87ac4:	79400000 	ldrh	w0, [x0]
   87ac8:	d3443c00 	ubfx	x0, x0, #4, #12
   87acc:	12003c00 	and	w0, w0, #0xffff
   87ad0:	71301c1f 	cmp	w0, #0xc07
   87ad4:	54000120 	b.eq	87af8 <RPi_CpuIdString+0x3c>  // b.none
   87ad8:	71340c1f 	cmp	w0, #0xd03
   87adc:	54000160 	b.eq	87b08 <RPi_CpuIdString+0x4c>  // b.none
   87ae0:	712dd81f 	cmp	w0, #0xb76
   87ae4:	540001a1 	b.ne	87b18 <RPi_CpuIdString+0x5c>  // b.any
   87ae8:	d0000060 	adrp	x0, 95000 <BitFont+0xb40>
   87aec:	912ce000 	add	x0, x0, #0xb38
   87af0:	f9400000 	ldr	x0, [x0]
   87af4:	1400000c 	b	87b24 <RPi_CpuIdString+0x68>
   87af8:	d0000060 	adrp	x0, 95000 <BitFont+0xb40>
   87afc:	912d0000 	add	x0, x0, #0xb40
   87b00:	f9400000 	ldr	x0, [x0]
   87b04:	14000008 	b	87b24 <RPi_CpuIdString+0x68>
   87b08:	d0000060 	adrp	x0, 95000 <BitFont+0xb40>
   87b0c:	912d2000 	add	x0, x0, #0xb48
   87b10:	f9400000 	ldr	x0, [x0]
   87b14:	14000004 	b	87b24 <RPi_CpuIdString+0x68>
   87b18:	d0000060 	adrp	x0, 95000 <BitFont+0xb40>
   87b1c:	912d4000 	add	x0, x0, #0xb50
   87b20:	f9400000 	ldr	x0, [x0]
   87b24:	d65f03c0 	ret

0000000000087b28 <gpio_setup>:
   87b28:	d10083ff 	sub	sp, sp, #0x20
   87b2c:	b9000fe0 	str	w0, [sp, #12]
   87b30:	b9000be1 	str	w1, [sp, #8]
   87b34:	b9400fe0 	ldr	w0, [sp, #12]
   87b38:	7100d81f 	cmp	w0, #0x36
   87b3c:	54000069 	b.ls	87b48 <gpio_setup+0x20>  // b.plast
   87b40:	52800000 	mov	w0, #0x0                   	// #0
   87b44:	14000042 	b	87c4c <gpio_setup+0x124>
   87b48:	b9400be0 	ldr	w0, [sp, #8]
   87b4c:	71001c1f 	cmp	w0, #0x7
   87b50:	54000069 	b.ls	87b5c <gpio_setup+0x34>  // b.plast
   87b54:	52800000 	mov	w0, #0x0                   	// #0
   87b58:	1400003d 	b	87c4c <gpio_setup+0x124>
   87b5c:	b9400fe2 	ldr	w2, [sp, #12]
   87b60:	529999a0 	mov	w0, #0xcccd                	// #52429
   87b64:	72b99980 	movk	w0, #0xcccc, lsl #16
   87b68:	9ba07c40 	umull	x0, w2, w0
   87b6c:	d360fc00 	lsr	x0, x0, #32
   87b70:	53037c01 	lsr	w1, w0, #3
   87b74:	2a0103e0 	mov	w0, w1
   87b78:	531e7400 	lsl	w0, w0, #2
   87b7c:	0b010000 	add	w0, w0, w1
   87b80:	531f7800 	lsl	w0, w0, #1
   87b84:	4b000041 	sub	w1, w2, w0
   87b88:	2a0103e0 	mov	w0, w1
   87b8c:	531f7800 	lsl	w0, w0, #1
   87b90:	0b010000 	add	w0, w0, w1
   87b94:	b9001fe0 	str	w0, [sp, #28]
   87b98:	d0000060 	adrp	x0, 95000 <BitFont+0xb40>
   87b9c:	9129c000 	add	x0, x0, #0xa70
   87ba0:	b9400000 	ldr	w0, [x0]
   87ba4:	11480000 	add	w0, w0, #0x200, lsl #12
   87ba8:	2a0003e0 	mov	w0, w0
   87bac:	aa0003e2 	mov	x2, x0
   87bb0:	b9400fe1 	ldr	w1, [sp, #12]
   87bb4:	529999a0 	mov	w0, #0xcccd                	// #52429
   87bb8:	72b99980 	movk	w0, #0xcccc, lsl #16
   87bbc:	9ba07c20 	umull	x0, w1, w0
   87bc0:	d360fc00 	lsr	x0, x0, #32
   87bc4:	53037c00 	lsr	w0, w0, #3
   87bc8:	2a0003e0 	mov	w0, w0
   87bcc:	b8607840 	ldr	w0, [x2, x0, lsl #2]
   87bd0:	b9001be0 	str	w0, [sp, #24]
   87bd4:	b9401fe0 	ldr	w0, [sp, #28]
   87bd8:	528000e1 	mov	w1, #0x7                   	// #7
   87bdc:	1ac02020 	lsl	w0, w1, w0
   87be0:	2a2003e0 	mvn	w0, w0
   87be4:	2a0003e1 	mov	w1, w0
   87be8:	b9401be0 	ldr	w0, [sp, #24]
   87bec:	0a010000 	and	w0, w0, w1
   87bf0:	b9001be0 	str	w0, [sp, #24]
   87bf4:	b9401fe0 	ldr	w0, [sp, #28]
   87bf8:	b9400be1 	ldr	w1, [sp, #8]
   87bfc:	1ac02020 	lsl	w0, w1, w0
   87c00:	b9401be1 	ldr	w1, [sp, #24]
   87c04:	2a000020 	orr	w0, w1, w0
   87c08:	b9001be0 	str	w0, [sp, #24]
   87c0c:	d0000060 	adrp	x0, 95000 <BitFont+0xb40>
   87c10:	9129c000 	add	x0, x0, #0xa70
   87c14:	b9400000 	ldr	w0, [x0]
   87c18:	11480000 	add	w0, w0, #0x200, lsl #12
   87c1c:	2a0003e0 	mov	w0, w0
   87c20:	aa0003e2 	mov	x2, x0
   87c24:	b9400fe1 	ldr	w1, [sp, #12]
   87c28:	529999a0 	mov	w0, #0xcccd                	// #52429
   87c2c:	72b99980 	movk	w0, #0xcccc, lsl #16
   87c30:	9ba07c20 	umull	x0, w1, w0
   87c34:	d360fc00 	lsr	x0, x0, #32
   87c38:	53037c00 	lsr	w0, w0, #3
   87c3c:	2a0003e0 	mov	w0, w0
   87c40:	b9401be1 	ldr	w1, [sp, #24]
   87c44:	b8207841 	str	w1, [x2, x0, lsl #2]
   87c48:	52800020 	mov	w0, #0x1                   	// #1
   87c4c:	910083ff 	add	sp, sp, #0x20
   87c50:	d65f03c0 	ret

0000000000087c54 <gpio_output>:
   87c54:	d10083ff 	sub	sp, sp, #0x20
   87c58:	b9000fe0 	str	w0, [sp, #12]
   87c5c:	39002fe1 	strb	w1, [sp, #11]
   87c60:	b9400fe0 	ldr	w0, [sp, #12]
   87c64:	7100d41f 	cmp	w0, #0x35
   87c68:	54000548 	b.hi	87d10 <gpio_output+0xbc>  // b.pmore
   87c6c:	b9400fe0 	ldr	w0, [sp, #12]
   87c70:	53057c00 	lsr	w0, w0, #5
   87c74:	b90017e0 	str	w0, [sp, #20]
   87c78:	b9400fe0 	ldr	w0, [sp, #12]
   87c7c:	12001000 	and	w0, w0, #0x1f
   87c80:	52800021 	mov	w1, #0x1                   	// #1
   87c84:	1ac02020 	lsl	w0, w1, w0
   87c88:	b90013e0 	str	w0, [sp, #16]
   87c8c:	39402fe0 	ldrb	w0, [sp, #11]
   87c90:	7100001f 	cmp	w0, #0x0
   87c94:	540001c0 	b.eq	87ccc <gpio_output+0x78>  // b.none
   87c98:	d0000060 	adrp	x0, 95000 <BitFont+0xb40>
   87c9c:	9129c000 	add	x0, x0, #0xa70
   87ca0:	b9400000 	ldr	w0, [x0]
   87ca4:	11480000 	add	w0, w0, #0x200, lsl #12
   87ca8:	2a0003e0 	mov	w0, w0
   87cac:	aa0003e1 	mov	x1, x0
   87cb0:	b94017e0 	ldr	w0, [sp, #20]
   87cb4:	91001000 	add	x0, x0, #0x4
   87cb8:	d37ef400 	lsl	x0, x0, #2
   87cbc:	8b000020 	add	x0, x1, x0
   87cc0:	91003000 	add	x0, x0, #0xc
   87cc4:	f9000fe0 	str	x0, [sp, #24]
   87cc8:	1400000d 	b	87cfc <gpio_output+0xa8>
   87ccc:	d0000060 	adrp	x0, 95000 <BitFont+0xb40>
   87cd0:	9129c000 	add	x0, x0, #0xa70
   87cd4:	b9400000 	ldr	w0, [x0]
   87cd8:	11480000 	add	w0, w0, #0x200, lsl #12
   87cdc:	2a0003e0 	mov	w0, w0
   87ce0:	aa0003e1 	mov	x1, x0
   87ce4:	b94017e0 	ldr	w0, [sp, #20]
   87ce8:	91002000 	add	x0, x0, #0x8
   87cec:	d37ef400 	lsl	x0, x0, #2
   87cf0:	8b000020 	add	x0, x1, x0
   87cf4:	91002000 	add	x0, x0, #0x8
   87cf8:	f9000fe0 	str	x0, [sp, #24]
   87cfc:	f9400fe0 	ldr	x0, [sp, #24]
   87d00:	b94013e1 	ldr	w1, [sp, #16]
   87d04:	b9000001 	str	w1, [x0]
   87d08:	52800020 	mov	w0, #0x1                   	// #1
   87d0c:	14000002 	b	87d14 <gpio_output+0xc0>
   87d10:	52800000 	mov	w0, #0x0                   	// #0
   87d14:	910083ff 	add	sp, sp, #0x20
   87d18:	d65f03c0 	ret

0000000000087d1c <gpio_input>:
   87d1c:	d10083ff 	sub	sp, sp, #0x20
   87d20:	b9000fe0 	str	w0, [sp, #12]
   87d24:	b9400fe0 	ldr	w0, [sp, #12]
   87d28:	7100d41f 	cmp	w0, #0x35
   87d2c:	54000368 	b.hi	87d98 <gpio_input+0x7c>  // b.pmore
   87d30:	b9400fe0 	ldr	w0, [sp, #12]
   87d34:	12001000 	and	w0, w0, #0x1f
   87d38:	52800021 	mov	w1, #0x1                   	// #1
   87d3c:	1ac02020 	lsl	w0, w1, w0
   87d40:	b9001fe0 	str	w0, [sp, #28]
   87d44:	d0000060 	adrp	x0, 95000 <BitFont+0xb40>
   87d48:	9129c000 	add	x0, x0, #0xa70
   87d4c:	b9400000 	ldr	w0, [x0]
   87d50:	11480000 	add	w0, w0, #0x200, lsl #12
   87d54:	2a0003e0 	mov	w0, w0
   87d58:	aa0003e1 	mov	x1, x0
   87d5c:	b9400fe0 	ldr	w0, [sp, #12]
   87d60:	53057c00 	lsr	w0, w0, #5
   87d64:	2a0003e0 	mov	w0, w0
   87d68:	91003000 	add	x0, x0, #0xc
   87d6c:	d37ef400 	lsl	x0, x0, #2
   87d70:	8b000020 	add	x0, x1, x0
   87d74:	b9400400 	ldr	w0, [x0, #4]
   87d78:	b9001be0 	str	w0, [sp, #24]
   87d7c:	b9401be1 	ldr	w1, [sp, #24]
   87d80:	b9401fe0 	ldr	w0, [sp, #28]
   87d84:	0a000020 	and	w0, w1, w0
   87d88:	7100001f 	cmp	w0, #0x0
   87d8c:	54000060 	b.eq	87d98 <gpio_input+0x7c>  // b.none
   87d90:	52800020 	mov	w0, #0x1                   	// #1
   87d94:	14000002 	b	87d9c <gpio_input+0x80>
   87d98:	52800000 	mov	w0, #0x0                   	// #0
   87d9c:	910083ff 	add	sp, sp, #0x20
   87da0:	d65f03c0 	ret

0000000000087da4 <gpio_checkEvent>:
   87da4:	d10083ff 	sub	sp, sp, #0x20
   87da8:	b9000fe0 	str	w0, [sp, #12]
   87dac:	b9400fe0 	ldr	w0, [sp, #12]
   87db0:	7100d41f 	cmp	w0, #0x35
   87db4:	54000328 	b.hi	87e18 <gpio_checkEvent+0x74>  // b.pmore
   87db8:	b9400fe0 	ldr	w0, [sp, #12]
   87dbc:	12001000 	and	w0, w0, #0x1f
   87dc0:	52800021 	mov	w1, #0x1                   	// #1
   87dc4:	1ac02020 	lsl	w0, w1, w0
   87dc8:	b9001fe0 	str	w0, [sp, #28]
   87dcc:	d0000060 	adrp	x0, 95000 <BitFont+0xb40>
   87dd0:	9129c000 	add	x0, x0, #0xa70
   87dd4:	b9400000 	ldr	w0, [x0]
   87dd8:	11480000 	add	w0, w0, #0x200, lsl #12
   87ddc:	2a0003e0 	mov	w0, w0
   87de0:	aa0003e1 	mov	x1, x0
   87de4:	b9400fe0 	ldr	w0, [sp, #12]
   87de8:	53057c00 	lsr	w0, w0, #5
   87dec:	2a0003e0 	mov	w0, w0
   87df0:	91004000 	add	x0, x0, #0x10
   87df4:	b8607820 	ldr	w0, [x1, x0, lsl #2]
   87df8:	b9001be0 	str	w0, [sp, #24]
   87dfc:	b9401be1 	ldr	w1, [sp, #24]
   87e00:	b9401fe0 	ldr	w0, [sp, #28]
   87e04:	0a000020 	and	w0, w1, w0
   87e08:	7100001f 	cmp	w0, #0x0
   87e0c:	54000060 	b.eq	87e18 <gpio_checkEvent+0x74>  // b.none
   87e10:	52800020 	mov	w0, #0x1                   	// #1
   87e14:	14000002 	b	87e1c <gpio_checkEvent+0x78>
   87e18:	52800000 	mov	w0, #0x0                   	// #0
   87e1c:	910083ff 	add	sp, sp, #0x20
   87e20:	d65f03c0 	ret

0000000000087e24 <gpio_clearEvent>:
   87e24:	d10083ff 	sub	sp, sp, #0x20
   87e28:	b9000fe0 	str	w0, [sp, #12]
   87e2c:	b9400fe0 	ldr	w0, [sp, #12]
   87e30:	7100d41f 	cmp	w0, #0x35
   87e34:	54000288 	b.hi	87e84 <gpio_clearEvent+0x60>  // b.pmore
   87e38:	b9400fe0 	ldr	w0, [sp, #12]
   87e3c:	12001000 	and	w0, w0, #0x1f
   87e40:	52800021 	mov	w1, #0x1                   	// #1
   87e44:	1ac02020 	lsl	w0, w1, w0
   87e48:	b9001fe0 	str	w0, [sp, #28]
   87e4c:	d0000060 	adrp	x0, 95000 <BitFont+0xb40>
   87e50:	9129c000 	add	x0, x0, #0xa70
   87e54:	b9400000 	ldr	w0, [x0]
   87e58:	11480000 	add	w0, w0, #0x200, lsl #12
   87e5c:	2a0003e0 	mov	w0, w0
   87e60:	aa0003e2 	mov	x2, x0
   87e64:	b9400fe0 	ldr	w0, [sp, #12]
   87e68:	53057c00 	lsr	w0, w0, #5
   87e6c:	2a0003e0 	mov	w0, w0
   87e70:	91004000 	add	x0, x0, #0x10
   87e74:	b9401fe1 	ldr	w1, [sp, #28]
   87e78:	b8207841 	str	w1, [x2, x0, lsl #2]
   87e7c:	52800020 	mov	w0, #0x1                   	// #1
   87e80:	14000002 	b	87e88 <gpio_clearEvent+0x64>
   87e84:	52800000 	mov	w0, #0x0                   	// #0
   87e88:	910083ff 	add	sp, sp, #0x20
   87e8c:	d65f03c0 	ret

0000000000087e90 <gpio_edgeDetect>:
   87e90:	d10083ff 	sub	sp, sp, #0x20
   87e94:	b9000fe0 	str	w0, [sp, #12]
   87e98:	39002fe1 	strb	w1, [sp, #11]
   87e9c:	39002be2 	strb	w2, [sp, #10]
   87ea0:	b9400fe0 	ldr	w0, [sp, #12]
   87ea4:	7100d41f 	cmp	w0, #0x35
   87ea8:	54000988 	b.hi	87fd8 <gpio_edgeDetect+0x148>  // b.pmore
   87eac:	b9400fe0 	ldr	w0, [sp, #12]
   87eb0:	12001000 	and	w0, w0, #0x1f
   87eb4:	52800021 	mov	w1, #0x1                   	// #1
   87eb8:	1ac02020 	lsl	w0, w1, w0
   87ebc:	b9001fe0 	str	w0, [sp, #28]
   87ec0:	39402fe0 	ldrb	w0, [sp, #11]
   87ec4:	7100001f 	cmp	w0, #0x0
   87ec8:	54000440 	b.eq	87f50 <gpio_edgeDetect+0xc0>  // b.none
   87ecc:	39402be0 	ldrb	w0, [sp, #10]
   87ed0:	7100001f 	cmp	w0, #0x0
   87ed4:	54000200 	b.eq	87f14 <gpio_edgeDetect+0x84>  // b.none
   87ed8:	d0000060 	adrp	x0, 95000 <BitFont+0xb40>
   87edc:	9129c000 	add	x0, x0, #0xa70
   87ee0:	b9400000 	ldr	w0, [x0]
   87ee4:	11480000 	add	w0, w0, #0x200, lsl #12
   87ee8:	2a0003e0 	mov	w0, w0
   87eec:	aa0003e1 	mov	x1, x0
   87ef0:	b9400fe0 	ldr	w0, [sp, #12]
   87ef4:	53057c00 	lsr	w0, w0, #5
   87ef8:	2a0003e0 	mov	w0, w0
   87efc:	91007000 	add	x0, x0, #0x1c
   87f00:	d37ef400 	lsl	x0, x0, #2
   87f04:	8b000020 	add	x0, x1, x0
   87f08:	b9401fe1 	ldr	w1, [sp, #28]
   87f0c:	b9000c01 	str	w1, [x0, #12]
   87f10:	14000030 	b	87fd0 <gpio_edgeDetect+0x140>
   87f14:	d0000060 	adrp	x0, 95000 <BitFont+0xb40>
   87f18:	9129c000 	add	x0, x0, #0xa70
   87f1c:	b9400000 	ldr	w0, [x0]
   87f20:	11480000 	add	w0, w0, #0x200, lsl #12
   87f24:	2a0003e0 	mov	w0, w0
   87f28:	aa0003e1 	mov	x1, x0
   87f2c:	b9400fe0 	ldr	w0, [sp, #12]
   87f30:	53057c00 	lsr	w0, w0, #5
   87f34:	2a0003e0 	mov	w0, w0
   87f38:	91004000 	add	x0, x0, #0x10
   87f3c:	d37ef400 	lsl	x0, x0, #2
   87f40:	8b000020 	add	x0, x1, x0
   87f44:	b9401fe1 	ldr	w1, [sp, #28]
   87f48:	b9000c01 	str	w1, [x0, #12]
   87f4c:	14000021 	b	87fd0 <gpio_edgeDetect+0x140>
   87f50:	39402be0 	ldrb	w0, [sp, #10]
   87f54:	7100001f 	cmp	w0, #0x0
   87f58:	54000200 	b.eq	87f98 <gpio_edgeDetect+0x108>  // b.none
   87f5c:	d0000060 	adrp	x0, 95000 <BitFont+0xb40>
   87f60:	9129c000 	add	x0, x0, #0xa70
   87f64:	b9400000 	ldr	w0, [x0]
   87f68:	11480000 	add	w0, w0, #0x200, lsl #12
   87f6c:	2a0003e0 	mov	w0, w0
   87f70:	aa0003e1 	mov	x1, x0
   87f74:	b9400fe0 	ldr	w0, [sp, #12]
   87f78:	53057c00 	lsr	w0, w0, #5
   87f7c:	2a0003e0 	mov	w0, w0
   87f80:	91008000 	add	x0, x0, #0x20
   87f84:	d37ef400 	lsl	x0, x0, #2
   87f88:	8b000020 	add	x0, x1, x0
   87f8c:	b9401fe1 	ldr	w1, [sp, #28]
   87f90:	b9000801 	str	w1, [x0, #8]
   87f94:	1400000f 	b	87fd0 <gpio_edgeDetect+0x140>
   87f98:	d0000060 	adrp	x0, 95000 <BitFont+0xb40>
   87f9c:	9129c000 	add	x0, x0, #0xa70
   87fa0:	b9400000 	ldr	w0, [x0]
   87fa4:	11480000 	add	w0, w0, #0x200, lsl #12
   87fa8:	2a0003e0 	mov	w0, w0
   87fac:	aa0003e1 	mov	x1, x0
   87fb0:	b9400fe0 	ldr	w0, [sp, #12]
   87fb4:	53057c00 	lsr	w0, w0, #5
   87fb8:	2a0003e0 	mov	w0, w0
   87fbc:	91005000 	add	x0, x0, #0x14
   87fc0:	d37ef400 	lsl	x0, x0, #2
   87fc4:	8b000020 	add	x0, x1, x0
   87fc8:	b9401fe1 	ldr	w1, [sp, #28]
   87fcc:	b9000801 	str	w1, [x0, #8]
   87fd0:	52800020 	mov	w0, #0x1                   	// #1
   87fd4:	14000002 	b	87fdc <gpio_edgeDetect+0x14c>
   87fd8:	52800000 	mov	w0, #0x0                   	// #0
   87fdc:	910083ff 	add	sp, sp, #0x20
   87fe0:	d65f03c0 	ret

0000000000087fe4 <gpio_fixResistor>:
   87fe4:	f81d0ffe 	str	x30, [sp, #-48]!
   87fe8:	b9001fe0 	str	w0, [sp, #28]
   87fec:	b9001be1 	str	w1, [sp, #24]
   87ff0:	b9401fe0 	ldr	w0, [sp, #28]
   87ff4:	7100d81f 	cmp	w0, #0x36
   87ff8:	54000069 	b.ls	88004 <gpio_fixResistor+0x20>  // b.plast
   87ffc:	52800000 	mov	w0, #0x0                   	// #0
   88000:	14000047 	b	8811c <gpio_fixResistor+0x138>
   88004:	b9401be0 	ldr	w0, [sp, #24]
   88008:	7100081f 	cmp	w0, #0x2
   8800c:	54000069 	b.ls	88018 <gpio_fixResistor+0x34>  // b.plast
   88010:	52800000 	mov	w0, #0x0                   	// #0
   88014:	14000042 	b	8811c <gpio_fixResistor+0x138>
   88018:	b0000060 	adrp	x0, 95000 <BitFont+0xb40>
   8801c:	9129c000 	add	x0, x0, #0xa70
   88020:	b9400000 	ldr	w0, [x0]
   88024:	11480000 	add	w0, w0, #0x200, lsl #12
   88028:	2a0003e0 	mov	w0, w0
   8802c:	aa0003e1 	mov	x1, x0
   88030:	b9401be0 	ldr	w0, [sp, #24]
   88034:	b9009420 	str	w0, [x1, #148]
   88038:	9400003b 	bl	88124 <timer_getTickCount>
   8803c:	91000800 	add	x0, x0, #0x2
   88040:	f90017e0 	str	x0, [sp, #40]
   88044:	d503201f 	nop
   88048:	94000037 	bl	88124 <timer_getTickCount>
   8804c:	aa0003e1 	mov	x1, x0
   88050:	f94017e0 	ldr	x0, [sp, #40]
   88054:	eb01001f 	cmp	x0, x1
   88058:	54ffff88 	b.hi	88048 <gpio_fixResistor+0x64>  // b.pmore
   8805c:	b9401fe0 	ldr	w0, [sp, #28]
   88060:	12001000 	and	w0, w0, #0x1f
   88064:	52800021 	mov	w1, #0x1                   	// #1
   88068:	1ac02020 	lsl	w0, w1, w0
   8806c:	b90027e0 	str	w0, [sp, #36]
   88070:	b0000060 	adrp	x0, 95000 <BitFont+0xb40>
   88074:	9129c000 	add	x0, x0, #0xa70
   88078:	b9400000 	ldr	w0, [x0]
   8807c:	11480000 	add	w0, w0, #0x200, lsl #12
   88080:	2a0003e0 	mov	w0, w0
   88084:	aa0003e1 	mov	x1, x0
   88088:	b9401fe0 	ldr	w0, [sp, #28]
   8808c:	53057c00 	lsr	w0, w0, #5
   88090:	2a0003e0 	mov	w0, w0
   88094:	91009000 	add	x0, x0, #0x24
   88098:	d37ef400 	lsl	x0, x0, #2
   8809c:	8b000020 	add	x0, x1, x0
   880a0:	b94027e1 	ldr	w1, [sp, #36]
   880a4:	b9000801 	str	w1, [x0, #8]
   880a8:	9400001f 	bl	88124 <timer_getTickCount>
   880ac:	91000800 	add	x0, x0, #0x2
   880b0:	f90017e0 	str	x0, [sp, #40]
   880b4:	d503201f 	nop
   880b8:	9400001b 	bl	88124 <timer_getTickCount>
   880bc:	aa0003e1 	mov	x1, x0
   880c0:	f94017e0 	ldr	x0, [sp, #40]
   880c4:	eb01001f 	cmp	x0, x1
   880c8:	54ffff88 	b.hi	880b8 <gpio_fixResistor+0xd4>  // b.pmore
   880cc:	b0000060 	adrp	x0, 95000 <BitFont+0xb40>
   880d0:	9129c000 	add	x0, x0, #0xa70
   880d4:	b9400000 	ldr	w0, [x0]
   880d8:	11480000 	add	w0, w0, #0x200, lsl #12
   880dc:	2a0003e0 	mov	w0, w0
   880e0:	b900941f 	str	wzr, [x0, #148]
   880e4:	b0000060 	adrp	x0, 95000 <BitFont+0xb40>
   880e8:	9129c000 	add	x0, x0, #0xa70
   880ec:	b9400000 	ldr	w0, [x0]
   880f0:	11480000 	add	w0, w0, #0x200, lsl #12
   880f4:	2a0003e0 	mov	w0, w0
   880f8:	aa0003e1 	mov	x1, x0
   880fc:	b9401fe0 	ldr	w0, [sp, #28]
   88100:	53057c00 	lsr	w0, w0, #5
   88104:	2a0003e0 	mov	w0, w0
   88108:	91009000 	add	x0, x0, #0x24
   8810c:	d37ef400 	lsl	x0, x0, #2
   88110:	8b000020 	add	x0, x1, x0
   88114:	b900081f 	str	wzr, [x0, #8]
   88118:	52800020 	mov	w0, #0x1                   	// #1
   8811c:	f84307fe 	ldr	x30, [sp], #48
   88120:	d65f03c0 	ret

0000000000088124 <timer_getTickCount>:
   88124:	d10043ff 	sub	sp, sp, #0x10
   88128:	b0000060 	adrp	x0, 95000 <BitFont+0xb40>
   8812c:	9129c000 	add	x0, x0, #0xa70
   88130:	b9400000 	ldr	w0, [x0]
   88134:	11400c00 	add	w0, w0, #0x3, lsl #12
   88138:	2a0003e0 	mov	w0, w0
   8813c:	b9400800 	ldr	w0, [x0, #8]
   88140:	2a0003e0 	mov	w0, w0
   88144:	f90007e0 	str	x0, [sp, #8]
   88148:	b0000060 	adrp	x0, 95000 <BitFont+0xb40>
   8814c:	9129c000 	add	x0, x0, #0xa70
   88150:	b9400000 	ldr	w0, [x0]
   88154:	11400c00 	add	w0, w0, #0x3, lsl #12
   88158:	2a0003e0 	mov	w0, w0
   8815c:	b9400400 	ldr	w0, [x0, #4]
   88160:	b90007e0 	str	w0, [sp, #4]
   88164:	b0000060 	adrp	x0, 95000 <BitFont+0xb40>
   88168:	9129c000 	add	x0, x0, #0xa70
   8816c:	b9400000 	ldr	w0, [x0]
   88170:	11400c00 	add	w0, w0, #0x3, lsl #12
   88174:	2a0003e0 	mov	w0, w0
   88178:	b9400800 	ldr	w0, [x0, #8]
   8817c:	2a0003e0 	mov	w0, w0
   88180:	f94007e1 	ldr	x1, [sp, #8]
   88184:	eb00003f 	cmp	x1, x0
   88188:	54fffd01 	b.ne	88128 <timer_getTickCount+0x4>  // b.any
   8818c:	f94007e0 	ldr	x0, [sp, #8]
   88190:	d3607c01 	lsl	x1, x0, #32
   88194:	b94007e0 	ldr	w0, [sp, #4]
   88198:	aa000020 	orr	x0, x1, x0
   8819c:	f90007e0 	str	x0, [sp, #8]
   881a0:	f94007e0 	ldr	x0, [sp, #8]
   881a4:	d343fc01 	lsr	x1, x0, #3
   881a8:	d29ef9e0 	mov	x0, #0xf7cf                	// #63439
   881ac:	f2bc6a60 	movk	x0, #0xe353, lsl #16
   881b0:	f2d374a0 	movk	x0, #0x9ba5, lsl #32
   881b4:	f2e41880 	movk	x0, #0x20c4, lsl #48
   881b8:	9bc07c20 	umulh	x0, x1, x0
   881bc:	d344fc00 	lsr	x0, x0, #4
   881c0:	f90007e0 	str	x0, [sp, #8]
   881c4:	f94007e0 	ldr	x0, [sp, #8]
   881c8:	910043ff 	add	sp, sp, #0x10
   881cc:	d65f03c0 	ret

00000000000881d0 <timer_getTickCount64>:
   881d0:	d10043ff 	sub	sp, sp, #0x10
   881d4:	b0000060 	adrp	x0, 95000 <BitFont+0xb40>
   881d8:	9129c000 	add	x0, x0, #0xa70
   881dc:	b9400000 	ldr	w0, [x0]
   881e0:	11400c00 	add	w0, w0, #0x3, lsl #12
   881e4:	2a0003e0 	mov	w0, w0
   881e8:	b9400800 	ldr	w0, [x0, #8]
   881ec:	2a0003e0 	mov	w0, w0
   881f0:	f90007e0 	str	x0, [sp, #8]
   881f4:	b0000060 	adrp	x0, 95000 <BitFont+0xb40>
   881f8:	9129c000 	add	x0, x0, #0xa70
   881fc:	b9400000 	ldr	w0, [x0]
   88200:	11400c00 	add	w0, w0, #0x3, lsl #12
   88204:	2a0003e0 	mov	w0, w0
   88208:	b9400400 	ldr	w0, [x0, #4]
   8820c:	b90007e0 	str	w0, [sp, #4]
   88210:	b0000060 	adrp	x0, 95000 <BitFont+0xb40>
   88214:	9129c000 	add	x0, x0, #0xa70
   88218:	b9400000 	ldr	w0, [x0]
   8821c:	11400c00 	add	w0, w0, #0x3, lsl #12
   88220:	2a0003e0 	mov	w0, w0
   88224:	b9400800 	ldr	w0, [x0, #8]
   88228:	2a0003e0 	mov	w0, w0
   8822c:	f94007e1 	ldr	x1, [sp, #8]
   88230:	eb00003f 	cmp	x1, x0
   88234:	54fffd01 	b.ne	881d4 <timer_getTickCount64+0x4>  // b.any
   88238:	f94007e0 	ldr	x0, [sp, #8]
   8823c:	d3607c01 	lsl	x1, x0, #32
   88240:	b94007e0 	ldr	w0, [sp, #4]
   88244:	aa000020 	orr	x0, x1, x0
   88248:	f90007e0 	str	x0, [sp, #8]
   8824c:	f94007e0 	ldr	x0, [sp, #8]
   88250:	910043ff 	add	sp, sp, #0x10
   88254:	d65f03c0 	ret

0000000000088258 <timer_wait>:
   88258:	f81e0ffe 	str	x30, [sp, #-32]!
   8825c:	f9000fe0 	str	x0, [sp, #24]
   88260:	97ffffdc 	bl	881d0 <timer_getTickCount64>
   88264:	aa0003e1 	mov	x1, x0
   88268:	f9400fe0 	ldr	x0, [sp, #24]
   8826c:	8b010000 	add	x0, x0, x1
   88270:	f9000fe0 	str	x0, [sp, #24]
   88274:	d503201f 	nop
   88278:	97ffffd6 	bl	881d0 <timer_getTickCount64>
   8827c:	aa0003e1 	mov	x1, x0
   88280:	f9400fe0 	ldr	x0, [sp, #24]
   88284:	eb01001f 	cmp	x0, x1
   88288:	54ffff88 	b.hi	88278 <timer_wait+0x20>  // b.pmore
   8828c:	d503201f 	nop
   88290:	f84207fe 	ldr	x30, [sp], #32
   88294:	d65f03c0 	ret

0000000000088298 <tick_difference>:
   88298:	d10083ff 	sub	sp, sp, #0x20
   8829c:	f90007e0 	str	x0, [sp, #8]
   882a0:	f90003e1 	str	x1, [sp]
   882a4:	f94007e1 	ldr	x1, [sp, #8]
   882a8:	f94003e0 	ldr	x0, [sp]
   882ac:	eb00003f 	cmp	x1, x0
   882b0:	54000109 	b.ls	882d0 <tick_difference+0x38>  // b.plast
   882b4:	f94007e0 	ldr	x0, [sp, #8]
   882b8:	cb0003e0 	neg	x0, x0
   882bc:	f9000fe0 	str	x0, [sp, #24]
   882c0:	f94003e1 	ldr	x1, [sp]
   882c4:	f9400fe0 	ldr	x0, [sp, #24]
   882c8:	8b000020 	add	x0, x1, x0
   882cc:	14000004 	b	882dc <tick_difference+0x44>
   882d0:	f94003e1 	ldr	x1, [sp]
   882d4:	f94007e0 	ldr	x0, [sp, #8]
   882d8:	cb000020 	sub	x0, x1, x0
   882dc:	910083ff 	add	sp, sp, #0x20
   882e0:	d65f03c0 	ret

00000000000882e4 <mailbox_write>:
   882e4:	d10083ff 	sub	sp, sp, #0x20
   882e8:	b9000fe0 	str	w0, [sp, #12]
   882ec:	b9000be1 	str	w1, [sp, #8]
   882f0:	b9400fe0 	ldr	w0, [sp, #12]
   882f4:	7100241f 	cmp	w0, #0x9
   882f8:	54000069 	b.ls	88304 <mailbox_write+0x20>  // b.plast
   882fc:	52800000 	mov	w0, #0x0                   	// #0
   88300:	1400001d 	b	88374 <mailbox_write+0x90>
   88304:	b9400be0 	ldr	w0, [sp, #8]
   88308:	121c6c00 	and	w0, w0, #0xfffffff0
   8830c:	b9000be0 	str	w0, [sp, #8]
   88310:	b9400be1 	ldr	w1, [sp, #8]
   88314:	b9400fe0 	ldr	w0, [sp, #12]
   88318:	2a000020 	orr	w0, w1, w0
   8831c:	b9000be0 	str	w0, [sp, #8]
   88320:	b0000060 	adrp	x0, 95000 <BitFont+0xb40>
   88324:	9129c000 	add	x0, x0, #0xa70
   88328:	b9400001 	ldr	w1, [x0]
   8832c:	52971000 	mov	w0, #0xb880                	// #47232
   88330:	0b000020 	add	w0, w1, w0
   88334:	2a0003e0 	mov	w0, w0
   88338:	b9403800 	ldr	w0, [x0, #56]
   8833c:	b9001fe0 	str	w0, [sp, #28]
   88340:	b9401fe0 	ldr	w0, [sp, #28]
   88344:	7100001f 	cmp	w0, #0x0
   88348:	54fffecb 	b.lt	88320 <mailbox_write+0x3c>  // b.tstop
   8834c:	b0000060 	adrp	x0, 95000 <BitFont+0xb40>
   88350:	9129c000 	add	x0, x0, #0xa70
   88354:	b9400001 	ldr	w1, [x0]
   88358:	52971000 	mov	w0, #0xb880                	// #47232
   8835c:	0b000020 	add	w0, w1, w0
   88360:	2a0003e0 	mov	w0, w0
   88364:	aa0003e1 	mov	x1, x0
   88368:	b9400be0 	ldr	w0, [sp, #8]
   8836c:	b9002020 	str	w0, [x1, #32]
   88370:	52800020 	mov	w0, #0x1                   	// #1
   88374:	910083ff 	add	sp, sp, #0x20
   88378:	d65f03c0 	ret

000000000008837c <mailbox_read>:
   8837c:	d10083ff 	sub	sp, sp, #0x20
   88380:	b9000fe0 	str	w0, [sp, #12]
   88384:	b9400fe0 	ldr	w0, [sp, #12]
   88388:	7100241f 	cmp	w0, #0x9
   8838c:	54000089 	b.ls	8839c <mailbox_read+0x20>  // b.plast
   88390:	529bd5a0 	mov	w0, #0xdead                	// #57005
   88394:	72bfdda0 	movk	w0, #0xfeed, lsl #16
   88398:	1400001e 	b	88410 <mailbox_read+0x94>
   8839c:	b0000060 	adrp	x0, 95000 <BitFont+0xb40>
   883a0:	9129c000 	add	x0, x0, #0xa70
   883a4:	b9400001 	ldr	w1, [x0]
   883a8:	52971000 	mov	w0, #0xb880                	// #47232
   883ac:	0b000020 	add	w0, w1, w0
   883b0:	2a0003e0 	mov	w0, w0
   883b4:	b9401800 	ldr	w0, [x0, #24]
   883b8:	b9001fe0 	str	w0, [sp, #28]
   883bc:	b9401fe0 	ldr	w0, [sp, #28]
   883c0:	12020000 	and	w0, w0, #0x40000000
   883c4:	7100001f 	cmp	w0, #0x0
   883c8:	54fffea1 	b.ne	8839c <mailbox_read+0x20>  // b.any
   883cc:	b0000060 	adrp	x0, 95000 <BitFont+0xb40>
   883d0:	9129c000 	add	x0, x0, #0xa70
   883d4:	b9400001 	ldr	w1, [x0]
   883d8:	52971000 	mov	w0, #0xb880                	// #47232
   883dc:	0b000020 	add	w0, w1, w0
   883e0:	2a0003e0 	mov	w0, w0
   883e4:	b9400000 	ldr	w0, [x0]
   883e8:	b9001fe0 	str	w0, [sp, #28]
   883ec:	b9401fe0 	ldr	w0, [sp, #28]
   883f0:	12000c00 	and	w0, w0, #0xf
   883f4:	b9400fe1 	ldr	w1, [sp, #12]
   883f8:	6b00003f 	cmp	w1, w0
   883fc:	54fffd01 	b.ne	8839c <mailbox_read+0x20>  // b.any
   88400:	b9401fe0 	ldr	w0, [sp, #28]
   88404:	121c6c00 	and	w0, w0, #0xfffffff0
   88408:	b9001fe0 	str	w0, [sp, #28]
   8840c:	b9401fe0 	ldr	w0, [sp, #28]
   88410:	910083ff 	add	sp, sp, #0x20
   88414:	d65f03c0 	ret

0000000000088418 <mailbox_tag_message>:
   88418:	d10603ff 	sub	sp, sp, #0x180
   8841c:	f90003fe 	str	x30, [sp]
   88420:	f9000fe0 	str	x0, [sp, #24]
   88424:	39005fe1 	strb	w1, [sp, #23]
   88428:	f900abe2 	str	x2, [sp, #336]
   8842c:	f900afe3 	str	x3, [sp, #344]
   88430:	f900b3e4 	str	x4, [sp, #352]
   88434:	f900b7e5 	str	x5, [sp, #360]
   88438:	f900bbe6 	str	x6, [sp, #368]
   8843c:	f900bfe7 	str	x7, [sp, #376]
   88440:	3d8037e0 	str	q0, [sp, #208]
   88444:	3d803be1 	str	q1, [sp, #224]
   88448:	3d803fe2 	str	q2, [sp, #240]
   8844c:	3d8043e3 	str	q3, [sp, #256]
   88450:	3d8047e4 	str	q4, [sp, #272]
   88454:	3d804be5 	str	q5, [sp, #288]
   88458:	3d804fe6 	str	q6, [sp, #304]
   8845c:	3d8053e7 	str	q7, [sp, #320]
   88460:	910603e0 	add	x0, sp, #0x180
   88464:	f90013e0 	str	x0, [sp, #32]
   88468:	910603e0 	add	x0, sp, #0x180
   8846c:	f90017e0 	str	x0, [sp, #40]
   88470:	910543e0 	add	x0, sp, #0x150
   88474:	f9001be0 	str	x0, [sp, #48]
   88478:	128005e0 	mov	w0, #0xffffffd0            	// #-48
   8847c:	b9003be0 	str	w0, [sp, #56]
   88480:	12800fe0 	mov	w0, #0xffffff80            	// #-128
   88484:	b9003fe0 	str	w0, [sp, #60]
   88488:	39405fe0 	ldrb	w0, [sp, #23]
   8848c:	11000c00 	add	w0, w0, #0x3
   88490:	531e7400 	lsl	w0, w0, #2
   88494:	b90043e0 	str	w0, [sp, #64]
   88498:	39405fe0 	ldrb	w0, [sp, #23]
   8849c:	11000800 	add	w0, w0, #0x2
   884a0:	93407c00 	sxtw	x0, w0
   884a4:	d37ef400 	lsl	x0, x0, #2
   884a8:	910103e1 	add	x1, sp, #0x40
   884ac:	b820683f 	str	wzr, [x1, x0]
   884b0:	b90047ff 	str	wzr, [sp, #68]
   884b4:	b900cfff 	str	wzr, [sp, #204]
   884b8:	14000023 	b	88544 <mailbox_tag_message+0x12c>
   884bc:	b940cfe0 	ldr	w0, [sp, #204]
   884c0:	11000803 	add	w3, w0, #0x2
   884c4:	b9403be0 	ldr	w0, [sp, #56]
   884c8:	f94013e1 	ldr	x1, [sp, #32]
   884cc:	7100001f 	cmp	w0, #0x0
   884d0:	540000eb 	b.lt	884ec <mailbox_tag_message+0xd4>  // b.tstop
   884d4:	aa0103e0 	mov	x0, x1
   884d8:	91002c00 	add	x0, x0, #0xb
   884dc:	927df000 	and	x0, x0, #0xfffffffffffffff8
   884e0:	f90013e0 	str	x0, [sp, #32]
   884e4:	aa0103e0 	mov	x0, x1
   884e8:	1400000f 	b	88524 <mailbox_tag_message+0x10c>
   884ec:	11002002 	add	w2, w0, #0x8
   884f0:	b9003be2 	str	w2, [sp, #56]
   884f4:	b9403be2 	ldr	w2, [sp, #56]
   884f8:	7100005f 	cmp	w2, #0x0
   884fc:	540000ed 	b.le	88518 <mailbox_tag_message+0x100>
   88500:	aa0103e0 	mov	x0, x1
   88504:	91002c00 	add	x0, x0, #0xb
   88508:	927df000 	and	x0, x0, #0xfffffffffffffff8
   8850c:	f90013e0 	str	x0, [sp, #32]
   88510:	aa0103e0 	mov	x0, x1
   88514:	14000004 	b	88524 <mailbox_tag_message+0x10c>
   88518:	f94017e1 	ldr	x1, [sp, #40]
   8851c:	93407c00 	sxtw	x0, w0
   88520:	8b000020 	add	x0, x1, x0
   88524:	b9400002 	ldr	w2, [x0]
   88528:	93407c60 	sxtw	x0, w3
   8852c:	d37ef400 	lsl	x0, x0, #2
   88530:	910103e1 	add	x1, sp, #0x40
   88534:	b8206822 	str	w2, [x1, x0]
   88538:	b940cfe0 	ldr	w0, [sp, #204]
   8853c:	11000400 	add	w0, w0, #0x1
   88540:	b900cfe0 	str	w0, [sp, #204]
   88544:	39405fe0 	ldrb	w0, [sp, #23]
   88548:	b940cfe1 	ldr	w1, [sp, #204]
   8854c:	6b00003f 	cmp	w1, w0
   88550:	54fffb6b 	b.lt	884bc <mailbox_tag_message+0xa4>  // b.tstop
   88554:	910103e0 	add	x0, sp, #0x40
   88558:	97ffe0b2 	bl	80820 <ARMaddrToGPUaddr>
   8855c:	2a0003e1 	mov	w1, w0
   88560:	52800100 	mov	w0, #0x8                   	// #8
   88564:	97ffff60 	bl	882e4 <mailbox_write>
   88568:	52800100 	mov	w0, #0x8                   	// #8
   8856c:	97ffff84 	bl	8837c <mailbox_read>
   88570:	b94047e1 	ldr	w1, [sp, #68]
   88574:	52b00000 	mov	w0, #0x80000000            	// #-2147483648
   88578:	6b00003f 	cmp	w1, w0
   8857c:	54000341 	b.ne	885e4 <mailbox_tag_message+0x1cc>  // b.any
   88580:	f9400fe0 	ldr	x0, [sp, #24]
   88584:	f100001f 	cmp	x0, #0x0
   88588:	540002a0 	b.eq	885dc <mailbox_tag_message+0x1c4>  // b.none
   8858c:	b900cbff 	str	wzr, [sp, #200]
   88590:	1400000f 	b	885cc <mailbox_tag_message+0x1b4>
   88594:	b940cbe0 	ldr	w0, [sp, #200]
   88598:	11000802 	add	w2, w0, #0x2
   8859c:	b980cbe0 	ldrsw	x0, [sp, #200]
   885a0:	d37ef400 	lsl	x0, x0, #2
   885a4:	f9400fe1 	ldr	x1, [sp, #24]
   885a8:	8b000020 	add	x0, x1, x0
   885ac:	93407c41 	sxtw	x1, w2
   885b0:	d37ef421 	lsl	x1, x1, #2
   885b4:	910103e2 	add	x2, sp, #0x40
   885b8:	b8616841 	ldr	w1, [x2, x1]
   885bc:	b9000001 	str	w1, [x0]
   885c0:	b940cbe0 	ldr	w0, [sp, #200]
   885c4:	11000400 	add	w0, w0, #0x1
   885c8:	b900cbe0 	str	w0, [sp, #200]
   885cc:	39405fe0 	ldrb	w0, [sp, #23]
   885d0:	b940cbe1 	ldr	w1, [sp, #200]
   885d4:	6b00003f 	cmp	w1, w0
   885d8:	54fffdeb 	b.lt	88594 <mailbox_tag_message+0x17c>  // b.tstop
   885dc:	52800020 	mov	w0, #0x1                   	// #1
   885e0:	14000002 	b	885e8 <mailbox_tag_message+0x1d0>
   885e4:	52800000 	mov	w0, #0x0                   	// #0
   885e8:	f94003fe 	ldr	x30, [sp]
   885ec:	910603ff 	add	sp, sp, #0x180
   885f0:	d65f03c0 	ret

00000000000885f4 <TimerIrqSetup>:
   885f4:	f81b0ffe 	str	x30, [sp, #-80]!
   885f8:	b9001fe0 	str	w0, [sp, #28]
   885fc:	f9000be1 	str	x1, [sp, #16]
   88600:	f90017ff 	str	xzr, [sp, #40]
   88604:	f9001bff 	str	xzr, [sp, #48]
   88608:	b9003bff 	str	wzr, [sp, #56]
   8860c:	b0000060 	adrp	x0, 95000 <BitFont+0xb40>
   88610:	9129c000 	add	x0, x0, #0xa70
   88614:	b9400001 	ldr	w1, [x0]
   88618:	52968000 	mov	w0, #0xb400                	// #46080
   8861c:	0b000020 	add	w0, w1, w0
   88620:	2a0003e0 	mov	w0, w0
   88624:	aa0003e1 	mov	x1, x0
   88628:	b9400820 	ldr	w0, [x1, #8]
   8862c:	12187800 	and	w0, w0, #0xffffff7f
   88630:	b9000820 	str	w0, [x1, #8]
   88634:	b9403be1 	ldr	w1, [sp, #56]
   88638:	9100a3e0 	add	x0, sp, #0x28
   8863c:	2a0103e6 	mov	w6, w1
   88640:	52800085 	mov	w5, #0x4                   	// #4
   88644:	52800104 	mov	w4, #0x8                   	// #8
   88648:	52800103 	mov	w3, #0x8                   	// #8
   8864c:	52800042 	mov	w2, #0x2                   	// #2
   88650:	72a00062 	movk	w2, #0x3, lsl #16
   88654:	528000a1 	mov	w1, #0x5                   	// #5
   88658:	97ffff70 	bl	88418 <mailbox_tag_message>
   8865c:	b9403be1 	ldr	w1, [sp, #56]
   88660:	5289ba60 	mov	w0, #0x4dd3                	// #19923
   88664:	72a20c40 	movk	w0, #0x1062, lsl #16
   88668:	9ba07c20 	umull	x0, w1, w0
   8866c:	d360fc00 	lsr	x0, x0, #32
   88670:	53047c00 	lsr	w0, w0, #4
   88674:	b9003be0 	str	w0, [sp, #56]
   88678:	b9401fe1 	ldr	w1, [sp, #28]
   8867c:	b9403be0 	ldr	w0, [sp, #56]
   88680:	2a0003e0 	mov	w0, w0
   88684:	9b007c21 	mul	x1, x1, x0
   88688:	d2869b60 	mov	x0, #0x34db                	// #13531
   8868c:	f2baf6c0 	movk	x0, #0xd7b6, lsl #16
   88690:	f2dbd040 	movk	x0, #0xde82, lsl #32
   88694:	f2e86360 	movk	x0, #0x431b, lsl #48
   88698:	9bc07c20 	umulh	x0, x1, x0
   8869c:	d352fc00 	lsr	x0, x0, #18
   886a0:	b9004fe0 	str	w0, [sp, #76]
   886a4:	f9400be0 	ldr	x0, [sp, #16]
   886a8:	97ffe056 	bl	80800 <setTimerIrqAddress>
   886ac:	f90023e0 	str	x0, [sp, #64]
   886b0:	b0000060 	adrp	x0, 95000 <BitFont+0xb40>
   886b4:	9129c000 	add	x0, x0, #0xa70
   886b8:	b9400001 	ldr	w1, [x0]
   886bc:	52964000 	mov	w0, #0xb200                	// #45568
   886c0:	0b000020 	add	w0, w1, w0
   886c4:	2a0003e0 	mov	w0, w0
   886c8:	aa0003e1 	mov	x1, x0
   886cc:	b9401820 	ldr	w0, [x1, #24]
   886d0:	32000000 	orr	w0, w0, #0x1
   886d4:	b9001820 	str	w0, [x1, #24]
   886d8:	b0000060 	adrp	x0, 95000 <BitFont+0xb40>
   886dc:	9129c000 	add	x0, x0, #0xa70
   886e0:	b9400001 	ldr	w1, [x0]
   886e4:	52968000 	mov	w0, #0xb400                	// #46080
   886e8:	0b000020 	add	w0, w1, w0
   886ec:	2a0003e0 	mov	w0, w0
   886f0:	aa0003e1 	mov	x1, x0
   886f4:	b9404fe0 	ldr	w0, [sp, #76]
   886f8:	b9000020 	str	w0, [x1]
   886fc:	b0000060 	adrp	x0, 95000 <BitFont+0xb40>
   88700:	9129c000 	add	x0, x0, #0xa70
   88704:	b9400001 	ldr	w1, [x0]
   88708:	52968000 	mov	w0, #0xb400                	// #46080
   8870c:	0b000020 	add	w0, w1, w0
   88710:	2a0003e0 	mov	w0, w0
   88714:	aa0003e1 	mov	x1, x0
   88718:	b9400820 	ldr	w0, [x1, #8]
   8871c:	321f0000 	orr	w0, w0, #0x2
   88720:	b9000820 	str	w0, [x1, #8]
   88724:	b0000060 	adrp	x0, 95000 <BitFont+0xb40>
   88728:	9129c000 	add	x0, x0, #0xa70
   8872c:	b9400001 	ldr	w1, [x0]
   88730:	52968000 	mov	w0, #0xb400                	// #46080
   88734:	0b000020 	add	w0, w1, w0
   88738:	2a0003e0 	mov	w0, w0
   8873c:	aa0003e1 	mov	x1, x0
   88740:	b9400820 	ldr	w0, [x1, #8]
   88744:	121c7400 	and	w0, w0, #0xfffffff3
   88748:	b9000820 	str	w0, [x1, #8]
   8874c:	b0000060 	adrp	x0, 95000 <BitFont+0xb40>
   88750:	9129c000 	add	x0, x0, #0xa70
   88754:	b9400001 	ldr	w1, [x0]
   88758:	52968000 	mov	w0, #0xb400                	// #46080
   8875c:	0b000020 	add	w0, w1, w0
   88760:	2a0003e0 	mov	w0, w0
   88764:	aa0003e1 	mov	x1, x0
   88768:	b9400820 	ldr	w0, [x1, #8]
   8876c:	321b0000 	orr	w0, w0, #0x20
   88770:	b9000820 	str	w0, [x1, #8]
   88774:	b0000060 	adrp	x0, 95000 <BitFont+0xb40>
   88778:	9129c000 	add	x0, x0, #0xa70
   8877c:	b9400001 	ldr	w1, [x0]
   88780:	52968000 	mov	w0, #0xb400                	// #46080
   88784:	0b000020 	add	w0, w1, w0
   88788:	2a0003e0 	mov	w0, w0
   8878c:	aa0003e1 	mov	x1, x0
   88790:	b9400820 	ldr	w0, [x1, #8]
   88794:	32190000 	orr	w0, w0, #0x80
   88798:	b9000820 	str	w0, [x1, #8]
   8879c:	f94023e0 	ldr	x0, [sp, #64]
   887a0:	f84507fe 	ldr	x30, [sp], #80
   887a4:	d65f03c0 	ret

00000000000887a8 <set_Activity_LED>:
   887a8:	f81d0ffe 	str	x30, [sp, #-48]!
   887ac:	39007fe0 	strb	w0, [sp, #31]
   887b0:	f00000a0 	adrp	x0, 9f000 <console>
   887b4:	9101d000 	add	x0, x0, #0x74
   887b8:	39400000 	ldrb	w0, [x0]
   887bc:	52000000 	eor	w0, w0, #0x1
   887c0:	12001c00 	and	w0, w0, #0xff
   887c4:	7100001f 	cmp	w0, #0x0
   887c8:	54000aa0 	b.eq	8891c <set_Activity_LED+0x174>  // b.none
   887cc:	f00000a0 	adrp	x0, 9f000 <console>
   887d0:	9101d000 	add	x0, x0, #0x74
   887d4:	52800021 	mov	w1, #0x1                   	// #1
   887d8:	39000001 	strb	w1, [x0]
   887dc:	910083e0 	add	x0, sp, #0x20
   887e0:	52800005 	mov	w5, #0x0                   	// #0
   887e4:	52800004 	mov	w4, #0x0                   	// #0
   887e8:	52800083 	mov	w3, #0x4                   	// #4
   887ec:	52800042 	mov	w2, #0x2                   	// #2
   887f0:	72a00022 	movk	w2, #0x1, lsl #16
   887f4:	52800081 	mov	w1, #0x4                   	// #4
   887f8:	97ffff08 	bl	88418 <mailbox_tag_message>
   887fc:	12001c00 	and	w0, w0, #0xff
   88800:	7100001f 	cmp	w0, #0x0
   88804:	54000880 	b.eq	88914 <set_Activity_LED+0x16c>  // b.none
   88808:	b9402fe0 	ldr	w0, [sp, #44]
   8880c:	12005c00 	and	w0, w0, #0xffffff
   88810:	b9002fe0 	str	w0, [sp, #44]
   88814:	b9402fe0 	ldr	w0, [sp, #44]
   88818:	7100041f 	cmp	w0, #0x1
   8881c:	54000189 	b.ls	8884c <set_Activity_LED+0xa4>  // b.plast
   88820:	b9402fe0 	ldr	w0, [sp, #44]
   88824:	71003c1f 	cmp	w0, #0xf
   88828:	54000128 	b.hi	8884c <set_Activity_LED+0xa4>  // b.pmore
   8882c:	b0000060 	adrp	x0, 95000 <BitFont+0xb40>
   88830:	912d6000 	add	x0, x0, #0xb58
   88834:	52800201 	mov	w1, #0x10                  	// #16
   88838:	b9000001 	str	w1, [x0]
   8883c:	f00000a0 	adrp	x0, 9f000 <console>
   88840:	9101d400 	add	x0, x0, #0x75
   88844:	3900001f 	strb	wzr, [x0]
   88848:	14000035 	b	8891c <set_Activity_LED+0x174>
   8884c:	b9402fe1 	ldr	w1, [sp, #44]
   88850:	52841020 	mov	w0, #0x2081                	// #8321
   88854:	72a01400 	movk	w0, #0xa0, lsl #16
   88858:	6b00003f 	cmp	w1, w0
   8885c:	54000128 	b.hi	88880 <set_Activity_LED+0xd8>  // b.pmore
   88860:	b0000060 	adrp	x0, 95000 <BitFont+0xb40>
   88864:	912d6000 	add	x0, x0, #0xb58
   88868:	528005e1 	mov	w1, #0x2f                  	// #47
   8886c:	b9000001 	str	w1, [x0]
   88870:	f00000a0 	adrp	x0, 9f000 <console>
   88874:	9101d400 	add	x0, x0, #0x75
   88878:	3900001f 	strb	wzr, [x0]
   8887c:	14000028 	b	8891c <set_Activity_LED+0x174>
   88880:	b9402fe1 	ldr	w1, [sp, #44]
   88884:	52841040 	mov	w0, #0x2082                	// #8322
   88888:	72a01400 	movk	w0, #0xa0, lsl #16
   8888c:	6b00003f 	cmp	w1, w0
   88890:	54000200 	b.eq	888d0 <set_Activity_LED+0x128>  // b.none
   88894:	b9402fe1 	ldr	w1, [sp, #44]
   88898:	52841400 	mov	w0, #0x20a0                	// #8352
   8889c:	72a01400 	movk	w0, #0xa0, lsl #16
   888a0:	6b00003f 	cmp	w1, w0
   888a4:	54000160 	b.eq	888d0 <set_Activity_LED+0x128>  // b.none
   888a8:	b9402fe1 	ldr	w1, [sp, #44]
   888ac:	52841040 	mov	w0, #0x2082                	// #8322
   888b0:	72a01440 	movk	w0, #0xa2, lsl #16
   888b4:	6b00003f 	cmp	w1, w0
   888b8:	540000c0 	b.eq	888d0 <set_Activity_LED+0x128>  // b.none
   888bc:	b9402fe1 	ldr	w1, [sp, #44]
   888c0:	52841040 	mov	w0, #0x2082                	// #8322
   888c4:	72a01460 	movk	w0, #0xa3, lsl #16
   888c8:	6b00003f 	cmp	w1, w0
   888cc:	54000141 	b.ne	888f4 <set_Activity_LED+0x14c>  // b.any
   888d0:	b0000060 	adrp	x0, 95000 <BitFont+0xb40>
   888d4:	912d6000 	add	x0, x0, #0xb58
   888d8:	52801041 	mov	w1, #0x82                  	// #130
   888dc:	b9000001 	str	w1, [x0]
   888e0:	f00000a0 	adrp	x0, 9f000 <console>
   888e4:	9101d400 	add	x0, x0, #0x75
   888e8:	52800021 	mov	w1, #0x1                   	// #1
   888ec:	39000001 	strb	w1, [x0]
   888f0:	1400000b 	b	8891c <set_Activity_LED+0x174>
   888f4:	b0000060 	adrp	x0, 95000 <BitFont+0xb40>
   888f8:	912d6000 	add	x0, x0, #0xb58
   888fc:	528003a1 	mov	w1, #0x1d                  	// #29
   88900:	b9000001 	str	w1, [x0]
   88904:	f00000a0 	adrp	x0, 9f000 <console>
   88908:	9101d400 	add	x0, x0, #0x75
   8890c:	3900001f 	strb	wzr, [x0]
   88910:	14000003 	b	8891c <set_Activity_LED+0x174>
   88914:	52800000 	mov	w0, #0x0                   	// #0
   88918:	1400001b 	b	88984 <set_Activity_LED+0x1dc>
   8891c:	f00000a0 	adrp	x0, 9f000 <console>
   88920:	9101d400 	add	x0, x0, #0x75
   88924:	39400000 	ldrb	w0, [x0]
   88928:	7100001f 	cmp	w0, #0x0
   8892c:	54000200 	b.eq	8896c <set_Activity_LED+0x1c4>  // b.none
   88930:	b0000060 	adrp	x0, 95000 <BitFont+0xb40>
   88934:	912d6000 	add	x0, x0, #0xb58
   88938:	b9400000 	ldr	w0, [x0]
   8893c:	39407fe1 	ldrb	w1, [sp, #31]
   88940:	2a0103e6 	mov	w6, w1
   88944:	2a0003e5 	mov	w5, w0
   88948:	52800104 	mov	w4, #0x8                   	// #8
   8894c:	52800103 	mov	w3, #0x8                   	// #8
   88950:	52900822 	mov	w2, #0x8041                	// #32833
   88954:	72a00062 	movk	w2, #0x3, lsl #16
   88958:	528000a1 	mov	w1, #0x5                   	// #5
   8895c:	d2800000 	mov	x0, #0x0                   	// #0
   88960:	97fffeae 	bl	88418 <mailbox_tag_message>
   88964:	12001c00 	and	w0, w0, #0xff
   88968:	14000007 	b	88984 <set_Activity_LED+0x1dc>
   8896c:	b0000060 	adrp	x0, 95000 <BitFont+0xb40>
   88970:	912d6000 	add	x0, x0, #0xb58
   88974:	b9400000 	ldr	w0, [x0]
   88978:	39407fe1 	ldrb	w1, [sp, #31]
   8897c:	97fffcb6 	bl	87c54 <gpio_output>
   88980:	52800020 	mov	w0, #0x1                   	// #1
   88984:	f84307fe 	ldr	x30, [sp], #48
   88988:	d65f03c0 	ret

000000000008898c <ARM_setmaxspeed>:
   8898c:	f81c0ffe 	str	x30, [sp, #-64]!
   88990:	f9000fe0 	str	x0, [sp, #24]
   88994:	f90017ff 	str	xzr, [sp, #40]
   88998:	f9001bff 	str	xzr, [sp, #48]
   8899c:	b9003bff 	str	wzr, [sp, #56]
   889a0:	9100a3e0 	add	x0, sp, #0x28
   889a4:	52800006 	mov	w6, #0x0                   	// #0
   889a8:	52800065 	mov	w5, #0x3                   	// #3
   889ac:	52800104 	mov	w4, #0x8                   	// #8
   889b0:	52800103 	mov	w3, #0x8                   	// #8
   889b4:	52800082 	mov	w2, #0x4                   	// #4
   889b8:	72a00062 	movk	w2, #0x3, lsl #16
   889bc:	528000a1 	mov	w1, #0x5                   	// #5
   889c0:	97fffe96 	bl	88418 <mailbox_tag_message>
   889c4:	12001c00 	and	w0, w0, #0xff
   889c8:	7100001f 	cmp	w0, #0x0
   889cc:	54000320 	b.eq	88a30 <ARM_setmaxspeed+0xa4>  // b.none
   889d0:	b9403be1 	ldr	w1, [sp, #56]
   889d4:	9100a3e0 	add	x0, sp, #0x28
   889d8:	2a0103e6 	mov	w6, w1
   889dc:	52800065 	mov	w5, #0x3                   	// #3
   889e0:	52800104 	mov	w4, #0x8                   	// #8
   889e4:	52800103 	mov	w3, #0x8                   	// #8
   889e8:	52900042 	mov	w2, #0x8002                	// #32770
   889ec:	72a00062 	movk	w2, #0x3, lsl #16
   889f0:	528000a1 	mov	w1, #0x5                   	// #5
   889f4:	97fffe89 	bl	88418 <mailbox_tag_message>
   889f8:	12001c00 	and	w0, w0, #0xff
   889fc:	7100001f 	cmp	w0, #0x0
   88a00:	54000180 	b.eq	88a30 <ARM_setmaxspeed+0xa4>  // b.none
   88a04:	f9400fe0 	ldr	x0, [sp, #24]
   88a08:	f100001f 	cmp	x0, #0x0
   88a0c:	540000e0 	b.eq	88a28 <ARM_setmaxspeed+0x9c>  // b.none
   88a10:	b9403be0 	ldr	w0, [sp, #56]
   88a14:	f9400fe2 	ldr	x2, [sp, #24]
   88a18:	2a0003e1 	mov	w1, w0
   88a1c:	b0000060 	adrp	x0, 95000 <BitFont+0xb40>
   88a20:	91142000 	add	x0, x0, #0x508
   88a24:	d63f0040 	blr	x2
   88a28:	52800020 	mov	w0, #0x1                   	// #1
   88a2c:	14000002 	b	88a34 <ARM_setmaxspeed+0xa8>
   88a30:	52800000 	mov	w0, #0x0                   	// #0
   88a34:	f84407fe 	ldr	x30, [sp], #64
   88a38:	d65f03c0 	ret

0000000000088a3c <displaySmartStart>:
   88a3c:	f81e0ffe 	str	x30, [sp, #-32]!
   88a40:	f9000fe0 	str	x0, [sp, #24]
   88a44:	f9400fe0 	ldr	x0, [sp, #24]
   88a48:	f100001f 	cmp	x0, #0x0
   88a4c:	54000540 	b.eq	88af4 <displaySmartStart+0xb8>  // b.none
   88a50:	b0000060 	adrp	x0, 95000 <BitFont+0xb40>
   88a54:	912a1000 	add	x0, x0, #0xa84
   88a58:	39400000 	ldrb	w0, [x0]
   88a5c:	d3400c00 	ubfx	x0, x0, #0, #4
   88a60:	12001c00 	and	w0, w0, #0xff
   88a64:	2a0003e5 	mov	w5, w0
   88a68:	b0000060 	adrp	x0, 95000 <BitFont+0xb40>
   88a6c:	912a1000 	add	x0, x0, #0xa84
   88a70:	39400000 	ldrb	w0, [x0]
   88a74:	d3441000 	ubfx	x0, x0, #4, #1
   88a78:	12001c00 	and	w0, w0, #0xff
   88a7c:	11000400 	add	w0, w0, #0x1
   88a80:	531b6801 	lsl	w1, w0, #5
   88a84:	b0000060 	adrp	x0, 95000 <BitFont+0xb40>
   88a88:	912a1000 	add	x0, x0, #0xa84
   88a8c:	39400000 	ldrb	w0, [x0]
   88a90:	d3451c00 	ubfx	x0, x0, #5, #3
   88a94:	12001c00 	and	w0, w0, #0xff
   88a98:	f9400fe4 	ldr	x4, [sp, #24]
   88a9c:	2a0003e3 	mov	w3, w0
   88aa0:	2a0103e2 	mov	w2, w1
   88aa4:	2a0503e1 	mov	w1, w5
   88aa8:	b0000060 	adrp	x0, 95000 <BitFont+0xb40>
   88aac:	9114a000 	add	x0, x0, #0x528
   88ab0:	d63f0080 	blr	x4
   88ab4:	97fffc02 	bl	87abc <RPi_CpuIdString>
   88ab8:	aa0003e1 	mov	x1, x0
   88abc:	b0000060 	adrp	x0, 95000 <BitFont+0xb40>
   88ac0:	912a0000 	add	x0, x0, #0xa80
   88ac4:	79400000 	ldrh	w0, [x0]
   88ac8:	d3443c00 	ubfx	x0, x0, #4, #12
   88acc:	12003c00 	and	w0, w0, #0xffff
   88ad0:	2a0003e2 	mov	w2, w0
   88ad4:	b0000060 	adrp	x0, 95000 <BitFont+0xb40>
   88ad8:	9129e000 	add	x0, x0, #0xa78
   88adc:	b9400000 	ldr	w0, [x0]
   88ae0:	f9400fe4 	ldr	x4, [sp, #24]
   88ae4:	2a0003e3 	mov	w3, w0
   88ae8:	b0000060 	adrp	x0, 95000 <BitFont+0xb40>
   88aec:	9115c000 	add	x0, x0, #0x570
   88af0:	d63f0080 	blr	x4
   88af4:	d503201f 	nop
   88af8:	f84207fe 	ldr	x30, [sp], #32
   88afc:	d65f03c0 	ret

0000000000088b00 <miniuart_init>:
   88b00:	f81c0ffe 	str	x30, [sp, #-64]!
   88b04:	b9001fe0 	str	w0, [sp, #28]
   88b08:	f90017ff 	str	xzr, [sp, #40]
   88b0c:	f9001bff 	str	xzr, [sp, #48]
   88b10:	b9003bff 	str	wzr, [sp, #56]
   88b14:	9100a3e0 	add	x0, sp, #0x28
   88b18:	52800006 	mov	w6, #0x0                   	// #0
   88b1c:	52800085 	mov	w5, #0x4                   	// #4
   88b20:	52800104 	mov	w4, #0x8                   	// #8
   88b24:	52800103 	mov	w3, #0x8                   	// #8
   88b28:	52800042 	mov	w2, #0x2                   	// #2
   88b2c:	72a00062 	movk	w2, #0x3, lsl #16
   88b30:	528000a1 	mov	w1, #0x5                   	// #5
   88b34:	97fffe39 	bl	88418 <mailbox_tag_message>
   88b38:	b9403be1 	ldr	w1, [sp, #56]
   88b3c:	b9401fe0 	ldr	w0, [sp, #28]
   88b40:	531d7000 	lsl	w0, w0, #3
   88b44:	1ac00820 	udiv	w0, w1, w0
   88b48:	51000400 	sub	w0, w0, #0x1
   88b4c:	b9003fe0 	str	w0, [sp, #60]
   88b50:	b9403fe1 	ldr	w1, [sp, #60]
   88b54:	529fffe0 	mov	w0, #0xffff                	// #65535
   88b58:	6b00003f 	cmp	w1, w0
   88b5c:	54000f08 	b.hi	88d3c <miniuart_init+0x23c>  // b.pmore
   88b60:	d5033fbf 	dmb	sy
   88b64:	b0000060 	adrp	x0, 95000 <BitFont+0xb40>
   88b68:	9129c000 	add	x0, x0, #0xa70
   88b6c:	b9400001 	ldr	w1, [x0]
   88b70:	528a0080 	mov	w0, #0x5004                	// #20484
   88b74:	72a00420 	movk	w0, #0x21, lsl #16
   88b78:	0b000020 	add	w0, w1, w0
   88b7c:	52800021 	mov	w1, #0x1                   	// #1
   88b80:	97ffdf2e 	bl	80838 <PUT32>
   88b84:	b0000060 	adrp	x0, 95000 <BitFont+0xb40>
   88b88:	9129c000 	add	x0, x0, #0xa70
   88b8c:	b9400001 	ldr	w1, [x0]
   88b90:	528a0800 	mov	w0, #0x5040                	// #20544
   88b94:	72a00420 	movk	w0, #0x21, lsl #16
   88b98:	0b000020 	add	w0, w1, w0
   88b9c:	2a0003e0 	mov	w0, w0
   88ba0:	aa0003e1 	mov	x1, x0
   88ba4:	b9402020 	ldr	w0, [x1, #32]
   88ba8:	121f7800 	and	w0, w0, #0xfffffffe
   88bac:	b9002020 	str	w0, [x1, #32]
   88bb0:	b0000060 	adrp	x0, 95000 <BitFont+0xb40>
   88bb4:	9129c000 	add	x0, x0, #0xa70
   88bb8:	b9400001 	ldr	w1, [x0]
   88bbc:	528a0800 	mov	w0, #0x5040                	// #20544
   88bc0:	72a00420 	movk	w0, #0x21, lsl #16
   88bc4:	0b000020 	add	w0, w1, w0
   88bc8:	2a0003e0 	mov	w0, w0
   88bcc:	aa0003e1 	mov	x1, x0
   88bd0:	b9402020 	ldr	w0, [x1, #32]
   88bd4:	121e7800 	and	w0, w0, #0xfffffffd
   88bd8:	b9002020 	str	w0, [x1, #32]
   88bdc:	b0000060 	adrp	x0, 95000 <BitFont+0xb40>
   88be0:	9129c000 	add	x0, x0, #0xa70
   88be4:	b9400001 	ldr	w1, [x0]
   88be8:	528a0800 	mov	w0, #0x5040                	// #20544
   88bec:	72a00420 	movk	w0, #0x21, lsl #16
   88bf0:	0b000020 	add	w0, w1, w0
   88bf4:	2a0003e0 	mov	w0, w0
   88bf8:	aa0003e1 	mov	x1, x0
   88bfc:	b9400c20 	ldr	w0, [x1, #12]
   88c00:	32000000 	orr	w0, w0, #0x1
   88c04:	b9000c20 	str	w0, [x1, #12]
   88c08:	b0000060 	adrp	x0, 95000 <BitFont+0xb40>
   88c0c:	9129c000 	add	x0, x0, #0xa70
   88c10:	b9400001 	ldr	w1, [x0]
   88c14:	528a0800 	mov	w0, #0x5040                	// #20544
   88c18:	72a00420 	movk	w0, #0x21, lsl #16
   88c1c:	0b000020 	add	w0, w1, w0
   88c20:	2a0003e0 	mov	w0, w0
   88c24:	aa0003e1 	mov	x1, x0
   88c28:	b9401020 	ldr	w0, [x1, #16]
   88c2c:	121e7800 	and	w0, w0, #0xfffffffd
   88c30:	b9001020 	str	w0, [x1, #16]
   88c34:	b0000060 	adrp	x0, 95000 <BitFont+0xb40>
   88c38:	9129c000 	add	x0, x0, #0xa70
   88c3c:	b9400001 	ldr	w1, [x0]
   88c40:	528a0800 	mov	w0, #0x5040                	// #20544
   88c44:	72a00420 	movk	w0, #0x21, lsl #16
   88c48:	0b000020 	add	w0, w1, w0
   88c4c:	2a0003e0 	mov	w0, w0
   88c50:	aa0003e1 	mov	x1, x0
   88c54:	b9400820 	ldr	w0, [x1, #8]
   88c58:	321f0000 	orr	w0, w0, #0x2
   88c5c:	b9000820 	str	w0, [x1, #8]
   88c60:	b0000060 	adrp	x0, 95000 <BitFont+0xb40>
   88c64:	9129c000 	add	x0, x0, #0xa70
   88c68:	b9400001 	ldr	w1, [x0]
   88c6c:	528a0800 	mov	w0, #0x5040                	// #20544
   88c70:	72a00420 	movk	w0, #0x21, lsl #16
   88c74:	0b000020 	add	w0, w1, w0
   88c78:	2a0003e0 	mov	w0, w0
   88c7c:	aa0003e1 	mov	x1, x0
   88c80:	b9400820 	ldr	w0, [x1, #8]
   88c84:	321e0000 	orr	w0, w0, #0x4
   88c88:	b9000820 	str	w0, [x1, #8]
   88c8c:	b0000060 	adrp	x0, 95000 <BitFont+0xb40>
   88c90:	9129c000 	add	x0, x0, #0xa70
   88c94:	b9400001 	ldr	w1, [x0]
   88c98:	528a0800 	mov	w0, #0x5040                	// #20544
   88c9c:	72a00420 	movk	w0, #0x21, lsl #16
   88ca0:	0b000020 	add	w0, w1, w0
   88ca4:	2a0003e0 	mov	w0, w0
   88ca8:	aa0003e1 	mov	x1, x0
   88cac:	b9403fe0 	ldr	w0, [sp, #60]
   88cb0:	12003c02 	and	w2, w0, #0xffff
   88cb4:	b9402820 	ldr	w0, [x1, #40]
   88cb8:	33003c40 	bfxil	w0, w2, #0, #16
   88cbc:	b9002820 	str	w0, [x1, #40]
   88cc0:	52800041 	mov	w1, #0x2                   	// #2
   88cc4:	528001c0 	mov	w0, #0xe                   	// #14
   88cc8:	97fffb98 	bl	87b28 <gpio_setup>
   88ccc:	52800041 	mov	w1, #0x2                   	// #2
   88cd0:	528001e0 	mov	w0, #0xf                   	// #15
   88cd4:	97fffb95 	bl	87b28 <gpio_setup>
   88cd8:	b0000060 	adrp	x0, 95000 <BitFont+0xb40>
   88cdc:	9129c000 	add	x0, x0, #0xa70
   88ce0:	b9400001 	ldr	w1, [x0]
   88ce4:	528a0800 	mov	w0, #0x5040                	// #20544
   88ce8:	72a00420 	movk	w0, #0x21, lsl #16
   88cec:	0b000020 	add	w0, w1, w0
   88cf0:	2a0003e0 	mov	w0, w0
   88cf4:	aa0003e1 	mov	x1, x0
   88cf8:	b9402020 	ldr	w0, [x1, #32]
   88cfc:	32000000 	orr	w0, w0, #0x1
   88d00:	b9002020 	str	w0, [x1, #32]
   88d04:	b0000060 	adrp	x0, 95000 <BitFont+0xb40>
   88d08:	9129c000 	add	x0, x0, #0xa70
   88d0c:	b9400001 	ldr	w1, [x0]
   88d10:	528a0800 	mov	w0, #0x5040                	// #20544
   88d14:	72a00420 	movk	w0, #0x21, lsl #16
   88d18:	0b000020 	add	w0, w1, w0
   88d1c:	2a0003e0 	mov	w0, w0
   88d20:	aa0003e1 	mov	x1, x0
   88d24:	b9402020 	ldr	w0, [x1, #32]
   88d28:	321f0000 	orr	w0, w0, #0x2
   88d2c:	b9002020 	str	w0, [x1, #32]
   88d30:	d5033fbf 	dmb	sy
   88d34:	52800020 	mov	w0, #0x1                   	// #1
   88d38:	14000002 	b	88d40 <miniuart_init+0x240>
   88d3c:	52800000 	mov	w0, #0x0                   	// #0
   88d40:	f84407fe 	ldr	x30, [sp], #64
   88d44:	d65f03c0 	ret

0000000000088d48 <miniuart_getc>:
   88d48:	d5033fbf 	dmb	sy
   88d4c:	d503201f 	nop
   88d50:	b0000060 	adrp	x0, 95000 <BitFont+0xb40>
   88d54:	9129c000 	add	x0, x0, #0xa70
   88d58:	b9400001 	ldr	w1, [x0]
   88d5c:	528a0800 	mov	w0, #0x5040                	// #20544
   88d60:	72a00420 	movk	w0, #0x21, lsl #16
   88d64:	0b000020 	add	w0, w1, w0
   88d68:	2a0003e0 	mov	w0, w0
   88d6c:	b9401400 	ldr	w0, [x0, #20]
   88d70:	d3400000 	ubfx	x0, x0, #0, #1
   88d74:	12001c00 	and	w0, w0, #0xff
   88d78:	7100001f 	cmp	w0, #0x0
   88d7c:	54fffea0 	b.eq	88d50 <miniuart_getc+0x8>  // b.none
   88d80:	b0000060 	adrp	x0, 95000 <BitFont+0xb40>
   88d84:	9129c000 	add	x0, x0, #0xa70
   88d88:	b9400001 	ldr	w1, [x0]
   88d8c:	528a0800 	mov	w0, #0x5040                	// #20544
   88d90:	72a00420 	movk	w0, #0x21, lsl #16
   88d94:	0b000020 	add	w0, w1, w0
   88d98:	2a0003e0 	mov	w0, w0
   88d9c:	b9400000 	ldr	w0, [x0]
   88da0:	12001c00 	and	w0, w0, #0xff
   88da4:	d65f03c0 	ret

0000000000088da8 <miniuart_putc>:
   88da8:	d10043ff 	sub	sp, sp, #0x10
   88dac:	39003fe0 	strb	w0, [sp, #15]
   88db0:	d5033fbf 	dmb	sy
   88db4:	d503201f 	nop
   88db8:	b0000060 	adrp	x0, 95000 <BitFont+0xb40>
   88dbc:	9129c000 	add	x0, x0, #0xa70
   88dc0:	b9400001 	ldr	w1, [x0]
   88dc4:	528a0800 	mov	w0, #0x5040                	// #20544
   88dc8:	72a00420 	movk	w0, #0x21, lsl #16
   88dcc:	0b000020 	add	w0, w1, w0
   88dd0:	2a0003e0 	mov	w0, w0
   88dd4:	b9401400 	ldr	w0, [x0, #20]
   88dd8:	d3451400 	ubfx	x0, x0, #5, #1
   88ddc:	12001c00 	and	w0, w0, #0xff
   88de0:	7100001f 	cmp	w0, #0x0
   88de4:	54fffea0 	b.eq	88db8 <miniuart_putc+0x10>  // b.none
   88de8:	b0000060 	adrp	x0, 95000 <BitFont+0xb40>
   88dec:	9129c000 	add	x0, x0, #0xa70
   88df0:	b9400001 	ldr	w1, [x0]
   88df4:	528a0800 	mov	w0, #0x5040                	// #20544
   88df8:	72a00420 	movk	w0, #0x21, lsl #16
   88dfc:	0b000020 	add	w0, w1, w0
   88e00:	2a0003e0 	mov	w0, w0
   88e04:	aa0003e1 	mov	x1, x0
   88e08:	39403fe2 	ldrb	w2, [sp, #15]
   88e0c:	b9400020 	ldr	w0, [x1]
   88e10:	33001c40 	bfxil	w0, w2, #0, #8
   88e14:	b9000020 	str	w0, [x1]
   88e18:	d5033fbf 	dmb	sy
   88e1c:	d503201f 	nop
   88e20:	910043ff 	add	sp, sp, #0x10
   88e24:	d65f03c0 	ret

0000000000088e28 <miniuart_puts>:
   88e28:	f81e0ffe 	str	x30, [sp, #-32]!
   88e2c:	f9000fe0 	str	x0, [sp, #24]
   88e30:	14000006 	b	88e48 <miniuart_puts+0x20>
   88e34:	f9400fe0 	ldr	x0, [sp, #24]
   88e38:	91000401 	add	x1, x0, #0x1
   88e3c:	f9000fe1 	str	x1, [sp, #24]
   88e40:	39400000 	ldrb	w0, [x0]
   88e44:	97ffffd9 	bl	88da8 <miniuart_putc>
   88e48:	f9400fe0 	ldr	x0, [sp, #24]
   88e4c:	39400000 	ldrb	w0, [x0]
   88e50:	7100001f 	cmp	w0, #0x0
   88e54:	54ffff01 	b.ne	88e34 <miniuart_puts+0xc>  // b.any
   88e58:	d503201f 	nop
   88e5c:	f84207fe 	ldr	x30, [sp], #32
   88e60:	d65f03c0 	ret

0000000000088e64 <pl011_uart_init>:
   88e64:	f81c0ffe 	str	x30, [sp, #-64]!
   88e68:	b9001fe0 	str	w0, [sp, #28]
   88e6c:	a9027fff 	stp	xzr, xzr, [sp, #32]
   88e70:	b90033ff 	str	wzr, [sp, #48]
   88e74:	d5033fbf 	dmb	sy
   88e78:	b0000060 	adrp	x0, 95000 <BitFont+0xb40>
   88e7c:	9129c000 	add	x0, x0, #0xa70
   88e80:	b9400000 	ldr	w0, [x0]
   88e84:	11480400 	add	w0, w0, #0x201, lsl #12
   88e88:	2a0003e0 	mov	w0, w0
   88e8c:	b900301f 	str	wzr, [x0, #48]
   88e90:	52800081 	mov	w1, #0x4                   	// #4
   88e94:	528001c0 	mov	w0, #0xe                   	// #14
   88e98:	97fffb24 	bl	87b28 <gpio_setup>
   88e9c:	52800081 	mov	w1, #0x4                   	// #4
   88ea0:	528001e0 	mov	w0, #0xf                   	// #15
   88ea4:	97fffb21 	bl	87b28 <gpio_setup>
   88ea8:	910083e0 	add	x0, sp, #0x20
   88eac:	52812006 	mov	w6, #0x900                 	// #2304
   88eb0:	72a007a6 	movk	w6, #0x3d, lsl #16
   88eb4:	52800045 	mov	w5, #0x2                   	// #2
   88eb8:	52800104 	mov	w4, #0x8                   	// #8
   88ebc:	52800103 	mov	w3, #0x8                   	// #8
   88ec0:	52900042 	mov	w2, #0x8002                	// #32770
   88ec4:	72a00062 	movk	w2, #0x3, lsl #16
   88ec8:	528000a1 	mov	w1, #0x5                   	// #5
   88ecc:	97fffd53 	bl	88418 <mailbox_tag_message>
   88ed0:	b9401fe0 	ldr	w0, [sp, #28]
   88ed4:	531c6c00 	lsl	w0, w0, #4
   88ed8:	52812001 	mov	w1, #0x900                 	// #2304
   88edc:	72a007a1 	movk	w1, #0x3d, lsl #16
   88ee0:	1ac00820 	udiv	w0, w1, w0
   88ee4:	b9003fe0 	str	w0, [sp, #60]
   88ee8:	b0000060 	adrp	x0, 95000 <BitFont+0xb40>
   88eec:	9129c000 	add	x0, x0, #0xa70
   88ef0:	b9400000 	ldr	w0, [x0]
   88ef4:	11480400 	add	w0, w0, #0x201, lsl #12
   88ef8:	2a0003e0 	mov	w0, w0
   88efc:	aa0003e1 	mov	x1, x0
   88f00:	b9403fe0 	ldr	w0, [sp, #60]
   88f04:	12003c02 	and	w2, w0, #0xffff
   88f08:	b9402420 	ldr	w0, [x1, #36]
   88f0c:	33003c40 	bfxil	w0, w2, #0, #16
   88f10:	b9002420 	str	w0, [x1, #36]
   88f14:	b9403fe1 	ldr	w1, [sp, #60]
   88f18:	b9401fe0 	ldr	w0, [sp, #28]
   88f1c:	1b007c21 	mul	w1, w1, w0
   88f20:	52800000 	mov	w0, #0x0                   	// #0
   88f24:	4b010000 	sub	w0, w0, w1
   88f28:	531c6c00 	lsl	w0, w0, #4
   88f2c:	2a0003e1 	mov	w1, w0
   88f30:	52812000 	mov	w0, #0x900                 	// #2304
   88f34:	72a007a0 	movk	w0, #0x3d, lsl #16
   88f38:	0b000020 	add	w0, w1, w0
   88f3c:	b9003be0 	str	w0, [sp, #56]
   88f40:	b9403be0 	ldr	w0, [sp, #56]
   88f44:	531e7400 	lsl	w0, w0, #2
   88f48:	b9003be0 	str	w0, [sp, #56]
   88f4c:	b9401fe1 	ldr	w1, [sp, #28]
   88f50:	53017c20 	lsr	w0, w1, #1
   88f54:	b9403be1 	ldr	w1, [sp, #56]
   88f58:	0b000020 	add	w0, w1, w0
   88f5c:	b9003be0 	str	w0, [sp, #56]
   88f60:	b9403be1 	ldr	w1, [sp, #56]
   88f64:	b9401fe0 	ldr	w0, [sp, #28]
   88f68:	1ac00820 	udiv	w0, w1, w0
   88f6c:	b9003be0 	str	w0, [sp, #56]
   88f70:	b0000060 	adrp	x0, 95000 <BitFont+0xb40>
   88f74:	9129c000 	add	x0, x0, #0xa70
   88f78:	b9400000 	ldr	w0, [x0]
   88f7c:	11480400 	add	w0, w0, #0x201, lsl #12
   88f80:	2a0003e0 	mov	w0, w0
   88f84:	aa0003e1 	mov	x1, x0
   88f88:	b9403be0 	ldr	w0, [sp, #56]
   88f8c:	12001400 	and	w0, w0, #0x3f
   88f90:	12001c02 	and	w2, w0, #0xff
   88f94:	b9402820 	ldr	w0, [x1, #40]
   88f98:	33001440 	bfxil	w0, w2, #0, #6
   88f9c:	b9002820 	str	w0, [x1, #40]
   88fa0:	b0000060 	adrp	x0, 95000 <BitFont+0xb40>
   88fa4:	9129c000 	add	x0, x0, #0xa70
   88fa8:	b9400000 	ldr	w0, [x0]
   88fac:	11480400 	add	w0, w0, #0x201, lsl #12
   88fb0:	2a0003e0 	mov	w0, w0
   88fb4:	aa0003e1 	mov	x1, x0
   88fb8:	b9402c20 	ldr	w0, [x1, #44]
   88fbc:	321b0400 	orr	w0, w0, #0x60
   88fc0:	b9002c20 	str	w0, [x1, #44]
   88fc4:	b0000060 	adrp	x0, 95000 <BitFont+0xb40>
   88fc8:	9129c000 	add	x0, x0, #0xa70
   88fcc:	b9400000 	ldr	w0, [x0]
   88fd0:	11480400 	add	w0, w0, #0x201, lsl #12
   88fd4:	2a0003e0 	mov	w0, w0
   88fd8:	aa0003e1 	mov	x1, x0
   88fdc:	b9402c20 	ldr	w0, [x1, #44]
   88fe0:	121e7800 	and	w0, w0, #0xfffffffd
   88fe4:	b9002c20 	str	w0, [x1, #44]
   88fe8:	b0000060 	adrp	x0, 95000 <BitFont+0xb40>
   88fec:	9129c000 	add	x0, x0, #0xa70
   88ff0:	b9400000 	ldr	w0, [x0]
   88ff4:	11480400 	add	w0, w0, #0x201, lsl #12
   88ff8:	2a0003e0 	mov	w0, w0
   88ffc:	aa0003e1 	mov	x1, x0
   89000:	b9402c20 	ldr	w0, [x1, #44]
   89004:	121c7800 	and	w0, w0, #0xfffffff7
   89008:	b9002c20 	str	w0, [x1, #44]
   8900c:	90000060 	adrp	x0, 95000 <BitFont+0xb40>
   89010:	9129c000 	add	x0, x0, #0xa70
   89014:	b9400000 	ldr	w0, [x0]
   89018:	11480400 	add	w0, w0, #0x201, lsl #12
   8901c:	2a0003e0 	mov	w0, w0
   89020:	aa0003e1 	mov	x1, x0
   89024:	b9402c20 	ldr	w0, [x1, #44]
   89028:	121b7800 	and	w0, w0, #0xffffffef
   8902c:	b9002c20 	str	w0, [x1, #44]
   89030:	90000060 	adrp	x0, 95000 <BitFont+0xb40>
   89034:	9129c000 	add	x0, x0, #0xa70
   89038:	b9400000 	ldr	w0, [x0]
   8903c:	11480400 	add	w0, w0, #0x201, lsl #12
   89040:	2a0003e0 	mov	w0, w0
   89044:	aa0003e1 	mov	x1, x0
   89048:	b9403020 	ldr	w0, [x1, #48]
   8904c:	32000000 	orr	w0, w0, #0x1
   89050:	b9003020 	str	w0, [x1, #48]
   89054:	90000060 	adrp	x0, 95000 <BitFont+0xb40>
   89058:	9129c000 	add	x0, x0, #0xa70
   8905c:	b9400000 	ldr	w0, [x0]
   89060:	11480400 	add	w0, w0, #0x201, lsl #12
   89064:	2a0003e0 	mov	w0, w0
   89068:	aa0003e1 	mov	x1, x0
   8906c:	b9403020 	ldr	w0, [x1, #48]
   89070:	32170000 	orr	w0, w0, #0x200
   89074:	b9003020 	str	w0, [x1, #48]
   89078:	90000060 	adrp	x0, 95000 <BitFont+0xb40>
   8907c:	9129c000 	add	x0, x0, #0xa70
   89080:	b9400000 	ldr	w0, [x0]
   89084:	11480400 	add	w0, w0, #0x201, lsl #12
   89088:	2a0003e0 	mov	w0, w0
   8908c:	aa0003e1 	mov	x1, x0
   89090:	b9403020 	ldr	w0, [x1, #48]
   89094:	32180000 	orr	w0, w0, #0x100
   89098:	b9003020 	str	w0, [x1, #48]
   8909c:	d5033fbf 	dmb	sy
   890a0:	52800020 	mov	w0, #0x1                   	// #1
   890a4:	f84407fe 	ldr	x30, [sp], #64
   890a8:	d65f03c0 	ret

00000000000890ac <pl011_uart_getc>:
   890ac:	d5033fbf 	dmb	sy
   890b0:	d503201f 	nop
   890b4:	90000060 	adrp	x0, 95000 <BitFont+0xb40>
   890b8:	9129c000 	add	x0, x0, #0xa70
   890bc:	b9400000 	ldr	w0, [x0]
   890c0:	11480400 	add	w0, w0, #0x201, lsl #12
   890c4:	2a0003e0 	mov	w0, w0
   890c8:	b9401800 	ldr	w0, [x0, #24]
   890cc:	d3441000 	ubfx	x0, x0, #4, #1
   890d0:	12001c00 	and	w0, w0, #0xff
   890d4:	7100001f 	cmp	w0, #0x0
   890d8:	54fffee1 	b.ne	890b4 <pl011_uart_getc+0x8>  // b.any
   890dc:	90000060 	adrp	x0, 95000 <BitFont+0xb40>
   890e0:	9129c000 	add	x0, x0, #0xa70
   890e4:	b9400000 	ldr	w0, [x0]
   890e8:	11480400 	add	w0, w0, #0x201, lsl #12
   890ec:	2a0003e0 	mov	w0, w0
   890f0:	b9400000 	ldr	w0, [x0]
   890f4:	12001c00 	and	w0, w0, #0xff
   890f8:	d65f03c0 	ret

00000000000890fc <pl011_uart_putc>:
   890fc:	d10043ff 	sub	sp, sp, #0x10
   89100:	39003fe0 	strb	w0, [sp, #15]
   89104:	d5033fbf 	dmb	sy
   89108:	d503201f 	nop
   8910c:	90000060 	adrp	x0, 95000 <BitFont+0xb40>
   89110:	9129c000 	add	x0, x0, #0xa70
   89114:	b9400000 	ldr	w0, [x0]
   89118:	11480400 	add	w0, w0, #0x201, lsl #12
   8911c:	2a0003e0 	mov	w0, w0
   89120:	b9401800 	ldr	w0, [x0, #24]
   89124:	d3451400 	ubfx	x0, x0, #5, #1
   89128:	12001c00 	and	w0, w0, #0xff
   8912c:	7100001f 	cmp	w0, #0x0
   89130:	54fffee1 	b.ne	8910c <pl011_uart_putc+0x10>  // b.any
   89134:	90000060 	adrp	x0, 95000 <BitFont+0xb40>
   89138:	9129c000 	add	x0, x0, #0xa70
   8913c:	b9400000 	ldr	w0, [x0]
   89140:	11480400 	add	w0, w0, #0x201, lsl #12
   89144:	2a0003e0 	mov	w0, w0
   89148:	aa0003e1 	mov	x1, x0
   8914c:	39403fe2 	ldrb	w2, [sp, #15]
   89150:	b9400020 	ldr	w0, [x1]
   89154:	33001c40 	bfxil	w0, w2, #0, #8
   89158:	b9000020 	str	w0, [x1]
   8915c:	d5033fbf 	dmb	sy
   89160:	d503201f 	nop
   89164:	910043ff 	add	sp, sp, #0x10
   89168:	d65f03c0 	ret

000000000008916c <pl011_uart_puts>:
   8916c:	f81e0ffe 	str	x30, [sp, #-32]!
   89170:	f9000fe0 	str	x0, [sp, #24]
   89174:	14000006 	b	8918c <pl011_uart_puts+0x20>
   89178:	f9400fe0 	ldr	x0, [sp, #24]
   8917c:	91000401 	add	x1, x0, #0x1
   89180:	f9000fe1 	str	x1, [sp, #24]
   89184:	39400000 	ldrb	w0, [x0]
   89188:	97ffffdd 	bl	890fc <pl011_uart_putc>
   8918c:	f9400fe0 	ldr	x0, [sp, #24]
   89190:	39400000 	ldrb	w0, [x0]
   89194:	7100001f 	cmp	w0, #0x0
   89198:	54ffff01 	b.ne	89178 <pl011_uart_puts+0xc>  // b.any
   8919c:	d503201f 	nop
   891a0:	f84207fe 	ldr	x30, [sp], #32
   891a4:	d65f03c0 	ret

00000000000891a8 <Embedded_Console_WriteChar>:
   891a8:	f81e0ffe 	str	x30, [sp, #-32]!
   891ac:	39007fe0 	strb	w0, [sp, #31]
   891b0:	39407fe0 	ldrb	w0, [sp, #31]
   891b4:	7100281f 	cmp	w0, #0xa
   891b8:	54000400 	b.eq	89238 <Embedded_Console_WriteChar+0x90>  // b.none
   891bc:	7100341f 	cmp	w0, #0xd
   891c0:	54000080 	b.eq	891d0 <Embedded_Console_WriteChar+0x28>  // b.none
   891c4:	7100241f 	cmp	w0, #0x9
   891c8:	540000c0 	b.eq	891e0 <Embedded_Console_WriteChar+0x38>  // b.none
   891cc:	14000026 	b	89264 <Embedded_Console_WriteChar+0xbc>
   891d0:	d00000a0 	adrp	x0, 9f000 <console>
   891d4:	91000000 	add	x0, x0, #0x0
   891d8:	b900201f 	str	wzr, [x0, #32]
   891dc:	14000043 	b	892e8 <Embedded_Console_WriteChar+0x140>
   891e0:	d00000a0 	adrp	x0, 9f000 <console>
   891e4:	91000000 	add	x0, x0, #0x0
   891e8:	b9402000 	ldr	w0, [x0, #32]
   891ec:	11001401 	add	w1, w0, #0x5
   891f0:	d00000a0 	adrp	x0, 9f000 <console>
   891f4:	91000000 	add	x0, x0, #0x0
   891f8:	b9002001 	str	w1, [x0, #32]
   891fc:	d00000a0 	adrp	x0, 9f000 <console>
   89200:	91000000 	add	x0, x0, #0x0
   89204:	b9402001 	ldr	w1, [x0, #32]
   89208:	d00000a0 	adrp	x0, 9f000 <console>
   8920c:	91000000 	add	x0, x0, #0x0
   89210:	b9402000 	ldr	w0, [x0, #32]
   89214:	6b0003e2 	negs	w2, w0
   89218:	12000400 	and	w0, w0, #0x3
   8921c:	12000442 	and	w2, w2, #0x3
   89220:	5a824400 	csneg	w0, w0, w2, mi  // mi = first
   89224:	4b000021 	sub	w1, w1, w0
   89228:	d00000a0 	adrp	x0, 9f000 <console>
   8922c:	91000000 	add	x0, x0, #0x0
   89230:	b9002001 	str	w1, [x0, #32]
   89234:	1400002d 	b	892e8 <Embedded_Console_WriteChar+0x140>
   89238:	d00000a0 	adrp	x0, 9f000 <console>
   8923c:	91000000 	add	x0, x0, #0x0
   89240:	b900201f 	str	wzr, [x0, #32]
   89244:	d00000a0 	adrp	x0, 9f000 <console>
   89248:	91000000 	add	x0, x0, #0x0
   8924c:	b9402400 	ldr	w0, [x0, #36]
   89250:	11000401 	add	w1, w0, #0x1
   89254:	d00000a0 	adrp	x0, 9f000 <console>
   89258:	91000000 	add	x0, x0, #0x0
   8925c:	b9002401 	str	w1, [x0, #36]
   89260:	14000022 	b	892e8 <Embedded_Console_WriteChar+0x140>
   89264:	d00000a0 	adrp	x0, 9f000 <console>
   89268:	91000000 	add	x0, x0, #0x0
   8926c:	b9402000 	ldr	w0, [x0, #32]
   89270:	531d7001 	lsl	w1, w0, #3
   89274:	d00000a0 	adrp	x0, 9f000 <console>
   89278:	91000000 	add	x0, x0, #0x0
   8927c:	b9001801 	str	w1, [x0, #24]
   89280:	d00000a0 	adrp	x0, 9f000 <console>
   89284:	91000000 	add	x0, x0, #0x0
   89288:	b9402400 	ldr	w0, [x0, #36]
   8928c:	531c6c01 	lsl	w1, w0, #4
   89290:	d00000a0 	adrp	x0, 9f000 <console>
   89294:	91000000 	add	x0, x0, #0x0
   89298:	b9001c01 	str	w1, [x0, #28]
   8929c:	d00000a0 	adrp	x0, 9f000 <console>
   892a0:	91000000 	add	x0, x0, #0x0
   892a4:	b9405c01 	ldr	w1, [x0, #92]
   892a8:	b9406000 	ldr	w0, [x0, #96]
   892ac:	d3607c00 	lsl	x0, x0, #32
   892b0:	aa010000 	orr	x0, x0, x1
   892b4:	aa0003e2 	mov	x2, x0
   892b8:	39407fe1 	ldrb	w1, [sp, #31]
   892bc:	d00000a0 	adrp	x0, 9f000 <console>
   892c0:	91000000 	add	x0, x0, #0x0
   892c4:	d63f0040 	blr	x2
   892c8:	d00000a0 	adrp	x0, 9f000 <console>
   892cc:	91000000 	add	x0, x0, #0x0
   892d0:	b9402000 	ldr	w0, [x0, #32]
   892d4:	11000401 	add	w1, w0, #0x1
   892d8:	d00000a0 	adrp	x0, 9f000 <console>
   892dc:	91000000 	add	x0, x0, #0x0
   892e0:	b9002001 	str	w1, [x0, #32]
   892e4:	d503201f 	nop
   892e8:	d503201f 	nop
   892ec:	f84207fe 	ldr	x30, [sp], #32
   892f0:	d65f03c0 	ret

00000000000892f4 <WriteText>:
   892f4:	f81d0ffe 	str	x30, [sp, #-48]!
   892f8:	b9001fe0 	str	w0, [sp, #28]
   892fc:	b9001be1 	str	w1, [sp, #24]
   89300:	f9000be2 	str	x2, [sp, #16]
   89304:	f9400be0 	ldr	x0, [sp, #16]
   89308:	f100001f 	cmp	x0, #0x0
   8930c:	54000320 	b.eq	89370 <WriteText+0x7c>  // b.none
   89310:	d00000a0 	adrp	x0, 9f000 <console>
   89314:	91000000 	add	x0, x0, #0x0
   89318:	b9401fe1 	ldr	w1, [sp, #28]
   8931c:	b9002001 	str	w1, [x0, #32]
   89320:	d00000a0 	adrp	x0, 9f000 <console>
   89324:	91000000 	add	x0, x0, #0x0
   89328:	b9401be1 	ldr	w1, [sp, #24]
   8932c:	b9002401 	str	w1, [x0, #36]
   89330:	f9400be0 	ldr	x0, [sp, #16]
   89334:	94000ef3 	bl	8cf00 <strlen>
   89338:	f90017e0 	str	x0, [sp, #40]
   8933c:	1400000a 	b	89364 <WriteText+0x70>
   89340:	f9400be0 	ldr	x0, [sp, #16]
   89344:	39400000 	ldrb	w0, [x0]
   89348:	97ffff98 	bl	891a8 <Embedded_Console_WriteChar>
   8934c:	f94017e0 	ldr	x0, [sp, #40]
   89350:	d1000400 	sub	x0, x0, #0x1
   89354:	f90017e0 	str	x0, [sp, #40]
   89358:	f9400be0 	ldr	x0, [sp, #16]
   8935c:	91000400 	add	x0, x0, #0x1
   89360:	f9000be0 	str	x0, [sp, #16]
   89364:	f94017e0 	ldr	x0, [sp, #40]
   89368:	f100001f 	cmp	x0, #0x0
   8936c:	54fffea1 	b.ne	89340 <WriteText+0x4c>  // b.any
   89370:	d503201f 	nop
   89374:	f84307fe 	ldr	x30, [sp], #48
   89378:	d65f03c0 	ret

000000000008937c <SetDCPenColor>:
   8937c:	d100c3ff 	sub	sp, sp, #0x30
   89380:	f90007e0 	str	x0, [sp, #8]
   89384:	b90003e1 	str	w1, [sp]
   89388:	b9001bff 	str	wzr, [sp, #24]
   8938c:	f94007e0 	ldr	x0, [sp, #8]
   89390:	f90017e0 	str	x0, [sp, #40]
   89394:	f94017e0 	ldr	x0, [sp, #40]
   89398:	f100001f 	cmp	x0, #0x0
   8939c:	54000100 	b.eq	893bc <SetDCPenColor+0x40>  // b.none
   893a0:	f94017e0 	ldr	x0, [sp, #40]
   893a4:	b9402800 	ldr	w0, [x0, #40]
   893a8:	b9001be0 	str	w0, [sp, #24]
   893ac:	f94017e0 	ldr	x0, [sp, #40]
   893b0:	9100a000 	add	x0, x0, #0x28
   893b4:	b94003e1 	ldr	w1, [sp]
   893b8:	b9000001 	str	w1, [x0]
   893bc:	b9401be0 	ldr	w0, [sp, #24]
   893c0:	b90023e0 	str	w0, [sp, #32]
   893c4:	d2800000 	mov	x0, #0x0                   	// #0
   893c8:	b94023e1 	ldr	w1, [sp, #32]
   893cc:	b3407c20 	bfxil	x0, x1, #0, #32
   893d0:	9100c3ff 	add	sp, sp, #0x30
   893d4:	d65f03c0 	ret

00000000000893d8 <SetDCBrushColor>:
   893d8:	d100c3ff 	sub	sp, sp, #0x30
   893dc:	f90007e0 	str	x0, [sp, #8]
   893e0:	b90003e1 	str	w1, [sp]
   893e4:	b9001bff 	str	wzr, [sp, #24]
   893e8:	f94007e0 	ldr	x0, [sp, #8]
   893ec:	f90017e0 	str	x0, [sp, #40]
   893f0:	f94017e0 	ldr	x0, [sp, #40]
   893f4:	f100001f 	cmp	x0, #0x0
   893f8:	54000100 	b.eq	89418 <SetDCBrushColor+0x40>  // b.none
   893fc:	f94017e0 	ldr	x0, [sp, #40]
   89400:	b9403000 	ldr	w0, [x0, #48]
   89404:	b9001be0 	str	w0, [sp, #24]
   89408:	f94017e0 	ldr	x0, [sp, #40]
   8940c:	9100c000 	add	x0, x0, #0x30
   89410:	b94003e1 	ldr	w1, [sp]
   89414:	b9000001 	str	w1, [x0]
   89418:	b9401be0 	ldr	w0, [sp, #24]
   8941c:	b90023e0 	str	w0, [sp, #32]
   89420:	d2800000 	mov	x0, #0x0                   	// #0
   89424:	b94023e1 	ldr	w1, [sp, #32]
   89428:	b3407c20 	bfxil	x0, x1, #0, #32
   8942c:	9100c3ff 	add	sp, sp, #0x30
   89430:	d65f03c0 	ret

0000000000089434 <SetTextColor>:
   89434:	d100c3ff 	sub	sp, sp, #0x30
   89438:	f90007e0 	str	x0, [sp, #8]
   8943c:	b90003e1 	str	w1, [sp]
   89440:	b9001bff 	str	wzr, [sp, #24]
   89444:	f94007e0 	ldr	x0, [sp, #8]
   89448:	f90017e0 	str	x0, [sp, #40]
   8944c:	f94017e0 	ldr	x0, [sp, #40]
   89450:	f100001f 	cmp	x0, #0x0
   89454:	54000100 	b.eq	89474 <SetTextColor+0x40>  // b.none
   89458:	f94017e0 	ldr	x0, [sp, #40]
   8945c:	b9402800 	ldr	w0, [x0, #40]
   89460:	b9001be0 	str	w0, [sp, #24]
   89464:	f94017e0 	ldr	x0, [sp, #40]
   89468:	9100a000 	add	x0, x0, #0x28
   8946c:	b94003e1 	ldr	w1, [sp]
   89470:	b9000001 	str	w1, [x0]
   89474:	b9401be0 	ldr	w0, [sp, #24]
   89478:	b90023e0 	str	w0, [sp, #32]
   8947c:	d2800000 	mov	x0, #0x0                   	// #0
   89480:	b94023e1 	ldr	w1, [sp, #32]
   89484:	b3407c20 	bfxil	x0, x1, #0, #32
   89488:	9100c3ff 	add	sp, sp, #0x30
   8948c:	d65f03c0 	ret

0000000000089490 <MoveToEx>:
   89490:	d100c3ff 	sub	sp, sp, #0x30
   89494:	f9000fe0 	str	x0, [sp, #24]
   89498:	b90017e1 	str	w1, [sp, #20]
   8949c:	b90013e2 	str	w2, [sp, #16]
   894a0:	f90007e3 	str	x3, [sp, #8]
   894a4:	f9400fe0 	ldr	x0, [sp, #24]
   894a8:	f90017e0 	str	x0, [sp, #40]
   894ac:	f94017e0 	ldr	x0, [sp, #40]
   894b0:	f100001f 	cmp	x0, #0x0
   894b4:	54000260 	b.eq	89500 <MoveToEx+0x70>  // b.none
   894b8:	f94007e0 	ldr	x0, [sp, #8]
   894bc:	f100001f 	cmp	x0, #0x0
   894c0:	54000100 	b.eq	894e0 <MoveToEx+0x50>  // b.none
   894c4:	f94007e0 	ldr	x0, [sp, #8]
   894c8:	f94017e1 	ldr	x1, [sp, #40]
   894cc:	91006021 	add	x1, x1, #0x18
   894d0:	b9400022 	ldr	w2, [x1]
   894d4:	b9000002 	str	w2, [x0]
   894d8:	b9400421 	ldr	w1, [x1, #4]
   894dc:	b9000401 	str	w1, [x0, #4]
   894e0:	f94017e0 	ldr	x0, [sp, #40]
   894e4:	b94017e1 	ldr	w1, [sp, #20]
   894e8:	b9001801 	str	w1, [x0, #24]
   894ec:	f94017e0 	ldr	x0, [sp, #40]
   894f0:	b94013e1 	ldr	w1, [sp, #16]
   894f4:	b9001c01 	str	w1, [x0, #28]
   894f8:	52800020 	mov	w0, #0x1                   	// #1
   894fc:	14000002 	b	89504 <MoveToEx+0x74>
   89500:	52800000 	mov	w0, #0x0                   	// #0
   89504:	9100c3ff 	add	sp, sp, #0x30
   89508:	d65f03c0 	ret

000000000008950c <LineTo>:
   8950c:	f81c0ffe 	str	x30, [sp, #-64]!
   89510:	f9000fe0 	str	x0, [sp, #24]
   89514:	b90017e1 	str	w1, [sp, #20]
   89518:	b90013e2 	str	w2, [sp, #16]
   8951c:	f9400fe0 	ldr	x0, [sp, #24]
   89520:	f90017e0 	str	x0, [sp, #40]
   89524:	f94017e0 	ldr	x0, [sp, #40]
   89528:	f100001f 	cmp	x0, #0x0
   8952c:	54000a60 	b.eq	89678 <LineTo+0x16c>  // b.none
   89530:	f94017e0 	ldr	x0, [sp, #40]
   89534:	b9401800 	ldr	w0, [x0, #24]
   89538:	b94017e1 	ldr	w1, [sp, #20]
   8953c:	6b00003f 	cmp	w1, w0
   89540:	5400012a 	b.ge	89564 <LineTo+0x58>  // b.tcont
   89544:	f94017e0 	ldr	x0, [sp, #40]
   89548:	b9401801 	ldr	w1, [x0, #24]
   8954c:	b94017e0 	ldr	w0, [sp, #20]
   89550:	4b000020 	sub	w0, w1, w0
   89554:	b90037e0 	str	w0, [sp, #52]
   89558:	12800000 	mov	w0, #0xffffffff            	// #-1
   8955c:	b9003fe0 	str	w0, [sp, #60]
   89560:	14000008 	b	89580 <LineTo+0x74>
   89564:	f94017e0 	ldr	x0, [sp, #40]
   89568:	b9401800 	ldr	w0, [x0, #24]
   8956c:	b94017e1 	ldr	w1, [sp, #20]
   89570:	4b000020 	sub	w0, w1, w0
   89574:	b90037e0 	str	w0, [sp, #52]
   89578:	52800020 	mov	w0, #0x1                   	// #1
   8957c:	b9003fe0 	str	w0, [sp, #60]
   89580:	f94017e0 	ldr	x0, [sp, #40]
   89584:	b9401c00 	ldr	w0, [x0, #28]
   89588:	b94013e1 	ldr	w1, [sp, #16]
   8958c:	6b00003f 	cmp	w1, w0
   89590:	5400012a 	b.ge	895b4 <LineTo+0xa8>  // b.tcont
   89594:	f94017e0 	ldr	x0, [sp, #40]
   89598:	b9401c01 	ldr	w1, [x0, #28]
   8959c:	b94013e0 	ldr	w0, [sp, #16]
   895a0:	4b000020 	sub	w0, w1, w0
   895a4:	b90033e0 	str	w0, [sp, #48]
   895a8:	12800000 	mov	w0, #0xffffffff            	// #-1
   895ac:	b9003be0 	str	w0, [sp, #56]
   895b0:	14000008 	b	895d0 <LineTo+0xc4>
   895b4:	f94017e0 	ldr	x0, [sp, #40]
   895b8:	b9401c00 	ldr	w0, [x0, #28]
   895bc:	b94013e1 	ldr	w1, [sp, #16]
   895c0:	4b000020 	sub	w0, w1, w0
   895c4:	b90033e0 	str	w0, [sp, #48]
   895c8:	52800020 	mov	w0, #0x1                   	// #1
   895cc:	b9003be0 	str	w0, [sp, #56]
   895d0:	b94037e0 	ldr	w0, [sp, #52]
   895d4:	7100001f 	cmp	w0, #0x0
   895d8:	54000181 	b.ne	89608 <LineTo+0xfc>  // b.any
   895dc:	f94017e0 	ldr	x0, [sp, #40]
   895e0:	b9404401 	ldr	w1, [x0, #68]
   895e4:	b9404800 	ldr	w0, [x0, #72]
   895e8:	d3607c00 	lsl	x0, x0, #32
   895ec:	aa010000 	orr	x0, x0, x1
   895f0:	aa0003e3 	mov	x3, x0
   895f4:	b9403be2 	ldr	w2, [sp, #56]
   895f8:	b94033e1 	ldr	w1, [sp, #48]
   895fc:	f94017e0 	ldr	x0, [sp, #40]
   89600:	d63f0060 	blr	x3
   89604:	1400001b 	b	89670 <LineTo+0x164>
   89608:	b94033e0 	ldr	w0, [sp, #48]
   8960c:	7100001f 	cmp	w0, #0x0
   89610:	54000181 	b.ne	89640 <LineTo+0x134>  // b.any
   89614:	f94017e0 	ldr	x0, [sp, #40]
   89618:	b9404c01 	ldr	w1, [x0, #76]
   8961c:	b9405000 	ldr	w0, [x0, #80]
   89620:	d3607c00 	lsl	x0, x0, #32
   89624:	aa010000 	orr	x0, x0, x1
   89628:	aa0003e3 	mov	x3, x0
   8962c:	b9403fe2 	ldr	w2, [sp, #60]
   89630:	b94037e1 	ldr	w1, [sp, #52]
   89634:	f94017e0 	ldr	x0, [sp, #40]
   89638:	d63f0060 	blr	x3
   8963c:	1400000d 	b	89670 <LineTo+0x164>
   89640:	f94017e0 	ldr	x0, [sp, #40]
   89644:	b9405401 	ldr	w1, [x0, #84]
   89648:	b9405800 	ldr	w0, [x0, #88]
   8964c:	d3607c00 	lsl	x0, x0, #32
   89650:	aa010000 	orr	x0, x0, x1
   89654:	aa0003e5 	mov	x5, x0
   89658:	b9403be4 	ldr	w4, [sp, #56]
   8965c:	b9403fe3 	ldr	w3, [sp, #60]
   89660:	b94033e2 	ldr	w2, [sp, #48]
   89664:	b94037e1 	ldr	w1, [sp, #52]
   89668:	f94017e0 	ldr	x0, [sp, #40]
   8966c:	d63f00a0 	blr	x5
   89670:	52800020 	mov	w0, #0x1                   	// #1
   89674:	14000002 	b	8967c <LineTo+0x170>
   89678:	52800000 	mov	w0, #0x0                   	// #0
   8967c:	f84407fe 	ldr	x30, [sp], #64
   89680:	d65f03c0 	ret

0000000000089684 <TextOut>:
   89684:	f81c0ffe 	str	x30, [sp, #-64]!
   89688:	f90017e0 	str	x0, [sp, #40]
   8968c:	b90027e1 	str	w1, [sp, #36]
   89690:	b90023e2 	str	w2, [sp, #32]
   89694:	f9000fe3 	str	x3, [sp, #24]
   89698:	b90017e4 	str	w4, [sp, #20]
   8969c:	b94017e0 	ldr	w0, [sp, #20]
   896a0:	7100001f 	cmp	w0, #0x0
   896a4:	54000520 	b.eq	89748 <TextOut+0xc4>  // b.none
   896a8:	f9400fe0 	ldr	x0, [sp, #24]
   896ac:	f100001f 	cmp	x0, #0x0
   896b0:	540004c0 	b.eq	89748 <TextOut+0xc4>  // b.none
   896b4:	b9003fff 	str	wzr, [sp, #60]
   896b8:	1400001e 	b	89730 <TextOut+0xac>
   896bc:	d00000a0 	adrp	x0, 9f000 <console>
   896c0:	91000000 	add	x0, x0, #0x0
   896c4:	b94027e1 	ldr	w1, [sp, #36]
   896c8:	b9001801 	str	w1, [x0, #24]
   896cc:	d00000a0 	adrp	x0, 9f000 <console>
   896d0:	91000000 	add	x0, x0, #0x0
   896d4:	b94023e1 	ldr	w1, [sp, #32]
   896d8:	b9001c01 	str	w1, [x0, #28]
   896dc:	d00000a0 	adrp	x0, 9f000 <console>
   896e0:	91000000 	add	x0, x0, #0x0
   896e4:	b9405c01 	ldr	w1, [x0, #92]
   896e8:	b9406000 	ldr	w0, [x0, #96]
   896ec:	d3607c00 	lsl	x0, x0, #32
   896f0:	aa010000 	orr	x0, x0, x1
   896f4:	aa0003e2 	mov	x2, x0
   896f8:	b9803fe0 	ldrsw	x0, [sp, #60]
   896fc:	f9400fe1 	ldr	x1, [sp, #24]
   89700:	8b000020 	add	x0, x1, x0
   89704:	39400000 	ldrb	w0, [x0]
   89708:	2a0003e1 	mov	w1, w0
   8970c:	d00000a0 	adrp	x0, 9f000 <console>
   89710:	91000000 	add	x0, x0, #0x0
   89714:	d63f0040 	blr	x2
   89718:	b94027e0 	ldr	w0, [sp, #36]
   8971c:	11002000 	add	w0, w0, #0x8
   89720:	b90027e0 	str	w0, [sp, #36]
   89724:	b9403fe0 	ldr	w0, [sp, #60]
   89728:	11000400 	add	w0, w0, #0x1
   8972c:	b9003fe0 	str	w0, [sp, #60]
   89730:	b9403fe1 	ldr	w1, [sp, #60]
   89734:	b94017e0 	ldr	w0, [sp, #20]
   89738:	6b00003f 	cmp	w1, w0
   8973c:	54fffc0b 	b.lt	896bc <TextOut+0x38>  // b.tstop
   89740:	52800020 	mov	w0, #0x1                   	// #1
   89744:	14000002 	b	8974c <TextOut+0xc8>
   89748:	52800000 	mov	w0, #0x0                   	// #0
   8974c:	f84407fe 	ldr	x30, [sp], #64
   89750:	d65f03c0 	ret

0000000000089754 <TransparentTextOut>:
   89754:	f81e0ffe 	str	x30, [sp, #-32]!
   89758:	b9001fe0 	str	w0, [sp, #28]
   8975c:	b9001be1 	str	w1, [sp, #24]
   89760:	f9000be2 	str	x2, [sp, #16]
   89764:	f9400be0 	ldr	x0, [sp, #16]
   89768:	f100001f 	cmp	x0, #0x0
   8976c:	54000440 	b.eq	897f4 <TransparentTextOut+0xa0>  // b.none
   89770:	1400001b 	b	897dc <TransparentTextOut+0x88>
   89774:	d00000a0 	adrp	x0, 9f000 <console>
   89778:	91000000 	add	x0, x0, #0x0
   8977c:	b9401fe1 	ldr	w1, [sp, #28]
   89780:	b9001801 	str	w1, [x0, #24]
   89784:	d00000a0 	adrp	x0, 9f000 <console>
   89788:	91000000 	add	x0, x0, #0x0
   8978c:	b9401be1 	ldr	w1, [sp, #24]
   89790:	b9001c01 	str	w1, [x0, #28]
   89794:	d00000a0 	adrp	x0, 9f000 <console>
   89798:	91000000 	add	x0, x0, #0x0
   8979c:	b9406401 	ldr	w1, [x0, #100]
   897a0:	b9406800 	ldr	w0, [x0, #104]
   897a4:	d3607c00 	lsl	x0, x0, #32
   897a8:	aa010000 	orr	x0, x0, x1
   897ac:	aa0003e2 	mov	x2, x0
   897b0:	f9400be0 	ldr	x0, [sp, #16]
   897b4:	91000401 	add	x1, x0, #0x1
   897b8:	f9000be1 	str	x1, [sp, #16]
   897bc:	39400000 	ldrb	w0, [x0]
   897c0:	2a0003e1 	mov	w1, w0
   897c4:	d00000a0 	adrp	x0, 9f000 <console>
   897c8:	91000000 	add	x0, x0, #0x0
   897cc:	d63f0040 	blr	x2
   897d0:	b9401fe0 	ldr	w0, [sp, #28]
   897d4:	11002000 	add	w0, w0, #0x8
   897d8:	b9001fe0 	str	w0, [sp, #28]
   897dc:	f9400be0 	ldr	x0, [sp, #16]
   897e0:	39400000 	ldrb	w0, [x0]
   897e4:	7100001f 	cmp	w0, #0x0
   897e8:	54fffc61 	b.ne	89774 <TransparentTextOut+0x20>  // b.any
   897ec:	52800020 	mov	w0, #0x1                   	// #1
   897f0:	14000002 	b	897f8 <TransparentTextOut+0xa4>
   897f4:	52800000 	mov	w0, #0x0                   	// #0
   897f8:	f84207fe 	ldr	x30, [sp], #32
   897fc:	d65f03c0 	ret

0000000000089800 <BmpOut>:
   89800:	f81c0ffe 	str	x30, [sp, #-64]!
   89804:	f90017e0 	str	x0, [sp, #40]
   89808:	b90027e1 	str	w1, [sp, #36]
   8980c:	b90023e2 	str	w2, [sp, #32]
   89810:	b9001fe3 	str	w3, [sp, #28]
   89814:	b9001be4 	str	w4, [sp, #24]
   89818:	f9000be5 	str	x5, [sp, #16]
   8981c:	f94017e0 	ldr	x0, [sp, #40]
   89820:	f9001fe0 	str	x0, [sp, #56]
   89824:	f9401fe0 	ldr	x0, [sp, #56]
   89828:	f100001f 	cmp	x0, #0x0
   8982c:	54000340 	b.eq	89894 <BmpOut+0x94>  // b.none
   89830:	f9400be0 	ldr	x0, [sp, #16]
   89834:	f9001be0 	str	x0, [sp, #48]
   89838:	b94027e1 	ldr	w1, [sp, #36]
   8983c:	f9401fe0 	ldr	x0, [sp, #56]
   89840:	b9001801 	str	w1, [x0, #24]
   89844:	b94023e1 	ldr	w1, [sp, #32]
   89848:	b9401be0 	ldr	w0, [sp, #24]
   8984c:	0b000020 	add	w0, w1, w0
   89850:	2a0003e1 	mov	w1, w0
   89854:	f9401fe0 	ldr	x0, [sp, #56]
   89858:	b9001c01 	str	w1, [x0, #28]
   8985c:	f9401fe0 	ldr	x0, [sp, #56]
   89860:	b9406c01 	ldr	w1, [x0, #108]
   89864:	b9407000 	ldr	w0, [x0, #112]
   89868:	d3607c00 	lsl	x0, x0, #32
   8986c:	aa010000 	orr	x0, x0, x1
   89870:	aa0003e5 	mov	x5, x0
   89874:	52800024 	mov	w4, #0x1                   	// #1
   89878:	f9401be3 	ldr	x3, [sp, #48]
   8987c:	b9401be2 	ldr	w2, [sp, #24]
   89880:	b9401fe1 	ldr	w1, [sp, #28]
   89884:	f9401fe0 	ldr	x0, [sp, #56]
   89888:	d63f00a0 	blr	x5
   8988c:	52800020 	mov	w0, #0x1                   	// #1
   89890:	14000002 	b	89898 <BmpOut+0x98>
   89894:	52800000 	mov	w0, #0x0                   	// #0
   89898:	f84407fe 	ldr	x30, [sp], #64
   8989c:	d65f03c0 	ret

00000000000898a0 <CvtBmpLine>:
   898a0:	d2822410 	mov	x16, #0x1120                	// #4384
   898a4:	cb3063ff 	sub	sp, sp, x16
   898a8:	f90003fe 	str	x30, [sp]
   898ac:	f90017e0 	str	x0, [sp, #40]
   898b0:	b90027e1 	str	w1, [sp, #36]
   898b4:	b90023e2 	str	w2, [sp, #32]
   898b8:	b9001fe3 	str	w3, [sp, #28]
   898bc:	b9001be4 	str	w4, [sp, #24]
   898c0:	f9000be5 	str	x5, [sp, #16]
   898c4:	910263e0 	add	x0, sp, #0x98
   898c8:	f9084fe0 	str	x0, [sp, #4248]
   898cc:	f94017e0 	ldr	x0, [sp, #40]
   898d0:	f90853e0 	str	x0, [sp, #4256]
   898d4:	f94853e0 	ldr	x0, [sp, #4256]
   898d8:	f100001f 	cmp	x0, #0x0
   898dc:	54002820 	b.eq	89de0 <CvtBmpLine+0x540>  // b.none
   898e0:	b94027e1 	ldr	w1, [sp, #36]
   898e4:	f94853e0 	ldr	x0, [sp, #4256]
   898e8:	b9001801 	str	w1, [x0, #24]
   898ec:	b94023e1 	ldr	w1, [sp, #32]
   898f0:	f94853e0 	ldr	x0, [sp, #4256]
   898f4:	b9001c01 	str	w1, [x0, #28]
   898f8:	f94853e0 	ldr	x0, [sp, #4256]
   898fc:	b9401000 	ldr	w0, [x0, #16]
   89900:	b9401be1 	ldr	w1, [sp, #24]
   89904:	6b00003f 	cmp	w1, w0
   89908:	540024e0 	b.eq	89da4 <CvtBmpLine+0x504>  // b.none
   8990c:	f94853e0 	ldr	x0, [sp, #4256]
   89910:	b9401000 	ldr	w0, [x0, #16]
   89914:	7100601f 	cmp	w0, #0x18
   89918:	54000ea0 	b.eq	89aec <CvtBmpLine+0x24c>  // b.none
   8991c:	7100801f 	cmp	w0, #0x20
   89920:	54001980 	b.eq	89c50 <CvtBmpLine+0x3b0>  // b.none
   89924:	7100401f 	cmp	w0, #0x10
   89928:	54002401 	b.ne	89da8 <CvtBmpLine+0x508>  // b.any
   8992c:	b9401be0 	ldr	w0, [sp, #24]
   89930:	7100601f 	cmp	w0, #0x18
   89934:	540006a1 	b.ne	89a08 <CvtBmpLine+0x168>  // b.any
   89938:	910263e0 	add	x0, sp, #0x98
   8993c:	f9088fe0 	str	x0, [sp, #4376]
   89940:	f9400be0 	ldr	x0, [sp, #16]
   89944:	f9088be0 	str	x0, [sp, #4368]
   89948:	b9110fff 	str	wzr, [sp, #4364]
   8994c:	1400002a 	b	899f4 <CvtBmpLine+0x154>
   89950:	f9488be0 	ldr	x0, [sp, #4368]
   89954:	91000c01 	add	x1, x0, #0x3
   89958:	f9088be1 	str	x1, [sp, #4368]
   8995c:	39400001 	ldrb	w1, [x0]
   89960:	390243e1 	strb	w1, [sp, #144]
   89964:	39400401 	ldrb	w1, [x0, #1]
   89968:	390247e1 	strb	w1, [sp, #145]
   8996c:	39400800 	ldrb	w0, [x0, #2]
   89970:	39024be0 	strb	w0, [sp, #146]
   89974:	39424be0 	ldrb	w0, [sp, #146]
   89978:	53037c00 	lsr	w0, w0, #3
   8997c:	12001c00 	and	w0, w0, #0xff
   89980:	12001000 	and	w0, w0, #0x1f
   89984:	12001c01 	and	w1, w0, #0xff
   89988:	394227e0 	ldrb	w0, [sp, #137]
   8998c:	331d1020 	bfi	w0, w1, #3, #5
   89990:	390227e0 	strb	w0, [sp, #137]
   89994:	394247e0 	ldrb	w0, [sp, #145]
   89998:	53027c00 	lsr	w0, w0, #2
   8999c:	12001c00 	and	w0, w0, #0xff
   899a0:	12001400 	and	w0, w0, #0x3f
   899a4:	12001c01 	and	w1, w0, #0xff
   899a8:	794113e0 	ldrh	w0, [sp, #136]
   899ac:	331b1420 	bfi	w0, w1, #5, #6
   899b0:	790113e0 	strh	w0, [sp, #136]
   899b4:	394243e0 	ldrb	w0, [sp, #144]
   899b8:	53037c00 	lsr	w0, w0, #3
   899bc:	12001c00 	and	w0, w0, #0xff
   899c0:	12001000 	and	w0, w0, #0x1f
   899c4:	12001c01 	and	w1, w0, #0xff
   899c8:	394223e0 	ldrb	w0, [sp, #136]
   899cc:	33001020 	bfxil	w0, w1, #0, #5
   899d0:	390223e0 	strb	w0, [sp, #136]
   899d4:	f9488fe0 	ldr	x0, [sp, #4376]
   899d8:	91000801 	add	x1, x0, #0x2
   899dc:	f9088fe1 	str	x1, [sp, #4376]
   899e0:	794113e1 	ldrh	w1, [sp, #136]
   899e4:	79000001 	strh	w1, [x0]
   899e8:	b9510fe0 	ldr	w0, [sp, #4364]
   899ec:	11000400 	add	w0, w0, #0x1
   899f0:	b9110fe0 	str	w0, [sp, #4364]
   899f4:	b9510fe1 	ldr	w1, [sp, #4364]
   899f8:	b9401fe0 	ldr	w0, [sp, #28]
   899fc:	6b00003f 	cmp	w1, w0
   89a00:	54fffa83 	b.cc	89950 <CvtBmpLine+0xb0>  // b.lo, b.ul, b.last
   89a04:	140000e9 	b	89da8 <CvtBmpLine+0x508>
   89a08:	910263e0 	add	x0, sp, #0x98
   89a0c:	914007e1 	add	x1, sp, #0x1, lsl #12
   89a10:	91080021 	add	x1, x1, #0x200
   89a14:	f8104020 	stur	x0, [x1, #-252]
   89a18:	f9400be0 	ldr	x0, [sp, #16]
   89a1c:	914007e1 	add	x1, sp, #0x1, lsl #12
   89a20:	f80fc020 	stur	x0, [x1, #252]
   89a24:	b910fbff 	str	wzr, [sp, #4344]
   89a28:	1400002c 	b	89ad8 <CvtBmpLine+0x238>
   89a2c:	914007e0 	add	x0, sp, #0x1, lsl #12
   89a30:	f84fc000 	ldur	x0, [x0, #252]
   89a34:	91001001 	add	x1, x0, #0x4
   89a38:	914007e2 	add	x2, sp, #0x1, lsl #12
   89a3c:	f80fc041 	stur	x1, [x2, #252]
   89a40:	b9400000 	ldr	w0, [x0]
   89a44:	b90083e0 	str	w0, [sp, #128]
   89a48:	39420be0 	ldrb	w0, [sp, #130]
   89a4c:	53037c00 	lsr	w0, w0, #3
   89a50:	12001c00 	and	w0, w0, #0xff
   89a54:	12001000 	and	w0, w0, #0x1f
   89a58:	12001c01 	and	w1, w0, #0xff
   89a5c:	3941e7e0 	ldrb	w0, [sp, #121]
   89a60:	331d1020 	bfi	w0, w1, #3, #5
   89a64:	3901e7e0 	strb	w0, [sp, #121]
   89a68:	394207e0 	ldrb	w0, [sp, #129]
   89a6c:	53027c00 	lsr	w0, w0, #2
   89a70:	12001c00 	and	w0, w0, #0xff
   89a74:	12001400 	and	w0, w0, #0x3f
   89a78:	12001c01 	and	w1, w0, #0xff
   89a7c:	7940f3e0 	ldrh	w0, [sp, #120]
   89a80:	331b1420 	bfi	w0, w1, #5, #6
   89a84:	7900f3e0 	strh	w0, [sp, #120]
   89a88:	394203e0 	ldrb	w0, [sp, #128]
   89a8c:	53037c00 	lsr	w0, w0, #3
   89a90:	12001c00 	and	w0, w0, #0xff
   89a94:	12001000 	and	w0, w0, #0x1f
   89a98:	12001c01 	and	w1, w0, #0xff
   89a9c:	3941e3e0 	ldrb	w0, [sp, #120]
   89aa0:	33001020 	bfxil	w0, w1, #0, #5
   89aa4:	3901e3e0 	strb	w0, [sp, #120]
   89aa8:	914007e0 	add	x0, sp, #0x1, lsl #12
   89aac:	91080000 	add	x0, x0, #0x200
   89ab0:	f8504000 	ldur	x0, [x0, #-252]
   89ab4:	91000801 	add	x1, x0, #0x2
   89ab8:	914007e2 	add	x2, sp, #0x1, lsl #12
   89abc:	91080042 	add	x2, x2, #0x200
   89ac0:	f8104041 	stur	x1, [x2, #-252]
   89ac4:	7940f3e1 	ldrh	w1, [sp, #120]
   89ac8:	79000001 	strh	w1, [x0]
   89acc:	b950fbe0 	ldr	w0, [sp, #4344]
   89ad0:	11000400 	add	w0, w0, #0x1
   89ad4:	b910fbe0 	str	w0, [sp, #4344]
   89ad8:	b950fbe1 	ldr	w1, [sp, #4344]
   89adc:	b9401fe0 	ldr	w0, [sp, #28]
   89ae0:	6b00003f 	cmp	w1, w0
   89ae4:	54fffa43 	b.cc	89a2c <CvtBmpLine+0x18c>  // b.lo, b.ul, b.last
   89ae8:	140000b0 	b	89da8 <CvtBmpLine+0x508>
   89aec:	b9401be0 	ldr	w0, [sp, #24]
   89af0:	7100401f 	cmp	w0, #0x10
   89af4:	540005e1 	b.ne	89bb0 <CvtBmpLine+0x310>  // b.any
   89af8:	910263e0 	add	x0, sp, #0x98
   89afc:	f9087be0 	str	x0, [sp, #4336]
   89b00:	f9400be0 	ldr	x0, [sp, #16]
   89b04:	f90877e0 	str	x0, [sp, #4328]
   89b08:	b910e7ff 	str	wzr, [sp, #4324]
   89b0c:	14000024 	b	89b9c <CvtBmpLine+0x2fc>
   89b10:	f94877e0 	ldr	x0, [sp, #4328]
   89b14:	91000801 	add	x1, x0, #0x2
   89b18:	f90877e1 	str	x1, [sp, #4328]
   89b1c:	79400000 	ldrh	w0, [x0]
   89b20:	7900e3e0 	strh	w0, [sp, #112]
   89b24:	3941c7e0 	ldrb	w0, [sp, #113]
   89b28:	d3431c00 	ubfx	x0, x0, #3, #5
   89b2c:	12001c00 	and	w0, w0, #0xff
   89b30:	531d1000 	ubfiz	w0, w0, #3, #5
   89b34:	12001c00 	and	w0, w0, #0xff
   89b38:	3901abe0 	strb	w0, [sp, #106]
   89b3c:	7940e3e0 	ldrh	w0, [sp, #112]
   89b40:	d3452800 	ubfx	x0, x0, #5, #6
   89b44:	12001c00 	and	w0, w0, #0xff
   89b48:	531e1400 	ubfiz	w0, w0, #2, #6
   89b4c:	12001c00 	and	w0, w0, #0xff
   89b50:	3901a7e0 	strb	w0, [sp, #105]
   89b54:	3941c3e0 	ldrb	w0, [sp, #112]
   89b58:	d3401000 	ubfx	x0, x0, #0, #5
   89b5c:	12001c00 	and	w0, w0, #0xff
   89b60:	531d1000 	ubfiz	w0, w0, #3, #5
   89b64:	12001c00 	and	w0, w0, #0xff
   89b68:	3901a3e0 	strb	w0, [sp, #104]
   89b6c:	f9487be0 	ldr	x0, [sp, #4336]
   89b70:	91000c01 	add	x1, x0, #0x3
   89b74:	f9087be1 	str	x1, [sp, #4336]
   89b78:	3941a3e1 	ldrb	w1, [sp, #104]
   89b7c:	39000001 	strb	w1, [x0]
   89b80:	3941a7e1 	ldrb	w1, [sp, #105]
   89b84:	39000401 	strb	w1, [x0, #1]
   89b88:	3941abe1 	ldrb	w1, [sp, #106]
   89b8c:	39000801 	strb	w1, [x0, #2]
   89b90:	b950e7e0 	ldr	w0, [sp, #4324]
   89b94:	11000400 	add	w0, w0, #0x1
   89b98:	b910e7e0 	str	w0, [sp, #4324]
   89b9c:	b950e7e1 	ldr	w1, [sp, #4324]
   89ba0:	b9401fe0 	ldr	w0, [sp, #28]
   89ba4:	6b00003f 	cmp	w1, w0
   89ba8:	54fffb43 	b.cc	89b10 <CvtBmpLine+0x270>  // b.lo, b.ul, b.last
   89bac:	1400007f 	b	89da8 <CvtBmpLine+0x508>
   89bb0:	910263e0 	add	x0, sp, #0x98
   89bb4:	914007e1 	add	x1, sp, #0x1, lsl #12
   89bb8:	f80dc020 	stur	x0, [x1, #220]
   89bbc:	f9400be0 	ldr	x0, [sp, #16]
   89bc0:	914007e1 	add	x1, sp, #0x1, lsl #12
   89bc4:	f80d4020 	stur	x0, [x1, #212]
   89bc8:	b910d3ff 	str	wzr, [sp, #4304]
   89bcc:	1400001c 	b	89c3c <CvtBmpLine+0x39c>
   89bd0:	914007e0 	add	x0, sp, #0x1, lsl #12
   89bd4:	f84d4000 	ldur	x0, [x0, #212]
   89bd8:	91001001 	add	x1, x0, #0x4
   89bdc:	914007e2 	add	x2, sp, #0x1, lsl #12
   89be0:	f80d4041 	stur	x1, [x2, #212]
   89be4:	b9400000 	ldr	w0, [x0]
   89be8:	b90063e0 	str	w0, [sp, #96]
   89bec:	39418be0 	ldrb	w0, [sp, #98]
   89bf0:	39016be0 	strb	w0, [sp, #90]
   89bf4:	394187e0 	ldrb	w0, [sp, #97]
   89bf8:	390167e0 	strb	w0, [sp, #89]
   89bfc:	394183e0 	ldrb	w0, [sp, #96]
   89c00:	390163e0 	strb	w0, [sp, #88]
   89c04:	914007e0 	add	x0, sp, #0x1, lsl #12
   89c08:	f84dc000 	ldur	x0, [x0, #220]
   89c0c:	91000c01 	add	x1, x0, #0x3
   89c10:	914007e2 	add	x2, sp, #0x1, lsl #12
   89c14:	f80dc041 	stur	x1, [x2, #220]
   89c18:	394163e1 	ldrb	w1, [sp, #88]
   89c1c:	39000001 	strb	w1, [x0]
   89c20:	394167e1 	ldrb	w1, [sp, #89]
   89c24:	39000401 	strb	w1, [x0, #1]
   89c28:	39416be1 	ldrb	w1, [sp, #90]
   89c2c:	39000801 	strb	w1, [x0, #2]
   89c30:	b950d3e0 	ldr	w0, [sp, #4304]
   89c34:	11000400 	add	w0, w0, #0x1
   89c38:	b910d3e0 	str	w0, [sp, #4304]
   89c3c:	b950d3e1 	ldr	w1, [sp, #4304]
   89c40:	b9401fe0 	ldr	w0, [sp, #28]
   89c44:	6b00003f 	cmp	w1, w0
   89c48:	54fffc43 	b.cc	89bd0 <CvtBmpLine+0x330>  // b.lo, b.ul, b.last
   89c4c:	14000057 	b	89da8 <CvtBmpLine+0x508>
   89c50:	b9401be0 	ldr	w0, [sp, #24]
   89c54:	7100401f 	cmp	w0, #0x10
   89c58:	54000561 	b.ne	89d04 <CvtBmpLine+0x464>  // b.any
   89c5c:	910263e0 	add	x0, sp, #0x98
   89c60:	f90867e0 	str	x0, [sp, #4296]
   89c64:	f9400be0 	ldr	x0, [sp, #16]
   89c68:	f90863e0 	str	x0, [sp, #4288]
   89c6c:	b910bfff 	str	wzr, [sp, #4284]
   89c70:	14000020 	b	89cf0 <CvtBmpLine+0x450>
   89c74:	f94863e0 	ldr	x0, [sp, #4288]
   89c78:	91000801 	add	x1, x0, #0x2
   89c7c:	f90863e1 	str	x1, [sp, #4288]
   89c80:	79400000 	ldrh	w0, [x0]
   89c84:	7900a3e0 	strh	w0, [sp, #80]
   89c88:	394147e0 	ldrb	w0, [sp, #81]
   89c8c:	d3431c00 	ubfx	x0, x0, #3, #5
   89c90:	12001c00 	and	w0, w0, #0xff
   89c94:	531d1000 	ubfiz	w0, w0, #3, #5
   89c98:	12001c00 	and	w0, w0, #0xff
   89c9c:	39012be0 	strb	w0, [sp, #74]
   89ca0:	7940a3e0 	ldrh	w0, [sp, #80]
   89ca4:	d3452800 	ubfx	x0, x0, #5, #6
   89ca8:	12001c00 	and	w0, w0, #0xff
   89cac:	531e1400 	ubfiz	w0, w0, #2, #6
   89cb0:	12001c00 	and	w0, w0, #0xff
   89cb4:	390127e0 	strb	w0, [sp, #73]
   89cb8:	394143e0 	ldrb	w0, [sp, #80]
   89cbc:	d3401000 	ubfx	x0, x0, #0, #5
   89cc0:	12001c00 	and	w0, w0, #0xff
   89cc4:	531d1000 	ubfiz	w0, w0, #3, #5
   89cc8:	12001c00 	and	w0, w0, #0xff
   89ccc:	390123e0 	strb	w0, [sp, #72]
   89cd0:	f94867e0 	ldr	x0, [sp, #4296]
   89cd4:	91001001 	add	x1, x0, #0x4
   89cd8:	f90867e1 	str	x1, [sp, #4296]
   89cdc:	b9404be1 	ldr	w1, [sp, #72]
   89ce0:	b9000001 	str	w1, [x0]
   89ce4:	b950bfe0 	ldr	w0, [sp, #4284]
   89ce8:	11000400 	add	w0, w0, #0x1
   89cec:	b910bfe0 	str	w0, [sp, #4284]
   89cf0:	b950bfe1 	ldr	w1, [sp, #4284]
   89cf4:	b9401fe0 	ldr	w0, [sp, #28]
   89cf8:	6b00003f 	cmp	w1, w0
   89cfc:	54fffbc3 	b.cc	89c74 <CvtBmpLine+0x3d4>  // b.lo, b.ul, b.last
   89d00:	1400002a 	b	89da8 <CvtBmpLine+0x508>
   89d04:	910263e0 	add	x0, sp, #0x98
   89d08:	914007e1 	add	x1, sp, #0x1, lsl #12
   89d0c:	f80b4020 	stur	x0, [x1, #180]
   89d10:	f9400be0 	ldr	x0, [sp, #16]
   89d14:	914007e1 	add	x1, sp, #0x1, lsl #12
   89d18:	f80ac020 	stur	x0, [x1, #172]
   89d1c:	b910abff 	str	wzr, [sp, #4264]
   89d20:	1400001c 	b	89d90 <CvtBmpLine+0x4f0>
   89d24:	914007e0 	add	x0, sp, #0x1, lsl #12
   89d28:	f84ac000 	ldur	x0, [x0, #172]
   89d2c:	91000c01 	add	x1, x0, #0x3
   89d30:	914007e2 	add	x2, sp, #0x1, lsl #12
   89d34:	f80ac041 	stur	x1, [x2, #172]
   89d38:	39400001 	ldrb	w1, [x0]
   89d3c:	390103e1 	strb	w1, [sp, #64]
   89d40:	39400401 	ldrb	w1, [x0, #1]
   89d44:	390107e1 	strb	w1, [sp, #65]
   89d48:	39400800 	ldrb	w0, [x0, #2]
   89d4c:	39010be0 	strb	w0, [sp, #66]
   89d50:	39410be0 	ldrb	w0, [sp, #66]
   89d54:	3900ebe0 	strb	w0, [sp, #58]
   89d58:	394107e0 	ldrb	w0, [sp, #65]
   89d5c:	3900e7e0 	strb	w0, [sp, #57]
   89d60:	394103e0 	ldrb	w0, [sp, #64]
   89d64:	3900e3e0 	strb	w0, [sp, #56]
   89d68:	914007e0 	add	x0, sp, #0x1, lsl #12
   89d6c:	f84b4000 	ldur	x0, [x0, #180]
   89d70:	91001001 	add	x1, x0, #0x4
   89d74:	914007e2 	add	x2, sp, #0x1, lsl #12
   89d78:	f80b4041 	stur	x1, [x2, #180]
   89d7c:	b9403be1 	ldr	w1, [sp, #56]
   89d80:	b9000001 	str	w1, [x0]
   89d84:	b950abe0 	ldr	w0, [sp, #4264]
   89d88:	11000400 	add	w0, w0, #0x1
   89d8c:	b910abe0 	str	w0, [sp, #4264]
   89d90:	b950abe1 	ldr	w1, [sp, #4264]
   89d94:	b9401fe0 	ldr	w0, [sp, #28]
   89d98:	6b00003f 	cmp	w1, w0
   89d9c:	54fffc43 	b.cc	89d24 <CvtBmpLine+0x484>  // b.lo, b.ul, b.last
   89da0:	14000002 	b	89da8 <CvtBmpLine+0x508>
   89da4:	d503201f 	nop
   89da8:	f94853e0 	ldr	x0, [sp, #4256]
   89dac:	b9406c01 	ldr	w1, [x0, #108]
   89db0:	b9407000 	ldr	w0, [x0, #112]
   89db4:	d3607c00 	lsl	x0, x0, #32
   89db8:	aa010000 	orr	x0, x0, x1
   89dbc:	aa0003e5 	mov	x5, x0
   89dc0:	52800024 	mov	w4, #0x1                   	// #1
   89dc4:	f9484fe3 	ldr	x3, [sp, #4248]
   89dc8:	52800022 	mov	w2, #0x1                   	// #1
   89dcc:	b9401fe1 	ldr	w1, [sp, #28]
   89dd0:	f94853e0 	ldr	x0, [sp, #4256]
   89dd4:	d63f00a0 	blr	x5
   89dd8:	52800020 	mov	w0, #0x1                   	// #1
   89ddc:	14000002 	b	89de4 <CvtBmpLine+0x544>
   89de0:	52800000 	mov	w0, #0x0                   	// #0
   89de4:	f94003fe 	ldr	x30, [sp]
   89de8:	d2822410 	mov	x16, #0x1120                	// #4384
   89dec:	8b3063ff 	add	sp, sp, x16
   89df0:	d65f03c0 	ret

0000000000089df4 <SetPixel16>:
   89df4:	d10103ff 	sub	sp, sp, #0x40
   89df8:	f9000fe0 	str	x0, [sp, #24]
   89dfc:	b90017e1 	str	w1, [sp, #20]
   89e00:	b90013e2 	str	w2, [sp, #16]
   89e04:	b9000be3 	str	w3, [sp, #8]
   89e08:	f9400fe0 	ldr	x0, [sp, #24]
   89e0c:	b9400001 	ldr	w1, [x0]
   89e10:	b9400400 	ldr	w0, [x0, #4]
   89e14:	d3607c00 	lsl	x0, x0, #32
   89e18:	aa010000 	orr	x0, x0, x1
   89e1c:	aa0003e2 	mov	x2, x0
   89e20:	f9400fe0 	ldr	x0, [sp, #24]
   89e24:	b9401401 	ldr	w1, [x0, #20]
   89e28:	b94013e0 	ldr	w0, [sp, #16]
   89e2c:	1b007c20 	mul	w0, w1, w0
   89e30:	531f7800 	lsl	w0, w0, #1
   89e34:	2a0003e0 	mov	w0, w0
   89e38:	8b000041 	add	x1, x2, x0
   89e3c:	b94017e0 	ldr	w0, [sp, #20]
   89e40:	531f7800 	lsl	w0, w0, #1
   89e44:	2a0003e0 	mov	w0, w0
   89e48:	8b000020 	add	x0, x1, x0
   89e4c:	f9001fe0 	str	x0, [sp, #56]
   89e50:	39402be0 	ldrb	w0, [sp, #10]
   89e54:	53037c00 	lsr	w0, w0, #3
   89e58:	12001c00 	and	w0, w0, #0xff
   89e5c:	12001000 	and	w0, w0, #0x1f
   89e60:	12001c01 	and	w1, w0, #0xff
   89e64:	3940a7e0 	ldrb	w0, [sp, #41]
   89e68:	331d1020 	bfi	w0, w1, #3, #5
   89e6c:	3900a7e0 	strb	w0, [sp, #41]
   89e70:	394027e0 	ldrb	w0, [sp, #9]
   89e74:	53027c00 	lsr	w0, w0, #2
   89e78:	12001c00 	and	w0, w0, #0xff
   89e7c:	12001400 	and	w0, w0, #0x3f
   89e80:	12001c01 	and	w1, w0, #0xff
   89e84:	794053e0 	ldrh	w0, [sp, #40]
   89e88:	331b1420 	bfi	w0, w1, #5, #6
   89e8c:	790053e0 	strh	w0, [sp, #40]
   89e90:	394023e0 	ldrb	w0, [sp, #8]
   89e94:	53037c00 	lsr	w0, w0, #3
   89e98:	12001c00 	and	w0, w0, #0xff
   89e9c:	12001000 	and	w0, w0, #0x1f
   89ea0:	12001c01 	and	w1, w0, #0xff
   89ea4:	3940a3e0 	ldrb	w0, [sp, #40]
   89ea8:	33001020 	bfxil	w0, w1, #0, #5
   89eac:	3900a3e0 	strb	w0, [sp, #40]
   89eb0:	f9401fe0 	ldr	x0, [sp, #56]
   89eb4:	794053e1 	ldrh	w1, [sp, #40]
   89eb8:	79000001 	strh	w1, [x0]
   89ebc:	b9400be0 	ldr	w0, [sp, #8]
   89ec0:	b90033e0 	str	w0, [sp, #48]
   89ec4:	d2800000 	mov	x0, #0x0                   	// #0
   89ec8:	b94033e1 	ldr	w1, [sp, #48]
   89ecc:	b3407c20 	bfxil	x0, x1, #0, #32
   89ed0:	910103ff 	add	sp, sp, #0x40
   89ed4:	d65f03c0 	ret

0000000000089ed8 <ClearArea16>:
   89ed8:	d10103ff 	sub	sp, sp, #0x40
   89edc:	f9000fe0 	str	x0, [sp, #24]
   89ee0:	b90017e1 	str	w1, [sp, #20]
   89ee4:	b90013e2 	str	w2, [sp, #16]
   89ee8:	b9000fe3 	str	w3, [sp, #12]
   89eec:	b9000be4 	str	w4, [sp, #8]
   89ef0:	f9400fe0 	ldr	x0, [sp, #24]
   89ef4:	b9400001 	ldr	w1, [x0]
   89ef8:	b9400400 	ldr	w0, [x0, #4]
   89efc:	d3607c00 	lsl	x0, x0, #32
   89f00:	aa010000 	orr	x0, x0, x1
   89f04:	aa0003e2 	mov	x2, x0
   89f08:	f9400fe0 	ldr	x0, [sp, #24]
   89f0c:	b9401401 	ldr	w1, [x0, #20]
   89f10:	b94013e0 	ldr	w0, [sp, #16]
   89f14:	1b007c20 	mul	w0, w1, w0
   89f18:	531f7800 	lsl	w0, w0, #1
   89f1c:	2a0003e0 	mov	w0, w0
   89f20:	8b000041 	add	x1, x2, x0
   89f24:	b94017e0 	ldr	w0, [sp, #20]
   89f28:	531f7800 	lsl	w0, w0, #1
   89f2c:	2a0003e0 	mov	w0, w0
   89f30:	8b000020 	add	x0, x1, x0
   89f34:	f9001fe0 	str	x0, [sp, #56]
   89f38:	f9400fe0 	ldr	x0, [sp, #24]
   89f3c:	3940c800 	ldrb	w0, [x0, #50]
   89f40:	53037c00 	lsr	w0, w0, #3
   89f44:	12001c00 	and	w0, w0, #0xff
   89f48:	12001000 	and	w0, w0, #0x1f
   89f4c:	12001c01 	and	w1, w0, #0xff
   89f50:	3940a7e0 	ldrb	w0, [sp, #41]
   89f54:	331d1020 	bfi	w0, w1, #3, #5
   89f58:	3900a7e0 	strb	w0, [sp, #41]
   89f5c:	f9400fe0 	ldr	x0, [sp, #24]
   89f60:	3940c400 	ldrb	w0, [x0, #49]
   89f64:	53027c00 	lsr	w0, w0, #2
   89f68:	12001c00 	and	w0, w0, #0xff
   89f6c:	12001400 	and	w0, w0, #0x3f
   89f70:	12001c01 	and	w1, w0, #0xff
   89f74:	794053e0 	ldrh	w0, [sp, #40]
   89f78:	331b1420 	bfi	w0, w1, #5, #6
   89f7c:	790053e0 	strh	w0, [sp, #40]
   89f80:	f9400fe0 	ldr	x0, [sp, #24]
   89f84:	3940c000 	ldrb	w0, [x0, #48]
   89f88:	53037c00 	lsr	w0, w0, #3
   89f8c:	12001c00 	and	w0, w0, #0xff
   89f90:	12001000 	and	w0, w0, #0x1f
   89f94:	12001c01 	and	w1, w0, #0xff
   89f98:	3940a3e0 	ldrb	w0, [sp, #40]
   89f9c:	33001020 	bfxil	w0, w1, #0, #5
   89fa0:	3900a3e0 	strb	w0, [sp, #40]
   89fa4:	b90037ff 	str	wzr, [sp, #52]
   89fa8:	1400001c 	b	8a018 <ClearArea16+0x140>
   89fac:	b90033ff 	str	wzr, [sp, #48]
   89fb0:	1400000a 	b	89fd8 <ClearArea16+0x100>
   89fb4:	b94033e0 	ldr	w0, [sp, #48]
   89fb8:	d37ff800 	lsl	x0, x0, #1
   89fbc:	f9401fe1 	ldr	x1, [sp, #56]
   89fc0:	8b000020 	add	x0, x1, x0
   89fc4:	794053e1 	ldrh	w1, [sp, #40]
   89fc8:	79000001 	strh	w1, [x0]
   89fcc:	b94033e0 	ldr	w0, [sp, #48]
   89fd0:	11000400 	add	w0, w0, #0x1
   89fd4:	b90033e0 	str	w0, [sp, #48]
   89fd8:	b9400fe1 	ldr	w1, [sp, #12]
   89fdc:	b94017e0 	ldr	w0, [sp, #20]
   89fe0:	4b000020 	sub	w0, w1, w0
   89fe4:	b94033e1 	ldr	w1, [sp, #48]
   89fe8:	6b00003f 	cmp	w1, w0
   89fec:	54fffe43 	b.cc	89fb4 <ClearArea16+0xdc>  // b.lo, b.ul, b.last
   89ff0:	f9400fe0 	ldr	x0, [sp, #24]
   89ff4:	b9401400 	ldr	w0, [x0, #20]
   89ff8:	2a0003e0 	mov	w0, w0
   89ffc:	d37ff800 	lsl	x0, x0, #1
   8a000:	f9401fe1 	ldr	x1, [sp, #56]
   8a004:	8b000020 	add	x0, x1, x0
   8a008:	f9001fe0 	str	x0, [sp, #56]
   8a00c:	b94037e0 	ldr	w0, [sp, #52]
   8a010:	11000400 	add	w0, w0, #0x1
   8a014:	b90037e0 	str	w0, [sp, #52]
   8a018:	b9400be1 	ldr	w1, [sp, #8]
   8a01c:	b94013e0 	ldr	w0, [sp, #16]
   8a020:	4b000020 	sub	w0, w1, w0
   8a024:	b94037e1 	ldr	w1, [sp, #52]
   8a028:	6b00003f 	cmp	w1, w0
   8a02c:	54fffc03 	b.cc	89fac <ClearArea16+0xd4>  // b.lo, b.ul, b.last
   8a030:	d503201f 	nop
   8a034:	910103ff 	add	sp, sp, #0x40
   8a038:	d65f03c0 	ret

000000000008a03c <VertLine16>:
   8a03c:	d10083ff 	sub	sp, sp, #0x20
   8a040:	f90007e0 	str	x0, [sp, #8]
   8a044:	b90007e1 	str	w1, [sp, #4]
   8a048:	b90003e2 	str	w2, [sp]
   8a04c:	f94007e0 	ldr	x0, [sp, #8]
   8a050:	b9400001 	ldr	w1, [x0]
   8a054:	b9400400 	ldr	w0, [x0, #4]
   8a058:	d3607c00 	lsl	x0, x0, #32
   8a05c:	aa010000 	orr	x0, x0, x1
   8a060:	aa0003e1 	mov	x1, x0
   8a064:	f94007e0 	ldr	x0, [sp, #8]
   8a068:	b9401c00 	ldr	w0, [x0, #28]
   8a06c:	2a0003e2 	mov	w2, w0
   8a070:	f94007e0 	ldr	x0, [sp, #8]
   8a074:	b9401400 	ldr	w0, [x0, #20]
   8a078:	1b007c40 	mul	w0, w2, w0
   8a07c:	531f7800 	lsl	w0, w0, #1
   8a080:	2a0003e0 	mov	w0, w0
   8a084:	8b000021 	add	x1, x1, x0
   8a088:	f94007e0 	ldr	x0, [sp, #8]
   8a08c:	b9401800 	ldr	w0, [x0, #24]
   8a090:	531f7800 	lsl	w0, w0, #1
   8a094:	93407c00 	sxtw	x0, w0
   8a098:	8b000020 	add	x0, x1, x0
   8a09c:	f9000fe0 	str	x0, [sp, #24]
   8a0a0:	f94007e0 	ldr	x0, [sp, #8]
   8a0a4:	3940a800 	ldrb	w0, [x0, #42]
   8a0a8:	53037c00 	lsr	w0, w0, #3
   8a0ac:	12001c00 	and	w0, w0, #0xff
   8a0b0:	12001000 	and	w0, w0, #0x1f
   8a0b4:	12001c01 	and	w1, w0, #0xff
   8a0b8:	394047e0 	ldrb	w0, [sp, #17]
   8a0bc:	331d1020 	bfi	w0, w1, #3, #5
   8a0c0:	390047e0 	strb	w0, [sp, #17]
   8a0c4:	f94007e0 	ldr	x0, [sp, #8]
   8a0c8:	3940a400 	ldrb	w0, [x0, #41]
   8a0cc:	53027c00 	lsr	w0, w0, #2
   8a0d0:	12001c00 	and	w0, w0, #0xff
   8a0d4:	12001400 	and	w0, w0, #0x3f
   8a0d8:	12001c01 	and	w1, w0, #0xff
   8a0dc:	794023e0 	ldrh	w0, [sp, #16]
   8a0e0:	331b1420 	bfi	w0, w1, #5, #6
   8a0e4:	790023e0 	strh	w0, [sp, #16]
   8a0e8:	f94007e0 	ldr	x0, [sp, #8]
   8a0ec:	3940a000 	ldrb	w0, [x0, #40]
   8a0f0:	53037c00 	lsr	w0, w0, #3
   8a0f4:	12001c00 	and	w0, w0, #0xff
   8a0f8:	12001000 	and	w0, w0, #0x1f
   8a0fc:	12001c01 	and	w1, w0, #0xff
   8a100:	394043e0 	ldrb	w0, [sp, #16]
   8a104:	33001020 	bfxil	w0, w1, #0, #5
   8a108:	390043e0 	strb	w0, [sp, #16]
   8a10c:	b90017ff 	str	wzr, [sp, #20]
   8a110:	1400001a 	b	8a178 <VertLine16+0x13c>
   8a114:	f9400fe0 	ldr	x0, [sp, #24]
   8a118:	794023e1 	ldrh	w1, [sp, #16]
   8a11c:	79000001 	strh	w1, [x0]
   8a120:	b94003e0 	ldr	w0, [sp]
   8a124:	7100041f 	cmp	w0, #0x1
   8a128:	54000121 	b.ne	8a14c <VertLine16+0x110>  // b.any
   8a12c:	f94007e0 	ldr	x0, [sp, #8]
   8a130:	b9401400 	ldr	w0, [x0, #20]
   8a134:	2a0003e0 	mov	w0, w0
   8a138:	d37ff800 	lsl	x0, x0, #1
   8a13c:	f9400fe1 	ldr	x1, [sp, #24]
   8a140:	8b000020 	add	x0, x1, x0
   8a144:	f9000fe0 	str	x0, [sp, #24]
   8a148:	14000009 	b	8a16c <VertLine16+0x130>
   8a14c:	f94007e0 	ldr	x0, [sp, #8]
   8a150:	b9401400 	ldr	w0, [x0, #20]
   8a154:	2a0003e0 	mov	w0, w0
   8a158:	d37ff800 	lsl	x0, x0, #1
   8a15c:	cb0003e0 	neg	x0, x0
   8a160:	f9400fe1 	ldr	x1, [sp, #24]
   8a164:	8b000020 	add	x0, x1, x0
   8a168:	f9000fe0 	str	x0, [sp, #24]
   8a16c:	b94017e0 	ldr	w0, [sp, #20]
   8a170:	11000400 	add	w0, w0, #0x1
   8a174:	b90017e0 	str	w0, [sp, #20]
   8a178:	b94017e1 	ldr	w1, [sp, #20]
   8a17c:	b94007e0 	ldr	w0, [sp, #4]
   8a180:	6b00003f 	cmp	w1, w0
   8a184:	54fffc83 	b.cc	8a114 <VertLine16+0xd8>  // b.lo, b.ul, b.last
   8a188:	f94007e0 	ldr	x0, [sp, #8]
   8a18c:	b9401c00 	ldr	w0, [x0, #28]
   8a190:	2a0003e2 	mov	w2, w0
   8a194:	b94003e1 	ldr	w1, [sp]
   8a198:	b94007e0 	ldr	w0, [sp, #4]
   8a19c:	1b007c20 	mul	w0, w1, w0
   8a1a0:	0b000040 	add	w0, w2, w0
   8a1a4:	2a0003e1 	mov	w1, w0
   8a1a8:	f94007e0 	ldr	x0, [sp, #8]
   8a1ac:	b9001c01 	str	w1, [x0, #28]
   8a1b0:	d503201f 	nop
   8a1b4:	910083ff 	add	sp, sp, #0x20
   8a1b8:	d65f03c0 	ret

000000000008a1bc <HorzLine16>:
   8a1bc:	d10083ff 	sub	sp, sp, #0x20
   8a1c0:	f90007e0 	str	x0, [sp, #8]
   8a1c4:	b90007e1 	str	w1, [sp, #4]
   8a1c8:	b90003e2 	str	w2, [sp]
   8a1cc:	f94007e0 	ldr	x0, [sp, #8]
   8a1d0:	b9400001 	ldr	w1, [x0]
   8a1d4:	b9400400 	ldr	w0, [x0, #4]
   8a1d8:	d3607c00 	lsl	x0, x0, #32
   8a1dc:	aa010000 	orr	x0, x0, x1
   8a1e0:	aa0003e1 	mov	x1, x0
   8a1e4:	f94007e0 	ldr	x0, [sp, #8]
   8a1e8:	b9401c00 	ldr	w0, [x0, #28]
   8a1ec:	2a0003e2 	mov	w2, w0
   8a1f0:	f94007e0 	ldr	x0, [sp, #8]
   8a1f4:	b9401400 	ldr	w0, [x0, #20]
   8a1f8:	1b007c40 	mul	w0, w2, w0
   8a1fc:	531f7800 	lsl	w0, w0, #1
   8a200:	2a0003e0 	mov	w0, w0
   8a204:	8b000021 	add	x1, x1, x0
   8a208:	f94007e0 	ldr	x0, [sp, #8]
   8a20c:	b9401800 	ldr	w0, [x0, #24]
   8a210:	531f7800 	lsl	w0, w0, #1
   8a214:	93407c00 	sxtw	x0, w0
   8a218:	8b000020 	add	x0, x1, x0
   8a21c:	f9000fe0 	str	x0, [sp, #24]
   8a220:	f94007e0 	ldr	x0, [sp, #8]
   8a224:	3940a800 	ldrb	w0, [x0, #42]
   8a228:	53037c00 	lsr	w0, w0, #3
   8a22c:	12001c00 	and	w0, w0, #0xff
   8a230:	12001000 	and	w0, w0, #0x1f
   8a234:	12001c01 	and	w1, w0, #0xff
   8a238:	394047e0 	ldrb	w0, [sp, #17]
   8a23c:	331d1020 	bfi	w0, w1, #3, #5
   8a240:	390047e0 	strb	w0, [sp, #17]
   8a244:	f94007e0 	ldr	x0, [sp, #8]
   8a248:	3940a400 	ldrb	w0, [x0, #41]
   8a24c:	53027c00 	lsr	w0, w0, #2
   8a250:	12001c00 	and	w0, w0, #0xff
   8a254:	12001400 	and	w0, w0, #0x3f
   8a258:	12001c01 	and	w1, w0, #0xff
   8a25c:	794023e0 	ldrh	w0, [sp, #16]
   8a260:	331b1420 	bfi	w0, w1, #5, #6
   8a264:	790023e0 	strh	w0, [sp, #16]
   8a268:	f94007e0 	ldr	x0, [sp, #8]
   8a26c:	3940a000 	ldrb	w0, [x0, #40]
   8a270:	53037c00 	lsr	w0, w0, #3
   8a274:	12001c00 	and	w0, w0, #0xff
   8a278:	12001000 	and	w0, w0, #0x1f
   8a27c:	12001c01 	and	w1, w0, #0xff
   8a280:	394043e0 	ldrb	w0, [sp, #16]
   8a284:	33001020 	bfxil	w0, w1, #0, #5
   8a288:	390043e0 	strb	w0, [sp, #16]
   8a28c:	b90017ff 	str	wzr, [sp, #20]
   8a290:	1400000c 	b	8a2c0 <HorzLine16+0x104>
   8a294:	f9400fe0 	ldr	x0, [sp, #24]
   8a298:	794023e1 	ldrh	w1, [sp, #16]
   8a29c:	79000001 	strh	w1, [x0]
   8a2a0:	b98003e0 	ldrsw	x0, [sp]
   8a2a4:	d37ff800 	lsl	x0, x0, #1
   8a2a8:	f9400fe1 	ldr	x1, [sp, #24]
   8a2ac:	8b000020 	add	x0, x1, x0
   8a2b0:	f9000fe0 	str	x0, [sp, #24]
   8a2b4:	b94017e0 	ldr	w0, [sp, #20]
   8a2b8:	11000400 	add	w0, w0, #0x1
   8a2bc:	b90017e0 	str	w0, [sp, #20]
   8a2c0:	b94017e1 	ldr	w1, [sp, #20]
   8a2c4:	b94007e0 	ldr	w0, [sp, #4]
   8a2c8:	6b00003f 	cmp	w1, w0
   8a2cc:	54fffe43 	b.cc	8a294 <HorzLine16+0xd8>  // b.lo, b.ul, b.last
   8a2d0:	f94007e0 	ldr	x0, [sp, #8]
   8a2d4:	b9401800 	ldr	w0, [x0, #24]
   8a2d8:	2a0003e2 	mov	w2, w0
   8a2dc:	b94003e1 	ldr	w1, [sp]
   8a2e0:	b94007e0 	ldr	w0, [sp, #4]
   8a2e4:	1b007c20 	mul	w0, w1, w0
   8a2e8:	0b000040 	add	w0, w2, w0
   8a2ec:	2a0003e1 	mov	w1, w0
   8a2f0:	f94007e0 	ldr	x0, [sp, #8]
   8a2f4:	b9001801 	str	w1, [x0, #24]
   8a2f8:	d503201f 	nop
   8a2fc:	910083ff 	add	sp, sp, #0x20
   8a300:	d65f03c0 	ret

000000000008a304 <DiagLine16>:
   8a304:	d10103ff 	sub	sp, sp, #0x40
   8a308:	f9000fe0 	str	x0, [sp, #24]
   8a30c:	b90017e1 	str	w1, [sp, #20]
   8a310:	b90013e2 	str	w2, [sp, #16]
   8a314:	b9000fe3 	str	w3, [sp, #12]
   8a318:	b9000be4 	str	w4, [sp, #8]
   8a31c:	f9400fe0 	ldr	x0, [sp, #24]
   8a320:	b9400001 	ldr	w1, [x0]
   8a324:	b9400400 	ldr	w0, [x0, #4]
   8a328:	d3607c00 	lsl	x0, x0, #32
   8a32c:	aa010000 	orr	x0, x0, x1
   8a330:	aa0003e1 	mov	x1, x0
   8a334:	f9400fe0 	ldr	x0, [sp, #24]
   8a338:	b9401c00 	ldr	w0, [x0, #28]
   8a33c:	2a0003e2 	mov	w2, w0
   8a340:	f9400fe0 	ldr	x0, [sp, #24]
   8a344:	b9401400 	ldr	w0, [x0, #20]
   8a348:	1b007c40 	mul	w0, w2, w0
   8a34c:	531f7800 	lsl	w0, w0, #1
   8a350:	2a0003e0 	mov	w0, w0
   8a354:	8b000021 	add	x1, x1, x0
   8a358:	f9400fe0 	ldr	x0, [sp, #24]
   8a35c:	b9401800 	ldr	w0, [x0, #24]
   8a360:	531f7800 	lsl	w0, w0, #1
   8a364:	93407c00 	sxtw	x0, w0
   8a368:	8b000020 	add	x0, x1, x0
   8a36c:	f9001fe0 	str	x0, [sp, #56]
   8a370:	b90037ff 	str	wzr, [sp, #52]
   8a374:	b90033ff 	str	wzr, [sp, #48]
   8a378:	f9400fe0 	ldr	x0, [sp, #24]
   8a37c:	3940a800 	ldrb	w0, [x0, #42]
   8a380:	53037c00 	lsr	w0, w0, #3
   8a384:	12001c00 	and	w0, w0, #0xff
   8a388:	12001000 	and	w0, w0, #0x1f
   8a38c:	12001c01 	and	w1, w0, #0xff
   8a390:	394087e0 	ldrb	w0, [sp, #33]
   8a394:	331d1020 	bfi	w0, w1, #3, #5
   8a398:	390087e0 	strb	w0, [sp, #33]
   8a39c:	f9400fe0 	ldr	x0, [sp, #24]
   8a3a0:	3940a400 	ldrb	w0, [x0, #41]
   8a3a4:	53027c00 	lsr	w0, w0, #2
   8a3a8:	12001c00 	and	w0, w0, #0xff
   8a3ac:	12001400 	and	w0, w0, #0x3f
   8a3b0:	12001c01 	and	w1, w0, #0xff
   8a3b4:	794043e0 	ldrh	w0, [sp, #32]
   8a3b8:	331b1420 	bfi	w0, w1, #5, #6
   8a3bc:	790043e0 	strh	w0, [sp, #32]
   8a3c0:	f9400fe0 	ldr	x0, [sp, #24]
   8a3c4:	3940a000 	ldrb	w0, [x0, #40]
   8a3c8:	53037c00 	lsr	w0, w0, #3
   8a3cc:	12001c00 	and	w0, w0, #0xff
   8a3d0:	12001000 	and	w0, w0, #0x1f
   8a3d4:	12001c01 	and	w1, w0, #0xff
   8a3d8:	394083e0 	ldrb	w0, [sp, #32]
   8a3dc:	33001020 	bfxil	w0, w1, #0, #5
   8a3e0:	390083e0 	strb	w0, [sp, #32]
   8a3e4:	b94017e0 	ldr	w0, [sp, #20]
   8a3e8:	b9002be0 	str	w0, [sp, #40]
   8a3ec:	b94013e1 	ldr	w1, [sp, #16]
   8a3f0:	b9402be0 	ldr	w0, [sp, #40]
   8a3f4:	6b00003f 	cmp	w1, w0
   8a3f8:	54000069 	b.ls	8a404 <DiagLine16+0x100>  // b.plast
   8a3fc:	b9402be0 	ldr	w0, [sp, #40]
   8a400:	b90013e0 	str	w0, [sp, #16]
   8a404:	b9002fff 	str	wzr, [sp, #44]
   8a408:	1400002d 	b	8a4bc <DiagLine16+0x1b8>
   8a40c:	f9401fe0 	ldr	x0, [sp, #56]
   8a410:	794043e1 	ldrh	w1, [sp, #32]
   8a414:	79000001 	strh	w1, [x0]
   8a418:	b94037e1 	ldr	w1, [sp, #52]
   8a41c:	b94017e0 	ldr	w0, [sp, #20]
   8a420:	0b000020 	add	w0, w1, w0
   8a424:	b90037e0 	str	w0, [sp, #52]
   8a428:	b94037e1 	ldr	w1, [sp, #52]
   8a42c:	b9402be0 	ldr	w0, [sp, #40]
   8a430:	6b00003f 	cmp	w1, w0
   8a434:	54000143 	b.cc	8a45c <DiagLine16+0x158>  // b.lo, b.ul, b.last
   8a438:	b94037e1 	ldr	w1, [sp, #52]
   8a43c:	b9402be0 	ldr	w0, [sp, #40]
   8a440:	4b000020 	sub	w0, w1, w0
   8a444:	b90037e0 	str	w0, [sp, #52]
   8a448:	b9800fe0 	ldrsw	x0, [sp, #12]
   8a44c:	d37ff800 	lsl	x0, x0, #1
   8a450:	f9401fe1 	ldr	x1, [sp, #56]
   8a454:	8b000020 	add	x0, x1, x0
   8a458:	f9001fe0 	str	x0, [sp, #56]
   8a45c:	b94033e1 	ldr	w1, [sp, #48]
   8a460:	b94013e0 	ldr	w0, [sp, #16]
   8a464:	0b000020 	add	w0, w1, w0
   8a468:	b90033e0 	str	w0, [sp, #48]
   8a46c:	b94033e1 	ldr	w1, [sp, #48]
   8a470:	b9402be0 	ldr	w0, [sp, #40]
   8a474:	6b00003f 	cmp	w1, w0
   8a478:	540001c3 	b.cc	8a4b0 <DiagLine16+0x1ac>  // b.lo, b.ul, b.last
   8a47c:	b94033e1 	ldr	w1, [sp, #48]
   8a480:	b9402be0 	ldr	w0, [sp, #40]
   8a484:	4b000020 	sub	w0, w1, w0
   8a488:	b90033e0 	str	w0, [sp, #48]
   8a48c:	f9400fe0 	ldr	x0, [sp, #24]
   8a490:	b9401401 	ldr	w1, [x0, #20]
   8a494:	b9400be0 	ldr	w0, [sp, #8]
   8a498:	1b007c20 	mul	w0, w1, w0
   8a49c:	2a0003e0 	mov	w0, w0
   8a4a0:	d37ff800 	lsl	x0, x0, #1
   8a4a4:	f9401fe1 	ldr	x1, [sp, #56]
   8a4a8:	8b000020 	add	x0, x1, x0
   8a4ac:	f9001fe0 	str	x0, [sp, #56]
   8a4b0:	b9402fe0 	ldr	w0, [sp, #44]
   8a4b4:	11000400 	add	w0, w0, #0x1
   8a4b8:	b9002fe0 	str	w0, [sp, #44]
   8a4bc:	b9402fe1 	ldr	w1, [sp, #44]
   8a4c0:	b9402be0 	ldr	w0, [sp, #40]
   8a4c4:	6b00003f 	cmp	w1, w0
   8a4c8:	54fffa23 	b.cc	8a40c <DiagLine16+0x108>  // b.lo, b.ul, b.last
   8a4cc:	f9400fe0 	ldr	x0, [sp, #24]
   8a4d0:	b9401800 	ldr	w0, [x0, #24]
   8a4d4:	2a0003e2 	mov	w2, w0
   8a4d8:	b9400fe1 	ldr	w1, [sp, #12]
   8a4dc:	b94017e0 	ldr	w0, [sp, #20]
   8a4e0:	1b007c20 	mul	w0, w1, w0
   8a4e4:	0b000040 	add	w0, w2, w0
   8a4e8:	2a0003e1 	mov	w1, w0
   8a4ec:	f9400fe0 	ldr	x0, [sp, #24]
   8a4f0:	b9001801 	str	w1, [x0, #24]
   8a4f4:	f9400fe0 	ldr	x0, [sp, #24]
   8a4f8:	b9401c00 	ldr	w0, [x0, #28]
   8a4fc:	2a0003e2 	mov	w2, w0
   8a500:	b9400be1 	ldr	w1, [sp, #8]
   8a504:	b94013e0 	ldr	w0, [sp, #16]
   8a508:	1b007c20 	mul	w0, w1, w0
   8a50c:	0b000040 	add	w0, w2, w0
   8a510:	2a0003e1 	mov	w1, w0
   8a514:	f9400fe0 	ldr	x0, [sp, #24]
   8a518:	b9001c01 	str	w1, [x0, #28]
   8a51c:	d503201f 	nop
   8a520:	910103ff 	add	sp, sp, #0x40
   8a524:	d65f03c0 	ret

000000000008a528 <WriteChar16>:
   8a528:	d10103ff 	sub	sp, sp, #0x40
   8a52c:	f90007e0 	str	x0, [sp, #8]
   8a530:	39001fe1 	strb	w1, [sp, #7]
   8a534:	f94007e0 	ldr	x0, [sp, #8]
   8a538:	b9400001 	ldr	w1, [x0]
   8a53c:	b9400400 	ldr	w0, [x0, #4]
   8a540:	d3607c00 	lsl	x0, x0, #32
   8a544:	aa010000 	orr	x0, x0, x1
   8a548:	aa0003e1 	mov	x1, x0
   8a54c:	f94007e0 	ldr	x0, [sp, #8]
   8a550:	b9401c00 	ldr	w0, [x0, #28]
   8a554:	2a0003e2 	mov	w2, w0
   8a558:	f94007e0 	ldr	x0, [sp, #8]
   8a55c:	b9401400 	ldr	w0, [x0, #20]
   8a560:	1b007c40 	mul	w0, w2, w0
   8a564:	531f7800 	lsl	w0, w0, #1
   8a568:	2a0003e0 	mov	w0, w0
   8a56c:	8b000021 	add	x1, x1, x0
   8a570:	f94007e0 	ldr	x0, [sp, #8]
   8a574:	b9401800 	ldr	w0, [x0, #24]
   8a578:	531f7800 	lsl	w0, w0, #1
   8a57c:	93407c00 	sxtw	x0, w0
   8a580:	8b000020 	add	x0, x1, x0
   8a584:	f9001fe0 	str	x0, [sp, #56]
   8a588:	f94007e0 	ldr	x0, [sp, #8]
   8a58c:	3940a800 	ldrb	w0, [x0, #42]
   8a590:	53037c00 	lsr	w0, w0, #3
   8a594:	12001c00 	and	w0, w0, #0xff
   8a598:	12001000 	and	w0, w0, #0x1f
   8a59c:	12001c01 	and	w1, w0, #0xff
   8a5a0:	394087e0 	ldrb	w0, [sp, #33]
   8a5a4:	331d1020 	bfi	w0, w1, #3, #5
   8a5a8:	390087e0 	strb	w0, [sp, #33]
   8a5ac:	f94007e0 	ldr	x0, [sp, #8]
   8a5b0:	3940a400 	ldrb	w0, [x0, #41]
   8a5b4:	53027c00 	lsr	w0, w0, #2
   8a5b8:	12001c00 	and	w0, w0, #0xff
   8a5bc:	12001400 	and	w0, w0, #0x3f
   8a5c0:	12001c01 	and	w1, w0, #0xff
   8a5c4:	794043e0 	ldrh	w0, [sp, #32]
   8a5c8:	331b1420 	bfi	w0, w1, #5, #6
   8a5cc:	790043e0 	strh	w0, [sp, #32]
   8a5d0:	f94007e0 	ldr	x0, [sp, #8]
   8a5d4:	3940a000 	ldrb	w0, [x0, #40]
   8a5d8:	53037c00 	lsr	w0, w0, #3
   8a5dc:	12001c00 	and	w0, w0, #0xff
   8a5e0:	12001000 	and	w0, w0, #0x1f
   8a5e4:	12001c01 	and	w1, w0, #0xff
   8a5e8:	394083e0 	ldrb	w0, [sp, #32]
   8a5ec:	33001020 	bfxil	w0, w1, #0, #5
   8a5f0:	390083e0 	strb	w0, [sp, #32]
   8a5f4:	f94007e0 	ldr	x0, [sp, #8]
   8a5f8:	3940b800 	ldrb	w0, [x0, #46]
   8a5fc:	53037c00 	lsr	w0, w0, #3
   8a600:	12001c00 	and	w0, w0, #0xff
   8a604:	12001000 	and	w0, w0, #0x1f
   8a608:	12001c01 	and	w1, w0, #0xff
   8a60c:	394067e0 	ldrb	w0, [sp, #25]
   8a610:	331d1020 	bfi	w0, w1, #3, #5
   8a614:	390067e0 	strb	w0, [sp, #25]
   8a618:	f94007e0 	ldr	x0, [sp, #8]
   8a61c:	3940b400 	ldrb	w0, [x0, #45]
   8a620:	53027c00 	lsr	w0, w0, #2
   8a624:	12001c00 	and	w0, w0, #0xff
   8a628:	12001400 	and	w0, w0, #0x3f
   8a62c:	12001c01 	and	w1, w0, #0xff
   8a630:	794033e0 	ldrh	w0, [sp, #24]
   8a634:	331b1420 	bfi	w0, w1, #5, #6
   8a638:	790033e0 	strh	w0, [sp, #24]
   8a63c:	f94007e0 	ldr	x0, [sp, #8]
   8a640:	3940b000 	ldrb	w0, [x0, #44]
   8a644:	53037c00 	lsr	w0, w0, #3
   8a648:	12001c00 	and	w0, w0, #0xff
   8a64c:	12001000 	and	w0, w0, #0x1f
   8a650:	12001c01 	and	w1, w0, #0xff
   8a654:	394063e0 	ldrb	w0, [sp, #24]
   8a658:	33001020 	bfxil	w0, w1, #0, #5
   8a65c:	390063e0 	strb	w0, [sp, #24]
   8a660:	b90037ff 	str	wzr, [sp, #52]
   8a664:	14000033 	b	8a730 <WriteChar16+0x208>
   8a668:	39401fe0 	ldrb	w0, [sp, #7]
   8a66c:	531e7400 	lsl	w0, w0, #2
   8a670:	2a0003e1 	mov	w1, w0
   8a674:	b94037e0 	ldr	w0, [sp, #52]
   8a678:	0b000021 	add	w1, w1, w0
   8a67c:	d0000040 	adrp	x0, 94000 <digits+0x70>
   8a680:	91130000 	add	x0, x0, #0x4c0
   8a684:	2a0103e1 	mov	w1, w1
   8a688:	b8617800 	ldr	w0, [x0, x1, lsl #2]
   8a68c:	b90033e0 	str	w0, [sp, #48]
   8a690:	b9002fff 	str	wzr, [sp, #44]
   8a694:	14000021 	b	8a718 <WriteChar16+0x1f0>
   8a698:	794033e0 	ldrh	w0, [sp, #24]
   8a69c:	790023e0 	strh	w0, [sp, #16]
   8a6a0:	b9402fe0 	ldr	w0, [sp, #44]
   8a6a4:	12000800 	and	w0, w0, #0x7
   8a6a8:	b9002be0 	str	w0, [sp, #40]
   8a6ac:	b94033e0 	ldr	w0, [sp, #48]
   8a6b0:	7100001f 	cmp	w0, #0x0
   8a6b4:	5400006a 	b.ge	8a6c0 <WriteChar16+0x198>  // b.tcont
   8a6b8:	794043e0 	ldrh	w0, [sp, #32]
   8a6bc:	790023e0 	strh	w0, [sp, #16]
   8a6c0:	b9802be0 	ldrsw	x0, [sp, #40]
   8a6c4:	d37ff800 	lsl	x0, x0, #1
   8a6c8:	f9401fe1 	ldr	x1, [sp, #56]
   8a6cc:	8b000020 	add	x0, x1, x0
   8a6d0:	794023e1 	ldrh	w1, [sp, #16]
   8a6d4:	79000001 	strh	w1, [x0]
   8a6d8:	b94033e0 	ldr	w0, [sp, #48]
   8a6dc:	531f7800 	lsl	w0, w0, #1
   8a6e0:	b90033e0 	str	w0, [sp, #48]
   8a6e4:	b9402be0 	ldr	w0, [sp, #40]
   8a6e8:	71001c1f 	cmp	w0, #0x7
   8a6ec:	54000101 	b.ne	8a70c <WriteChar16+0x1e4>  // b.any
   8a6f0:	f94007e0 	ldr	x0, [sp, #8]
   8a6f4:	b9401400 	ldr	w0, [x0, #20]
   8a6f8:	2a0003e0 	mov	w0, w0
   8a6fc:	d37ff800 	lsl	x0, x0, #1
   8a700:	f9401fe1 	ldr	x1, [sp, #56]
   8a704:	8b000020 	add	x0, x1, x0
   8a708:	f9001fe0 	str	x0, [sp, #56]
   8a70c:	b9402fe0 	ldr	w0, [sp, #44]
   8a710:	11000400 	add	w0, w0, #0x1
   8a714:	b9002fe0 	str	w0, [sp, #44]
   8a718:	b9402fe0 	ldr	w0, [sp, #44]
   8a71c:	71007c1f 	cmp	w0, #0x1f
   8a720:	54fffbc9 	b.ls	8a698 <WriteChar16+0x170>  // b.plast
   8a724:	b94037e0 	ldr	w0, [sp, #52]
   8a728:	11000400 	add	w0, w0, #0x1
   8a72c:	b90037e0 	str	w0, [sp, #52]
   8a730:	b94037e0 	ldr	w0, [sp, #52]
   8a734:	71000c1f 	cmp	w0, #0x3
   8a738:	54fff989 	b.ls	8a668 <WriteChar16+0x140>  // b.plast
   8a73c:	f94007e0 	ldr	x0, [sp, #8]
   8a740:	b9401800 	ldr	w0, [x0, #24]
   8a744:	11002001 	add	w1, w0, #0x8
   8a748:	f94007e0 	ldr	x0, [sp, #8]
   8a74c:	b9001801 	str	w1, [x0, #24]
   8a750:	d503201f 	nop
   8a754:	910103ff 	add	sp, sp, #0x40
   8a758:	d65f03c0 	ret

000000000008a75c <TransparentWriteChar16>:
   8a75c:	d100c3ff 	sub	sp, sp, #0x30
   8a760:	f90007e0 	str	x0, [sp, #8]
   8a764:	39001fe1 	strb	w1, [sp, #7]
   8a768:	f94007e0 	ldr	x0, [sp, #8]
   8a76c:	b9400001 	ldr	w1, [x0]
   8a770:	b9400400 	ldr	w0, [x0, #4]
   8a774:	d3607c00 	lsl	x0, x0, #32
   8a778:	aa010000 	orr	x0, x0, x1
   8a77c:	aa0003e1 	mov	x1, x0
   8a780:	f94007e0 	ldr	x0, [sp, #8]
   8a784:	b9401c00 	ldr	w0, [x0, #28]
   8a788:	2a0003e2 	mov	w2, w0
   8a78c:	f94007e0 	ldr	x0, [sp, #8]
   8a790:	b9401400 	ldr	w0, [x0, #20]
   8a794:	1b007c40 	mul	w0, w2, w0
   8a798:	531f7800 	lsl	w0, w0, #1
   8a79c:	2a0003e0 	mov	w0, w0
   8a7a0:	8b000021 	add	x1, x1, x0
   8a7a4:	f94007e0 	ldr	x0, [sp, #8]
   8a7a8:	b9401800 	ldr	w0, [x0, #24]
   8a7ac:	531f7800 	lsl	w0, w0, #1
   8a7b0:	93407c00 	sxtw	x0, w0
   8a7b4:	8b000020 	add	x0, x1, x0
   8a7b8:	f90017e0 	str	x0, [sp, #40]
   8a7bc:	f94007e0 	ldr	x0, [sp, #8]
   8a7c0:	3940a800 	ldrb	w0, [x0, #42]
   8a7c4:	53037c00 	lsr	w0, w0, #3
   8a7c8:	12001c00 	and	w0, w0, #0xff
   8a7cc:	12001000 	and	w0, w0, #0x1f
   8a7d0:	12001c01 	and	w1, w0, #0xff
   8a7d4:	394047e0 	ldrb	w0, [sp, #17]
   8a7d8:	331d1020 	bfi	w0, w1, #3, #5
   8a7dc:	390047e0 	strb	w0, [sp, #17]
   8a7e0:	f94007e0 	ldr	x0, [sp, #8]
   8a7e4:	3940a400 	ldrb	w0, [x0, #41]
   8a7e8:	53027c00 	lsr	w0, w0, #2
   8a7ec:	12001c00 	and	w0, w0, #0xff
   8a7f0:	12001400 	and	w0, w0, #0x3f
   8a7f4:	12001c01 	and	w1, w0, #0xff
   8a7f8:	794023e0 	ldrh	w0, [sp, #16]
   8a7fc:	331b1420 	bfi	w0, w1, #5, #6
   8a800:	790023e0 	strh	w0, [sp, #16]
   8a804:	f94007e0 	ldr	x0, [sp, #8]
   8a808:	3940a000 	ldrb	w0, [x0, #40]
   8a80c:	53037c00 	lsr	w0, w0, #3
   8a810:	12001c00 	and	w0, w0, #0xff
   8a814:	12001000 	and	w0, w0, #0x1f
   8a818:	12001c01 	and	w1, w0, #0xff
   8a81c:	394043e0 	ldrb	w0, [sp, #16]
   8a820:	33001020 	bfxil	w0, w1, #0, #5
   8a824:	390043e0 	strb	w0, [sp, #16]
   8a828:	b90027ff 	str	wzr, [sp, #36]
   8a82c:	1400002f 	b	8a8e8 <TransparentWriteChar16+0x18c>
   8a830:	39401fe0 	ldrb	w0, [sp, #7]
   8a834:	531e7400 	lsl	w0, w0, #2
   8a838:	2a0003e1 	mov	w1, w0
   8a83c:	b94027e0 	ldr	w0, [sp, #36]
   8a840:	0b000021 	add	w1, w1, w0
   8a844:	d0000040 	adrp	x0, 94000 <digits+0x70>
   8a848:	91130000 	add	x0, x0, #0x4c0
   8a84c:	2a0103e1 	mov	w1, w1
   8a850:	b8617800 	ldr	w0, [x0, x1, lsl #2]
   8a854:	b90023e0 	str	w0, [sp, #32]
   8a858:	b9001fff 	str	wzr, [sp, #28]
   8a85c:	1400001d 	b	8a8d0 <TransparentWriteChar16+0x174>
   8a860:	b9401fe0 	ldr	w0, [sp, #28]
   8a864:	12000800 	and	w0, w0, #0x7
   8a868:	b9001be0 	str	w0, [sp, #24]
   8a86c:	b94023e0 	ldr	w0, [sp, #32]
   8a870:	7100001f 	cmp	w0, #0x0
   8a874:	540000ea 	b.ge	8a890 <TransparentWriteChar16+0x134>  // b.tcont
   8a878:	b9801be0 	ldrsw	x0, [sp, #24]
   8a87c:	d37ff800 	lsl	x0, x0, #1
   8a880:	f94017e1 	ldr	x1, [sp, #40]
   8a884:	8b000020 	add	x0, x1, x0
   8a888:	794023e1 	ldrh	w1, [sp, #16]
   8a88c:	79000001 	strh	w1, [x0]
   8a890:	b94023e0 	ldr	w0, [sp, #32]
   8a894:	531f7800 	lsl	w0, w0, #1
   8a898:	b90023e0 	str	w0, [sp, #32]
   8a89c:	b9401be0 	ldr	w0, [sp, #24]
   8a8a0:	71001c1f 	cmp	w0, #0x7
   8a8a4:	54000101 	b.ne	8a8c4 <TransparentWriteChar16+0x168>  // b.any
   8a8a8:	f94007e0 	ldr	x0, [sp, #8]
   8a8ac:	b9401400 	ldr	w0, [x0, #20]
   8a8b0:	2a0003e0 	mov	w0, w0
   8a8b4:	d37ff800 	lsl	x0, x0, #1
   8a8b8:	f94017e1 	ldr	x1, [sp, #40]
   8a8bc:	8b000020 	add	x0, x1, x0
   8a8c0:	f90017e0 	str	x0, [sp, #40]
   8a8c4:	b9401fe0 	ldr	w0, [sp, #28]
   8a8c8:	11000400 	add	w0, w0, #0x1
   8a8cc:	b9001fe0 	str	w0, [sp, #28]
   8a8d0:	b9401fe0 	ldr	w0, [sp, #28]
   8a8d4:	71007c1f 	cmp	w0, #0x1f
   8a8d8:	54fffc49 	b.ls	8a860 <TransparentWriteChar16+0x104>  // b.plast
   8a8dc:	b94027e0 	ldr	w0, [sp, #36]
   8a8e0:	11000400 	add	w0, w0, #0x1
   8a8e4:	b90027e0 	str	w0, [sp, #36]
   8a8e8:	b94027e0 	ldr	w0, [sp, #36]
   8a8ec:	71000c1f 	cmp	w0, #0x3
   8a8f0:	54fffa09 	b.ls	8a830 <TransparentWriteChar16+0xd4>  // b.plast
   8a8f4:	f94007e0 	ldr	x0, [sp, #8]
   8a8f8:	b9401800 	ldr	w0, [x0, #24]
   8a8fc:	11002001 	add	w1, w0, #0x8
   8a900:	f94007e0 	ldr	x0, [sp, #8]
   8a904:	b9001801 	str	w1, [x0, #24]
   8a908:	d503201f 	nop
   8a90c:	9100c3ff 	add	sp, sp, #0x30
   8a910:	d65f03c0 	ret

000000000008a914 <PutImage16>:
   8a914:	d100c3ff 	sub	sp, sp, #0x30
   8a918:	f9000fe0 	str	x0, [sp, #24]
   8a91c:	b90017e1 	str	w1, [sp, #20]
   8a920:	b90013e2 	str	w2, [sp, #16]
   8a924:	f90007e3 	str	x3, [sp, #8]
   8a928:	39001fe4 	strb	w4, [sp, #7]
   8a92c:	f9400fe0 	ldr	x0, [sp, #24]
   8a930:	b9400001 	ldr	w1, [x0]
   8a934:	b9400400 	ldr	w0, [x0, #4]
   8a938:	d3607c00 	lsl	x0, x0, #32
   8a93c:	aa010000 	orr	x0, x0, x1
   8a940:	aa0003e1 	mov	x1, x0
   8a944:	f9400fe0 	ldr	x0, [sp, #24]
   8a948:	b9401c00 	ldr	w0, [x0, #28]
   8a94c:	2a0003e2 	mov	w2, w0
   8a950:	f9400fe0 	ldr	x0, [sp, #24]
   8a954:	b9401400 	ldr	w0, [x0, #20]
   8a958:	1b007c40 	mul	w0, w2, w0
   8a95c:	531f7800 	lsl	w0, w0, #1
   8a960:	2a0003e0 	mov	w0, w0
   8a964:	8b000021 	add	x1, x1, x0
   8a968:	f9400fe0 	ldr	x0, [sp, #24]
   8a96c:	b9401800 	ldr	w0, [x0, #24]
   8a970:	531f7800 	lsl	w0, w0, #1
   8a974:	93407c00 	sxtw	x0, w0
   8a978:	8b000020 	add	x0, x1, x0
   8a97c:	f90013e0 	str	x0, [sp, #32]
   8a980:	b9002fff 	str	wzr, [sp, #44]
   8a984:	14000029 	b	8aa28 <PutImage16+0x114>
   8a988:	b9002bff 	str	wzr, [sp, #40]
   8a98c:	1400000d 	b	8a9c0 <PutImage16+0xac>
   8a990:	f94007e0 	ldr	x0, [sp, #8]
   8a994:	91000801 	add	x1, x0, #0x2
   8a998:	f90007e1 	str	x1, [sp, #8]
   8a99c:	f94013e2 	ldr	x2, [sp, #32]
   8a9a0:	b9402be1 	ldr	w1, [sp, #40]
   8a9a4:	d37ff821 	lsl	x1, x1, #1
   8a9a8:	8b010041 	add	x1, x2, x1
   8a9ac:	79400000 	ldrh	w0, [x0]
   8a9b0:	79000020 	strh	w0, [x1]
   8a9b4:	b9402be0 	ldr	w0, [sp, #40]
   8a9b8:	11000400 	add	w0, w0, #0x1
   8a9bc:	b9002be0 	str	w0, [sp, #40]
   8a9c0:	b9402be1 	ldr	w1, [sp, #40]
   8a9c4:	b94017e0 	ldr	w0, [sp, #20]
   8a9c8:	6b00003f 	cmp	w1, w0
   8a9cc:	54fffe23 	b.cc	8a990 <PutImage16+0x7c>  // b.lo, b.ul, b.last
   8a9d0:	39401fe0 	ldrb	w0, [sp, #7]
   8a9d4:	7100001f 	cmp	w0, #0x0
   8a9d8:	54000140 	b.eq	8aa00 <PutImage16+0xec>  // b.none
   8a9dc:	f94013e1 	ldr	x1, [sp, #32]
   8a9e0:	f9400fe0 	ldr	x0, [sp, #24]
   8a9e4:	b9401400 	ldr	w0, [x0, #20]
   8a9e8:	2a0003e0 	mov	w0, w0
   8a9ec:	d37ff800 	lsl	x0, x0, #1
   8a9f0:	cb0003e0 	neg	x0, x0
   8a9f4:	8b000020 	add	x0, x1, x0
   8a9f8:	f90013e0 	str	x0, [sp, #32]
   8a9fc:	14000008 	b	8aa1c <PutImage16+0x108>
   8aa00:	f94013e1 	ldr	x1, [sp, #32]
   8aa04:	f9400fe0 	ldr	x0, [sp, #24]
   8aa08:	b9401400 	ldr	w0, [x0, #20]
   8aa0c:	2a0003e0 	mov	w0, w0
   8aa10:	d37ff800 	lsl	x0, x0, #1
   8aa14:	8b000020 	add	x0, x1, x0
   8aa18:	f90013e0 	str	x0, [sp, #32]
   8aa1c:	b9402fe0 	ldr	w0, [sp, #44]
   8aa20:	11000400 	add	w0, w0, #0x1
   8aa24:	b9002fe0 	str	w0, [sp, #44]
   8aa28:	b9402fe1 	ldr	w1, [sp, #44]
   8aa2c:	b94013e0 	ldr	w0, [sp, #16]
   8aa30:	6b00003f 	cmp	w1, w0
   8aa34:	54fffaa3 	b.cc	8a988 <PutImage16+0x74>  // b.lo, b.ul, b.last
   8aa38:	d503201f 	nop
   8aa3c:	9100c3ff 	add	sp, sp, #0x30
   8aa40:	d65f03c0 	ret

000000000008aa44 <SetPixel24>:
   8aa44:	d100c3ff 	sub	sp, sp, #0x30
   8aa48:	f9000fe0 	str	x0, [sp, #24]
   8aa4c:	b90017e1 	str	w1, [sp, #20]
   8aa50:	b90013e2 	str	w2, [sp, #16]
   8aa54:	b9000be3 	str	w3, [sp, #8]
   8aa58:	f9400fe0 	ldr	x0, [sp, #24]
   8aa5c:	b9400001 	ldr	w1, [x0]
   8aa60:	b9400400 	ldr	w0, [x0, #4]
   8aa64:	d3607c00 	lsl	x0, x0, #32
   8aa68:	aa010000 	orr	x0, x0, x1
   8aa6c:	aa0003e2 	mov	x2, x0
   8aa70:	f9400fe0 	ldr	x0, [sp, #24]
   8aa74:	b9401401 	ldr	w1, [x0, #20]
   8aa78:	b94013e0 	ldr	w0, [sp, #16]
   8aa7c:	1b007c21 	mul	w1, w1, w0
   8aa80:	2a0103e0 	mov	w0, w1
   8aa84:	531f7800 	lsl	w0, w0, #1
   8aa88:	0b010000 	add	w0, w0, w1
   8aa8c:	2a0003e0 	mov	w0, w0
   8aa90:	8b000042 	add	x2, x2, x0
   8aa94:	b94017e1 	ldr	w1, [sp, #20]
   8aa98:	2a0103e0 	mov	w0, w1
   8aa9c:	531f7800 	lsl	w0, w0, #1
   8aaa0:	0b010000 	add	w0, w0, w1
   8aaa4:	2a0003e0 	mov	w0, w0
   8aaa8:	8b000040 	add	x0, x2, x0
   8aaac:	f90017e0 	str	x0, [sp, #40]
   8aab0:	f94017e0 	ldr	x0, [sp, #40]
   8aab4:	394023e1 	ldrb	w1, [sp, #8]
   8aab8:	39000001 	strb	w1, [x0]
   8aabc:	394027e1 	ldrb	w1, [sp, #9]
   8aac0:	39000401 	strb	w1, [x0, #1]
   8aac4:	39402be1 	ldrb	w1, [sp, #10]
   8aac8:	39000801 	strb	w1, [x0, #2]
   8aacc:	b9400be0 	ldr	w0, [sp, #8]
   8aad0:	b90023e0 	str	w0, [sp, #32]
   8aad4:	d2800000 	mov	x0, #0x0                   	// #0
   8aad8:	b94023e1 	ldr	w1, [sp, #32]
   8aadc:	b3407c20 	bfxil	x0, x1, #0, #32
   8aae0:	9100c3ff 	add	sp, sp, #0x30
   8aae4:	d65f03c0 	ret

000000000008aae8 <ClearArea24>:
   8aae8:	d100c3ff 	sub	sp, sp, #0x30
   8aaec:	f9000fe0 	str	x0, [sp, #24]
   8aaf0:	b90017e1 	str	w1, [sp, #20]
   8aaf4:	b90013e2 	str	w2, [sp, #16]
   8aaf8:	b9000fe3 	str	w3, [sp, #12]
   8aafc:	b9000be4 	str	w4, [sp, #8]
   8ab00:	f9400fe0 	ldr	x0, [sp, #24]
   8ab04:	b9400001 	ldr	w1, [x0]
   8ab08:	b9400400 	ldr	w0, [x0, #4]
   8ab0c:	d3607c00 	lsl	x0, x0, #32
   8ab10:	aa010000 	orr	x0, x0, x1
   8ab14:	aa0003e2 	mov	x2, x0
   8ab18:	f9400fe0 	ldr	x0, [sp, #24]
   8ab1c:	b9401401 	ldr	w1, [x0, #20]
   8ab20:	b94013e0 	ldr	w0, [sp, #16]
   8ab24:	1b007c21 	mul	w1, w1, w0
   8ab28:	2a0103e0 	mov	w0, w1
   8ab2c:	531f7800 	lsl	w0, w0, #1
   8ab30:	0b010000 	add	w0, w0, w1
   8ab34:	2a0003e0 	mov	w0, w0
   8ab38:	8b000042 	add	x2, x2, x0
   8ab3c:	b94017e1 	ldr	w1, [sp, #20]
   8ab40:	2a0103e0 	mov	w0, w1
   8ab44:	531f7800 	lsl	w0, w0, #1
   8ab48:	0b010000 	add	w0, w0, w1
   8ab4c:	2a0003e0 	mov	w0, w0
   8ab50:	8b000040 	add	x0, x2, x0
   8ab54:	f90017e0 	str	x0, [sp, #40]
   8ab58:	b90027ff 	str	wzr, [sp, #36]
   8ab5c:	14000026 	b	8abf4 <ClearArea24+0x10c>
   8ab60:	b90023ff 	str	wzr, [sp, #32]
   8ab64:	14000012 	b	8abac <ClearArea24+0xc4>
   8ab68:	b94023e1 	ldr	w1, [sp, #32]
   8ab6c:	aa0103e0 	mov	x0, x1
   8ab70:	d37ff800 	lsl	x0, x0, #1
   8ab74:	8b010000 	add	x0, x0, x1
   8ab78:	f94017e1 	ldr	x1, [sp, #40]
   8ab7c:	8b000020 	add	x0, x1, x0
   8ab80:	f9400fe1 	ldr	x1, [sp, #24]
   8ab84:	9100c021 	add	x1, x1, #0x30
   8ab88:	39400022 	ldrb	w2, [x1]
   8ab8c:	39000002 	strb	w2, [x0]
   8ab90:	39400422 	ldrb	w2, [x1, #1]
   8ab94:	39000402 	strb	w2, [x0, #1]
   8ab98:	39400821 	ldrb	w1, [x1, #2]
   8ab9c:	39000801 	strb	w1, [x0, #2]
   8aba0:	b94023e0 	ldr	w0, [sp, #32]
   8aba4:	11000400 	add	w0, w0, #0x1
   8aba8:	b90023e0 	str	w0, [sp, #32]
   8abac:	b9400fe1 	ldr	w1, [sp, #12]
   8abb0:	b94017e0 	ldr	w0, [sp, #20]
   8abb4:	4b000020 	sub	w0, w1, w0
   8abb8:	b94023e1 	ldr	w1, [sp, #32]
   8abbc:	6b00003f 	cmp	w1, w0
   8abc0:	54fffd43 	b.cc	8ab68 <ClearArea24+0x80>  // b.lo, b.ul, b.last
   8abc4:	f9400fe0 	ldr	x0, [sp, #24]
   8abc8:	b9401400 	ldr	w0, [x0, #20]
   8abcc:	2a0003e1 	mov	w1, w0
   8abd0:	aa0103e0 	mov	x0, x1
   8abd4:	d37ff800 	lsl	x0, x0, #1
   8abd8:	8b010000 	add	x0, x0, x1
   8abdc:	f94017e1 	ldr	x1, [sp, #40]
   8abe0:	8b000020 	add	x0, x1, x0
   8abe4:	f90017e0 	str	x0, [sp, #40]
   8abe8:	b94027e0 	ldr	w0, [sp, #36]
   8abec:	11000400 	add	w0, w0, #0x1
   8abf0:	b90027e0 	str	w0, [sp, #36]
   8abf4:	b9400be1 	ldr	w1, [sp, #8]
   8abf8:	b94013e0 	ldr	w0, [sp, #16]
   8abfc:	4b000020 	sub	w0, w1, w0
   8ac00:	b94027e1 	ldr	w1, [sp, #36]
   8ac04:	6b00003f 	cmp	w1, w0
   8ac08:	54fffac3 	b.cc	8ab60 <ClearArea24+0x78>  // b.lo, b.ul, b.last
   8ac0c:	d503201f 	nop
   8ac10:	9100c3ff 	add	sp, sp, #0x30
   8ac14:	d65f03c0 	ret

000000000008ac18 <VertLine24>:
   8ac18:	d10083ff 	sub	sp, sp, #0x20
   8ac1c:	f90007e0 	str	x0, [sp, #8]
   8ac20:	b90007e1 	str	w1, [sp, #4]
   8ac24:	b90003e2 	str	w2, [sp]
   8ac28:	f94007e0 	ldr	x0, [sp, #8]
   8ac2c:	b9400001 	ldr	w1, [x0]
   8ac30:	b9400400 	ldr	w0, [x0, #4]
   8ac34:	d3607c00 	lsl	x0, x0, #32
   8ac38:	aa010000 	orr	x0, x0, x1
   8ac3c:	aa0003e2 	mov	x2, x0
   8ac40:	f94007e0 	ldr	x0, [sp, #8]
   8ac44:	b9401c00 	ldr	w0, [x0, #28]
   8ac48:	2a0003e1 	mov	w1, w0
   8ac4c:	f94007e0 	ldr	x0, [sp, #8]
   8ac50:	b9401400 	ldr	w0, [x0, #20]
   8ac54:	1b007c21 	mul	w1, w1, w0
   8ac58:	2a0103e0 	mov	w0, w1
   8ac5c:	531f7800 	lsl	w0, w0, #1
   8ac60:	0b010000 	add	w0, w0, w1
   8ac64:	2a0003e0 	mov	w0, w0
   8ac68:	8b000042 	add	x2, x2, x0
   8ac6c:	f94007e0 	ldr	x0, [sp, #8]
   8ac70:	b9401801 	ldr	w1, [x0, #24]
   8ac74:	2a0103e0 	mov	w0, w1
   8ac78:	531f7800 	lsl	w0, w0, #1
   8ac7c:	0b010000 	add	w0, w0, w1
   8ac80:	93407c00 	sxtw	x0, w0
   8ac84:	8b000040 	add	x0, x2, x0
   8ac88:	f9000fe0 	str	x0, [sp, #24]
   8ac8c:	b90017ff 	str	wzr, [sp, #20]
   8ac90:	14000024 	b	8ad20 <VertLine24+0x108>
   8ac94:	f9400fe0 	ldr	x0, [sp, #24]
   8ac98:	f94007e1 	ldr	x1, [sp, #8]
   8ac9c:	9100a021 	add	x1, x1, #0x28
   8aca0:	39400022 	ldrb	w2, [x1]
   8aca4:	39000002 	strb	w2, [x0]
   8aca8:	39400422 	ldrb	w2, [x1, #1]
   8acac:	39000402 	strb	w2, [x0, #1]
   8acb0:	39400821 	ldrb	w1, [x1, #2]
   8acb4:	39000801 	strb	w1, [x0, #2]
   8acb8:	b94003e0 	ldr	w0, [sp]
   8acbc:	7100041f 	cmp	w0, #0x1
   8acc0:	54000161 	b.ne	8acec <VertLine24+0xd4>  // b.any
   8acc4:	f94007e0 	ldr	x0, [sp, #8]
   8acc8:	b9401400 	ldr	w0, [x0, #20]
   8accc:	2a0003e1 	mov	w1, w0
   8acd0:	aa0103e0 	mov	x0, x1
   8acd4:	d37ff800 	lsl	x0, x0, #1
   8acd8:	8b010000 	add	x0, x0, x1
   8acdc:	f9400fe1 	ldr	x1, [sp, #24]
   8ace0:	8b000020 	add	x0, x1, x0
   8ace4:	f9000fe0 	str	x0, [sp, #24]
   8ace8:	1400000b 	b	8ad14 <VertLine24+0xfc>
   8acec:	f94007e0 	ldr	x0, [sp, #8]
   8acf0:	b9401400 	ldr	w0, [x0, #20]
   8acf4:	2a0003e1 	mov	w1, w0
   8acf8:	aa0103e0 	mov	x0, x1
   8acfc:	d37ff800 	lsl	x0, x0, #1
   8ad00:	8b010000 	add	x0, x0, x1
   8ad04:	cb0003e0 	neg	x0, x0
   8ad08:	f9400fe1 	ldr	x1, [sp, #24]
   8ad0c:	8b000020 	add	x0, x1, x0
   8ad10:	f9000fe0 	str	x0, [sp, #24]
   8ad14:	b94017e0 	ldr	w0, [sp, #20]
   8ad18:	11000400 	add	w0, w0, #0x1
   8ad1c:	b90017e0 	str	w0, [sp, #20]
   8ad20:	b94017e1 	ldr	w1, [sp, #20]
   8ad24:	b94007e0 	ldr	w0, [sp, #4]
   8ad28:	6b00003f 	cmp	w1, w0
   8ad2c:	54fffb43 	b.cc	8ac94 <VertLine24+0x7c>  // b.lo, b.ul, b.last
   8ad30:	f94007e0 	ldr	x0, [sp, #8]
   8ad34:	b9401c00 	ldr	w0, [x0, #28]
   8ad38:	2a0003e2 	mov	w2, w0
   8ad3c:	b94003e1 	ldr	w1, [sp]
   8ad40:	b94007e0 	ldr	w0, [sp, #4]
   8ad44:	1b007c20 	mul	w0, w1, w0
   8ad48:	0b000040 	add	w0, w2, w0
   8ad4c:	2a0003e1 	mov	w1, w0
   8ad50:	f94007e0 	ldr	x0, [sp, #8]
   8ad54:	b9001c01 	str	w1, [x0, #28]
   8ad58:	d503201f 	nop
   8ad5c:	910083ff 	add	sp, sp, #0x20
   8ad60:	d65f03c0 	ret

000000000008ad64 <HorzLine24>:
   8ad64:	d10083ff 	sub	sp, sp, #0x20
   8ad68:	f90007e0 	str	x0, [sp, #8]
   8ad6c:	b90007e1 	str	w1, [sp, #4]
   8ad70:	b90003e2 	str	w2, [sp]
   8ad74:	f94007e0 	ldr	x0, [sp, #8]
   8ad78:	b9400001 	ldr	w1, [x0]
   8ad7c:	b9400400 	ldr	w0, [x0, #4]
   8ad80:	d3607c00 	lsl	x0, x0, #32
   8ad84:	aa010000 	orr	x0, x0, x1
   8ad88:	aa0003e2 	mov	x2, x0
   8ad8c:	f94007e0 	ldr	x0, [sp, #8]
   8ad90:	b9401c00 	ldr	w0, [x0, #28]
   8ad94:	2a0003e1 	mov	w1, w0
   8ad98:	f94007e0 	ldr	x0, [sp, #8]
   8ad9c:	b9401400 	ldr	w0, [x0, #20]
   8ada0:	1b007c21 	mul	w1, w1, w0
   8ada4:	2a0103e0 	mov	w0, w1
   8ada8:	531f7800 	lsl	w0, w0, #1
   8adac:	0b010000 	add	w0, w0, w1
   8adb0:	2a0003e0 	mov	w0, w0
   8adb4:	8b000042 	add	x2, x2, x0
   8adb8:	f94007e0 	ldr	x0, [sp, #8]
   8adbc:	b9401801 	ldr	w1, [x0, #24]
   8adc0:	2a0103e0 	mov	w0, w1
   8adc4:	531f7800 	lsl	w0, w0, #1
   8adc8:	0b010000 	add	w0, w0, w1
   8adcc:	93407c00 	sxtw	x0, w0
   8add0:	8b000040 	add	x0, x2, x0
   8add4:	f9000fe0 	str	x0, [sp, #24]
   8add8:	b90017ff 	str	wzr, [sp, #20]
   8addc:	14000014 	b	8ae2c <HorzLine24+0xc8>
   8ade0:	f9400fe0 	ldr	x0, [sp, #24]
   8ade4:	f94007e1 	ldr	x1, [sp, #8]
   8ade8:	9100a021 	add	x1, x1, #0x28
   8adec:	39400022 	ldrb	w2, [x1]
   8adf0:	39000002 	strb	w2, [x0]
   8adf4:	39400422 	ldrb	w2, [x1, #1]
   8adf8:	39000402 	strb	w2, [x0, #1]
   8adfc:	39400821 	ldrb	w1, [x1, #2]
   8ae00:	39000801 	strb	w1, [x0, #2]
   8ae04:	b98003e1 	ldrsw	x1, [sp]
   8ae08:	aa0103e0 	mov	x0, x1
   8ae0c:	d37ff800 	lsl	x0, x0, #1
   8ae10:	8b010000 	add	x0, x0, x1
   8ae14:	f9400fe1 	ldr	x1, [sp, #24]
   8ae18:	8b000020 	add	x0, x1, x0
   8ae1c:	f9000fe0 	str	x0, [sp, #24]
   8ae20:	b94017e0 	ldr	w0, [sp, #20]
   8ae24:	11000400 	add	w0, w0, #0x1
   8ae28:	b90017e0 	str	w0, [sp, #20]
   8ae2c:	b94017e1 	ldr	w1, [sp, #20]
   8ae30:	b94007e0 	ldr	w0, [sp, #4]
   8ae34:	6b00003f 	cmp	w1, w0
   8ae38:	54fffd43 	b.cc	8ade0 <HorzLine24+0x7c>  // b.lo, b.ul, b.last
   8ae3c:	f94007e0 	ldr	x0, [sp, #8]
   8ae40:	b9401800 	ldr	w0, [x0, #24]
   8ae44:	2a0003e2 	mov	w2, w0
   8ae48:	b94003e1 	ldr	w1, [sp]
   8ae4c:	b94007e0 	ldr	w0, [sp, #4]
   8ae50:	1b007c20 	mul	w0, w1, w0
   8ae54:	0b000040 	add	w0, w2, w0
   8ae58:	2a0003e1 	mov	w1, w0
   8ae5c:	f94007e0 	ldr	x0, [sp, #8]
   8ae60:	b9001801 	str	w1, [x0, #24]
   8ae64:	d503201f 	nop
   8ae68:	910083ff 	add	sp, sp, #0x20
   8ae6c:	d65f03c0 	ret

000000000008ae70 <DiagLine24>:
   8ae70:	d10103ff 	sub	sp, sp, #0x40
   8ae74:	f9000fe0 	str	x0, [sp, #24]
   8ae78:	b90017e1 	str	w1, [sp, #20]
   8ae7c:	b90013e2 	str	w2, [sp, #16]
   8ae80:	b9000fe3 	str	w3, [sp, #12]
   8ae84:	b9000be4 	str	w4, [sp, #8]
   8ae88:	f9400fe0 	ldr	x0, [sp, #24]
   8ae8c:	b9400001 	ldr	w1, [x0]
   8ae90:	b9400400 	ldr	w0, [x0, #4]
   8ae94:	d3607c00 	lsl	x0, x0, #32
   8ae98:	aa010000 	orr	x0, x0, x1
   8ae9c:	aa0003e2 	mov	x2, x0
   8aea0:	f9400fe0 	ldr	x0, [sp, #24]
   8aea4:	b9401c00 	ldr	w0, [x0, #28]
   8aea8:	2a0003e1 	mov	w1, w0
   8aeac:	f9400fe0 	ldr	x0, [sp, #24]
   8aeb0:	b9401400 	ldr	w0, [x0, #20]
   8aeb4:	1b007c21 	mul	w1, w1, w0
   8aeb8:	2a0103e0 	mov	w0, w1
   8aebc:	531f7800 	lsl	w0, w0, #1
   8aec0:	0b010000 	add	w0, w0, w1
   8aec4:	2a0003e0 	mov	w0, w0
   8aec8:	8b000042 	add	x2, x2, x0
   8aecc:	f9400fe0 	ldr	x0, [sp, #24]
   8aed0:	b9401801 	ldr	w1, [x0, #24]
   8aed4:	2a0103e0 	mov	w0, w1
   8aed8:	531f7800 	lsl	w0, w0, #1
   8aedc:	0b010000 	add	w0, w0, w1
   8aee0:	93407c00 	sxtw	x0, w0
   8aee4:	8b000040 	add	x0, x2, x0
   8aee8:	f9001fe0 	str	x0, [sp, #56]
   8aeec:	b90037ff 	str	wzr, [sp, #52]
   8aef0:	b90033ff 	str	wzr, [sp, #48]
   8aef4:	b94017e0 	ldr	w0, [sp, #20]
   8aef8:	b9002be0 	str	w0, [sp, #40]
   8aefc:	b94013e1 	ldr	w1, [sp, #16]
   8af00:	b9402be0 	ldr	w0, [sp, #40]
   8af04:	6b00003f 	cmp	w1, w0
   8af08:	54000069 	b.ls	8af14 <DiagLine24+0xa4>  // b.plast
   8af0c:	b9402be0 	ldr	w0, [sp, #40]
   8af10:	b90013e0 	str	w0, [sp, #16]
   8af14:	b9002fff 	str	wzr, [sp, #44]
   8af18:	14000037 	b	8aff4 <DiagLine24+0x184>
   8af1c:	f9401fe0 	ldr	x0, [sp, #56]
   8af20:	f9400fe1 	ldr	x1, [sp, #24]
   8af24:	9100a021 	add	x1, x1, #0x28
   8af28:	39400022 	ldrb	w2, [x1]
   8af2c:	39000002 	strb	w2, [x0]
   8af30:	39400422 	ldrb	w2, [x1, #1]
   8af34:	39000402 	strb	w2, [x0, #1]
   8af38:	39400821 	ldrb	w1, [x1, #2]
   8af3c:	39000801 	strb	w1, [x0, #2]
   8af40:	b94037e1 	ldr	w1, [sp, #52]
   8af44:	b94017e0 	ldr	w0, [sp, #20]
   8af48:	0b000020 	add	w0, w1, w0
   8af4c:	b90037e0 	str	w0, [sp, #52]
   8af50:	b94037e1 	ldr	w1, [sp, #52]
   8af54:	b9402be0 	ldr	w0, [sp, #40]
   8af58:	6b00003f 	cmp	w1, w0
   8af5c:	54000183 	b.cc	8af8c <DiagLine24+0x11c>  // b.lo, b.ul, b.last
   8af60:	b94037e1 	ldr	w1, [sp, #52]
   8af64:	b9402be0 	ldr	w0, [sp, #40]
   8af68:	4b000020 	sub	w0, w1, w0
   8af6c:	b90037e0 	str	w0, [sp, #52]
   8af70:	b9800fe1 	ldrsw	x1, [sp, #12]
   8af74:	aa0103e0 	mov	x0, x1
   8af78:	d37ff800 	lsl	x0, x0, #1
   8af7c:	8b010000 	add	x0, x0, x1
   8af80:	f9401fe1 	ldr	x1, [sp, #56]
   8af84:	8b000020 	add	x0, x1, x0
   8af88:	f9001fe0 	str	x0, [sp, #56]
   8af8c:	b94033e1 	ldr	w1, [sp, #48]
   8af90:	b94013e0 	ldr	w0, [sp, #16]
   8af94:	0b000020 	add	w0, w1, w0
   8af98:	b90033e0 	str	w0, [sp, #48]
   8af9c:	b94033e1 	ldr	w1, [sp, #48]
   8afa0:	b9402be0 	ldr	w0, [sp, #40]
   8afa4:	6b00003f 	cmp	w1, w0
   8afa8:	54000203 	b.cc	8afe8 <DiagLine24+0x178>  // b.lo, b.ul, b.last
   8afac:	b94033e1 	ldr	w1, [sp, #48]
   8afb0:	b9402be0 	ldr	w0, [sp, #40]
   8afb4:	4b000020 	sub	w0, w1, w0
   8afb8:	b90033e0 	str	w0, [sp, #48]
   8afbc:	f9400fe0 	ldr	x0, [sp, #24]
   8afc0:	b9401401 	ldr	w1, [x0, #20]
   8afc4:	b9400be0 	ldr	w0, [sp, #8]
   8afc8:	1b007c20 	mul	w0, w1, w0
   8afcc:	2a0003e1 	mov	w1, w0
   8afd0:	aa0103e0 	mov	x0, x1
   8afd4:	d37ff800 	lsl	x0, x0, #1
   8afd8:	8b010000 	add	x0, x0, x1
   8afdc:	f9401fe1 	ldr	x1, [sp, #56]
   8afe0:	8b000020 	add	x0, x1, x0
   8afe4:	f9001fe0 	str	x0, [sp, #56]
   8afe8:	b9402fe0 	ldr	w0, [sp, #44]
   8afec:	11000400 	add	w0, w0, #0x1
   8aff0:	b9002fe0 	str	w0, [sp, #44]
   8aff4:	b9402fe1 	ldr	w1, [sp, #44]
   8aff8:	b9402be0 	ldr	w0, [sp, #40]
   8affc:	6b00003f 	cmp	w1, w0
   8b000:	54fff8e3 	b.cc	8af1c <DiagLine24+0xac>  // b.lo, b.ul, b.last
   8b004:	f9400fe0 	ldr	x0, [sp, #24]
   8b008:	b9401800 	ldr	w0, [x0, #24]
   8b00c:	2a0003e2 	mov	w2, w0
   8b010:	b9400fe1 	ldr	w1, [sp, #12]
   8b014:	b94017e0 	ldr	w0, [sp, #20]
   8b018:	1b007c20 	mul	w0, w1, w0
   8b01c:	0b000040 	add	w0, w2, w0
   8b020:	2a0003e1 	mov	w1, w0
   8b024:	f9400fe0 	ldr	x0, [sp, #24]
   8b028:	b9001801 	str	w1, [x0, #24]
   8b02c:	f9400fe0 	ldr	x0, [sp, #24]
   8b030:	b9401c00 	ldr	w0, [x0, #28]
   8b034:	2a0003e2 	mov	w2, w0
   8b038:	b9400be1 	ldr	w1, [sp, #8]
   8b03c:	b94013e0 	ldr	w0, [sp, #16]
   8b040:	1b007c20 	mul	w0, w1, w0
   8b044:	0b000040 	add	w0, w2, w0
   8b048:	2a0003e1 	mov	w1, w0
   8b04c:	f9400fe0 	ldr	x0, [sp, #24]
   8b050:	b9001c01 	str	w1, [x0, #28]
   8b054:	d503201f 	nop
   8b058:	910103ff 	add	sp, sp, #0x40
   8b05c:	d65f03c0 	ret

000000000008b060 <WriteChar24>:
   8b060:	d100c3ff 	sub	sp, sp, #0x30
   8b064:	f90007e0 	str	x0, [sp, #8]
   8b068:	39001fe1 	strb	w1, [sp, #7]
   8b06c:	f94007e0 	ldr	x0, [sp, #8]
   8b070:	b9400001 	ldr	w1, [x0]
   8b074:	b9400400 	ldr	w0, [x0, #4]
   8b078:	d3607c00 	lsl	x0, x0, #32
   8b07c:	aa010000 	orr	x0, x0, x1
   8b080:	aa0003e2 	mov	x2, x0
   8b084:	f94007e0 	ldr	x0, [sp, #8]
   8b088:	b9401c00 	ldr	w0, [x0, #28]
   8b08c:	2a0003e1 	mov	w1, w0
   8b090:	f94007e0 	ldr	x0, [sp, #8]
   8b094:	b9401400 	ldr	w0, [x0, #20]
   8b098:	1b007c21 	mul	w1, w1, w0
   8b09c:	2a0103e0 	mov	w0, w1
   8b0a0:	531f7800 	lsl	w0, w0, #1
   8b0a4:	0b010000 	add	w0, w0, w1
   8b0a8:	2a0003e0 	mov	w0, w0
   8b0ac:	8b000042 	add	x2, x2, x0
   8b0b0:	f94007e0 	ldr	x0, [sp, #8]
   8b0b4:	b9401801 	ldr	w1, [x0, #24]
   8b0b8:	2a0103e0 	mov	w0, w1
   8b0bc:	531f7800 	lsl	w0, w0, #1
   8b0c0:	0b010000 	add	w0, w0, w1
   8b0c4:	93407c00 	sxtw	x0, w0
   8b0c8:	8b000040 	add	x0, x2, x0
   8b0cc:	f90017e0 	str	x0, [sp, #40]
   8b0d0:	b90027ff 	str	wzr, [sp, #36]
   8b0d4:	14000043 	b	8b1e0 <WriteChar24+0x180>
   8b0d8:	39401fe0 	ldrb	w0, [sp, #7]
   8b0dc:	531e7400 	lsl	w0, w0, #2
   8b0e0:	2a0003e1 	mov	w1, w0
   8b0e4:	b94027e0 	ldr	w0, [sp, #36]
   8b0e8:	0b000021 	add	w1, w1, w0
   8b0ec:	b0000040 	adrp	x0, 94000 <digits+0x70>
   8b0f0:	91130000 	add	x0, x0, #0x4c0
   8b0f4:	2a0103e1 	mov	w1, w1
   8b0f8:	b8617800 	ldr	w0, [x0, x1, lsl #2]
   8b0fc:	b90023e0 	str	w0, [sp, #32]
   8b100:	b9001fff 	str	wzr, [sp, #28]
   8b104:	14000031 	b	8b1c8 <WriteChar24+0x168>
   8b108:	f94007e0 	ldr	x0, [sp, #8]
   8b10c:	9100b000 	add	x0, x0, #0x2c
   8b110:	79400001 	ldrh	w1, [x0]
   8b114:	790023e1 	strh	w1, [sp, #16]
   8b118:	39400800 	ldrb	w0, [x0, #2]
   8b11c:	39004be0 	strb	w0, [sp, #18]
   8b120:	b9401fe0 	ldr	w0, [sp, #28]
   8b124:	12000800 	and	w0, w0, #0x7
   8b128:	b9001be0 	str	w0, [sp, #24]
   8b12c:	b94023e0 	ldr	w0, [sp, #32]
   8b130:	7100001f 	cmp	w0, #0x0
   8b134:	540000ea 	b.ge	8b150 <WriteChar24+0xf0>  // b.tcont
   8b138:	f94007e0 	ldr	x0, [sp, #8]
   8b13c:	9100a000 	add	x0, x0, #0x28
   8b140:	79400001 	ldrh	w1, [x0]
   8b144:	790023e1 	strh	w1, [sp, #16]
   8b148:	39400800 	ldrb	w0, [x0, #2]
   8b14c:	39004be0 	strb	w0, [sp, #18]
   8b150:	b9801be1 	ldrsw	x1, [sp, #24]
   8b154:	aa0103e0 	mov	x0, x1
   8b158:	d37ff800 	lsl	x0, x0, #1
   8b15c:	8b010000 	add	x0, x0, x1
   8b160:	f94017e1 	ldr	x1, [sp, #40]
   8b164:	8b000020 	add	x0, x1, x0
   8b168:	394043e1 	ldrb	w1, [sp, #16]
   8b16c:	39000001 	strb	w1, [x0]
   8b170:	394047e1 	ldrb	w1, [sp, #17]
   8b174:	39000401 	strb	w1, [x0, #1]
   8b178:	39404be1 	ldrb	w1, [sp, #18]
   8b17c:	39000801 	strb	w1, [x0, #2]
   8b180:	b94023e0 	ldr	w0, [sp, #32]
   8b184:	531f7800 	lsl	w0, w0, #1
   8b188:	b90023e0 	str	w0, [sp, #32]
   8b18c:	b9401be0 	ldr	w0, [sp, #24]
   8b190:	71001c1f 	cmp	w0, #0x7
   8b194:	54000141 	b.ne	8b1bc <WriteChar24+0x15c>  // b.any
   8b198:	f94007e0 	ldr	x0, [sp, #8]
   8b19c:	b9401400 	ldr	w0, [x0, #20]
   8b1a0:	2a0003e1 	mov	w1, w0
   8b1a4:	aa0103e0 	mov	x0, x1
   8b1a8:	d37ff800 	lsl	x0, x0, #1
   8b1ac:	8b010000 	add	x0, x0, x1
   8b1b0:	f94017e1 	ldr	x1, [sp, #40]
   8b1b4:	8b000020 	add	x0, x1, x0
   8b1b8:	f90017e0 	str	x0, [sp, #40]
   8b1bc:	b9401fe0 	ldr	w0, [sp, #28]
   8b1c0:	11000400 	add	w0, w0, #0x1
   8b1c4:	b9001fe0 	str	w0, [sp, #28]
   8b1c8:	b9401fe0 	ldr	w0, [sp, #28]
   8b1cc:	71007c1f 	cmp	w0, #0x1f
   8b1d0:	54fff9c9 	b.ls	8b108 <WriteChar24+0xa8>  // b.plast
   8b1d4:	b94027e0 	ldr	w0, [sp, #36]
   8b1d8:	11000400 	add	w0, w0, #0x1
   8b1dc:	b90027e0 	str	w0, [sp, #36]
   8b1e0:	b94027e0 	ldr	w0, [sp, #36]
   8b1e4:	71000c1f 	cmp	w0, #0x3
   8b1e8:	54fff789 	b.ls	8b0d8 <WriteChar24+0x78>  // b.plast
   8b1ec:	f94007e0 	ldr	x0, [sp, #8]
   8b1f0:	b9401800 	ldr	w0, [x0, #24]
   8b1f4:	11002001 	add	w1, w0, #0x8
   8b1f8:	f94007e0 	ldr	x0, [sp, #8]
   8b1fc:	b9001801 	str	w1, [x0, #24]
   8b200:	d503201f 	nop
   8b204:	9100c3ff 	add	sp, sp, #0x30
   8b208:	d65f03c0 	ret

000000000008b20c <TransparentWriteChar24>:
   8b20c:	d100c3ff 	sub	sp, sp, #0x30
   8b210:	f90007e0 	str	x0, [sp, #8]
   8b214:	39001fe1 	strb	w1, [sp, #7]
   8b218:	f94007e0 	ldr	x0, [sp, #8]
   8b21c:	b9400001 	ldr	w1, [x0]
   8b220:	b9400400 	ldr	w0, [x0, #4]
   8b224:	d3607c00 	lsl	x0, x0, #32
   8b228:	aa010000 	orr	x0, x0, x1
   8b22c:	aa0003e2 	mov	x2, x0
   8b230:	f94007e0 	ldr	x0, [sp, #8]
   8b234:	b9401c00 	ldr	w0, [x0, #28]
   8b238:	2a0003e1 	mov	w1, w0
   8b23c:	f94007e0 	ldr	x0, [sp, #8]
   8b240:	b9401400 	ldr	w0, [x0, #20]
   8b244:	1b007c21 	mul	w1, w1, w0
   8b248:	2a0103e0 	mov	w0, w1
   8b24c:	531f7800 	lsl	w0, w0, #1
   8b250:	0b010000 	add	w0, w0, w1
   8b254:	2a0003e0 	mov	w0, w0
   8b258:	8b000042 	add	x2, x2, x0
   8b25c:	f94007e0 	ldr	x0, [sp, #8]
   8b260:	b9401801 	ldr	w1, [x0, #24]
   8b264:	2a0103e0 	mov	w0, w1
   8b268:	531f7800 	lsl	w0, w0, #1
   8b26c:	0b010000 	add	w0, w0, w1
   8b270:	93407c00 	sxtw	x0, w0
   8b274:	8b000040 	add	x0, x2, x0
   8b278:	f90017e0 	str	x0, [sp, #40]
   8b27c:	b90027ff 	str	wzr, [sp, #36]
   8b280:	14000039 	b	8b364 <TransparentWriteChar24+0x158>
   8b284:	39401fe0 	ldrb	w0, [sp, #7]
   8b288:	531e7400 	lsl	w0, w0, #2
   8b28c:	2a0003e1 	mov	w1, w0
   8b290:	b94027e0 	ldr	w0, [sp, #36]
   8b294:	0b000021 	add	w1, w1, w0
   8b298:	b0000040 	adrp	x0, 94000 <digits+0x70>
   8b29c:	91130000 	add	x0, x0, #0x4c0
   8b2a0:	2a0103e1 	mov	w1, w1
   8b2a4:	b8617800 	ldr	w0, [x0, x1, lsl #2]
   8b2a8:	b90023e0 	str	w0, [sp, #32]
   8b2ac:	b9001fff 	str	wzr, [sp, #28]
   8b2b0:	14000027 	b	8b34c <TransparentWriteChar24+0x140>
   8b2b4:	b9401fe0 	ldr	w0, [sp, #28]
   8b2b8:	12000800 	and	w0, w0, #0x7
   8b2bc:	b9001be0 	str	w0, [sp, #24]
   8b2c0:	b94023e0 	ldr	w0, [sp, #32]
   8b2c4:	7100001f 	cmp	w0, #0x0
   8b2c8:	540001ea 	b.ge	8b304 <TransparentWriteChar24+0xf8>  // b.tcont
   8b2cc:	b9801be1 	ldrsw	x1, [sp, #24]
   8b2d0:	aa0103e0 	mov	x0, x1
   8b2d4:	d37ff800 	lsl	x0, x0, #1
   8b2d8:	8b010000 	add	x0, x0, x1
   8b2dc:	f94017e1 	ldr	x1, [sp, #40]
   8b2e0:	8b000020 	add	x0, x1, x0
   8b2e4:	f94007e1 	ldr	x1, [sp, #8]
   8b2e8:	9100a021 	add	x1, x1, #0x28
   8b2ec:	39400022 	ldrb	w2, [x1]
   8b2f0:	39000002 	strb	w2, [x0]
   8b2f4:	39400422 	ldrb	w2, [x1, #1]
   8b2f8:	39000402 	strb	w2, [x0, #1]
   8b2fc:	39400821 	ldrb	w1, [x1, #2]
   8b300:	39000801 	strb	w1, [x0, #2]
   8b304:	b94023e0 	ldr	w0, [sp, #32]
   8b308:	531f7800 	lsl	w0, w0, #1
   8b30c:	b90023e0 	str	w0, [sp, #32]
   8b310:	b9401be0 	ldr	w0, [sp, #24]
   8b314:	71001c1f 	cmp	w0, #0x7
   8b318:	54000141 	b.ne	8b340 <TransparentWriteChar24+0x134>  // b.any
   8b31c:	f94007e0 	ldr	x0, [sp, #8]
   8b320:	b9401400 	ldr	w0, [x0, #20]
   8b324:	2a0003e1 	mov	w1, w0
   8b328:	aa0103e0 	mov	x0, x1
   8b32c:	d37ff800 	lsl	x0, x0, #1
   8b330:	8b010000 	add	x0, x0, x1
   8b334:	f94017e1 	ldr	x1, [sp, #40]
   8b338:	8b000020 	add	x0, x1, x0
   8b33c:	f90017e0 	str	x0, [sp, #40]
   8b340:	b9401fe0 	ldr	w0, [sp, #28]
   8b344:	11000400 	add	w0, w0, #0x1
   8b348:	b9001fe0 	str	w0, [sp, #28]
   8b34c:	b9401fe0 	ldr	w0, [sp, #28]
   8b350:	71007c1f 	cmp	w0, #0x1f
   8b354:	54fffb09 	b.ls	8b2b4 <TransparentWriteChar24+0xa8>  // b.plast
   8b358:	b94027e0 	ldr	w0, [sp, #36]
   8b35c:	11000400 	add	w0, w0, #0x1
   8b360:	b90027e0 	str	w0, [sp, #36]
   8b364:	b94027e0 	ldr	w0, [sp, #36]
   8b368:	71000c1f 	cmp	w0, #0x3
   8b36c:	54fff8c9 	b.ls	8b284 <TransparentWriteChar24+0x78>  // b.plast
   8b370:	f94007e0 	ldr	x0, [sp, #8]
   8b374:	b9401800 	ldr	w0, [x0, #24]
   8b378:	11002001 	add	w1, w0, #0x8
   8b37c:	f94007e0 	ldr	x0, [sp, #8]
   8b380:	b9001801 	str	w1, [x0, #24]
   8b384:	d503201f 	nop
   8b388:	9100c3ff 	add	sp, sp, #0x30
   8b38c:	d65f03c0 	ret

000000000008b390 <PutImage24>:
   8b390:	d100c3ff 	sub	sp, sp, #0x30
   8b394:	f9000fe0 	str	x0, [sp, #24]
   8b398:	b90017e1 	str	w1, [sp, #20]
   8b39c:	b90013e2 	str	w2, [sp, #16]
   8b3a0:	f90007e3 	str	x3, [sp, #8]
   8b3a4:	39001fe4 	strb	w4, [sp, #7]
   8b3a8:	f9400fe0 	ldr	x0, [sp, #24]
   8b3ac:	b9400001 	ldr	w1, [x0]
   8b3b0:	b9400400 	ldr	w0, [x0, #4]
   8b3b4:	d3607c00 	lsl	x0, x0, #32
   8b3b8:	aa010000 	orr	x0, x0, x1
   8b3bc:	aa0003e2 	mov	x2, x0
   8b3c0:	f9400fe0 	ldr	x0, [sp, #24]
   8b3c4:	b9401c00 	ldr	w0, [x0, #28]
   8b3c8:	2a0003e1 	mov	w1, w0
   8b3cc:	f9400fe0 	ldr	x0, [sp, #24]
   8b3d0:	b9401400 	ldr	w0, [x0, #20]
   8b3d4:	1b007c21 	mul	w1, w1, w0
   8b3d8:	2a0103e0 	mov	w0, w1
   8b3dc:	531f7800 	lsl	w0, w0, #1
   8b3e0:	0b010000 	add	w0, w0, w1
   8b3e4:	2a0003e0 	mov	w0, w0
   8b3e8:	8b000042 	add	x2, x2, x0
   8b3ec:	f9400fe0 	ldr	x0, [sp, #24]
   8b3f0:	b9401801 	ldr	w1, [x0, #24]
   8b3f4:	2a0103e0 	mov	w0, w1
   8b3f8:	531f7800 	lsl	w0, w0, #1
   8b3fc:	0b010000 	add	w0, w0, w1
   8b400:	93407c00 	sxtw	x0, w0
   8b404:	8b000040 	add	x0, x2, x0
   8b408:	f90013e0 	str	x0, [sp, #32]
   8b40c:	b9002fff 	str	wzr, [sp, #44]
   8b410:	14000033 	b	8b4dc <PutImage24+0x14c>
   8b414:	b9002bff 	str	wzr, [sp, #40]
   8b418:	14000013 	b	8b464 <PutImage24+0xd4>
   8b41c:	f94007e0 	ldr	x0, [sp, #8]
   8b420:	91000c01 	add	x1, x0, #0x3
   8b424:	f90007e1 	str	x1, [sp, #8]
   8b428:	f94013e3 	ldr	x3, [sp, #32]
   8b42c:	b9402be2 	ldr	w2, [sp, #40]
   8b430:	aa0203e1 	mov	x1, x2
   8b434:	d37ff821 	lsl	x1, x1, #1
   8b438:	8b020021 	add	x1, x1, x2
   8b43c:	8b010061 	add	x1, x3, x1
   8b440:	39400002 	ldrb	w2, [x0]
   8b444:	39000022 	strb	w2, [x1]
   8b448:	39400402 	ldrb	w2, [x0, #1]
   8b44c:	39000422 	strb	w2, [x1, #1]
   8b450:	39400800 	ldrb	w0, [x0, #2]
   8b454:	39000820 	strb	w0, [x1, #2]
   8b458:	b9402be0 	ldr	w0, [sp, #40]
   8b45c:	11000400 	add	w0, w0, #0x1
   8b460:	b9002be0 	str	w0, [sp, #40]
   8b464:	b9402be1 	ldr	w1, [sp, #40]
   8b468:	b94017e0 	ldr	w0, [sp, #20]
   8b46c:	6b00003f 	cmp	w1, w0
   8b470:	54fffd63 	b.cc	8b41c <PutImage24+0x8c>  // b.lo, b.ul, b.last
   8b474:	39401fe0 	ldrb	w0, [sp, #7]
   8b478:	7100001f 	cmp	w0, #0x0
   8b47c:	54000180 	b.eq	8b4ac <PutImage24+0x11c>  // b.none
   8b480:	f94013e2 	ldr	x2, [sp, #32]
   8b484:	f9400fe0 	ldr	x0, [sp, #24]
   8b488:	b9401400 	ldr	w0, [x0, #20]
   8b48c:	2a0003e1 	mov	w1, w0
   8b490:	aa0103e0 	mov	x0, x1
   8b494:	d37ff800 	lsl	x0, x0, #1
   8b498:	8b010000 	add	x0, x0, x1
   8b49c:	cb0003e0 	neg	x0, x0
   8b4a0:	8b000040 	add	x0, x2, x0
   8b4a4:	f90013e0 	str	x0, [sp, #32]
   8b4a8:	1400000a 	b	8b4d0 <PutImage24+0x140>
   8b4ac:	f94013e2 	ldr	x2, [sp, #32]
   8b4b0:	f9400fe0 	ldr	x0, [sp, #24]
   8b4b4:	b9401400 	ldr	w0, [x0, #20]
   8b4b8:	2a0003e1 	mov	w1, w0
   8b4bc:	aa0103e0 	mov	x0, x1
   8b4c0:	d37ff800 	lsl	x0, x0, #1
   8b4c4:	8b010000 	add	x0, x0, x1
   8b4c8:	8b000040 	add	x0, x2, x0
   8b4cc:	f90013e0 	str	x0, [sp, #32]
   8b4d0:	b9402fe0 	ldr	w0, [sp, #44]
   8b4d4:	11000400 	add	w0, w0, #0x1
   8b4d8:	b9002fe0 	str	w0, [sp, #44]
   8b4dc:	b9402fe1 	ldr	w1, [sp, #44]
   8b4e0:	b94013e0 	ldr	w0, [sp, #16]
   8b4e4:	6b00003f 	cmp	w1, w0
   8b4e8:	54fff963 	b.cc	8b414 <PutImage24+0x84>  // b.lo, b.ul, b.last
   8b4ec:	d503201f 	nop
   8b4f0:	9100c3ff 	add	sp, sp, #0x30
   8b4f4:	d65f03c0 	ret

000000000008b4f8 <SetPixel32>:
   8b4f8:	d100c3ff 	sub	sp, sp, #0x30
   8b4fc:	f9000fe0 	str	x0, [sp, #24]
   8b500:	b90017e1 	str	w1, [sp, #20]
   8b504:	b90013e2 	str	w2, [sp, #16]
   8b508:	b9000be3 	str	w3, [sp, #8]
   8b50c:	f9400fe0 	ldr	x0, [sp, #24]
   8b510:	b9400001 	ldr	w1, [x0]
   8b514:	b9400400 	ldr	w0, [x0, #4]
   8b518:	d3607c00 	lsl	x0, x0, #32
   8b51c:	aa010000 	orr	x0, x0, x1
   8b520:	aa0003e2 	mov	x2, x0
   8b524:	f9400fe0 	ldr	x0, [sp, #24]
   8b528:	b9401401 	ldr	w1, [x0, #20]
   8b52c:	b94013e0 	ldr	w0, [sp, #16]
   8b530:	1b007c20 	mul	w0, w1, w0
   8b534:	531e7400 	lsl	w0, w0, #2
   8b538:	2a0003e0 	mov	w0, w0
   8b53c:	8b000041 	add	x1, x2, x0
   8b540:	b94013e0 	ldr	w0, [sp, #16]
   8b544:	531e7400 	lsl	w0, w0, #2
   8b548:	2a0003e0 	mov	w0, w0
   8b54c:	8b000020 	add	x0, x1, x0
   8b550:	f90017e0 	str	x0, [sp, #40]
   8b554:	b94017e0 	ldr	w0, [sp, #20]
   8b558:	d37ef400 	lsl	x0, x0, #2
   8b55c:	f94017e1 	ldr	x1, [sp, #40]
   8b560:	8b000020 	add	x0, x1, x0
   8b564:	b9400be1 	ldr	w1, [sp, #8]
   8b568:	b9000001 	str	w1, [x0]
   8b56c:	b9400be0 	ldr	w0, [sp, #8]
   8b570:	b90023e0 	str	w0, [sp, #32]
   8b574:	d2800000 	mov	x0, #0x0                   	// #0
   8b578:	b94023e1 	ldr	w1, [sp, #32]
   8b57c:	b3407c20 	bfxil	x0, x1, #0, #32
   8b580:	9100c3ff 	add	sp, sp, #0x30
   8b584:	d65f03c0 	ret

000000000008b588 <ClearArea32>:
   8b588:	d100c3ff 	sub	sp, sp, #0x30
   8b58c:	f9000fe0 	str	x0, [sp, #24]
   8b590:	b90017e1 	str	w1, [sp, #20]
   8b594:	b90013e2 	str	w2, [sp, #16]
   8b598:	b9000fe3 	str	w3, [sp, #12]
   8b59c:	b9000be4 	str	w4, [sp, #8]
   8b5a0:	f9400fe0 	ldr	x0, [sp, #24]
   8b5a4:	b9400001 	ldr	w1, [x0]
   8b5a8:	b9400400 	ldr	w0, [x0, #4]
   8b5ac:	d3607c00 	lsl	x0, x0, #32
   8b5b0:	aa010000 	orr	x0, x0, x1
   8b5b4:	aa0003e2 	mov	x2, x0
   8b5b8:	f9400fe0 	ldr	x0, [sp, #24]
   8b5bc:	b9401401 	ldr	w1, [x0, #20]
   8b5c0:	b94013e0 	ldr	w0, [sp, #16]
   8b5c4:	1b007c20 	mul	w0, w1, w0
   8b5c8:	531e7400 	lsl	w0, w0, #2
   8b5cc:	2a0003e0 	mov	w0, w0
   8b5d0:	8b000041 	add	x1, x2, x0
   8b5d4:	b94013e0 	ldr	w0, [sp, #16]
   8b5d8:	531e7400 	lsl	w0, w0, #2
   8b5dc:	2a0003e0 	mov	w0, w0
   8b5e0:	8b000020 	add	x0, x1, x0
   8b5e4:	f90017e0 	str	x0, [sp, #40]
   8b5e8:	b90027ff 	str	wzr, [sp, #36]
   8b5ec:	1400001e 	b	8b664 <ClearArea32+0xdc>
   8b5f0:	b90023ff 	str	wzr, [sp, #32]
   8b5f4:	1400000c 	b	8b624 <ClearArea32+0x9c>
   8b5f8:	b94023e0 	ldr	w0, [sp, #32]
   8b5fc:	d37ef400 	lsl	x0, x0, #2
   8b600:	f94017e1 	ldr	x1, [sp, #40]
   8b604:	8b000020 	add	x0, x1, x0
   8b608:	f9400fe1 	ldr	x1, [sp, #24]
   8b60c:	9100c021 	add	x1, x1, #0x30
   8b610:	b9400021 	ldr	w1, [x1]
   8b614:	b9000001 	str	w1, [x0]
   8b618:	b94023e0 	ldr	w0, [sp, #32]
   8b61c:	11000400 	add	w0, w0, #0x1
   8b620:	b90023e0 	str	w0, [sp, #32]
   8b624:	b9400fe1 	ldr	w1, [sp, #12]
   8b628:	b94017e0 	ldr	w0, [sp, #20]
   8b62c:	4b000020 	sub	w0, w1, w0
   8b630:	b94023e1 	ldr	w1, [sp, #32]
   8b634:	6b00003f 	cmp	w1, w0
   8b638:	54fffe03 	b.cc	8b5f8 <ClearArea32+0x70>  // b.lo, b.ul, b.last
   8b63c:	f9400fe0 	ldr	x0, [sp, #24]
   8b640:	b9401400 	ldr	w0, [x0, #20]
   8b644:	2a0003e0 	mov	w0, w0
   8b648:	d37ef400 	lsl	x0, x0, #2
   8b64c:	f94017e1 	ldr	x1, [sp, #40]
   8b650:	8b000020 	add	x0, x1, x0
   8b654:	f90017e0 	str	x0, [sp, #40]
   8b658:	b94027e0 	ldr	w0, [sp, #36]
   8b65c:	11000400 	add	w0, w0, #0x1
   8b660:	b90027e0 	str	w0, [sp, #36]
   8b664:	b9400be1 	ldr	w1, [sp, #8]
   8b668:	b94013e0 	ldr	w0, [sp, #16]
   8b66c:	4b000020 	sub	w0, w1, w0
   8b670:	b94027e1 	ldr	w1, [sp, #36]
   8b674:	6b00003f 	cmp	w1, w0
   8b678:	54fffbc3 	b.cc	8b5f0 <ClearArea32+0x68>  // b.lo, b.ul, b.last
   8b67c:	d503201f 	nop
   8b680:	9100c3ff 	add	sp, sp, #0x30
   8b684:	d65f03c0 	ret

000000000008b688 <VertLine32>:
   8b688:	d10083ff 	sub	sp, sp, #0x20
   8b68c:	f90007e0 	str	x0, [sp, #8]
   8b690:	b90007e1 	str	w1, [sp, #4]
   8b694:	b90003e2 	str	w2, [sp]
   8b698:	f94007e0 	ldr	x0, [sp, #8]
   8b69c:	b9400001 	ldr	w1, [x0]
   8b6a0:	b9400400 	ldr	w0, [x0, #4]
   8b6a4:	d3607c00 	lsl	x0, x0, #32
   8b6a8:	aa010000 	orr	x0, x0, x1
   8b6ac:	aa0003e1 	mov	x1, x0
   8b6b0:	f94007e0 	ldr	x0, [sp, #8]
   8b6b4:	b9401c00 	ldr	w0, [x0, #28]
   8b6b8:	2a0003e2 	mov	w2, w0
   8b6bc:	f94007e0 	ldr	x0, [sp, #8]
   8b6c0:	b9401400 	ldr	w0, [x0, #20]
   8b6c4:	1b007c40 	mul	w0, w2, w0
   8b6c8:	531e7400 	lsl	w0, w0, #2
   8b6cc:	2a0003e0 	mov	w0, w0
   8b6d0:	8b000021 	add	x1, x1, x0
   8b6d4:	f94007e0 	ldr	x0, [sp, #8]
   8b6d8:	b9401800 	ldr	w0, [x0, #24]
   8b6dc:	531e7400 	lsl	w0, w0, #2
   8b6e0:	93407c00 	sxtw	x0, w0
   8b6e4:	8b000020 	add	x0, x1, x0
   8b6e8:	f9000fe0 	str	x0, [sp, #24]
   8b6ec:	b90017ff 	str	wzr, [sp, #20]
   8b6f0:	1400001c 	b	8b760 <VertLine32+0xd8>
   8b6f4:	f9400fe0 	ldr	x0, [sp, #24]
   8b6f8:	f94007e1 	ldr	x1, [sp, #8]
   8b6fc:	9100a021 	add	x1, x1, #0x28
   8b700:	b9400021 	ldr	w1, [x1]
   8b704:	b9000001 	str	w1, [x0]
   8b708:	b94003e0 	ldr	w0, [sp]
   8b70c:	7100041f 	cmp	w0, #0x1
   8b710:	54000121 	b.ne	8b734 <VertLine32+0xac>  // b.any
   8b714:	f94007e0 	ldr	x0, [sp, #8]
   8b718:	b9401400 	ldr	w0, [x0, #20]
   8b71c:	2a0003e0 	mov	w0, w0
   8b720:	d37ef400 	lsl	x0, x0, #2
   8b724:	f9400fe1 	ldr	x1, [sp, #24]
   8b728:	8b000020 	add	x0, x1, x0
   8b72c:	f9000fe0 	str	x0, [sp, #24]
   8b730:	14000009 	b	8b754 <VertLine32+0xcc>
   8b734:	f94007e0 	ldr	x0, [sp, #8]
   8b738:	b9401400 	ldr	w0, [x0, #20]
   8b73c:	2a0003e0 	mov	w0, w0
   8b740:	d37ef400 	lsl	x0, x0, #2
   8b744:	cb0003e0 	neg	x0, x0
   8b748:	f9400fe1 	ldr	x1, [sp, #24]
   8b74c:	8b000020 	add	x0, x1, x0
   8b750:	f9000fe0 	str	x0, [sp, #24]
   8b754:	b94017e0 	ldr	w0, [sp, #20]
   8b758:	11000400 	add	w0, w0, #0x1
   8b75c:	b90017e0 	str	w0, [sp, #20]
   8b760:	b94017e1 	ldr	w1, [sp, #20]
   8b764:	b94007e0 	ldr	w0, [sp, #4]
   8b768:	6b00003f 	cmp	w1, w0
   8b76c:	54fffc43 	b.cc	8b6f4 <VertLine32+0x6c>  // b.lo, b.ul, b.last
   8b770:	f94007e0 	ldr	x0, [sp, #8]
   8b774:	b9401c00 	ldr	w0, [x0, #28]
   8b778:	2a0003e2 	mov	w2, w0
   8b77c:	b94003e1 	ldr	w1, [sp]
   8b780:	b94007e0 	ldr	w0, [sp, #4]
   8b784:	1b007c20 	mul	w0, w1, w0
   8b788:	0b000040 	add	w0, w2, w0
   8b78c:	2a0003e1 	mov	w1, w0
   8b790:	f94007e0 	ldr	x0, [sp, #8]
   8b794:	b9001c01 	str	w1, [x0, #28]
   8b798:	d503201f 	nop
   8b79c:	910083ff 	add	sp, sp, #0x20
   8b7a0:	d65f03c0 	ret

000000000008b7a4 <HorzLine32>:
   8b7a4:	d10083ff 	sub	sp, sp, #0x20
   8b7a8:	f90007e0 	str	x0, [sp, #8]
   8b7ac:	b90007e1 	str	w1, [sp, #4]
   8b7b0:	b90003e2 	str	w2, [sp]
   8b7b4:	f94007e0 	ldr	x0, [sp, #8]
   8b7b8:	b9400001 	ldr	w1, [x0]
   8b7bc:	b9400400 	ldr	w0, [x0, #4]
   8b7c0:	d3607c00 	lsl	x0, x0, #32
   8b7c4:	aa010000 	orr	x0, x0, x1
   8b7c8:	aa0003e1 	mov	x1, x0
   8b7cc:	f94007e0 	ldr	x0, [sp, #8]
   8b7d0:	b9401c00 	ldr	w0, [x0, #28]
   8b7d4:	2a0003e2 	mov	w2, w0
   8b7d8:	f94007e0 	ldr	x0, [sp, #8]
   8b7dc:	b9401400 	ldr	w0, [x0, #20]
   8b7e0:	1b007c40 	mul	w0, w2, w0
   8b7e4:	531e7400 	lsl	w0, w0, #2
   8b7e8:	2a0003e0 	mov	w0, w0
   8b7ec:	8b000021 	add	x1, x1, x0
   8b7f0:	f94007e0 	ldr	x0, [sp, #8]
   8b7f4:	b9401800 	ldr	w0, [x0, #24]
   8b7f8:	531e7400 	lsl	w0, w0, #2
   8b7fc:	93407c00 	sxtw	x0, w0
   8b800:	8b000020 	add	x0, x1, x0
   8b804:	f9000fe0 	str	x0, [sp, #24]
   8b808:	b90017ff 	str	wzr, [sp, #20]
   8b80c:	1400000e 	b	8b844 <HorzLine32+0xa0>
   8b810:	f9400fe0 	ldr	x0, [sp, #24]
   8b814:	f94007e1 	ldr	x1, [sp, #8]
   8b818:	9100a021 	add	x1, x1, #0x28
   8b81c:	b9400021 	ldr	w1, [x1]
   8b820:	b9000001 	str	w1, [x0]
   8b824:	b98003e0 	ldrsw	x0, [sp]
   8b828:	d37ef400 	lsl	x0, x0, #2
   8b82c:	f9400fe1 	ldr	x1, [sp, #24]
   8b830:	8b000020 	add	x0, x1, x0
   8b834:	f9000fe0 	str	x0, [sp, #24]
   8b838:	b94017e0 	ldr	w0, [sp, #20]
   8b83c:	11000400 	add	w0, w0, #0x1
   8b840:	b90017e0 	str	w0, [sp, #20]
   8b844:	b94017e1 	ldr	w1, [sp, #20]
   8b848:	b94007e0 	ldr	w0, [sp, #4]
   8b84c:	6b00003f 	cmp	w1, w0
   8b850:	54fffe03 	b.cc	8b810 <HorzLine32+0x6c>  // b.lo, b.ul, b.last
   8b854:	f94007e0 	ldr	x0, [sp, #8]
   8b858:	b9401800 	ldr	w0, [x0, #24]
   8b85c:	2a0003e2 	mov	w2, w0
   8b860:	b94003e1 	ldr	w1, [sp]
   8b864:	b94007e0 	ldr	w0, [sp, #4]
   8b868:	1b007c20 	mul	w0, w1, w0
   8b86c:	0b000040 	add	w0, w2, w0
   8b870:	2a0003e1 	mov	w1, w0
   8b874:	f94007e0 	ldr	x0, [sp, #8]
   8b878:	b9001801 	str	w1, [x0, #24]
   8b87c:	d503201f 	nop
   8b880:	910083ff 	add	sp, sp, #0x20
   8b884:	d65f03c0 	ret

000000000008b888 <DiagLine32>:
   8b888:	d10103ff 	sub	sp, sp, #0x40
   8b88c:	f9000fe0 	str	x0, [sp, #24]
   8b890:	b90017e1 	str	w1, [sp, #20]
   8b894:	b90013e2 	str	w2, [sp, #16]
   8b898:	b9000fe3 	str	w3, [sp, #12]
   8b89c:	b9000be4 	str	w4, [sp, #8]
   8b8a0:	f9400fe0 	ldr	x0, [sp, #24]
   8b8a4:	b9400001 	ldr	w1, [x0]
   8b8a8:	b9400400 	ldr	w0, [x0, #4]
   8b8ac:	d3607c00 	lsl	x0, x0, #32
   8b8b0:	aa010000 	orr	x0, x0, x1
   8b8b4:	aa0003e1 	mov	x1, x0
   8b8b8:	f9400fe0 	ldr	x0, [sp, #24]
   8b8bc:	b9401c00 	ldr	w0, [x0, #28]
   8b8c0:	2a0003e2 	mov	w2, w0
   8b8c4:	f9400fe0 	ldr	x0, [sp, #24]
   8b8c8:	b9401400 	ldr	w0, [x0, #20]
   8b8cc:	1b007c40 	mul	w0, w2, w0
   8b8d0:	531e7400 	lsl	w0, w0, #2
   8b8d4:	2a0003e0 	mov	w0, w0
   8b8d8:	8b000021 	add	x1, x1, x0
   8b8dc:	f9400fe0 	ldr	x0, [sp, #24]
   8b8e0:	b9401800 	ldr	w0, [x0, #24]
   8b8e4:	531e7400 	lsl	w0, w0, #2
   8b8e8:	93407c00 	sxtw	x0, w0
   8b8ec:	8b000020 	add	x0, x1, x0
   8b8f0:	f9001fe0 	str	x0, [sp, #56]
   8b8f4:	b90037ff 	str	wzr, [sp, #52]
   8b8f8:	b90033ff 	str	wzr, [sp, #48]
   8b8fc:	b94017e0 	ldr	w0, [sp, #20]
   8b900:	b9002be0 	str	w0, [sp, #40]
   8b904:	b94013e1 	ldr	w1, [sp, #16]
   8b908:	b9402be0 	ldr	w0, [sp, #40]
   8b90c:	6b00003f 	cmp	w1, w0
   8b910:	54000069 	b.ls	8b91c <DiagLine32+0x94>  // b.plast
   8b914:	b9402be0 	ldr	w0, [sp, #40]
   8b918:	b90013e0 	str	w0, [sp, #16]
   8b91c:	b9002fff 	str	wzr, [sp, #44]
   8b920:	1400002f 	b	8b9dc <DiagLine32+0x154>
   8b924:	f9401fe0 	ldr	x0, [sp, #56]
   8b928:	f9400fe1 	ldr	x1, [sp, #24]
   8b92c:	9100a021 	add	x1, x1, #0x28
   8b930:	b9400021 	ldr	w1, [x1]
   8b934:	b9000001 	str	w1, [x0]
   8b938:	b94037e1 	ldr	w1, [sp, #52]
   8b93c:	b94017e0 	ldr	w0, [sp, #20]
   8b940:	0b000020 	add	w0, w1, w0
   8b944:	b90037e0 	str	w0, [sp, #52]
   8b948:	b94037e1 	ldr	w1, [sp, #52]
   8b94c:	b9402be0 	ldr	w0, [sp, #40]
   8b950:	6b00003f 	cmp	w1, w0
   8b954:	54000143 	b.cc	8b97c <DiagLine32+0xf4>  // b.lo, b.ul, b.last
   8b958:	b94037e1 	ldr	w1, [sp, #52]
   8b95c:	b9402be0 	ldr	w0, [sp, #40]
   8b960:	4b000020 	sub	w0, w1, w0
   8b964:	b90037e0 	str	w0, [sp, #52]
   8b968:	b9800fe0 	ldrsw	x0, [sp, #12]
   8b96c:	d37ef400 	lsl	x0, x0, #2
   8b970:	f9401fe1 	ldr	x1, [sp, #56]
   8b974:	8b000020 	add	x0, x1, x0
   8b978:	f9001fe0 	str	x0, [sp, #56]
   8b97c:	b94033e1 	ldr	w1, [sp, #48]
   8b980:	b94013e0 	ldr	w0, [sp, #16]
   8b984:	0b000020 	add	w0, w1, w0
   8b988:	b90033e0 	str	w0, [sp, #48]
   8b98c:	b94033e1 	ldr	w1, [sp, #48]
   8b990:	b9402be0 	ldr	w0, [sp, #40]
   8b994:	6b00003f 	cmp	w1, w0
   8b998:	540001c3 	b.cc	8b9d0 <DiagLine32+0x148>  // b.lo, b.ul, b.last
   8b99c:	b94033e1 	ldr	w1, [sp, #48]
   8b9a0:	b9402be0 	ldr	w0, [sp, #40]
   8b9a4:	4b000020 	sub	w0, w1, w0
   8b9a8:	b90033e0 	str	w0, [sp, #48]
   8b9ac:	f9400fe0 	ldr	x0, [sp, #24]
   8b9b0:	b9401401 	ldr	w1, [x0, #20]
   8b9b4:	b9400be0 	ldr	w0, [sp, #8]
   8b9b8:	1b007c20 	mul	w0, w1, w0
   8b9bc:	2a0003e0 	mov	w0, w0
   8b9c0:	d37ef400 	lsl	x0, x0, #2
   8b9c4:	f9401fe1 	ldr	x1, [sp, #56]
   8b9c8:	8b000020 	add	x0, x1, x0
   8b9cc:	f9001fe0 	str	x0, [sp, #56]
   8b9d0:	b9402fe0 	ldr	w0, [sp, #44]
   8b9d4:	11000400 	add	w0, w0, #0x1
   8b9d8:	b9002fe0 	str	w0, [sp, #44]
   8b9dc:	b9402fe1 	ldr	w1, [sp, #44]
   8b9e0:	b9402be0 	ldr	w0, [sp, #40]
   8b9e4:	6b00003f 	cmp	w1, w0
   8b9e8:	54fff9e3 	b.cc	8b924 <DiagLine32+0x9c>  // b.lo, b.ul, b.last
   8b9ec:	f9400fe0 	ldr	x0, [sp, #24]
   8b9f0:	b9401800 	ldr	w0, [x0, #24]
   8b9f4:	2a0003e2 	mov	w2, w0
   8b9f8:	b9400fe1 	ldr	w1, [sp, #12]
   8b9fc:	b94017e0 	ldr	w0, [sp, #20]
   8ba00:	1b007c20 	mul	w0, w1, w0
   8ba04:	0b000040 	add	w0, w2, w0
   8ba08:	2a0003e1 	mov	w1, w0
   8ba0c:	f9400fe0 	ldr	x0, [sp, #24]
   8ba10:	b9001801 	str	w1, [x0, #24]
   8ba14:	f9400fe0 	ldr	x0, [sp, #24]
   8ba18:	b9401c00 	ldr	w0, [x0, #28]
   8ba1c:	2a0003e2 	mov	w2, w0
   8ba20:	b9400be1 	ldr	w1, [sp, #8]
   8ba24:	b94013e0 	ldr	w0, [sp, #16]
   8ba28:	1b007c20 	mul	w0, w1, w0
   8ba2c:	0b000040 	add	w0, w2, w0
   8ba30:	2a0003e1 	mov	w1, w0
   8ba34:	f9400fe0 	ldr	x0, [sp, #24]
   8ba38:	b9001c01 	str	w1, [x0, #28]
   8ba3c:	d503201f 	nop
   8ba40:	910103ff 	add	sp, sp, #0x40
   8ba44:	d65f03c0 	ret

000000000008ba48 <WriteChar32>:
   8ba48:	d100c3ff 	sub	sp, sp, #0x30
   8ba4c:	f90007e0 	str	x0, [sp, #8]
   8ba50:	39001fe1 	strb	w1, [sp, #7]
   8ba54:	f94007e0 	ldr	x0, [sp, #8]
   8ba58:	b9400001 	ldr	w1, [x0]
   8ba5c:	b9400400 	ldr	w0, [x0, #4]
   8ba60:	d3607c00 	lsl	x0, x0, #32
   8ba64:	aa010000 	orr	x0, x0, x1
   8ba68:	aa0003e1 	mov	x1, x0
   8ba6c:	f94007e0 	ldr	x0, [sp, #8]
   8ba70:	b9401c00 	ldr	w0, [x0, #28]
   8ba74:	2a0003e2 	mov	w2, w0
   8ba78:	f94007e0 	ldr	x0, [sp, #8]
   8ba7c:	b9401400 	ldr	w0, [x0, #20]
   8ba80:	1b007c40 	mul	w0, w2, w0
   8ba84:	531e7400 	lsl	w0, w0, #2
   8ba88:	2a0003e0 	mov	w0, w0
   8ba8c:	8b000021 	add	x1, x1, x0
   8ba90:	f94007e0 	ldr	x0, [sp, #8]
   8ba94:	b9401800 	ldr	w0, [x0, #24]
   8ba98:	531e7400 	lsl	w0, w0, #2
   8ba9c:	93407c00 	sxtw	x0, w0
   8baa0:	8b000020 	add	x0, x1, x0
   8baa4:	f90017e0 	str	x0, [sp, #40]
   8baa8:	b90027ff 	str	wzr, [sp, #36]
   8baac:	14000037 	b	8bb88 <WriteChar32+0x140>
   8bab0:	39401fe0 	ldrb	w0, [sp, #7]
   8bab4:	531e7400 	lsl	w0, w0, #2
   8bab8:	2a0003e1 	mov	w1, w0
   8babc:	b94027e0 	ldr	w0, [sp, #36]
   8bac0:	0b000021 	add	w1, w1, w0
   8bac4:	b0000040 	adrp	x0, 94000 <digits+0x70>
   8bac8:	91130000 	add	x0, x0, #0x4c0
   8bacc:	2a0103e1 	mov	w1, w1
   8bad0:	b8617800 	ldr	w0, [x0, x1, lsl #2]
   8bad4:	b90023e0 	str	w0, [sp, #32]
   8bad8:	b9001fff 	str	wzr, [sp, #28]
   8badc:	14000025 	b	8bb70 <WriteChar32+0x128>
   8bae0:	f94007e0 	ldr	x0, [sp, #8]
   8bae4:	9100b000 	add	x0, x0, #0x2c
   8bae8:	b9400000 	ldr	w0, [x0]
   8baec:	b90013e0 	str	w0, [sp, #16]
   8baf0:	b9401fe0 	ldr	w0, [sp, #28]
   8baf4:	12000800 	and	w0, w0, #0x7
   8baf8:	b9001be0 	str	w0, [sp, #24]
   8bafc:	b94023e0 	ldr	w0, [sp, #32]
   8bb00:	7100001f 	cmp	w0, #0x0
   8bb04:	540000aa 	b.ge	8bb18 <WriteChar32+0xd0>  // b.tcont
   8bb08:	f94007e0 	ldr	x0, [sp, #8]
   8bb0c:	9100a000 	add	x0, x0, #0x28
   8bb10:	b9400000 	ldr	w0, [x0]
   8bb14:	b90013e0 	str	w0, [sp, #16]
   8bb18:	b9401be0 	ldr	w0, [sp, #24]
   8bb1c:	d37ef400 	lsl	x0, x0, #2
   8bb20:	f94017e1 	ldr	x1, [sp, #40]
   8bb24:	8b000020 	add	x0, x1, x0
   8bb28:	b94013e1 	ldr	w1, [sp, #16]
   8bb2c:	b9000001 	str	w1, [x0]
   8bb30:	b94023e0 	ldr	w0, [sp, #32]
   8bb34:	531f7800 	lsl	w0, w0, #1
   8bb38:	b90023e0 	str	w0, [sp, #32]
   8bb3c:	b9401be0 	ldr	w0, [sp, #24]
   8bb40:	71001c1f 	cmp	w0, #0x7
   8bb44:	54000101 	b.ne	8bb64 <WriteChar32+0x11c>  // b.any
   8bb48:	f94007e0 	ldr	x0, [sp, #8]
   8bb4c:	b9401400 	ldr	w0, [x0, #20]
   8bb50:	2a0003e0 	mov	w0, w0
   8bb54:	d37ef400 	lsl	x0, x0, #2
   8bb58:	f94017e1 	ldr	x1, [sp, #40]
   8bb5c:	8b000020 	add	x0, x1, x0
   8bb60:	f90017e0 	str	x0, [sp, #40]
   8bb64:	b9401fe0 	ldr	w0, [sp, #28]
   8bb68:	11000400 	add	w0, w0, #0x1
   8bb6c:	b9001fe0 	str	w0, [sp, #28]
   8bb70:	b9401fe0 	ldr	w0, [sp, #28]
   8bb74:	71007c1f 	cmp	w0, #0x1f
   8bb78:	54fffb49 	b.ls	8bae0 <WriteChar32+0x98>  // b.plast
   8bb7c:	b94027e0 	ldr	w0, [sp, #36]
   8bb80:	11000400 	add	w0, w0, #0x1
   8bb84:	b90027e0 	str	w0, [sp, #36]
   8bb88:	b94027e0 	ldr	w0, [sp, #36]
   8bb8c:	71000c1f 	cmp	w0, #0x3
   8bb90:	54fff909 	b.ls	8bab0 <WriteChar32+0x68>  // b.plast
   8bb94:	f94007e0 	ldr	x0, [sp, #8]
   8bb98:	b9401800 	ldr	w0, [x0, #24]
   8bb9c:	11002001 	add	w1, w0, #0x8
   8bba0:	f94007e0 	ldr	x0, [sp, #8]
   8bba4:	b9001801 	str	w1, [x0, #24]
   8bba8:	d503201f 	nop
   8bbac:	9100c3ff 	add	sp, sp, #0x30
   8bbb0:	d65f03c0 	ret

000000000008bbb4 <TransparentWriteChar32>:
   8bbb4:	d100c3ff 	sub	sp, sp, #0x30
   8bbb8:	f90007e0 	str	x0, [sp, #8]
   8bbbc:	39001fe1 	strb	w1, [sp, #7]
   8bbc0:	f94007e0 	ldr	x0, [sp, #8]
   8bbc4:	b9400001 	ldr	w1, [x0]
   8bbc8:	b9400400 	ldr	w0, [x0, #4]
   8bbcc:	d3607c00 	lsl	x0, x0, #32
   8bbd0:	aa010000 	orr	x0, x0, x1
   8bbd4:	aa0003e1 	mov	x1, x0
   8bbd8:	f94007e0 	ldr	x0, [sp, #8]
   8bbdc:	b9401c00 	ldr	w0, [x0, #28]
   8bbe0:	2a0003e2 	mov	w2, w0
   8bbe4:	f94007e0 	ldr	x0, [sp, #8]
   8bbe8:	b9401400 	ldr	w0, [x0, #20]
   8bbec:	1b007c40 	mul	w0, w2, w0
   8bbf0:	531e7400 	lsl	w0, w0, #2
   8bbf4:	2a0003e0 	mov	w0, w0
   8bbf8:	8b000021 	add	x1, x1, x0
   8bbfc:	f94007e0 	ldr	x0, [sp, #8]
   8bc00:	b9401800 	ldr	w0, [x0, #24]
   8bc04:	531e7400 	lsl	w0, w0, #2
   8bc08:	93407c00 	sxtw	x0, w0
   8bc0c:	8b000020 	add	x0, x1, x0
   8bc10:	f90017e0 	str	x0, [sp, #40]
   8bc14:	b90027ff 	str	wzr, [sp, #36]
   8bc18:	14000031 	b	8bcdc <TransparentWriteChar32+0x128>
   8bc1c:	39401fe0 	ldrb	w0, [sp, #7]
   8bc20:	531e7400 	lsl	w0, w0, #2
   8bc24:	2a0003e1 	mov	w1, w0
   8bc28:	b94027e0 	ldr	w0, [sp, #36]
   8bc2c:	0b000021 	add	w1, w1, w0
   8bc30:	b0000040 	adrp	x0, 94000 <digits+0x70>
   8bc34:	91130000 	add	x0, x0, #0x4c0
   8bc38:	2a0103e1 	mov	w1, w1
   8bc3c:	b8617800 	ldr	w0, [x0, x1, lsl #2]
   8bc40:	b90023e0 	str	w0, [sp, #32]
   8bc44:	b9001fff 	str	wzr, [sp, #28]
   8bc48:	1400001f 	b	8bcc4 <TransparentWriteChar32+0x110>
   8bc4c:	b9401fe0 	ldr	w0, [sp, #28]
   8bc50:	12000800 	and	w0, w0, #0x7
   8bc54:	b9001be0 	str	w0, [sp, #24]
   8bc58:	b94023e0 	ldr	w0, [sp, #32]
   8bc5c:	7100001f 	cmp	w0, #0x0
   8bc60:	5400012a 	b.ge	8bc84 <TransparentWriteChar32+0xd0>  // b.tcont
   8bc64:	b9401be0 	ldr	w0, [sp, #24]
   8bc68:	d37ef400 	lsl	x0, x0, #2
   8bc6c:	f94017e1 	ldr	x1, [sp, #40]
   8bc70:	8b000020 	add	x0, x1, x0
   8bc74:	f94007e1 	ldr	x1, [sp, #8]
   8bc78:	9100a021 	add	x1, x1, #0x28
   8bc7c:	b9400021 	ldr	w1, [x1]
   8bc80:	b9000001 	str	w1, [x0]
   8bc84:	b94023e0 	ldr	w0, [sp, #32]
   8bc88:	531f7800 	lsl	w0, w0, #1
   8bc8c:	b90023e0 	str	w0, [sp, #32]
   8bc90:	b9401be0 	ldr	w0, [sp, #24]
   8bc94:	71001c1f 	cmp	w0, #0x7
   8bc98:	54000101 	b.ne	8bcb8 <TransparentWriteChar32+0x104>  // b.any
   8bc9c:	f94007e0 	ldr	x0, [sp, #8]
   8bca0:	b9401400 	ldr	w0, [x0, #20]
   8bca4:	2a0003e0 	mov	w0, w0
   8bca8:	d37ef400 	lsl	x0, x0, #2
   8bcac:	f94017e1 	ldr	x1, [sp, #40]
   8bcb0:	8b000020 	add	x0, x1, x0
   8bcb4:	f90017e0 	str	x0, [sp, #40]
   8bcb8:	b9401fe0 	ldr	w0, [sp, #28]
   8bcbc:	11000400 	add	w0, w0, #0x1
   8bcc0:	b9001fe0 	str	w0, [sp, #28]
   8bcc4:	b9401fe0 	ldr	w0, [sp, #28]
   8bcc8:	71007c1f 	cmp	w0, #0x1f
   8bccc:	54fffc09 	b.ls	8bc4c <TransparentWriteChar32+0x98>  // b.plast
   8bcd0:	b94027e0 	ldr	w0, [sp, #36]
   8bcd4:	11000400 	add	w0, w0, #0x1
   8bcd8:	b90027e0 	str	w0, [sp, #36]
   8bcdc:	b94027e0 	ldr	w0, [sp, #36]
   8bce0:	71000c1f 	cmp	w0, #0x3
   8bce4:	54fff9c9 	b.ls	8bc1c <TransparentWriteChar32+0x68>  // b.plast
   8bce8:	f94007e0 	ldr	x0, [sp, #8]
   8bcec:	b9401800 	ldr	w0, [x0, #24]
   8bcf0:	11002001 	add	w1, w0, #0x8
   8bcf4:	f94007e0 	ldr	x0, [sp, #8]
   8bcf8:	b9001801 	str	w1, [x0, #24]
   8bcfc:	d503201f 	nop
   8bd00:	9100c3ff 	add	sp, sp, #0x30
   8bd04:	d65f03c0 	ret

000000000008bd08 <PutImage32>:
   8bd08:	d100c3ff 	sub	sp, sp, #0x30
   8bd0c:	f9000fe0 	str	x0, [sp, #24]
   8bd10:	b90017e1 	str	w1, [sp, #20]
   8bd14:	b90013e2 	str	w2, [sp, #16]
   8bd18:	f90007e3 	str	x3, [sp, #8]
   8bd1c:	39001fe4 	strb	w4, [sp, #7]
   8bd20:	f9400fe0 	ldr	x0, [sp, #24]
   8bd24:	b9400001 	ldr	w1, [x0]
   8bd28:	b9400400 	ldr	w0, [x0, #4]
   8bd2c:	d3607c00 	lsl	x0, x0, #32
   8bd30:	aa010000 	orr	x0, x0, x1
   8bd34:	aa0003e1 	mov	x1, x0
   8bd38:	f9400fe0 	ldr	x0, [sp, #24]
   8bd3c:	b9401c00 	ldr	w0, [x0, #28]
   8bd40:	2a0003e2 	mov	w2, w0
   8bd44:	f9400fe0 	ldr	x0, [sp, #24]
   8bd48:	b9401400 	ldr	w0, [x0, #20]
   8bd4c:	1b007c40 	mul	w0, w2, w0
   8bd50:	531e7400 	lsl	w0, w0, #2
   8bd54:	2a0003e0 	mov	w0, w0
   8bd58:	8b000021 	add	x1, x1, x0
   8bd5c:	f9400fe0 	ldr	x0, [sp, #24]
   8bd60:	b9401800 	ldr	w0, [x0, #24]
   8bd64:	531e7400 	lsl	w0, w0, #2
   8bd68:	93407c00 	sxtw	x0, w0
   8bd6c:	8b000020 	add	x0, x1, x0
   8bd70:	f90013e0 	str	x0, [sp, #32]
   8bd74:	b9002fff 	str	wzr, [sp, #44]
   8bd78:	14000029 	b	8be1c <PutImage32+0x114>
   8bd7c:	b9002bff 	str	wzr, [sp, #40]
   8bd80:	1400000d 	b	8bdb4 <PutImage32+0xac>
   8bd84:	f94007e0 	ldr	x0, [sp, #8]
   8bd88:	91001001 	add	x1, x0, #0x4
   8bd8c:	f90007e1 	str	x1, [sp, #8]
   8bd90:	f94013e2 	ldr	x2, [sp, #32]
   8bd94:	b9402be1 	ldr	w1, [sp, #40]
   8bd98:	d37ef421 	lsl	x1, x1, #2
   8bd9c:	8b010041 	add	x1, x2, x1
   8bda0:	b9400000 	ldr	w0, [x0]
   8bda4:	b9000020 	str	w0, [x1]
   8bda8:	b9402be0 	ldr	w0, [sp, #40]
   8bdac:	11000400 	add	w0, w0, #0x1
   8bdb0:	b9002be0 	str	w0, [sp, #40]
   8bdb4:	b9402be1 	ldr	w1, [sp, #40]
   8bdb8:	b94017e0 	ldr	w0, [sp, #20]
   8bdbc:	6b00003f 	cmp	w1, w0
   8bdc0:	54fffe23 	b.cc	8bd84 <PutImage32+0x7c>  // b.lo, b.ul, b.last
   8bdc4:	39401fe0 	ldrb	w0, [sp, #7]
   8bdc8:	7100001f 	cmp	w0, #0x0
   8bdcc:	54000140 	b.eq	8bdf4 <PutImage32+0xec>  // b.none
   8bdd0:	f94013e1 	ldr	x1, [sp, #32]
   8bdd4:	f9400fe0 	ldr	x0, [sp, #24]
   8bdd8:	b9401400 	ldr	w0, [x0, #20]
   8bddc:	2a0003e0 	mov	w0, w0
   8bde0:	d37ef400 	lsl	x0, x0, #2
   8bde4:	cb0003e0 	neg	x0, x0
   8bde8:	8b000020 	add	x0, x1, x0
   8bdec:	f90013e0 	str	x0, [sp, #32]
   8bdf0:	14000008 	b	8be10 <PutImage32+0x108>
   8bdf4:	f94013e1 	ldr	x1, [sp, #32]
   8bdf8:	f9400fe0 	ldr	x0, [sp, #24]
   8bdfc:	b9401400 	ldr	w0, [x0, #20]
   8be00:	2a0003e0 	mov	w0, w0
   8be04:	d37ef400 	lsl	x0, x0, #2
   8be08:	8b000020 	add	x0, x1, x0
   8be0c:	f90013e0 	str	x0, [sp, #32]
   8be10:	b9402fe0 	ldr	w0, [sp, #44]
   8be14:	11000400 	add	w0, w0, #0x1
   8be18:	b9002fe0 	str	w0, [sp, #44]
   8be1c:	b9402fe1 	ldr	w1, [sp, #44]
   8be20:	b94013e0 	ldr	w0, [sp, #16]
   8be24:	6b00003f 	cmp	w1, w0
   8be28:	54fffaa3 	b.cc	8bd7c <PutImage32+0x74>  // b.lo, b.ul, b.last
   8be2c:	d503201f 	nop
   8be30:	9100c3ff 	add	sp, sp, #0x30
   8be34:	d65f03c0 	ret

000000000008be38 <Rectangle>:
   8be38:	f81c0ffe 	str	x30, [sp, #-64]!
   8be3c:	f90017e0 	str	x0, [sp, #40]
   8be40:	b90027e1 	str	w1, [sp, #36]
   8be44:	b90023e2 	str	w2, [sp, #32]
   8be48:	b9001fe3 	str	w3, [sp, #28]
   8be4c:	b9001be4 	str	w4, [sp, #24]
   8be50:	f94017e0 	ldr	x0, [sp, #40]
   8be54:	f9001fe0 	str	x0, [sp, #56]
   8be58:	f9401fe0 	ldr	x0, [sp, #56]
   8be5c:	f100001f 	cmp	x0, #0x0
   8be60:	54000260 	b.eq	8beac <Rectangle+0x74>  // b.none
   8be64:	f9401fe0 	ldr	x0, [sp, #56]
   8be68:	b9403c01 	ldr	w1, [x0, #60]
   8be6c:	b9404000 	ldr	w0, [x0, #64]
   8be70:	d3607c00 	lsl	x0, x0, #32
   8be74:	aa010000 	orr	x0, x0, x1
   8be78:	aa0003e5 	mov	x5, x0
   8be7c:	b94027e0 	ldr	w0, [sp, #36]
   8be80:	b94023e1 	ldr	w1, [sp, #32]
   8be84:	b9401fe2 	ldr	w2, [sp, #28]
   8be88:	b9401be3 	ldr	w3, [sp, #24]
   8be8c:	2a0303e4 	mov	w4, w3
   8be90:	2a0203e3 	mov	w3, w2
   8be94:	2a0103e2 	mov	w2, w1
   8be98:	2a0003e1 	mov	w1, w0
   8be9c:	f9401fe0 	ldr	x0, [sp, #56]
   8bea0:	d63f00a0 	blr	x5
   8bea4:	52800020 	mov	w0, #0x1                   	// #1
   8bea8:	14000002 	b	8beb0 <Rectangle+0x78>
   8beac:	52800000 	mov	w0, #0x0                   	// #0
   8beb0:	f84407fe 	ldr	x30, [sp], #64
   8beb4:	d65f03c0 	ret

000000000008beb8 <SetPixel>:
   8beb8:	f81b0ffe 	str	x30, [sp, #-80]!
   8bebc:	f90017e0 	str	x0, [sp, #40]
   8bec0:	b90027e1 	str	w1, [sp, #36]
   8bec4:	b90023e2 	str	w2, [sp, #32]
   8bec8:	b9001be3 	str	w3, [sp, #24]
   8becc:	f94017e0 	ldr	x0, [sp, #40]
   8bed0:	f90027e0 	str	x0, [sp, #72]
   8bed4:	f94027e0 	ldr	x0, [sp, #72]
   8bed8:	f100001f 	cmp	x0, #0x0
   8bedc:	540001c0 	b.eq	8bf14 <SetPixel+0x5c>  // b.none
   8bee0:	f94027e0 	ldr	x0, [sp, #72]
   8bee4:	b9403401 	ldr	w1, [x0, #52]
   8bee8:	b9403800 	ldr	w0, [x0, #56]
   8beec:	d3607c00 	lsl	x0, x0, #32
   8bef0:	aa010000 	orr	x0, x0, x1
   8bef4:	aa0003e4 	mov	x4, x0
   8bef8:	f9400fe3 	ldr	x3, [sp, #24]
   8befc:	b94023e2 	ldr	w2, [sp, #32]
   8bf00:	b94027e1 	ldr	w1, [sp, #36]
   8bf04:	f94027e0 	ldr	x0, [sp, #72]
   8bf08:	d63f0080 	blr	x4
   8bf0c:	b90043e0 	str	w0, [sp, #64]
   8bf10:	14000005 	b	8bf24 <SetPixel+0x6c>
   8bf14:	12800000 	mov	w0, #0xffffffff            	// #-1
   8bf18:	b9003be0 	str	w0, [sp, #56]
   8bf1c:	b9403be0 	ldr	w0, [sp, #56]
   8bf20:	b90043e0 	str	w0, [sp, #64]
   8bf24:	d2800000 	mov	x0, #0x0                   	// #0
   8bf28:	b94043e1 	ldr	w1, [sp, #64]
   8bf2c:	b3407c20 	bfxil	x0, x1, #0, #32
   8bf30:	f84507fe 	ldr	x30, [sp], #80
   8bf34:	d65f03c0 	ret

000000000008bf38 <PiConsole_Init>:
   8bf38:	d10483ff 	sub	sp, sp, #0x120
   8bf3c:	f9004bfe 	str	x30, [sp, #144]
   8bf40:	b900bfe0 	str	w0, [sp, #188]
   8bf44:	b900bbe1 	str	w1, [sp, #184]
   8bf48:	b900b7e2 	str	w2, [sp, #180]
   8bf4c:	f90057e3 	str	x3, [sp, #168]
   8bf50:	b940bfe0 	ldr	w0, [sp, #188]
   8bf54:	7100001f 	cmp	w0, #0x0
   8bf58:	54000080 	b.eq	8bf68 <PiConsole_Init+0x30>  // b.none
   8bf5c:	b940bbe0 	ldr	w0, [sp, #184]
   8bf60:	7100001f 	cmp	w0, #0x0
   8bf64:	54000341 	b.ne	8bfcc <PiConsole_Init+0x94>  // b.any
   8bf68:	910303e0 	add	x0, sp, #0xc0
   8bf6c:	52800006 	mov	w6, #0x0                   	// #0
   8bf70:	52800005 	mov	w5, #0x0                   	// #0
   8bf74:	52800004 	mov	w4, #0x0                   	// #0
   8bf78:	52800103 	mov	w3, #0x8                   	// #8
   8bf7c:	52800062 	mov	w2, #0x3                   	// #3
   8bf80:	72a00082 	movk	w2, #0x4, lsl #16
   8bf84:	528000a1 	mov	w1, #0x5                   	// #5
   8bf88:	97fff124 	bl	88418 <mailbox_tag_message>
   8bf8c:	12001c00 	and	w0, w0, #0xff
   8bf90:	7100001f 	cmp	w0, #0x0
   8bf94:	54000180 	b.eq	8bfc4 <PiConsole_Init+0x8c>  // b.none
   8bf98:	b940bfe0 	ldr	w0, [sp, #188]
   8bf9c:	7100001f 	cmp	w0, #0x0
   8bfa0:	54000061 	b.ne	8bfac <PiConsole_Init+0x74>  // b.any
   8bfa4:	b940cfe0 	ldr	w0, [sp, #204]
   8bfa8:	b900bfe0 	str	w0, [sp, #188]
   8bfac:	b940bbe0 	ldr	w0, [sp, #184]
   8bfb0:	7100001f 	cmp	w0, #0x0
   8bfb4:	540000c1 	b.ne	8bfcc <PiConsole_Init+0x94>  // b.any
   8bfb8:	b940d3e0 	ldr	w0, [sp, #208]
   8bfbc:	b900bbe0 	str	w0, [sp, #184]
   8bfc0:	14000003 	b	8bfcc <PiConsole_Init+0x94>
   8bfc4:	52800000 	mov	w0, #0x0                   	// #0
   8bfc8:	1400022a 	b	8c870 <PiConsole_Init+0x938>
   8bfcc:	b940b7e0 	ldr	w0, [sp, #180]
   8bfd0:	7100001f 	cmp	w0, #0x0
   8bfd4:	54000221 	b.ne	8c018 <PiConsole_Init+0xe0>  // b.any
   8bfd8:	910303e0 	add	x0, sp, #0xc0
   8bfdc:	52800005 	mov	w5, #0x0                   	// #0
   8bfe0:	52800084 	mov	w4, #0x4                   	// #4
   8bfe4:	52800083 	mov	w3, #0x4                   	// #4
   8bfe8:	528000a2 	mov	w2, #0x5                   	// #5
   8bfec:	72a00082 	movk	w2, #0x4, lsl #16
   8bff0:	52800081 	mov	w1, #0x4                   	// #4
   8bff4:	97fff109 	bl	88418 <mailbox_tag_message>
   8bff8:	12001c00 	and	w0, w0, #0xff
   8bffc:	7100001f 	cmp	w0, #0x0
   8c000:	54000080 	b.eq	8c010 <PiConsole_Init+0xd8>  // b.none
   8c004:	b940cfe0 	ldr	w0, [sp, #204]
   8c008:	b900b7e0 	str	w0, [sp, #180]
   8c00c:	14000003 	b	8c018 <PiConsole_Init+0xe0>
   8c010:	52800000 	mov	w0, #0x0                   	// #0
   8c014:	14000217 	b	8c870 <PiConsole_Init+0x938>
   8c018:	910303e8 	add	x8, sp, #0xc0
   8c01c:	b90083ff 	str	wzr, [sp, #128]
   8c020:	b9007bff 	str	wzr, [sp, #120]
   8c024:	52800080 	mov	w0, #0x4                   	// #4
   8c028:	b90073e0 	str	w0, [sp, #112]
   8c02c:	52800100 	mov	w0, #0x8                   	// #8
   8c030:	72a00080 	movk	w0, #0x4, lsl #16
   8c034:	b9006be0 	str	w0, [sp, #104]
   8c038:	b90063ff 	str	wzr, [sp, #96]
   8c03c:	52800200 	mov	w0, #0x10                  	// #16
   8c040:	b9005be0 	str	w0, [sp, #88]
   8c044:	52800080 	mov	w0, #0x4                   	// #4
   8c048:	b90053e0 	str	w0, [sp, #80]
   8c04c:	52800100 	mov	w0, #0x8                   	// #8
   8c050:	b9004be0 	str	w0, [sp, #72]
   8c054:	52800020 	mov	w0, #0x1                   	// #1
   8c058:	72a00080 	movk	w0, #0x4, lsl #16
   8c05c:	b90043e0 	str	w0, [sp, #64]
   8c060:	b940b7e0 	ldr	w0, [sp, #180]
   8c064:	b9003be0 	str	w0, [sp, #56]
   8c068:	52800080 	mov	w0, #0x4                   	// #4
   8c06c:	b90033e0 	str	w0, [sp, #48]
   8c070:	52800080 	mov	w0, #0x4                   	// #4
   8c074:	b9002be0 	str	w0, [sp, #40]
   8c078:	529000a0 	mov	w0, #0x8005                	// #32773
   8c07c:	72a00080 	movk	w0, #0x4, lsl #16
   8c080:	b90023e0 	str	w0, [sp, #32]
   8c084:	b940bbe0 	ldr	w0, [sp, #184]
   8c088:	b9001be0 	str	w0, [sp, #24]
   8c08c:	b940bfe0 	ldr	w0, [sp, #188]
   8c090:	b90013e0 	str	w0, [sp, #16]
   8c094:	52800100 	mov	w0, #0x8                   	// #8
   8c098:	b9000be0 	str	w0, [sp, #8]
   8c09c:	52800100 	mov	w0, #0x8                   	// #8
   8c0a0:	b90003e0 	str	w0, [sp]
   8c0a4:	52900087 	mov	w7, #0x8004                	// #32772
   8c0a8:	72a00087 	movk	w7, #0x4, lsl #16
   8c0ac:	b940bbe6 	ldr	w6, [sp, #184]
   8c0b0:	b940bfe5 	ldr	w5, [sp, #188]
   8c0b4:	52800104 	mov	w4, #0x8                   	// #8
   8c0b8:	52800103 	mov	w3, #0x8                   	// #8
   8c0bc:	52900062 	mov	w2, #0x8003                	// #32771
   8c0c0:	72a00082 	movk	w2, #0x4, lsl #16
   8c0c4:	528002e1 	mov	w1, #0x17                  	// #23
   8c0c8:	aa0803e0 	mov	x0, x8
   8c0cc:	97fff0d3 	bl	88418 <mailbox_tag_message>
   8c0d0:	12001c00 	and	w0, w0, #0xff
   8c0d4:	52000000 	eor	w0, w0, #0x1
   8c0d8:	12001c00 	and	w0, w0, #0xff
   8c0dc:	7100001f 	cmp	w0, #0x0
   8c0e0:	54000060 	b.eq	8c0ec <PiConsole_Init+0x1b4>  // b.none
   8c0e4:	52800000 	mov	w0, #0x0                   	// #0
   8c0e8:	140001e2 	b	8c870 <PiConsole_Init+0x938>
   8c0ec:	b94107e0 	ldr	w0, [sp, #260]
   8c0f0:	97ffd1cf 	bl	8082c <GPUaddrToARMaddr>
   8c0f4:	2a0003e1 	mov	w1, w0
   8c0f8:	f0000080 	adrp	x0, 9f000 <console>
   8c0fc:	91000000 	add	x0, x0, #0x0
   8c100:	92407c22 	and	x2, x1, #0xffffffff
   8c104:	b9400003 	ldr	w3, [x0]
   8c108:	52800004 	mov	w4, #0x0                   	// #0
   8c10c:	0a040063 	and	w3, w3, w4
   8c110:	2a020062 	orr	w2, w3, w2
   8c114:	b9000002 	str	w2, [x0]
   8c118:	d360fc21 	lsr	x1, x1, #32
   8c11c:	b9400402 	ldr	w2, [x0, #4]
   8c120:	52800003 	mov	w3, #0x0                   	// #0
   8c124:	0a030042 	and	w2, w2, w3
   8c128:	2a010041 	orr	w1, w2, w1
   8c12c:	b9000401 	str	w1, [x0, #4]
   8c130:	b9411be1 	ldr	w1, [sp, #280]
   8c134:	f0000080 	adrp	x0, 9f000 <console>
   8c138:	91000000 	add	x0, x0, #0x0
   8c13c:	b9001401 	str	w1, [x0, #20]
   8c140:	f0000080 	adrp	x0, 9f000 <console>
   8c144:	91000000 	add	x0, x0, #0x0
   8c148:	12800001 	mov	w1, #0xffffffff            	// #-1
   8c14c:	b9002801 	str	w1, [x0, #40]
   8c150:	f0000080 	adrp	x0, 9f000 <console>
   8c154:	91000000 	add	x0, x0, #0x0
   8c158:	b9002c1f 	str	wzr, [x0, #44]
   8c15c:	f0000080 	adrp	x0, 9f000 <console>
   8c160:	91000000 	add	x0, x0, #0x0
   8c164:	32089fe1 	mov	w1, #0xff00ff00            	// #-16711936
   8c168:	b9003001 	str	w1, [x0, #48]
   8c16c:	b940bfe1 	ldr	w1, [sp, #188]
   8c170:	f0000080 	adrp	x0, 9f000 <console>
   8c174:	91000000 	add	x0, x0, #0x0
   8c178:	b9000801 	str	w1, [x0, #8]
   8c17c:	b940bbe1 	ldr	w1, [sp, #184]
   8c180:	f0000080 	adrp	x0, 9f000 <console>
   8c184:	91000000 	add	x0, x0, #0x0
   8c188:	b9000c01 	str	w1, [x0, #12]
   8c18c:	b940b7e1 	ldr	w1, [sp, #180]
   8c190:	f0000080 	adrp	x0, 9f000 <console>
   8c194:	91000000 	add	x0, x0, #0x0
   8c198:	b9001001 	str	w1, [x0, #16]
   8c19c:	b940b7e0 	ldr	w0, [sp, #180]
   8c1a0:	7100601f 	cmp	w0, #0x18
   8c1a4:	54001200 	b.eq	8c3e4 <PiConsole_Init+0x4ac>  // b.none
   8c1a8:	b940b7e0 	ldr	w0, [sp, #180]
   8c1ac:	7100801f 	cmp	w0, #0x20
   8c1b0:	540000a0 	b.eq	8c1c4 <PiConsole_Init+0x28c>  // b.none
   8c1b4:	b940b7e0 	ldr	w0, [sp, #180]
   8c1b8:	7100401f 	cmp	w0, #0x10
   8c1bc:	540022c0 	b.eq	8c614 <PiConsole_Init+0x6dc>  // b.none
   8c1c0:	1400019d 	b	8c834 <PiConsole_Init+0x8fc>
   8c1c4:	f0000080 	adrp	x0, 9f000 <console>
   8c1c8:	91000000 	add	x0, x0, #0x0
   8c1cc:	f0ffffe1 	adrp	x1, 8b000 <DiagLine24+0x190>
   8c1d0:	9113e021 	add	x1, x1, #0x4f8
   8c1d4:	92407c22 	and	x2, x1, #0xffffffff
   8c1d8:	b9403403 	ldr	w3, [x0, #52]
   8c1dc:	52800004 	mov	w4, #0x0                   	// #0
   8c1e0:	0a040063 	and	w3, w3, w4
   8c1e4:	2a020062 	orr	w2, w3, w2
   8c1e8:	b9003402 	str	w2, [x0, #52]
   8c1ec:	d360fc21 	lsr	x1, x1, #32
   8c1f0:	b9403802 	ldr	w2, [x0, #56]
   8c1f4:	52800003 	mov	w3, #0x0                   	// #0
   8c1f8:	0a030042 	and	w2, w2, w3
   8c1fc:	2a010041 	orr	w1, w2, w1
   8c200:	b9003801 	str	w1, [x0, #56]
   8c204:	f0000080 	adrp	x0, 9f000 <console>
   8c208:	91000000 	add	x0, x0, #0x0
   8c20c:	f0ffffe1 	adrp	x1, 8b000 <DiagLine24+0x190>
   8c210:	91162021 	add	x1, x1, #0x588
   8c214:	92407c22 	and	x2, x1, #0xffffffff
   8c218:	b9403c03 	ldr	w3, [x0, #60]
   8c21c:	52800004 	mov	w4, #0x0                   	// #0
   8c220:	0a040063 	and	w3, w3, w4
   8c224:	2a020062 	orr	w2, w3, w2
   8c228:	b9003c02 	str	w2, [x0, #60]
   8c22c:	d360fc21 	lsr	x1, x1, #32
   8c230:	b9404002 	ldr	w2, [x0, #64]
   8c234:	52800003 	mov	w3, #0x0                   	// #0
   8c238:	0a030042 	and	w2, w2, w3
   8c23c:	2a010041 	orr	w1, w2, w1
   8c240:	b9004001 	str	w1, [x0, #64]
   8c244:	f0000080 	adrp	x0, 9f000 <console>
   8c248:	91000000 	add	x0, x0, #0x0
   8c24c:	f0ffffe1 	adrp	x1, 8b000 <DiagLine24+0x190>
   8c250:	911a2021 	add	x1, x1, #0x688
   8c254:	92407c22 	and	x2, x1, #0xffffffff
   8c258:	b9404403 	ldr	w3, [x0, #68]
   8c25c:	52800004 	mov	w4, #0x0                   	// #0
   8c260:	0a040063 	and	w3, w3, w4
   8c264:	2a020062 	orr	w2, w3, w2
   8c268:	b9004402 	str	w2, [x0, #68]
   8c26c:	d360fc21 	lsr	x1, x1, #32
   8c270:	b9404802 	ldr	w2, [x0, #72]
   8c274:	52800003 	mov	w3, #0x0                   	// #0
   8c278:	0a030042 	and	w2, w2, w3
   8c27c:	2a010041 	orr	w1, w2, w1
   8c280:	b9004801 	str	w1, [x0, #72]
   8c284:	f0000080 	adrp	x0, 9f000 <console>
   8c288:	91000000 	add	x0, x0, #0x0
   8c28c:	f0ffffe1 	adrp	x1, 8b000 <DiagLine24+0x190>
   8c290:	911e9021 	add	x1, x1, #0x7a4
   8c294:	92407c22 	and	x2, x1, #0xffffffff
   8c298:	b9404c03 	ldr	w3, [x0, #76]
   8c29c:	52800004 	mov	w4, #0x0                   	// #0
   8c2a0:	0a040063 	and	w3, w3, w4
   8c2a4:	2a020062 	orr	w2, w3, w2
   8c2a8:	b9004c02 	str	w2, [x0, #76]
   8c2ac:	d360fc21 	lsr	x1, x1, #32
   8c2b0:	b9405002 	ldr	w2, [x0, #80]
   8c2b4:	52800003 	mov	w3, #0x0                   	// #0
   8c2b8:	0a030042 	and	w2, w2, w3
   8c2bc:	2a010041 	orr	w1, w2, w1
   8c2c0:	b9005001 	str	w1, [x0, #80]
   8c2c4:	f0000080 	adrp	x0, 9f000 <console>
   8c2c8:	91000000 	add	x0, x0, #0x0
   8c2cc:	f0ffffe1 	adrp	x1, 8b000 <DiagLine24+0x190>
   8c2d0:	91222021 	add	x1, x1, #0x888
   8c2d4:	92407c22 	and	x2, x1, #0xffffffff
   8c2d8:	b9405403 	ldr	w3, [x0, #84]
   8c2dc:	52800004 	mov	w4, #0x0                   	// #0
   8c2e0:	0a040063 	and	w3, w3, w4
   8c2e4:	2a020062 	orr	w2, w3, w2
   8c2e8:	b9005402 	str	w2, [x0, #84]
   8c2ec:	d360fc21 	lsr	x1, x1, #32
   8c2f0:	b9405802 	ldr	w2, [x0, #88]
   8c2f4:	52800003 	mov	w3, #0x0                   	// #0
   8c2f8:	0a030042 	and	w2, w2, w3
   8c2fc:	2a010041 	orr	w1, w2, w1
   8c300:	b9005801 	str	w1, [x0, #88]
   8c304:	f0000080 	adrp	x0, 9f000 <console>
   8c308:	91000000 	add	x0, x0, #0x0
   8c30c:	f0ffffe1 	adrp	x1, 8b000 <DiagLine24+0x190>
   8c310:	91292021 	add	x1, x1, #0xa48
   8c314:	92407c22 	and	x2, x1, #0xffffffff
   8c318:	b9405c03 	ldr	w3, [x0, #92]
   8c31c:	52800004 	mov	w4, #0x0                   	// #0
   8c320:	0a040063 	and	w3, w3, w4
   8c324:	2a020062 	orr	w2, w3, w2
   8c328:	b9005c02 	str	w2, [x0, #92]
   8c32c:	d360fc21 	lsr	x1, x1, #32
   8c330:	b9406002 	ldr	w2, [x0, #96]
   8c334:	52800003 	mov	w3, #0x0                   	// #0
   8c338:	0a030042 	and	w2, w2, w3
   8c33c:	2a010041 	orr	w1, w2, w1
   8c340:	b9006001 	str	w1, [x0, #96]
   8c344:	f0000080 	adrp	x0, 9f000 <console>
   8c348:	91000000 	add	x0, x0, #0x0
   8c34c:	f0ffffe1 	adrp	x1, 8b000 <DiagLine24+0x190>
   8c350:	912ed021 	add	x1, x1, #0xbb4
   8c354:	92407c22 	and	x2, x1, #0xffffffff
   8c358:	b9406403 	ldr	w3, [x0, #100]
   8c35c:	52800004 	mov	w4, #0x0                   	// #0
   8c360:	0a040063 	and	w3, w3, w4
   8c364:	2a020062 	orr	w2, w3, w2
   8c368:	b9006402 	str	w2, [x0, #100]
   8c36c:	d360fc21 	lsr	x1, x1, #32
   8c370:	b9406802 	ldr	w2, [x0, #104]
   8c374:	52800003 	mov	w3, #0x0                   	// #0
   8c378:	0a030042 	and	w2, w2, w3
   8c37c:	2a010041 	orr	w1, w2, w1
   8c380:	b9006801 	str	w1, [x0, #104]
   8c384:	f0000080 	adrp	x0, 9f000 <console>
   8c388:	91000000 	add	x0, x0, #0x0
   8c38c:	f0ffffe1 	adrp	x1, 8b000 <DiagLine24+0x190>
   8c390:	91342021 	add	x1, x1, #0xd08
   8c394:	92407c22 	and	x2, x1, #0xffffffff
   8c398:	b9406c03 	ldr	w3, [x0, #108]
   8c39c:	52800004 	mov	w4, #0x0                   	// #0
   8c3a0:	0a040063 	and	w3, w3, w4
   8c3a4:	2a020062 	orr	w2, w3, w2
   8c3a8:	b9006c02 	str	w2, [x0, #108]
   8c3ac:	d360fc21 	lsr	x1, x1, #32
   8c3b0:	b9407002 	ldr	w2, [x0, #112]
   8c3b4:	52800003 	mov	w3, #0x0                   	// #0
   8c3b8:	0a030042 	and	w2, w2, w3
   8c3bc:	2a010041 	orr	w1, w2, w1
   8c3c0:	b9007001 	str	w1, [x0, #112]
   8c3c4:	f0000080 	adrp	x0, 9f000 <console>
   8c3c8:	91000000 	add	x0, x0, #0x0
   8c3cc:	b9401400 	ldr	w0, [x0, #20]
   8c3d0:	53027c01 	lsr	w1, w0, #2
   8c3d4:	f0000080 	adrp	x0, 9f000 <console>
   8c3d8:	91000000 	add	x0, x0, #0x0
   8c3dc:	b9001401 	str	w1, [x0, #20]
   8c3e0:	14000115 	b	8c834 <PiConsole_Init+0x8fc>
   8c3e4:	f0000080 	adrp	x0, 9f000 <console>
   8c3e8:	91000000 	add	x0, x0, #0x0
   8c3ec:	d0ffffe1 	adrp	x1, 8a000 <ClearArea16+0x128>
   8c3f0:	91291021 	add	x1, x1, #0xa44
   8c3f4:	92407c22 	and	x2, x1, #0xffffffff
   8c3f8:	b9403403 	ldr	w3, [x0, #52]
   8c3fc:	52800004 	mov	w4, #0x0                   	// #0
   8c400:	0a040063 	and	w3, w3, w4
   8c404:	2a020062 	orr	w2, w3, w2
   8c408:	b9003402 	str	w2, [x0, #52]
   8c40c:	d360fc21 	lsr	x1, x1, #32
   8c410:	b9403802 	ldr	w2, [x0, #56]
   8c414:	52800003 	mov	w3, #0x0                   	// #0
   8c418:	0a030042 	and	w2, w2, w3
   8c41c:	2a010041 	orr	w1, w2, w1
   8c420:	b9003801 	str	w1, [x0, #56]
   8c424:	f0000080 	adrp	x0, 9f000 <console>
   8c428:	91000000 	add	x0, x0, #0x0
   8c42c:	d0ffffe1 	adrp	x1, 8a000 <ClearArea16+0x128>
   8c430:	912ba021 	add	x1, x1, #0xae8
   8c434:	92407c22 	and	x2, x1, #0xffffffff
   8c438:	b9403c03 	ldr	w3, [x0, #60]
   8c43c:	52800004 	mov	w4, #0x0                   	// #0
   8c440:	0a040063 	and	w3, w3, w4
   8c444:	2a020062 	orr	w2, w3, w2
   8c448:	b9003c02 	str	w2, [x0, #60]
   8c44c:	d360fc21 	lsr	x1, x1, #32
   8c450:	b9404002 	ldr	w2, [x0, #64]
   8c454:	52800003 	mov	w3, #0x0                   	// #0
   8c458:	0a030042 	and	w2, w2, w3
   8c45c:	2a010041 	orr	w1, w2, w1
   8c460:	b9004001 	str	w1, [x0, #64]
   8c464:	f0000080 	adrp	x0, 9f000 <console>
   8c468:	91000000 	add	x0, x0, #0x0
   8c46c:	d0ffffe1 	adrp	x1, 8a000 <ClearArea16+0x128>
   8c470:	91306021 	add	x1, x1, #0xc18
   8c474:	92407c22 	and	x2, x1, #0xffffffff
   8c478:	b9404403 	ldr	w3, [x0, #68]
   8c47c:	52800004 	mov	w4, #0x0                   	// #0
   8c480:	0a040063 	and	w3, w3, w4
   8c484:	2a020062 	orr	w2, w3, w2
   8c488:	b9004402 	str	w2, [x0, #68]
   8c48c:	d360fc21 	lsr	x1, x1, #32
   8c490:	b9404802 	ldr	w2, [x0, #72]
   8c494:	52800003 	mov	w3, #0x0                   	// #0
   8c498:	0a030042 	and	w2, w2, w3
   8c49c:	2a010041 	orr	w1, w2, w1
   8c4a0:	b9004801 	str	w1, [x0, #72]
   8c4a4:	f0000080 	adrp	x0, 9f000 <console>
   8c4a8:	91000000 	add	x0, x0, #0x0
   8c4ac:	d0ffffe1 	adrp	x1, 8a000 <ClearArea16+0x128>
   8c4b0:	91359021 	add	x1, x1, #0xd64
   8c4b4:	92407c22 	and	x2, x1, #0xffffffff
   8c4b8:	b9404c03 	ldr	w3, [x0, #76]
   8c4bc:	52800004 	mov	w4, #0x0                   	// #0
   8c4c0:	0a040063 	and	w3, w3, w4
   8c4c4:	2a020062 	orr	w2, w3, w2
   8c4c8:	b9004c02 	str	w2, [x0, #76]
   8c4cc:	d360fc21 	lsr	x1, x1, #32
   8c4d0:	b9405002 	ldr	w2, [x0, #80]
   8c4d4:	52800003 	mov	w3, #0x0                   	// #0
   8c4d8:	0a030042 	and	w2, w2, w3
   8c4dc:	2a010041 	orr	w1, w2, w1
   8c4e0:	b9005001 	str	w1, [x0, #80]
   8c4e4:	f0000080 	adrp	x0, 9f000 <console>
   8c4e8:	91000000 	add	x0, x0, #0x0
   8c4ec:	d0ffffe1 	adrp	x1, 8a000 <ClearArea16+0x128>
   8c4f0:	9139c021 	add	x1, x1, #0xe70
   8c4f4:	92407c22 	and	x2, x1, #0xffffffff
   8c4f8:	b9405403 	ldr	w3, [x0, #84]
   8c4fc:	52800004 	mov	w4, #0x0                   	// #0
   8c500:	0a040063 	and	w3, w3, w4
   8c504:	2a020062 	orr	w2, w3, w2
   8c508:	b9005402 	str	w2, [x0, #84]
   8c50c:	d360fc21 	lsr	x1, x1, #32
   8c510:	b9405802 	ldr	w2, [x0, #88]
   8c514:	52800003 	mov	w3, #0x0                   	// #0
   8c518:	0a030042 	and	w2, w2, w3
   8c51c:	2a010041 	orr	w1, w2, w1
   8c520:	b9005801 	str	w1, [x0, #88]
   8c524:	f0000080 	adrp	x0, 9f000 <console>
   8c528:	91000000 	add	x0, x0, #0x0
   8c52c:	f0ffffe1 	adrp	x1, 8b000 <DiagLine24+0x190>
   8c530:	91018021 	add	x1, x1, #0x60
   8c534:	92407c22 	and	x2, x1, #0xffffffff
   8c538:	b9405c03 	ldr	w3, [x0, #92]
   8c53c:	52800004 	mov	w4, #0x0                   	// #0
   8c540:	0a040063 	and	w3, w3, w4
   8c544:	2a020062 	orr	w2, w3, w2
   8c548:	b9005c02 	str	w2, [x0, #92]
   8c54c:	d360fc21 	lsr	x1, x1, #32
   8c550:	b9406002 	ldr	w2, [x0, #96]
   8c554:	52800003 	mov	w3, #0x0                   	// #0
   8c558:	0a030042 	and	w2, w2, w3
   8c55c:	2a010041 	orr	w1, w2, w1
   8c560:	b9006001 	str	w1, [x0, #96]
   8c564:	f0000080 	adrp	x0, 9f000 <console>
   8c568:	91000000 	add	x0, x0, #0x0
   8c56c:	f0ffffe1 	adrp	x1, 8b000 <DiagLine24+0x190>
   8c570:	91083021 	add	x1, x1, #0x20c
   8c574:	92407c22 	and	x2, x1, #0xffffffff
   8c578:	b9406403 	ldr	w3, [x0, #100]
   8c57c:	52800004 	mov	w4, #0x0                   	// #0
   8c580:	0a040063 	and	w3, w3, w4
   8c584:	2a020062 	orr	w2, w3, w2
   8c588:	b9006402 	str	w2, [x0, #100]
   8c58c:	d360fc21 	lsr	x1, x1, #32
   8c590:	b9406802 	ldr	w2, [x0, #104]
   8c594:	52800003 	mov	w3, #0x0                   	// #0
   8c598:	0a030042 	and	w2, w2, w3
   8c59c:	2a010041 	orr	w1, w2, w1
   8c5a0:	b9006801 	str	w1, [x0, #104]
   8c5a4:	f0000080 	adrp	x0, 9f000 <console>
   8c5a8:	91000000 	add	x0, x0, #0x0
   8c5ac:	f0ffffe1 	adrp	x1, 8b000 <DiagLine24+0x190>
   8c5b0:	910e4021 	add	x1, x1, #0x390
   8c5b4:	92407c22 	and	x2, x1, #0xffffffff
   8c5b8:	b9406c03 	ldr	w3, [x0, #108]
   8c5bc:	52800004 	mov	w4, #0x0                   	// #0
   8c5c0:	0a040063 	and	w3, w3, w4
   8c5c4:	2a020062 	orr	w2, w3, w2
   8c5c8:	b9006c02 	str	w2, [x0, #108]
   8c5cc:	d360fc21 	lsr	x1, x1, #32
   8c5d0:	b9407002 	ldr	w2, [x0, #112]
   8c5d4:	52800003 	mov	w3, #0x0                   	// #0
   8c5d8:	0a030042 	and	w2, w2, w3
   8c5dc:	2a010041 	orr	w1, w2, w1
   8c5e0:	b9007001 	str	w1, [x0, #112]
   8c5e4:	f0000080 	adrp	x0, 9f000 <console>
   8c5e8:	91000000 	add	x0, x0, #0x0
   8c5ec:	b9401401 	ldr	w1, [x0, #20]
   8c5f0:	52955560 	mov	w0, #0xaaab                	// #43691
   8c5f4:	72b55540 	movk	w0, #0xaaaa, lsl #16
   8c5f8:	9ba07c20 	umull	x0, w1, w0
   8c5fc:	d360fc00 	lsr	x0, x0, #32
   8c600:	53017c01 	lsr	w1, w0, #1
   8c604:	f0000080 	adrp	x0, 9f000 <console>
   8c608:	91000000 	add	x0, x0, #0x0
   8c60c:	b9001401 	str	w1, [x0, #20]
   8c610:	14000089 	b	8c834 <PiConsole_Init+0x8fc>
   8c614:	f0000080 	adrp	x0, 9f000 <console>
   8c618:	91000000 	add	x0, x0, #0x0
   8c61c:	b0ffffe1 	adrp	x1, 89000 <pl011_uart_init+0x19c>
   8c620:	9137d021 	add	x1, x1, #0xdf4
   8c624:	92407c22 	and	x2, x1, #0xffffffff
   8c628:	b9403403 	ldr	w3, [x0, #52]
   8c62c:	52800004 	mov	w4, #0x0                   	// #0
   8c630:	0a040063 	and	w3, w3, w4
   8c634:	2a020062 	orr	w2, w3, w2
   8c638:	b9003402 	str	w2, [x0, #52]
   8c63c:	d360fc21 	lsr	x1, x1, #32
   8c640:	b9403802 	ldr	w2, [x0, #56]
   8c644:	52800003 	mov	w3, #0x0                   	// #0
   8c648:	0a030042 	and	w2, w2, w3
   8c64c:	2a010041 	orr	w1, w2, w1
   8c650:	b9003801 	str	w1, [x0, #56]
   8c654:	f0000080 	adrp	x0, 9f000 <console>
   8c658:	91000000 	add	x0, x0, #0x0
   8c65c:	b0ffffe1 	adrp	x1, 89000 <pl011_uart_init+0x19c>
   8c660:	913b6021 	add	x1, x1, #0xed8
   8c664:	92407c22 	and	x2, x1, #0xffffffff
   8c668:	b9403c03 	ldr	w3, [x0, #60]
   8c66c:	52800004 	mov	w4, #0x0                   	// #0
   8c670:	0a040063 	and	w3, w3, w4
   8c674:	2a020062 	orr	w2, w3, w2
   8c678:	b9003c02 	str	w2, [x0, #60]
   8c67c:	d360fc21 	lsr	x1, x1, #32
   8c680:	b9404002 	ldr	w2, [x0, #64]
   8c684:	52800003 	mov	w3, #0x0                   	// #0
   8c688:	0a030042 	and	w2, w2, w3
   8c68c:	2a010041 	orr	w1, w2, w1
   8c690:	b9004001 	str	w1, [x0, #64]
   8c694:	f0000080 	adrp	x0, 9f000 <console>
   8c698:	91000000 	add	x0, x0, #0x0
   8c69c:	d0ffffe1 	adrp	x1, 8a000 <ClearArea16+0x128>
   8c6a0:	9100f021 	add	x1, x1, #0x3c
   8c6a4:	92407c22 	and	x2, x1, #0xffffffff
   8c6a8:	b9404403 	ldr	w3, [x0, #68]
   8c6ac:	52800004 	mov	w4, #0x0                   	// #0
   8c6b0:	0a040063 	and	w3, w3, w4
   8c6b4:	2a020062 	orr	w2, w3, w2
   8c6b8:	b9004402 	str	w2, [x0, #68]
   8c6bc:	d360fc21 	lsr	x1, x1, #32
   8c6c0:	b9404802 	ldr	w2, [x0, #72]
   8c6c4:	52800003 	mov	w3, #0x0                   	// #0
   8c6c8:	0a030042 	and	w2, w2, w3
   8c6cc:	2a010041 	orr	w1, w2, w1
   8c6d0:	b9004801 	str	w1, [x0, #72]
   8c6d4:	f0000080 	adrp	x0, 9f000 <console>
   8c6d8:	91000000 	add	x0, x0, #0x0
   8c6dc:	d0ffffe1 	adrp	x1, 8a000 <ClearArea16+0x128>
   8c6e0:	9106f021 	add	x1, x1, #0x1bc
   8c6e4:	92407c22 	and	x2, x1, #0xffffffff
   8c6e8:	b9404c03 	ldr	w3, [x0, #76]
   8c6ec:	52800004 	mov	w4, #0x0                   	// #0
   8c6f0:	0a040063 	and	w3, w3, w4
   8c6f4:	2a020062 	orr	w2, w3, w2
   8c6f8:	b9004c02 	str	w2, [x0, #76]
   8c6fc:	d360fc21 	lsr	x1, x1, #32
   8c700:	b9405002 	ldr	w2, [x0, #80]
   8c704:	52800003 	mov	w3, #0x0                   	// #0
   8c708:	0a030042 	and	w2, w2, w3
   8c70c:	2a010041 	orr	w1, w2, w1
   8c710:	b9005001 	str	w1, [x0, #80]
   8c714:	f0000080 	adrp	x0, 9f000 <console>
   8c718:	91000000 	add	x0, x0, #0x0
   8c71c:	d0ffffe1 	adrp	x1, 8a000 <ClearArea16+0x128>
   8c720:	910c1021 	add	x1, x1, #0x304
   8c724:	92407c22 	and	x2, x1, #0xffffffff
   8c728:	b9405403 	ldr	w3, [x0, #84]
   8c72c:	52800004 	mov	w4, #0x0                   	// #0
   8c730:	0a040063 	and	w3, w3, w4
   8c734:	2a020062 	orr	w2, w3, w2
   8c738:	b9005402 	str	w2, [x0, #84]
   8c73c:	d360fc21 	lsr	x1, x1, #32
   8c740:	b9405802 	ldr	w2, [x0, #88]
   8c744:	52800003 	mov	w3, #0x0                   	// #0
   8c748:	0a030042 	and	w2, w2, w3
   8c74c:	2a010041 	orr	w1, w2, w1
   8c750:	b9005801 	str	w1, [x0, #88]
   8c754:	f0000080 	adrp	x0, 9f000 <console>
   8c758:	91000000 	add	x0, x0, #0x0
   8c75c:	d0ffffe1 	adrp	x1, 8a000 <ClearArea16+0x128>
   8c760:	9114a021 	add	x1, x1, #0x528
   8c764:	92407c22 	and	x2, x1, #0xffffffff
   8c768:	b9405c03 	ldr	w3, [x0, #92]
   8c76c:	52800004 	mov	w4, #0x0                   	// #0
   8c770:	0a040063 	and	w3, w3, w4
   8c774:	2a020062 	orr	w2, w3, w2
   8c778:	b9005c02 	str	w2, [x0, #92]
   8c77c:	d360fc21 	lsr	x1, x1, #32
   8c780:	b9406002 	ldr	w2, [x0, #96]
   8c784:	52800003 	mov	w3, #0x0                   	// #0
   8c788:	0a030042 	and	w2, w2, w3
   8c78c:	2a010041 	orr	w1, w2, w1
   8c790:	b9006001 	str	w1, [x0, #96]
   8c794:	f0000080 	adrp	x0, 9f000 <console>
   8c798:	91000000 	add	x0, x0, #0x0
   8c79c:	d0ffffe1 	adrp	x1, 8a000 <ClearArea16+0x128>
   8c7a0:	911d7021 	add	x1, x1, #0x75c
   8c7a4:	92407c22 	and	x2, x1, #0xffffffff
   8c7a8:	b9406403 	ldr	w3, [x0, #100]
   8c7ac:	52800004 	mov	w4, #0x0                   	// #0
   8c7b0:	0a040063 	and	w3, w3, w4
   8c7b4:	2a020062 	orr	w2, w3, w2
   8c7b8:	b9006402 	str	w2, [x0, #100]
   8c7bc:	d360fc21 	lsr	x1, x1, #32
   8c7c0:	b9406802 	ldr	w2, [x0, #104]
   8c7c4:	52800003 	mov	w3, #0x0                   	// #0
   8c7c8:	0a030042 	and	w2, w2, w3
   8c7cc:	2a010041 	orr	w1, w2, w1
   8c7d0:	b9006801 	str	w1, [x0, #104]
   8c7d4:	f0000080 	adrp	x0, 9f000 <console>
   8c7d8:	91000000 	add	x0, x0, #0x0
   8c7dc:	d0ffffe1 	adrp	x1, 8a000 <ClearArea16+0x128>
   8c7e0:	91245021 	add	x1, x1, #0x914
   8c7e4:	92407c22 	and	x2, x1, #0xffffffff
   8c7e8:	b9406c03 	ldr	w3, [x0, #108]
   8c7ec:	52800004 	mov	w4, #0x0                   	// #0
   8c7f0:	0a040063 	and	w3, w3, w4
   8c7f4:	2a020062 	orr	w2, w3, w2
   8c7f8:	b9006c02 	str	w2, [x0, #108]
   8c7fc:	d360fc21 	lsr	x1, x1, #32
   8c800:	b9407002 	ldr	w2, [x0, #112]
   8c804:	52800003 	mov	w3, #0x0                   	// #0
   8c808:	0a030042 	and	w2, w2, w3
   8c80c:	2a010041 	orr	w1, w2, w1
   8c810:	b9007001 	str	w1, [x0, #112]
   8c814:	f0000080 	adrp	x0, 9f000 <console>
   8c818:	91000000 	add	x0, x0, #0x0
   8c81c:	b9401400 	ldr	w0, [x0, #20]
   8c820:	53017c01 	lsr	w1, w0, #1
   8c824:	f0000080 	adrp	x0, 9f000 <console>
   8c828:	91000000 	add	x0, x0, #0x0
   8c82c:	b9001401 	str	w1, [x0, #20]
   8c830:	d503201f 	nop
   8c834:	f94057e0 	ldr	x0, [sp, #168]
   8c838:	f100001f 	cmp	x0, #0x0
   8c83c:	54000180 	b.eq	8c86c <PiConsole_Init+0x934>  // b.none
   8c840:	f0000080 	adrp	x0, 9f000 <console>
   8c844:	91000000 	add	x0, x0, #0x0
   8c848:	b9401400 	ldr	w0, [x0, #20]
   8c84c:	f94057e5 	ldr	x5, [sp, #168]
   8c850:	2a0003e4 	mov	w4, w0
   8c854:	b940b7e3 	ldr	w3, [sp, #180]
   8c858:	b940bbe2 	ldr	w2, [sp, #184]
   8c85c:	b940bfe1 	ldr	w1, [sp, #188]
   8c860:	b0000040 	adrp	x0, 95000 <BitFont+0xb40>
   8c864:	9116c000 	add	x0, x0, #0x5b0
   8c868:	d63f00a0 	blr	x5
   8c86c:	52800020 	mov	w0, #0x1                   	// #1
   8c870:	f9404bfe 	ldr	x30, [sp, #144]
   8c874:	910483ff 	add	sp, sp, #0x120
   8c878:	d65f03c0 	ret

000000000008c87c <GetConsoleDC>:
   8c87c:	f0000080 	adrp	x0, 9f000 <console>
   8c880:	91000000 	add	x0, x0, #0x0
   8c884:	d65f03c0 	ret

000000000008c888 <GetConsole_FrameBuffer>:
   8c888:	f0000080 	adrp	x0, 9f000 <console>
   8c88c:	91000000 	add	x0, x0, #0x0
   8c890:	b9400001 	ldr	w1, [x0]
   8c894:	b9400400 	ldr	w0, [x0, #4]
   8c898:	d3607c00 	lsl	x0, x0, #32
   8c89c:	aa010000 	orr	x0, x0, x1
   8c8a0:	d65f03c0 	ret

000000000008c8a4 <GetConsole_Width>:
   8c8a4:	f0000080 	adrp	x0, 9f000 <console>
   8c8a8:	91000000 	add	x0, x0, #0x0
   8c8ac:	b9400800 	ldr	w0, [x0, #8]
   8c8b0:	d65f03c0 	ret

000000000008c8b4 <GetConsole_Height>:
   8c8b4:	f0000080 	adrp	x0, 9f000 <console>
   8c8b8:	91000000 	add	x0, x0, #0x0
   8c8bc:	b9400c00 	ldr	w0, [x0, #12]
   8c8c0:	d65f03c0 	ret

000000000008c8c4 <WhereXY>:
   8c8c4:	d10043ff 	sub	sp, sp, #0x10
   8c8c8:	f90007e0 	str	x0, [sp, #8]
   8c8cc:	f90003e1 	str	x1, [sp]
   8c8d0:	f94007e0 	ldr	x0, [sp, #8]
   8c8d4:	f100001f 	cmp	x0, #0x0
   8c8d8:	540000e0 	b.eq	8c8f4 <WhereXY+0x30>  // b.none
   8c8dc:	f0000080 	adrp	x0, 9f000 <console>
   8c8e0:	91000000 	add	x0, x0, #0x0
   8c8e4:	b9402000 	ldr	w0, [x0, #32]
   8c8e8:	2a0003e1 	mov	w1, w0
   8c8ec:	f94007e0 	ldr	x0, [sp, #8]
   8c8f0:	b9000001 	str	w1, [x0]
   8c8f4:	f94003e0 	ldr	x0, [sp]
   8c8f8:	f100001f 	cmp	x0, #0x0
   8c8fc:	540000e0 	b.eq	8c918 <WhereXY+0x54>  // b.none
   8c900:	f0000080 	adrp	x0, 9f000 <console>
   8c904:	91000000 	add	x0, x0, #0x0
   8c908:	b9402400 	ldr	w0, [x0, #36]
   8c90c:	2a0003e1 	mov	w1, w0
   8c910:	f94003e0 	ldr	x0, [sp]
   8c914:	b9000001 	str	w1, [x0]
   8c918:	d503201f 	nop
   8c91c:	910043ff 	add	sp, sp, #0x10
   8c920:	d65f03c0 	ret

000000000008c924 <GotoXY>:
   8c924:	d10043ff 	sub	sp, sp, #0x10
   8c928:	b9000fe0 	str	w0, [sp, #12]
   8c92c:	b9000be1 	str	w1, [sp, #8]
   8c930:	b9400fe1 	ldr	w1, [sp, #12]
   8c934:	f0000080 	adrp	x0, 9f000 <console>
   8c938:	91000000 	add	x0, x0, #0x0
   8c93c:	b9002001 	str	w1, [x0, #32]
   8c940:	b9400be1 	ldr	w1, [sp, #8]
   8c944:	f0000080 	adrp	x0, 9f000 <console>
   8c948:	91000000 	add	x0, x0, #0x0
   8c94c:	b9002401 	str	w1, [x0, #36]
   8c950:	d503201f 	nop
   8c954:	910043ff 	add	sp, sp, #0x10
   8c958:	d65f03c0 	ret

000000000008c95c <_sbrk>:
   8c95c:	d10083ff 	sub	sp, sp, #0x20
   8c960:	b9000fe0 	str	w0, [sp, #12]
   8c964:	f0000080 	adrp	x0, 9f000 <console>
   8c968:	9101e000 	add	x0, x0, #0x78
   8c96c:	f9400000 	ldr	x0, [x0]
   8c970:	f100001f 	cmp	x0, #0x0
   8c974:	540000c1 	b.ne	8c98c <_sbrk+0x30>  // b.any
   8c978:	f0000080 	adrp	x0, 9f000 <console>
   8c97c:	9101e000 	add	x0, x0, #0x78
   8c980:	f00000c1 	adrp	x1, a7000 <__EL1_stack_core3+0x130>
   8c984:	913b4021 	add	x1, x1, #0xed0
   8c988:	f9000001 	str	x1, [x0]
   8c98c:	f0000080 	adrp	x0, 9f000 <console>
   8c990:	9101e000 	add	x0, x0, #0x78
   8c994:	f9400000 	ldr	x0, [x0]
   8c998:	f9000fe0 	str	x0, [sp, #24]
   8c99c:	f0000080 	adrp	x0, 9f000 <console>
   8c9a0:	9101e000 	add	x0, x0, #0x78
   8c9a4:	f9400001 	ldr	x1, [x0]
   8c9a8:	b9800fe0 	ldrsw	x0, [sp, #12]
   8c9ac:	8b000021 	add	x1, x1, x0
   8c9b0:	f0000080 	adrp	x0, 9f000 <console>
   8c9b4:	9101e000 	add	x0, x0, #0x78
   8c9b8:	f9000001 	str	x1, [x0]
   8c9bc:	f9400fe0 	ldr	x0, [sp, #24]
   8c9c0:	910083ff 	add	sp, sp, #0x20
   8c9c4:	d65f03c0 	ret

000000000008c9c8 <__locale_mb_cur_max>:
   8c9c8:	b0000040 	adrp	x0, 95000 <BitFont+0xb40>
   8c9cc:	b0000041 	adrp	x1, 95000 <BitFont+0xb40>
   8c9d0:	912d8021 	add	x1, x1, #0xb60
   8c9d4:	f9469000 	ldr	x0, [x0, #3360]
   8c9d8:	f9402400 	ldr	x0, [x0, #72]
   8c9dc:	f100001f 	cmp	x0, #0x0
   8c9e0:	9a800020 	csel	x0, x1, x0, eq  // eq = none
   8c9e4:	39458000 	ldrb	w0, [x0, #352]
   8c9e8:	d65f03c0 	ret
   8c9ec:	00000000 	.inst	0x00000000 ; undefined

000000000008c9f0 <__locale_ctype_ptr_l>:
   8c9f0:	f9407c00 	ldr	x0, [x0, #248]
   8c9f4:	d65f03c0 	ret

000000000008c9f8 <__locale_ctype_ptr>:
   8c9f8:	b0000040 	adrp	x0, 95000 <BitFont+0xb40>
   8c9fc:	b0000041 	adrp	x1, 95000 <BitFont+0xb40>
   8ca00:	912d8021 	add	x1, x1, #0xb60
   8ca04:	f9469000 	ldr	x0, [x0, #3360]
   8ca08:	f9402400 	ldr	x0, [x0, #72]
   8ca0c:	f100001f 	cmp	x0, #0x0
   8ca10:	9a800020 	csel	x0, x1, x0, eq  // eq = none
   8ca14:	f9407c00 	ldr	x0, [x0, #248]
   8ca18:	d65f03c0 	ret
   8ca1c:	00000000 	.inst	0x00000000 ; undefined

000000000008ca20 <mbstowcs>:
   8ca20:	a9be7bfd 	stp	x29, x30, [sp, #-32]!
   8ca24:	b0000044 	adrp	x4, 95000 <BitFont+0xb40>
   8ca28:	aa0203e3 	mov	x3, x2
   8ca2c:	910003fd 	mov	x29, sp
   8ca30:	aa0103e2 	mov	x2, x1
   8ca34:	aa0003e1 	mov	x1, x0
   8ca38:	f9469080 	ldr	x0, [x4, #3360]
   8ca3c:	910063e4 	add	x4, sp, #0x18
   8ca40:	b9001bff 	str	wzr, [sp, #24]
   8ca44:	94000003 	bl	8ca50 <_mbstowcs_r>
   8ca48:	a8c27bfd 	ldp	x29, x30, [sp], #32
   8ca4c:	d65f03c0 	ret

000000000008ca50 <_mbstowcs_r>:
   8ca50:	a9ba7bfd 	stp	x29, x30, [sp, #-96]!
   8ca54:	910003fd 	mov	x29, sp
   8ca58:	a90153f3 	stp	x19, x20, [sp, #16]
   8ca5c:	aa0103f3 	mov	x19, x1
   8ca60:	aa0203f4 	mov	x20, x2
   8ca64:	a9025bf5 	stp	x21, x22, [sp, #32]
   8ca68:	a9046bf9 	stp	x25, x26, [sp, #64]
   8ca6c:	aa0403f9 	mov	x25, x4
   8ca70:	f9002bfb 	str	x27, [sp, #80]
   8ca74:	aa0003fb 	mov	x27, x0
   8ca78:	b4000621 	cbz	x1, 8cb3c <_mbstowcs_r+0xec>
   8ca7c:	aa0303f5 	mov	x21, x3
   8ca80:	b4000643 	cbz	x3, 8cb48 <_mbstowcs_r+0xf8>
   8ca84:	a90363f7 	stp	x23, x24, [sp, #48]
   8ca88:	b000005a 	adrp	x26, 95000 <BitFont+0xb40>
   8ca8c:	b0000058 	adrp	x24, 95000 <BitFont+0xb40>
   8ca90:	9134835a 	add	x26, x26, #0xd20
   8ca94:	912d8318 	add	x24, x24, #0xb60
   8ca98:	d2800016 	mov	x22, #0x0                   	// #0
   8ca9c:	d503201f 	nop
   8caa0:	f9400340 	ldr	x0, [x26]
   8caa4:	f9402400 	ldr	x0, [x0, #72]
   8caa8:	f100001f 	cmp	x0, #0x0
   8caac:	9a800300 	csel	x0, x24, x0, eq  // eq = none
   8cab0:	f9407417 	ldr	x23, [x0, #232]
   8cab4:	97ffffc5 	bl	8c9c8 <__locale_mb_cur_max>
   8cab8:	aa1903e4 	mov	x4, x25
   8cabc:	93407c03 	sxtw	x3, w0
   8cac0:	aa1403e2 	mov	x2, x20
   8cac4:	aa1303e1 	mov	x1, x19
   8cac8:	aa1b03e0 	mov	x0, x27
   8cacc:	d63f02e0 	blr	x23
   8cad0:	7100001f 	cmp	w0, #0x0
   8cad4:	5400020b 	b.lt	8cb14 <_mbstowcs_r+0xc4>  // b.tstop
   8cad8:	540000e0 	b.eq	8caf4 <_mbstowcs_r+0xa4>  // b.none
   8cadc:	8b20c294 	add	x20, x20, w0, sxtw
   8cae0:	910006d6 	add	x22, x22, #0x1
   8cae4:	b4fffdf3 	cbz	x19, 8caa0 <_mbstowcs_r+0x50>
   8cae8:	91001273 	add	x19, x19, #0x4
   8caec:	f10006b5 	subs	x21, x21, #0x1
   8caf0:	54fffd81 	b.ne	8caa0 <_mbstowcs_r+0x50>  // b.any
   8caf4:	a94363f7 	ldp	x23, x24, [sp, #48]
   8caf8:	aa1603e0 	mov	x0, x22
   8cafc:	a94153f3 	ldp	x19, x20, [sp, #16]
   8cb00:	a9425bf5 	ldp	x21, x22, [sp, #32]
   8cb04:	a9446bf9 	ldp	x25, x26, [sp, #64]
   8cb08:	f9402bfb 	ldr	x27, [sp, #80]
   8cb0c:	a8c67bfd 	ldp	x29, x30, [sp], #96
   8cb10:	d65f03c0 	ret
   8cb14:	a94363f7 	ldp	x23, x24, [sp, #48]
   8cb18:	b900033f 	str	wzr, [x25]
   8cb1c:	92800016 	mov	x22, #0xffffffffffffffff    	// #-1
   8cb20:	aa1603e0 	mov	x0, x22
   8cb24:	a94153f3 	ldp	x19, x20, [sp, #16]
   8cb28:	a9425bf5 	ldp	x21, x22, [sp, #32]
   8cb2c:	a9446bf9 	ldp	x25, x26, [sp, #64]
   8cb30:	f9402bfb 	ldr	x27, [sp, #80]
   8cb34:	a8c67bfd 	ldp	x29, x30, [sp], #96
   8cb38:	d65f03c0 	ret
   8cb3c:	d2800035 	mov	x21, #0x1                   	// #1
   8cb40:	a90363f7 	stp	x23, x24, [sp, #48]
   8cb44:	17ffffd1 	b	8ca88 <_mbstowcs_r+0x38>
   8cb48:	d2800016 	mov	x22, #0x0                   	// #0
   8cb4c:	17ffffeb 	b	8caf8 <_mbstowcs_r+0xa8>

000000000008cb50 <__ascii_mbtowc>:
   8cb50:	d10043ff 	sub	sp, sp, #0x10
   8cb54:	f100003f 	cmp	x1, #0x0
   8cb58:	910033e0 	add	x0, sp, #0xc
   8cb5c:	9a810001 	csel	x1, x0, x1, eq  // eq = none
   8cb60:	b4000122 	cbz	x2, 8cb84 <__ascii_mbtowc+0x34>
   8cb64:	b4000163 	cbz	x3, 8cb90 <__ascii_mbtowc+0x40>
   8cb68:	39400040 	ldrb	w0, [x2]
   8cb6c:	b9000020 	str	w0, [x1]
   8cb70:	39400040 	ldrb	w0, [x2]
   8cb74:	7100001f 	cmp	w0, #0x0
   8cb78:	1a9f07e0 	cset	w0, ne  // ne = any
   8cb7c:	910043ff 	add	sp, sp, #0x10
   8cb80:	d65f03c0 	ret
   8cb84:	52800000 	mov	w0, #0x0                   	// #0
   8cb88:	910043ff 	add	sp, sp, #0x10
   8cb8c:	d65f03c0 	ret
   8cb90:	12800020 	mov	w0, #0xfffffffe            	// #-2
   8cb94:	17fffffa 	b	8cb7c <__ascii_mbtowc+0x2c>

000000000008cb98 <modf>:
   8cb98:	9e660004 	fmov	x4, d0
   8cb9c:	d360fc81 	lsr	x1, x4, #32
   8cba0:	53147823 	ubfx	w3, w1, #20, #11
   8cba4:	510ffc62 	sub	w2, w3, #0x3ff
   8cba8:	71004c5f 	cmp	w2, #0x13
   8cbac:	540001cc 	b.gt	8cbe4 <modf+0x4c>
   8cbb0:	37f80442 	tbnz	w2, #31, 8cc38 <modf+0xa0>
   8cbb4:	12bffe03 	mov	w3, #0xfffff               	// #1048575
   8cbb8:	1ac22862 	asr	w2, w3, w2
   8cbbc:	0a010043 	and	w3, w2, w1
   8cbc0:	2a040064 	orr	w4, w3, w4
   8cbc4:	350002e4 	cbnz	w4, 8cc20 <modf+0x88>
   8cbc8:	12010021 	and	w1, w1, #0x80000000
   8cbcc:	d2800002 	mov	x2, #0x0                   	// #0
   8cbd0:	fd000000 	str	d0, [x0]
   8cbd4:	b3607c22 	bfi	x2, x1, #32, #32
   8cbd8:	92607c40 	and	x0, x2, #0xffffffff00000000
   8cbdc:	9e670000 	fmov	d0, x0
   8cbe0:	d65f03c0 	ret
   8cbe4:	7100cc5f 	cmp	w2, #0x33
   8cbe8:	54ffff0c 	b.gt	8cbc8 <modf+0x30>
   8cbec:	51104c63 	sub	w3, w3, #0x413
   8cbf0:	12800002 	mov	w2, #0xffffffff            	// #-1
   8cbf4:	1ac32443 	lsr	w3, w2, w3
   8cbf8:	6a04007f 	tst	w3, w4
   8cbfc:	54fffe60 	b.eq	8cbc8 <modf+0x30>  // b.none
   8cc00:	d2800002 	mov	x2, #0x0                   	// #0
   8cc04:	0a230083 	bic	w3, w4, w3
   8cc08:	b3607c22 	bfi	x2, x1, #32, #32
   8cc0c:	b3407c62 	bfxil	x2, x3, #0, #32
   8cc10:	9e670041 	fmov	d1, x2
   8cc14:	f9000002 	str	x2, [x0]
   8cc18:	1e613800 	fsub	d0, d0, d1
   8cc1c:	d65f03c0 	ret
   8cc20:	0a220022 	bic	w2, w1, w2
   8cc24:	9e670041 	fmov	d1, x2
   8cc28:	5f605421 	shl	d1, d1, #32
   8cc2c:	1e613800 	fsub	d0, d0, d1
   8cc30:	fd000001 	str	d1, [x0]
   8cc34:	d65f03c0 	ret
   8cc38:	12010021 	and	w1, w1, #0x80000000
   8cc3c:	d2800002 	mov	x2, #0x0                   	// #0
   8cc40:	b3607c22 	bfi	x2, x1, #32, #32
   8cc44:	92607c42 	and	x2, x2, #0xffffffff00000000
   8cc48:	f9000002 	str	x2, [x0]
   8cc4c:	d65f03c0 	ret

000000000008cc50 <strchr>:
   8cc50:	52808024 	mov	w4, #0x401                 	// #1025
   8cc54:	72a80204 	movk	w4, #0x4010, lsl #16
   8cc58:	4e010c20 	dup	v0.16b, w1
   8cc5c:	927be802 	and	x2, x0, #0xffffffffffffffe0
   8cc60:	4e040c90 	dup	v16.4s, w4
   8cc64:	f2401003 	ands	x3, x0, #0x1f
   8cc68:	4eb08607 	add	v7.4s, v16.4s, v16.4s
   8cc6c:	540002a0 	b.eq	8ccc0 <strchr+0x70>  // b.none
   8cc70:	4cdfa041 	ld1	{v1.16b, v2.16b}, [x2], #32
   8cc74:	cb0303e3 	neg	x3, x3
   8cc78:	4e209823 	cmeq	v3.16b, v1.16b, #0
   8cc7c:	6e208c25 	cmeq	v5.16b, v1.16b, v0.16b
   8cc80:	4e209844 	cmeq	v4.16b, v2.16b, #0
   8cc84:	6e208c46 	cmeq	v6.16b, v2.16b, v0.16b
   8cc88:	4e271c63 	and	v3.16b, v3.16b, v7.16b
   8cc8c:	4e271c84 	and	v4.16b, v4.16b, v7.16b
   8cc90:	4e301ca5 	and	v5.16b, v5.16b, v16.16b
   8cc94:	4e301cc6 	and	v6.16b, v6.16b, v16.16b
   8cc98:	4ea51c71 	orr	v17.16b, v3.16b, v5.16b
   8cc9c:	4ea61c92 	orr	v18.16b, v4.16b, v6.16b
   8cca0:	d37ff863 	lsl	x3, x3, #1
   8cca4:	4e32be31 	addp	v17.16b, v17.16b, v18.16b
   8cca8:	92800005 	mov	x5, #0xffffffffffffffff    	// #-1
   8ccac:	4e32be31 	addp	v17.16b, v17.16b, v18.16b
   8ccb0:	9ac324a3 	lsr	x3, x5, x3
   8ccb4:	4e083e25 	mov	x5, v17.d[0]
   8ccb8:	8a2300a3 	bic	x3, x5, x3
   8ccbc:	b50002a3 	cbnz	x3, 8cd10 <strchr+0xc0>
   8ccc0:	4cdfa041 	ld1	{v1.16b, v2.16b}, [x2], #32
   8ccc4:	4e209823 	cmeq	v3.16b, v1.16b, #0
   8ccc8:	6e208c25 	cmeq	v5.16b, v1.16b, v0.16b
   8cccc:	4e209844 	cmeq	v4.16b, v2.16b, #0
   8ccd0:	6e208c46 	cmeq	v6.16b, v2.16b, v0.16b
   8ccd4:	4ea51c71 	orr	v17.16b, v3.16b, v5.16b
   8ccd8:	4ea61c92 	orr	v18.16b, v4.16b, v6.16b
   8ccdc:	4eb21e31 	orr	v17.16b, v17.16b, v18.16b
   8cce0:	4ef1be31 	addp	v17.2d, v17.2d, v17.2d
   8cce4:	4e083e23 	mov	x3, v17.d[0]
   8cce8:	b4fffec3 	cbz	x3, 8ccc0 <strchr+0x70>
   8ccec:	4e271c63 	and	v3.16b, v3.16b, v7.16b
   8ccf0:	4e271c84 	and	v4.16b, v4.16b, v7.16b
   8ccf4:	4e301ca5 	and	v5.16b, v5.16b, v16.16b
   8ccf8:	4e301cc6 	and	v6.16b, v6.16b, v16.16b
   8ccfc:	4ea51c71 	orr	v17.16b, v3.16b, v5.16b
   8cd00:	4ea61c92 	orr	v18.16b, v4.16b, v6.16b
   8cd04:	4e32be31 	addp	v17.16b, v17.16b, v18.16b
   8cd08:	4e32be31 	addp	v17.16b, v17.16b, v18.16b
   8cd0c:	4e083e23 	mov	x3, v17.d[0]
   8cd10:	dac00063 	rbit	x3, x3
   8cd14:	d1008042 	sub	x2, x2, #0x20
   8cd18:	dac01063 	clz	x3, x3
   8cd1c:	f240007f 	tst	x3, #0x1
   8cd20:	8b430440 	add	x0, x2, x3, lsr #1
   8cd24:	9a9f0000 	csel	x0, x0, xzr, eq  // eq = none
   8cd28:	d65f03c0 	ret
	...

000000000008cd40 <strcpy>:
   8cd40:	92402c29 	and	x9, x1, #0xfff
   8cd44:	b200c3ec 	mov	x12, #0x101010101010101     	// #72340172838076673
   8cd48:	92400c31 	and	x17, x1, #0xf
   8cd4c:	f13fc13f 	cmp	x9, #0xff0
   8cd50:	cb1103e8 	neg	x8, x17
   8cd54:	540008cc 	b.gt	8ce6c <strcpy+0x12c>
   8cd58:	a9401424 	ldp	x4, x5, [x1]
   8cd5c:	cb0c0088 	sub	x8, x4, x12
   8cd60:	b200d889 	orr	x9, x4, #0x7f7f7f7f7f7f7f7f
   8cd64:	ea290106 	bics	x6, x8, x9
   8cd68:	540001c1 	b.ne	8cda0 <strcpy+0x60>  // b.any
   8cd6c:	cb0c00aa 	sub	x10, x5, x12
   8cd70:	b200d8ab 	orr	x11, x5, #0x7f7f7f7f7f7f7f7f
   8cd74:	ea2b0147 	bics	x7, x10, x11
   8cd78:	54000440 	b.eq	8ce00 <strcpy+0xc0>  // b.none
   8cd7c:	dac00ce7 	rev	x7, x7
   8cd80:	dac010ef 	clz	x15, x7
   8cd84:	d2800709 	mov	x9, #0x38                  	// #56
   8cd88:	8b4f0c03 	add	x3, x0, x15, lsr #3
   8cd8c:	cb0f012f 	sub	x15, x9, x15
   8cd90:	9acf20a5 	lsl	x5, x5, x15
   8cd94:	f8001065 	stur	x5, [x3, #1]
   8cd98:	f9000004 	str	x4, [x0]
   8cd9c:	d65f03c0 	ret
   8cda0:	dac00cc6 	rev	x6, x6
   8cda4:	dac010cf 	clz	x15, x6
   8cda8:	8b4f0c03 	add	x3, x0, x15, lsr #3
   8cdac:	f10061e9 	subs	x9, x15, #0x18
   8cdb0:	540000ab 	b.lt	8cdc4 <strcpy+0x84>  // b.tstop
   8cdb4:	9ac92485 	lsr	x5, x4, x9
   8cdb8:	b81fd065 	stur	w5, [x3, #-3]
   8cdbc:	b9000004 	str	w4, [x0]
   8cdc0:	d65f03c0 	ret
   8cdc4:	b400004f 	cbz	x15, 8cdcc <strcpy+0x8c>
   8cdc8:	79000004 	strh	w4, [x0]
   8cdcc:	3900007f 	strb	wzr, [x3]
   8cdd0:	d65f03c0 	ret
   8cdd4:	d503201f 	nop
   8cdd8:	d503201f 	nop
   8cddc:	d503201f 	nop
   8cde0:	d503201f 	nop
   8cde4:	d503201f 	nop
   8cde8:	d503201f 	nop
   8cdec:	d503201f 	nop
   8cdf0:	d503201f 	nop
   8cdf4:	d503201f 	nop
   8cdf8:	d503201f 	nop
   8cdfc:	d503201f 	nop
   8ce00:	d1004231 	sub	x17, x17, #0x10
   8ce04:	a9001404 	stp	x4, x5, [x0]
   8ce08:	cb110022 	sub	x2, x1, x17
   8ce0c:	cb110003 	sub	x3, x0, x17
   8ce10:	14000002 	b	8ce18 <strcpy+0xd8>
   8ce14:	a8811464 	stp	x4, x5, [x3], #16
   8ce18:	a8c11444 	ldp	x4, x5, [x2], #16
   8ce1c:	cb0c0088 	sub	x8, x4, x12
   8ce20:	b200d889 	orr	x9, x4, #0x7f7f7f7f7f7f7f7f
   8ce24:	cb0c00aa 	sub	x10, x5, x12
   8ce28:	b200d8ab 	orr	x11, x5, #0x7f7f7f7f7f7f7f7f
   8ce2c:	8a290106 	bic	x6, x8, x9
   8ce30:	ea2b0147 	bics	x7, x10, x11
   8ce34:	fa4008c0 	ccmp	x6, #0x0, #0x0, eq  // eq = none
   8ce38:	54fffee0 	b.eq	8ce14 <strcpy+0xd4>  // b.none
   8ce3c:	f10000df 	cmp	x6, #0x0
   8ce40:	9a8710c6 	csel	x6, x6, x7, ne  // ne = any
   8ce44:	dac00cc6 	rev	x6, x6
   8ce48:	dac010cf 	clz	x15, x6
   8ce4c:	910121e8 	add	x8, x15, #0x48
   8ce50:	910021ef 	add	x15, x15, #0x8
   8ce54:	9a8811ef 	csel	x15, x15, x8, ne  // ne = any
   8ce58:	8b4f0c42 	add	x2, x2, x15, lsr #3
   8ce5c:	8b4f0c63 	add	x3, x3, x15, lsr #3
   8ce60:	a97e1444 	ldp	x4, x5, [x2, #-32]
   8ce64:	a93f1464 	stp	x4, x5, [x3, #-16]
   8ce68:	d65f03c0 	ret
   8ce6c:	927cec22 	and	x2, x1, #0xfffffffffffffff0
   8ce70:	a9401444 	ldp	x4, x5, [x2]
   8ce74:	d37df108 	lsl	x8, x8, #3
   8ce78:	f2400a3f 	tst	x17, #0x7
   8ce7c:	da9f03e9 	csetm	x9, ne  // ne = any
   8ce80:	9ac82529 	lsr	x9, x9, x8
   8ce84:	aa090084 	orr	x4, x4, x9
   8ce88:	aa0900ae 	orr	x14, x5, x9
   8ce8c:	f100223f 	cmp	x17, #0x8
   8ce90:	da9fb084 	csinv	x4, x4, xzr, lt  // lt = tstop
   8ce94:	9a8eb0a5 	csel	x5, x5, x14, lt  // lt = tstop
   8ce98:	cb0c0088 	sub	x8, x4, x12
   8ce9c:	b200d889 	orr	x9, x4, #0x7f7f7f7f7f7f7f7f
   8cea0:	cb0c00aa 	sub	x10, x5, x12
   8cea4:	b200d8ab 	orr	x11, x5, #0x7f7f7f7f7f7f7f7f
   8cea8:	8a290106 	bic	x6, x8, x9
   8ceac:	ea2b0147 	bics	x7, x10, x11
   8ceb0:	fa4008c0 	ccmp	x6, #0x0, #0x0, eq  // eq = none
   8ceb4:	54fff520 	b.eq	8cd58 <strcpy+0x18>  // b.none
   8ceb8:	d37df228 	lsl	x8, x17, #3
   8cebc:	cb110fe9 	neg	x9, x17, lsl #3
   8cec0:	9ac8248d 	lsr	x13, x4, x8
   8cec4:	9ac920ab 	lsl	x11, x5, x9
   8cec8:	9ac824a5 	lsr	x5, x5, x8
   8cecc:	aa0d016b 	orr	x11, x11, x13
   8ced0:	f100223f 	cmp	x17, #0x8
   8ced4:	9a85b164 	csel	x4, x11, x5, lt  // lt = tstop
   8ced8:	cb0c0088 	sub	x8, x4, x12
   8cedc:	b200d889 	orr	x9, x4, #0x7f7f7f7f7f7f7f7f
   8cee0:	cb0c00aa 	sub	x10, x5, x12
   8cee4:	b200d8ab 	orr	x11, x5, #0x7f7f7f7f7f7f7f7f
   8cee8:	8a290106 	bic	x6, x8, x9
   8ceec:	b5fff5a6 	cbnz	x6, 8cda0 <strcpy+0x60>
   8cef0:	8a2b0147 	bic	x7, x10, x11
   8cef4:	17ffffa2 	b	8cd7c <strcpy+0x3c>
	...

000000000008cf00 <strlen>:
   8cf00:	92402c04 	and	x4, x0, #0xfff
   8cf04:	b200c3e8 	mov	x8, #0x101010101010101     	// #72340172838076673
   8cf08:	f13fc09f 	cmp	x4, #0xff0
   8cf0c:	5400082c 	b.gt	8d010 <strlen+0x110>
   8cf10:	a9400c02 	ldp	x2, x3, [x0]
   8cf14:	cb080044 	sub	x4, x2, x8
   8cf18:	b200d845 	orr	x5, x2, #0x7f7f7f7f7f7f7f7f
   8cf1c:	cb080066 	sub	x6, x3, x8
   8cf20:	b200d867 	orr	x7, x3, #0x7f7f7f7f7f7f7f7f
   8cf24:	ea250084 	bics	x4, x4, x5
   8cf28:	8a2700c5 	bic	x5, x6, x7
   8cf2c:	fa4008a0 	ccmp	x5, #0x0, #0x0, eq  // eq = none
   8cf30:	54000100 	b.eq	8cf50 <strlen+0x50>  // b.none
   8cf34:	9a853084 	csel	x4, x4, x5, cc  // cc = lo, ul, last
   8cf38:	d2800100 	mov	x0, #0x8                   	// #8
   8cf3c:	dac00c84 	rev	x4, x4
   8cf40:	dac01084 	clz	x4, x4
   8cf44:	9a8033e0 	csel	x0, xzr, x0, cc  // cc = lo, ul, last
   8cf48:	8b440c00 	add	x0, x0, x4, lsr #3
   8cf4c:	d65f03c0 	ret
   8cf50:	927cec01 	and	x1, x0, #0xfffffffffffffff0
   8cf54:	d1004021 	sub	x1, x1, #0x10
   8cf58:	a9c20c22 	ldp	x2, x3, [x1, #32]!
   8cf5c:	cb080044 	sub	x4, x2, x8
   8cf60:	cb080066 	sub	x6, x3, x8
   8cf64:	aa060085 	orr	x5, x4, x6
   8cf68:	ea081cbf 	tst	x5, x8, lsl #7
   8cf6c:	54000101 	b.ne	8cf8c <strlen+0x8c>  // b.any
   8cf70:	a9410c22 	ldp	x2, x3, [x1, #16]
   8cf74:	cb080044 	sub	x4, x2, x8
   8cf78:	cb080066 	sub	x6, x3, x8
   8cf7c:	aa060085 	orr	x5, x4, x6
   8cf80:	ea081cbf 	tst	x5, x8, lsl #7
   8cf84:	54fffea0 	b.eq	8cf58 <strlen+0x58>  // b.none
   8cf88:	91004021 	add	x1, x1, #0x10
   8cf8c:	b200d845 	orr	x5, x2, #0x7f7f7f7f7f7f7f7f
   8cf90:	b200d867 	orr	x7, x3, #0x7f7f7f7f7f7f7f7f
   8cf94:	ea250084 	bics	x4, x4, x5
   8cf98:	8a2700c5 	bic	x5, x6, x7
   8cf9c:	fa4008a0 	ccmp	x5, #0x0, #0x0, eq  // eq = none
   8cfa0:	54000120 	b.eq	8cfc4 <strlen+0xc4>  // b.none
   8cfa4:	9a853084 	csel	x4, x4, x5, cc  // cc = lo, ul, last
   8cfa8:	cb000020 	sub	x0, x1, x0
   8cfac:	dac00c84 	rev	x4, x4
   8cfb0:	91002005 	add	x5, x0, #0x8
   8cfb4:	dac01084 	clz	x4, x4
   8cfb8:	9a853000 	csel	x0, x0, x5, cc  // cc = lo, ul, last
   8cfbc:	8b440c00 	add	x0, x0, x4, lsr #3
   8cfc0:	d65f03c0 	ret
   8cfc4:	a9c10c22 	ldp	x2, x3, [x1, #16]!
   8cfc8:	cb080044 	sub	x4, x2, x8
   8cfcc:	b200d845 	orr	x5, x2, #0x7f7f7f7f7f7f7f7f
   8cfd0:	cb080066 	sub	x6, x3, x8
   8cfd4:	b200d867 	orr	x7, x3, #0x7f7f7f7f7f7f7f7f
   8cfd8:	ea250084 	bics	x4, x4, x5
   8cfdc:	8a2700c5 	bic	x5, x6, x7
   8cfe0:	fa4008a0 	ccmp	x5, #0x0, #0x0, eq  // eq = none
   8cfe4:	54fffe01 	b.ne	8cfa4 <strlen+0xa4>  // b.any
   8cfe8:	a9c10c22 	ldp	x2, x3, [x1, #16]!
   8cfec:	cb080044 	sub	x4, x2, x8
   8cff0:	b200d845 	orr	x5, x2, #0x7f7f7f7f7f7f7f7f
   8cff4:	cb080066 	sub	x6, x3, x8
   8cff8:	b200d867 	orr	x7, x3, #0x7f7f7f7f7f7f7f7f
   8cffc:	ea250084 	bics	x4, x4, x5
   8d000:	8a2700c5 	bic	x5, x6, x7
   8d004:	fa4008a0 	ccmp	x5, #0x0, #0x0, eq  // eq = none
   8d008:	54fffde0 	b.eq	8cfc4 <strlen+0xc4>  // b.none
   8d00c:	17ffffe6 	b	8cfa4 <strlen+0xa4>
   8d010:	927cec01 	and	x1, x0, #0xfffffffffffffff0
   8d014:	a9400c22 	ldp	x2, x3, [x1]
   8d018:	d37df004 	lsl	x4, x0, #3
   8d01c:	92800007 	mov	x7, #0xffffffffffffffff    	// #-1
   8d020:	9ac420e4 	lsl	x4, x7, x4
   8d024:	b201c084 	orr	x4, x4, #0x8080808080808080
   8d028:	aa240042 	orn	x2, x2, x4
   8d02c:	aa240065 	orn	x5, x3, x4
   8d030:	f27d001f 	tst	x0, #0x8
   8d034:	9a870042 	csel	x2, x2, x7, eq  // eq = none
   8d038:	9a850063 	csel	x3, x3, x5, eq  // eq = none
   8d03c:	17ffffc8 	b	8cf5c <strlen+0x5c>
   8d040:	d503201f 	nop
   8d044:	d503201f 	nop
   8d048:	d503201f 	nop
   8d04c:	d503201f 	nop
   8d050:	d503201f 	nop
   8d054:	d503201f 	nop
   8d058:	d503201f 	nop

000000000008d05c <strncmp>:
   8d05c:	b40006c2 	cbz	x2, 8d134 <strncmp+0xd8>
   8d060:	ca010008 	eor	x8, x0, x1
   8d064:	b200c3eb 	mov	x11, #0x101010101010101     	// #72340172838076673
   8d068:	f240091f 	tst	x8, #0x7
   8d06c:	540006a1 	b.ne	8d140 <strncmp+0xe4>  // b.any
   8d070:	f2400808 	ands	x8, x0, #0x7
   8d074:	54000401 	b.ne	8d0f4 <strncmp+0x98>  // b.any
   8d078:	d100044d 	sub	x13, x2, #0x1
   8d07c:	d343fdad 	lsr	x13, x13, #3
   8d080:	f8408403 	ldr	x3, [x0], #8
   8d084:	f8408424 	ldr	x4, [x1], #8
   8d088:	f10005ad 	subs	x13, x13, #0x1
   8d08c:	cb0b0068 	sub	x8, x3, x11
   8d090:	b200d869 	orr	x9, x3, #0x7f7f7f7f7f7f7f7f
   8d094:	ca040066 	eor	x6, x3, x4
   8d098:	da9f50cf 	csinv	x15, x6, xzr, pl  // pl = nfrst
   8d09c:	ea290105 	bics	x5, x8, x9
   8d0a0:	fa4009e0 	ccmp	x15, #0x0, #0x0, eq  // eq = none
   8d0a4:	54fffee0 	b.eq	8d080 <strncmp+0x24>  // b.none
   8d0a8:	b6f8012d 	tbz	x13, #63, 8d0cc <strncmp+0x70>
   8d0ac:	f2400842 	ands	x2, x2, #0x7
   8d0b0:	540000e0 	b.eq	8d0cc <strncmp+0x70>  // b.none
   8d0b4:	d37df042 	lsl	x2, x2, #3
   8d0b8:	9280000e 	mov	x14, #0xffffffffffffffff    	// #-1
   8d0bc:	9ac221ce 	lsl	x14, x14, x2
   8d0c0:	8a2e0063 	bic	x3, x3, x14
   8d0c4:	8a2e0084 	bic	x4, x4, x14
   8d0c8:	aa0e00a5 	orr	x5, x5, x14
   8d0cc:	aa0500c7 	orr	x7, x6, x5
   8d0d0:	dac00ce7 	rev	x7, x7
   8d0d4:	dac00c63 	rev	x3, x3
   8d0d8:	dac010ec 	clz	x12, x7
   8d0dc:	dac00c84 	rev	x4, x4
   8d0e0:	9acc2063 	lsl	x3, x3, x12
   8d0e4:	9acc2084 	lsl	x4, x4, x12
   8d0e8:	d378fc63 	lsr	x3, x3, #56
   8d0ec:	cb44e060 	sub	x0, x3, x4, lsr #56
   8d0f0:	d65f03c0 	ret
   8d0f4:	927df000 	and	x0, x0, #0xfffffffffffffff8
   8d0f8:	927df021 	and	x1, x1, #0xfffffffffffffff8
   8d0fc:	f8408403 	ldr	x3, [x0], #8
   8d100:	cb080fea 	neg	x10, x8, lsl #3
   8d104:	f8408424 	ldr	x4, [x1], #8
   8d108:	92800009 	mov	x9, #0xffffffffffffffff    	// #-1
   8d10c:	d100044d 	sub	x13, x2, #0x1
   8d110:	9aca2529 	lsr	x9, x9, x10
   8d114:	924009aa 	and	x10, x13, #0x7
   8d118:	d343fdad 	lsr	x13, x13, #3
   8d11c:	8b080042 	add	x2, x2, x8
   8d120:	8b08014a 	add	x10, x10, x8
   8d124:	aa090063 	orr	x3, x3, x9
   8d128:	aa090084 	orr	x4, x4, x9
   8d12c:	8b4a0dad 	add	x13, x13, x10, lsr #3
   8d130:	17ffffd6 	b	8d088 <strncmp+0x2c>
   8d134:	d2800000 	mov	x0, #0x0                   	// #0
   8d138:	d65f03c0 	ret
   8d13c:	d503201f 	nop
   8d140:	d1000442 	sub	x2, x2, #0x1
   8d144:	38401403 	ldrb	w3, [x0], #1
   8d148:	38401424 	ldrb	w4, [x1], #1
   8d14c:	f1000442 	subs	x2, x2, #0x1
   8d150:	7a412860 	ccmp	w3, #0x1, #0x0, cs  // cs = hs, nlast
   8d154:	7a442060 	ccmp	w3, w4, #0x0, cs  // cs = hs, nlast
   8d158:	54ffff60 	b.eq	8d144 <strncmp+0xe8>  // b.none
   8d15c:	cb040060 	sub	x0, x3, x4
   8d160:	d65f03c0 	ret
   8d164:	00000000 	.inst	0x00000000 ; undefined

000000000008d168 <strncpy>:
   8d168:	aa000023 	orr	x3, x1, x0
   8d16c:	f240087f 	tst	x3, #0x7
   8d170:	aa0003e3 	mov	x3, x0
   8d174:	fa470840 	ccmp	x2, #0x7, #0x0, eq  // eq = none
   8d178:	54000248 	b.hi	8d1c0 <strncpy+0x58>  // b.pmore
   8d17c:	b4000202 	cbz	x2, 8d1bc <strncpy+0x54>
   8d180:	39400024 	ldrb	w4, [x1]
   8d184:	d1000442 	sub	x2, x2, #0x1
   8d188:	38001464 	strb	w4, [x3], #1
   8d18c:	aa0203e5 	mov	x5, x2
   8d190:	34000324 	cbz	w4, 8d1f4 <strncpy+0x8c>
   8d194:	8b020024 	add	x4, x1, x2
   8d198:	d2800026 	mov	x6, #0x1                   	// #1
   8d19c:	14000006 	b	8d1b4 <strncpy+0x4c>
   8d1a0:	38616881 	ldrb	w1, [x4, x1]
   8d1a4:	d1000445 	sub	x5, x2, #0x1
   8d1a8:	38001461 	strb	w1, [x3], #1
   8d1ac:	aa0503e2 	mov	x2, x5
   8d1b0:	34000221 	cbz	w1, 8d1f4 <strncpy+0x8c>
   8d1b4:	cb0200c1 	sub	x1, x6, x2
   8d1b8:	b5ffff42 	cbnz	x2, 8d1a0 <strncpy+0x38>
   8d1bc:	d65f03c0 	ret
   8d1c0:	b207dbe6 	mov	x6, #0xfefefefefefefefe    	// #-72340172838076674
   8d1c4:	f29fdfe6 	movk	x6, #0xfeff
   8d1c8:	f9400025 	ldr	x5, [x1]
   8d1cc:	8b0600a4 	add	x4, x5, x6
   8d1d0:	8a250084 	bic	x4, x4, x5
   8d1d4:	f201c09f 	tst	x4, #0x8080808080808080
   8d1d8:	54fffd41 	b.ne	8d180 <strncpy+0x18>  // b.any
   8d1dc:	f8008465 	str	x5, [x3], #8
   8d1e0:	d1002042 	sub	x2, x2, #0x8
   8d1e4:	f1001c5f 	cmp	x2, #0x7
   8d1e8:	91002021 	add	x1, x1, #0x8
   8d1ec:	54fffee8 	b.hi	8d1c8 <strncpy+0x60>  // b.pmore
   8d1f0:	17ffffe3 	b	8d17c <strncpy+0x14>
   8d1f4:	8b050061 	add	x1, x3, x5
   8d1f8:	b4fffe25 	cbz	x5, 8d1bc <strncpy+0x54>
   8d1fc:	d503201f 	nop
   8d200:	3800147f 	strb	wzr, [x3], #1
   8d204:	eb01007f 	cmp	x3, x1
   8d208:	54ffffc1 	b.ne	8d200 <strncpy+0x98>  // b.any
   8d20c:	d65f03c0 	ret
	...
   8d240:	d503201f 	nop
   8d244:	d503201f 	nop
   8d248:	d503201f 	nop
   8d24c:	d503201f 	nop
   8d250:	d503201f 	nop
   8d254:	d503201f 	nop
   8d258:	d503201f 	nop
   8d25c:	aa0103e0 	mov	x0, x1
   8d260:	d65f03c0 	ret

000000000008d264 <strnlen>:
   8d264:	b4ffffc1 	cbz	x1, 8d25c <strncpy+0xf4>
   8d268:	b200c3ec 	mov	x12, #0x101010101010101     	// #72340172838076673
   8d26c:	927cec02 	and	x2, x0, #0xfffffffffffffff0
   8d270:	f2400c08 	ands	x8, x0, #0xf
   8d274:	54000361 	b.ne	8d2e0 <strnlen+0x7c>  // b.any
   8d278:	d100042e 	sub	x14, x1, #0x1
   8d27c:	d344fdce 	lsr	x14, x14, #4
   8d280:	a8c11043 	ldp	x3, x4, [x2], #16
   8d284:	cb0c0068 	sub	x8, x3, x12
   8d288:	b200d869 	orr	x9, x3, #0x7f7f7f7f7f7f7f7f
   8d28c:	cb0c008a 	sub	x10, x4, x12
   8d290:	b200d88b 	orr	x11, x4, #0x7f7f7f7f7f7f7f7f
   8d294:	8a290106 	bic	x6, x8, x9
   8d298:	8a2b0147 	bic	x7, x10, x11
   8d29c:	f10005ce 	subs	x14, x14, #0x1
   8d2a0:	aa0700c8 	orr	x8, x6, x7
   8d2a4:	fa405900 	ccmp	x8, #0x0, #0x0, pl  // pl = nfrst
   8d2a8:	54fffec0 	b.eq	8d280 <strnlen+0x1c>  // b.none
   8d2ac:	aa0700c8 	orr	x8, x6, x7
   8d2b0:	b4fffd68 	cbz	x8, 8d25c <strncpy+0xf4>
   8d2b4:	cb000040 	sub	x0, x2, x0
   8d2b8:	b4000066 	cbz	x6, 8d2c4 <strnlen+0x60>
   8d2bc:	d1002000 	sub	x0, x0, #0x8
   8d2c0:	aa0603e7 	mov	x7, x6
   8d2c4:	d1002000 	sub	x0, x0, #0x8
   8d2c8:	dac00ce7 	rev	x7, x7
   8d2cc:	dac010ed 	clz	x13, x7
   8d2d0:	8b4d0c00 	add	x0, x0, x13, lsr #3
   8d2d4:	eb01001f 	cmp	x0, x1
   8d2d8:	9a819000 	csel	x0, x0, x1, ls  // ls = plast
   8d2dc:	d65f03c0 	ret
   8d2e0:	d100042e 	sub	x14, x1, #0x1
   8d2e4:	cb0803eb 	neg	x11, x8
   8d2e8:	f100211f 	cmp	x8, #0x8
   8d2ec:	92400dca 	and	x10, x14, #0xf
   8d2f0:	d344fdce 	lsr	x14, x14, #4
   8d2f4:	92800009 	mov	x9, #0xffffffffffffffff    	// #-1
   8d2f8:	a8c11043 	ldp	x3, x4, [x2], #16
   8d2fc:	d37df16b 	lsl	x11, x11, #3
   8d300:	8b08014a 	add	x10, x10, x8
   8d304:	9acb2529 	lsr	x9, x9, x11
   8d308:	8b4a11ce 	add	x14, x14, x10, lsr #4
   8d30c:	aa090063 	orr	x3, x3, x9
   8d310:	aa090085 	orr	x5, x4, x9
   8d314:	da9fd063 	csinv	x3, x3, xzr, le
   8d318:	9a85d084 	csel	x4, x4, x5, le
   8d31c:	17ffffda 	b	8d284 <strnlen+0x20>

000000000008d320 <sulp>:
   8d320:	a9be7bfd 	stp	x29, x30, [sp, #-32]!
   8d324:	9e670000 	fmov	d0, x0
   8d328:	910003fd 	mov	x29, sp
   8d32c:	a90153f3 	stp	x19, x20, [sp, #16]
   8d330:	2a0103f4 	mov	w20, w1
   8d334:	aa0003f3 	mov	x19, x0
   8d338:	94000d40 	bl	90838 <__ulp>
   8d33c:	34000174 	cbz	w20, 8d368 <sulp+0x48>
   8d340:	d374fa73 	ubfx	x19, x19, #52, #11
   8d344:	52800d60 	mov	w0, #0x6b                  	// #107
   8d348:	4b130000 	sub	w0, w0, w19
   8d34c:	7100001f 	cmp	w0, #0x0
   8d350:	540000cd 	b.le	8d368 <sulp+0x48>
   8d354:	52a7fe01 	mov	w1, #0x3ff00000            	// #1072693248
   8d358:	0b005020 	add	w0, w1, w0, lsl #20
   8d35c:	9e670001 	fmov	d1, x0
   8d360:	5f605421 	shl	d1, d1, #32
   8d364:	1e610800 	fmul	d0, d0, d1
   8d368:	a94153f3 	ldp	x19, x20, [sp, #16]
   8d36c:	a8c27bfd 	ldp	x29, x30, [sp], #32
   8d370:	d65f03c0 	ret
   8d374:	00000000 	.inst	0x00000000 ; undefined

000000000008d378 <_strtod_l>:
   8d378:	a9b17bfd 	stp	x29, x30, [sp, #-240]!
   8d37c:	910003fd 	mov	x29, sp
   8d380:	a90153f3 	stp	x19, x20, [sp, #16]
   8d384:	aa0003f4 	mov	x20, x0
   8d388:	aa0303e0 	mov	x0, x3
   8d38c:	a9025bf5 	stp	x21, x22, [sp, #32]
   8d390:	d2800013 	mov	x19, #0x0                   	// #0
   8d394:	a90363f7 	stp	x23, x24, [sp, #48]
   8d398:	aa0203f7 	mov	x23, x2
   8d39c:	a9046bf9 	stp	x25, x26, [sp, #64]
   8d3a0:	a90573fb 	stp	x27, x28, [sp, #80]
   8d3a4:	aa0103fc 	mov	x28, x1
   8d3a8:	f90053e3 	str	x3, [sp, #160]
   8d3ac:	f90073ff 	str	xzr, [sp, #224]
   8d3b0:	940009c6 	bl	8fac8 <__localeconv_l>
   8d3b4:	aa0003f8 	mov	x24, x0
   8d3b8:	f9400000 	ldr	x0, [x0]
   8d3bc:	97fffed1 	bl	8cf00 <strlen>
   8d3c0:	f9006ffc 	str	x28, [sp, #216]
   8d3c4:	f94053e3 	ldr	x3, [sp, #160]
   8d3c8:	aa1c03e1 	mov	x1, x28
   8d3cc:	39400035 	ldrb	w21, [x1]
   8d3d0:	aa0103f9 	mov	x25, x1
   8d3d4:	710036bf 	cmp	w21, #0xd
   8d3d8:	540013a9 	b.ls	8d64c <_strtod_l+0x2d4>  // b.plast
   8d3dc:	7100aebf 	cmp	w21, #0x2b
   8d3e0:	54001480 	b.eq	8d670 <_strtod_l+0x2f8>  // b.none
   8d3e4:	7100b6bf 	cmp	w21, #0x2d
   8d3e8:	54001061 	b.ne	8d5f4 <_strtod_l+0x27c>  // b.any
   8d3ec:	52800036 	mov	w22, #0x1                   	// #1
   8d3f0:	91000427 	add	x7, x1, #0x1
   8d3f4:	f9006fe7 	str	x7, [sp, #216]
   8d3f8:	39400435 	ldrb	w21, [x1, #1]
   8d3fc:	34000e95 	cbz	w21, 8d5cc <_strtod_l+0x254>
   8d400:	b900a3ff 	str	wzr, [sp, #160]
   8d404:	aa0703f9 	mov	x25, x7
   8d408:	7100c2bf 	cmp	w21, #0x30
   8d40c:	54001000 	b.eq	8d60c <_strtod_l+0x294>  // b.none
   8d410:	5100c2a3 	sub	w3, w21, #0x30
   8d414:	93407c08 	sxtw	x8, w0
   8d418:	7100247f 	cmp	w3, #0x9
   8d41c:	f9400301 	ldr	x1, [x24]
   8d420:	54005828 	b.hi	8df24 <_strtod_l+0xbac>  // b.pmore
   8d424:	91000722 	add	x2, x25, #0x1
   8d428:	5280001a 	mov	w26, #0x0                   	// #0
   8d42c:	5280001b 	mov	w27, #0x0                   	// #0
   8d430:	52800018 	mov	w24, #0x0                   	// #0
   8d434:	14000009 	b	8d458 <_strtod_l+0xe0>
   8d438:	f9006fe2 	str	x2, [sp, #216]
   8d43c:	aa0203e0 	mov	x0, x2
   8d440:	0b05047b 	add	w27, w3, w5, lsl #1
   8d444:	11000718 	add	w24, w24, #0x1
   8d448:	38401455 	ldrb	w21, [x2], #1
   8d44c:	5100c2a3 	sub	w3, w21, #0x30
   8d450:	7100247f 	cmp	w3, #0x9
   8d454:	540001a8 	b.hi	8d488 <_strtod_l+0x110>  // b.pmore
   8d458:	0b1a0b44 	add	w4, w26, w26, lsl #2
   8d45c:	0b1b0b65 	add	w5, w27, w27, lsl #2
   8d460:	7100231f 	cmp	w24, #0x8
   8d464:	54fffead 	b.le	8d438 <_strtod_l+0xc0>
   8d468:	f9006fe2 	str	x2, [sp, #216]
   8d46c:	aa0203e0 	mov	x0, x2
   8d470:	0b04047a 	add	w26, w3, w4, lsl #1
   8d474:	11000718 	add	w24, w24, #0x1
   8d478:	38401455 	ldrb	w21, [x2], #1
   8d47c:	5100c2a3 	sub	w3, w21, #0x30
   8d480:	7100247f 	cmp	w3, #0x9
   8d484:	54fffea9 	b.ls	8d458 <_strtod_l+0xe0>  // b.plast
   8d488:	aa0803e2 	mov	x2, x8
   8d48c:	f90057e8 	str	x8, [sp, #168]
   8d490:	97fffef3 	bl	8d05c <strncmp>
   8d494:	f94057e8 	ldr	x8, [sp, #168]
   8d498:	34001920 	cbz	w0, 8d7bc <_strtod_l+0x444>
   8d49c:	121a7ab5 	and	w21, w21, #0xffffffdf
   8d4a0:	710116bf 	cmp	w21, #0x45
   8d4a4:	54000ea0 	b.eq	8d678 <_strtod_l+0x300>  // b.none
   8d4a8:	2a1803e3 	mov	w3, w24
   8d4ac:	52800006 	mov	w6, #0x0                   	// #0
   8d4b0:	52800005 	mov	w5, #0x0                   	// #0
   8d4b4:	1e630360 	ucvtf	d0, w27
   8d4b8:	7100031f 	cmp	w24, #0x0
   8d4bc:	4b0600a1 	sub	w1, w5, w6
   8d4c0:	b900abe1 	str	w1, [sp, #168]
   8d4c4:	1a831318 	csel	w24, w24, w3, ne  // ne = any
   8d4c8:	7100407f 	cmp	w3, #0x10
   8d4cc:	52800200 	mov	w0, #0x10                  	// #16
   8d4d0:	1a80d060 	csel	w0, w3, w0, le
   8d4d4:	9e660013 	fmov	x19, d0
   8d4d8:	7100247f 	cmp	w3, #0x9
   8d4dc:	5400010d 	b.le	8d4fc <_strtod_l+0x184>
   8d4e0:	90000041 	adrp	x1, 95000 <BitFont+0xb40>
   8d4e4:	51002402 	sub	w2, w0, #0x9
   8d4e8:	91242021 	add	x1, x1, #0x908
   8d4ec:	1e630341 	ucvtf	d1, w26
   8d4f0:	fc62d822 	ldr	d2, [x1, w2, sxtw #3]
   8d4f4:	1f420400 	fmadd	d0, d0, d2, d1
   8d4f8:	9e660013 	fmov	x19, d0
   8d4fc:	71003c7f 	cmp	w3, #0xf
   8d500:	5400180c 	b.gt	8d800 <_strtod_l+0x488>
   8d504:	4b0600a1 	sub	w1, w5, w6
   8d508:	7100003f 	cmp	w1, #0x0
   8d50c:	54001240 	b.eq	8d754 <_strtod_l+0x3dc>  // b.none
   8d510:	4b0600a1 	sub	w1, w5, w6
   8d514:	54005e0d 	b.le	8e0d4 <_strtod_l+0xd5c>
   8d518:	7100583f 	cmp	w1, #0x16
   8d51c:	540063ed 	b.le	8e198 <_strtod_l+0xe20>
   8d520:	4b0600a2 	sub	w2, w5, w6
   8d524:	4b000060 	sub	w0, w3, w0
   8d528:	528004a1 	mov	w1, #0x25                  	// #37
   8d52c:	4b030021 	sub	w1, w1, w3
   8d530:	0b020000 	add	w0, w0, w2
   8d534:	6b02003f 	cmp	w1, w2
   8d538:	540016eb 	b.lt	8d814 <_strtod_l+0x49c>  // b.tstop
   8d53c:	528001e1 	mov	w1, #0xf                   	// #15
   8d540:	90000040 	adrp	x0, 95000 <BitFont+0xb40>
   8d544:	4b030023 	sub	w3, w1, w3
   8d548:	91242000 	add	x0, x0, #0x908
   8d54c:	b940abe1 	ldr	w1, [sp, #168]
   8d550:	9e670262 	fmov	d2, x19
   8d554:	fc63d800 	ldr	d0, [x0, w3, sxtw #3]
   8d558:	4b03003c 	sub	w28, w1, w3
   8d55c:	1e620800 	fmul	d0, d0, d2
   8d560:	fc7cd801 	ldr	d1, [x0, w28, sxtw #3]
   8d564:	1e610800 	fmul	d0, d0, d1
   8d568:	b4000077 	cbz	x23, 8d574 <_strtod_l+0x1fc>
   8d56c:	f9406fe0 	ldr	x0, [sp, #216]
   8d570:	f90002e0 	str	x0, [x23]
   8d574:	1e614001 	fneg	d1, d0
   8d578:	710002df 	cmp	w22, #0x0
   8d57c:	1e601c20 	fcsel	d0, d1, d0, ne  // ne = any
   8d580:	a94153f3 	ldp	x19, x20, [sp, #16]
   8d584:	a9425bf5 	ldp	x21, x22, [sp, #32]
   8d588:	a94363f7 	ldp	x23, x24, [sp, #48]
   8d58c:	a9446bf9 	ldp	x25, x26, [sp, #64]
   8d590:	a94573fb 	ldp	x27, x28, [sp, #80]
   8d594:	a8cf7bfd 	ldp	x29, x30, [sp], #240
   8d598:	d65f03c0 	ret
   8d59c:	52800006 	mov	w6, #0x0                   	// #0
   8d5a0:	52800018 	mov	w24, #0x0                   	// #0
   8d5a4:	5280001a 	mov	w26, #0x0                   	// #0
   8d5a8:	5280001b 	mov	w27, #0x0                   	// #0
   8d5ac:	52800023 	mov	w3, #0x1                   	// #1
   8d5b0:	121a7aa1 	and	w1, w21, #0xffffffdf
   8d5b4:	7101143f 	cmp	w1, #0x45
   8d5b8:	54005a81 	b.ne	8e108 <_strtod_l+0xd90>  // b.any
   8d5bc:	b940a3e2 	ldr	w2, [sp, #160]
   8d5c0:	2a000301 	orr	w1, w24, w0
   8d5c4:	2a020021 	orr	w1, w1, w2
   8d5c8:	35000601 	cbnz	w1, 8d688 <_strtod_l+0x310>
   8d5cc:	2f00e400 	movi	d0, #0x0
   8d5d0:	b4fffd97 	cbz	x23, 8d580 <_strtod_l+0x208>
   8d5d4:	f90002fc 	str	x28, [x23]
   8d5d8:	a94153f3 	ldp	x19, x20, [sp, #16]
   8d5dc:	a9425bf5 	ldp	x21, x22, [sp, #32]
   8d5e0:	a94363f7 	ldp	x23, x24, [sp, #48]
   8d5e4:	a9446bf9 	ldp	x25, x26, [sp, #64]
   8d5e8:	a94573fb 	ldp	x27, x28, [sp, #80]
   8d5ec:	a8cf7bfd 	ldp	x29, x30, [sp], #240
   8d5f0:	d65f03c0 	ret
   8d5f4:	710082bf 	cmp	w21, #0x20
   8d5f8:	54000360 	b.eq	8d664 <_strtod_l+0x2ec>  // b.none
   8d5fc:	b900a3ff 	str	wzr, [sp, #160]
   8d600:	52800016 	mov	w22, #0x0                   	// #0
   8d604:	7100c2bf 	cmp	w21, #0x30
   8d608:	54fff041 	b.ne	8d410 <_strtod_l+0x98>  // b.any
   8d60c:	39400721 	ldrb	w1, [x25, #1]
   8d610:	7101603f 	cmp	w1, #0x58
   8d614:	54004ea0 	b.eq	8dfe8 <_strtod_l+0xc70>  // b.none
   8d618:	7101e03f 	cmp	w1, #0x78
   8d61c:	91000721 	add	x1, x25, #0x1
   8d620:	54004e40 	b.eq	8dfe8 <_strtod_l+0xc70>  // b.none
   8d624:	d503201f 	nop
   8d628:	f9006fe1 	str	x1, [sp, #216]
   8d62c:	aa0103f9 	mov	x25, x1
   8d630:	38401435 	ldrb	w21, [x1], #1
   8d634:	7100c2bf 	cmp	w21, #0x30
   8d638:	54ffff80 	b.eq	8d628 <_strtod_l+0x2b0>  // b.none
   8d63c:	34000bd5 	cbz	w21, 8d7b4 <_strtod_l+0x43c>
   8d640:	52800021 	mov	w1, #0x1                   	// #1
   8d644:	b900a3e1 	str	w1, [sp, #160]
   8d648:	17ffff72 	b	8d410 <_strtod_l+0x98>
   8d64c:	710026bf 	cmp	w21, #0x9
   8d650:	540000a2 	b.cs	8d664 <_strtod_l+0x2ec>  // b.hs, b.nlast
   8d654:	35fffd55 	cbnz	w21, 8d5fc <_strtod_l+0x284>
   8d658:	2f00e400 	movi	d0, #0x0
   8d65c:	b5fffbd7 	cbnz	x23, 8d5d4 <_strtod_l+0x25c>
   8d660:	17ffffc8 	b	8d580 <_strtod_l+0x208>
   8d664:	91000421 	add	x1, x1, #0x1
   8d668:	f9006fe1 	str	x1, [sp, #216]
   8d66c:	17ffff58 	b	8d3cc <_strtod_l+0x54>
   8d670:	52800016 	mov	w22, #0x0                   	// #0
   8d674:	17ffff5f 	b	8d3f0 <_strtod_l+0x78>
   8d678:	2a1803e4 	mov	w4, w24
   8d67c:	52800000 	mov	w0, #0x0                   	// #0
   8d680:	52800006 	mov	w6, #0x0                   	// #0
   8d684:	52800003 	mov	w3, #0x0                   	// #0
   8d688:	f9406ffc 	ldr	x28, [sp, #216]
   8d68c:	91000781 	add	x1, x28, #0x1
   8d690:	f9006fe1 	str	x1, [sp, #216]
   8d694:	39400795 	ldrb	w21, [x28, #1]
   8d698:	7100aebf 	cmp	w21, #0x2b
   8d69c:	54004a20 	b.eq	8dfe0 <_strtod_l+0xc68>  // b.none
   8d6a0:	52800009 	mov	w9, #0x0                   	// #0
   8d6a4:	7100b6bf 	cmp	w21, #0x2d
   8d6a8:	540000a1 	b.ne	8d6bc <_strtod_l+0x344>  // b.any
   8d6ac:	52800029 	mov	w9, #0x1                   	// #1
   8d6b0:	91000b81 	add	x1, x28, #0x2
   8d6b4:	f9006fe1 	str	x1, [sp, #216]
   8d6b8:	39400b95 	ldrb	w21, [x28, #2]
   8d6bc:	5100c2a1 	sub	w1, w21, #0x30
   8d6c0:	7100243f 	cmp	w1, #0x9
   8d6c4:	540031a8 	b.hi	8dcf8 <_strtod_l+0x980>  // b.pmore
   8d6c8:	7100c2bf 	cmp	w21, #0x30
   8d6cc:	540000e1 	b.ne	8d6e8 <_strtod_l+0x370>  // b.any
   8d6d0:	f9406fe1 	ldr	x1, [sp, #216]
   8d6d4:	91000421 	add	x1, x1, #0x1
   8d6d8:	f9006fe1 	str	x1, [sp, #216]
   8d6dc:	38401435 	ldrb	w21, [x1], #1
   8d6e0:	7100c2bf 	cmp	w21, #0x30
   8d6e4:	54ffffa0 	b.eq	8d6d8 <_strtod_l+0x360>  // b.none
   8d6e8:	5100c6a1 	sub	w1, w21, #0x31
   8d6ec:	52800005 	mov	w5, #0x0                   	// #0
   8d6f0:	7100203f 	cmp	w1, #0x8
   8d6f4:	54003e49 	b.ls	8debc <_strtod_l+0xb44>  // b.plast
   8d6f8:	35006a18 	cbnz	w24, 8e438 <_strtod_l+0x10c0>
   8d6fc:	b940a3e1 	ldr	w1, [sp, #160]
   8d700:	2a000020 	orr	w0, w1, w0
   8d704:	35000580 	cbnz	w0, 8d7b4 <_strtod_l+0x43c>
   8d708:	35fff623 	cbnz	w3, 8d5cc <_strtod_l+0x254>
   8d70c:	71013abf 	cmp	w21, #0x4e
   8d710:	540000c0 	b.eq	8d728 <_strtod_l+0x3b0>  // b.none
   8d714:	5400024d 	b.le	8d75c <_strtod_l+0x3e4>
   8d718:	7101a6bf 	cmp	w21, #0x69
   8d71c:	54000240 	b.eq	8d764 <_strtod_l+0x3ec>  // b.none
   8d720:	7101babf 	cmp	w21, #0x6e
   8d724:	54fff541 	b.ne	8d5cc <_strtod_l+0x254>  // b.any
   8d728:	90000041 	adrp	x1, 95000 <BitFont+0xb40>
   8d72c:	910363e0 	add	x0, sp, #0xd8
   8d730:	9119e021 	add	x1, x1, #0x678
   8d734:	94000847 	bl	8f850 <__match>
   8d738:	34fff4a0 	cbz	w0, 8d5cc <_strtod_l+0x254>
   8d73c:	f9406fe0 	ldr	x0, [sp, #216]
   8d740:	39400000 	ldrb	w0, [x0]
   8d744:	7100a01f 	cmp	w0, #0x28
   8d748:	54005e40 	b.eq	8e310 <_strtod_l+0xf98>  // b.none
   8d74c:	b26db3e0 	mov	x0, #0xfffffffffff80000    	// #-524288
   8d750:	b3607c13 	bfi	x19, x0, #32, #32
   8d754:	9e670260 	fmov	d0, x19
   8d758:	17ffff84 	b	8d568 <_strtod_l+0x1f0>
   8d75c:	710126bf 	cmp	w21, #0x49
   8d760:	54fff361 	b.ne	8d5cc <_strtod_l+0x254>  // b.any
   8d764:	90000041 	adrp	x1, 95000 <BitFont+0xb40>
   8d768:	910363e0 	add	x0, sp, #0xd8
   8d76c:	9119a021 	add	x1, x1, #0x668
   8d770:	94000838 	bl	8f850 <__match>
   8d774:	34fff2c0 	cbz	w0, 8d5cc <_strtod_l+0x254>
   8d778:	f9406fe2 	ldr	x2, [sp, #216]
   8d77c:	90000041 	adrp	x1, 95000 <BitFont+0xb40>
   8d780:	910363e0 	add	x0, sp, #0xd8
   8d784:	9119c021 	add	x1, x1, #0x670
   8d788:	d1000442 	sub	x2, x2, #0x1
   8d78c:	f9006fe2 	str	x2, [sp, #216]
   8d790:	94000830 	bl	8f850 <__match>
   8d794:	35000080 	cbnz	w0, 8d7a4 <_strtod_l+0x42c>
   8d798:	f9406fe0 	ldr	x0, [sp, #216]
   8d79c:	91000400 	add	x0, x0, #0x1
   8d7a0:	f9006fe0 	str	x0, [sp, #216]
   8d7a4:	d2affe00 	mov	x0, #0x7ff00000            	// #2146435072
   8d7a8:	b3607c13 	bfi	x19, x0, #32, #32
   8d7ac:	9e670260 	fmov	d0, x19
   8d7b0:	17ffff6e 	b	8d568 <_strtod_l+0x1f0>
   8d7b4:	2f00e400 	movi	d0, #0x0
   8d7b8:	17ffff6c 	b	8d568 <_strtod_l+0x1f0>
   8d7bc:	f9406fe1 	ldr	x1, [sp, #216]
   8d7c0:	2a1803e4 	mov	w4, w24
   8d7c4:	52800006 	mov	w6, #0x0                   	// #0
   8d7c8:	8b080022 	add	x2, x1, x8
   8d7cc:	f9006fe2 	str	x2, [sp, #216]
   8d7d0:	38686835 	ldrb	w21, [x1, x8]
   8d7d4:	5100c2a3 	sub	w3, w21, #0x30
   8d7d8:	7100247f 	cmp	w3, #0x9
   8d7dc:	54ffee88 	b.hi	8d5ac <_strtod_l+0x234>  // b.pmore
   8d7e0:	11000400 	add	w0, w0, #0x1
   8d7e4:	2a0303f5 	mov	w21, w3
   8d7e8:	f9406fe9 	ldr	x9, [sp, #216]
   8d7ec:	350043a3 	cbnz	w3, 8e060 <_strtod_l+0xce8>
   8d7f0:	91000521 	add	x1, x9, #0x1
   8d7f4:	f9006fe1 	str	x1, [sp, #216]
   8d7f8:	39400535 	ldrb	w21, [x9, #1]
   8d7fc:	17fffff6 	b	8d7d4 <_strtod_l+0x45c>
   8d800:	4b000060 	sub	w0, w3, w0
   8d804:	4b0600a1 	sub	w1, w5, w6
   8d808:	0b010000 	add	w0, w0, w1
   8d80c:	7100001f 	cmp	w0, #0x0
   8d810:	540027ad 	b.le	8dd04 <_strtod_l+0x98c>
   8d814:	72000c02 	ands	w2, w0, #0xf
   8d818:	540000e0 	b.eq	8d834 <_strtod_l+0x4bc>  // b.none
   8d81c:	90000041 	adrp	x1, 95000 <BitFont+0xb40>
   8d820:	91242021 	add	x1, x1, #0x908
   8d824:	9e670261 	fmov	d1, x19
   8d828:	fc62d820 	ldr	d0, [x1, w2, sxtw #3]
   8d82c:	1e610800 	fmul	d0, d0, d1
   8d830:	9e660013 	fmov	x19, d0
   8d834:	721c6c00 	ands	w0, w0, #0xfffffff0
   8d838:	54002ea1 	b.ne	8de0c <_strtod_l+0xa94>  // b.any
   8d83c:	5280001a 	mov	w26, #0x0                   	// #0
   8d840:	2a1b03e4 	mov	w4, w27
   8d844:	2a1803e2 	mov	w2, w24
   8d848:	aa1903e1 	mov	x1, x25
   8d84c:	aa1403e0 	mov	x0, x20
   8d850:	b900a3e6 	str	w6, [sp, #160]
   8d854:	b900bbe5 	str	w5, [sp, #184]
   8d858:	940009e8 	bl	8fff8 <__s2b>
   8d85c:	f9005be0 	str	x0, [sp, #176]
   8d860:	b4003f60 	cbz	x0, 8e04c <_strtod_l+0xcd4>
   8d864:	b940abe0 	ldr	w0, [sp, #168]
   8d868:	d2800019 	mov	x25, #0x0                   	// #0
   8d86c:	b940bbe5 	ldr	w5, [sp, #184]
   8d870:	d2800015 	mov	x21, #0x0                   	// #0
   8d874:	7100001f 	cmp	w0, #0x0
   8d878:	6d072fea 	stp	d10, d11, [sp, #112]
   8d87c:	1a9fa000 	csel	w0, w0, wzr, ge  // ge = tcont
   8d880:	b900bbe0 	str	w0, [sp, #184]
   8d884:	b26a67e0 	mov	x0, #0xffffffc00000        	// #281474972516352
   8d888:	f2e83be0 	movk	x0, #0x41df, lsl #48
   8d88c:	9e67000a 	fmov	d10, x0
   8d890:	90000040 	adrp	x0, 95000 <BitFont+0xb40>
   8d894:	6d0837ec 	stp	d12, d13, [sp, #128]
   8d898:	b940a3e6 	ldr	w6, [sp, #160]
   8d89c:	fd43280c 	ldr	d12, [x0, #1616]
   8d8a0:	90000040 	adrp	x0, 95000 <BitFont+0xb40>
   8d8a4:	4b0500c5 	sub	w5, w6, w5
   8d8a8:	6d0627e8 	stp	d8, d9, [sp, #96]
   8d8ac:	fd432c0b 	ldr	d11, [x0, #1624]
   8d8b0:	90000040 	adrp	x0, 95000 <BitFont+0xb40>
   8d8b4:	1a9fb0a1 	csel	w1, w5, wzr, lt  // lt = tstop
   8d8b8:	b900a3e1 	str	w1, [sp, #160]
   8d8bc:	fd43300d 	ldr	d13, [x0, #1632]
   8d8c0:	6d093fee 	stp	d14, d15, [sp, #144]
   8d8c4:	d503201f 	nop
   8d8c8:	aa1403e0 	mov	x0, x20
   8d8cc:	f9405bfb 	ldr	x27, [sp, #176]
   8d8d0:	b9400b61 	ldr	w1, [x27, #8]
   8d8d4:	94000961 	bl	8fe58 <_Balloc>
   8d8d8:	aa0003f8 	mov	x24, x0
   8d8dc:	b4001b20 	cbz	x0, 8dc40 <_strtod_l+0x8c8>
   8d8e0:	b9801762 	ldrsw	x2, [x27, #20]
   8d8e4:	9e670269 	fmov	d9, x19
   8d8e8:	91004361 	add	x1, x27, #0x10
   8d8ec:	91004300 	add	x0, x24, #0x10
   8d8f0:	91000842 	add	x2, x2, #0x2
   8d8f4:	d37ef442 	lsl	x2, x2, #2
   8d8f8:	94000882 	bl	8fb00 <memcpy>
   8d8fc:	9e670260 	fmov	d0, x19
   8d900:	9103a3e2 	add	x2, sp, #0xe8
   8d904:	910353e1 	add	x1, sp, #0xd4
   8d908:	aa1403e0 	mov	x0, x20
   8d90c:	94000c2d 	bl	909c0 <__d2b>
   8d910:	f90073e0 	str	x0, [sp, #224]
   8d914:	b4001520 	cbz	x0, 8dbb8 <_strtod_l+0x840>
   8d918:	52800021 	mov	w1, #0x1                   	// #1
   8d91c:	aa1403e0 	mov	x0, x20
   8d920:	94000a3e 	bl	90218 <__i2b>
   8d924:	aa0003f5 	mov	x21, x0
   8d928:	b40018c0 	cbz	x0, 8dc40 <_strtod_l+0x8c8>
   8d92c:	b940d7e0 	ldr	w0, [sp, #212]
   8d930:	37f81740 	tbnz	w0, #31, 8dc18 <_strtod_l+0x8a0>
   8d934:	b940a3e1 	ldr	w1, [sp, #160]
   8d938:	b940bbe3 	ldr	w3, [sp, #184]
   8d93c:	0b01001c 	add	w28, w0, w1
   8d940:	b940ebe2 	ldr	w2, [sp, #232]
   8d944:	4b1a0000 	sub	w0, w0, w26
   8d948:	528006c1 	mov	w1, #0x36                  	// #54
   8d94c:	0b020000 	add	w0, w0, w2
   8d950:	4b020021 	sub	w1, w1, w2
   8d954:	51000400 	sub	w0, w0, #0x1
   8d958:	310ff81f 	cmn	w0, #0x3fe
   8d95c:	54000dca 	b.ge	8db14 <_strtod_l+0x79c>  // b.tcont
   8d960:	12807fa2 	mov	w2, #0xfffffc02            	// #-1022
   8d964:	4b000042 	sub	w2, w2, w0
   8d968:	4b020021 	sub	w1, w1, w2
   8d96c:	71007c5f 	cmp	w2, #0x1f
   8d970:	540017cc 	b.gt	8dc68 <_strtod_l+0x8f0>
   8d974:	52800020 	mov	w0, #0x1                   	// #1
   8d978:	1ac22000 	lsl	w0, w0, w2
   8d97c:	2917ffe0 	stp	w0, wzr, [sp, #188]
   8d980:	0b010384 	add	w4, w28, w1
   8d984:	0b010063 	add	w3, w3, w1
   8d988:	6b04039f 	cmp	w28, w4
   8d98c:	0b03035b 	add	w27, w26, w3
   8d990:	1a84d380 	csel	w0, w28, w4, le
   8d994:	6b1b001f 	cmp	w0, w27
   8d998:	1a9bd000 	csel	w0, w0, w27, le
   8d99c:	7100001f 	cmp	w0, #0x0
   8d9a0:	5400008d 	b.le	8d9b0 <_strtod_l+0x638>
   8d9a4:	4b000084 	sub	w4, w4, w0
   8d9a8:	4b00037b 	sub	w27, w27, w0
   8d9ac:	4b00039c 	sub	w28, w28, w0
   8d9b0:	b940a3e2 	ldr	w2, [sp, #160]
   8d9b4:	7100005f 	cmp	w2, #0x0
   8d9b8:	54000c2c 	b.gt	8db3c <_strtod_l+0x7c4>
   8d9bc:	7100009f 	cmp	w4, #0x0
   8d9c0:	54000f0c 	b.gt	8dba0 <_strtod_l+0x828>
   8d9c4:	b940abe0 	ldr	w0, [sp, #168]
   8d9c8:	7100001f 	cmp	w0, #0x0
   8d9cc:	540012ec 	b.gt	8dc28 <_strtod_l+0x8b0>
   8d9d0:	7100037f 	cmp	w27, #0x0
   8d9d4:	540013ac 	b.gt	8dc48 <_strtod_l+0x8d0>
   8d9d8:	7100039f 	cmp	w28, #0x0
   8d9dc:	540000ed 	b.le	8d9f8 <_strtod_l+0x680>
   8d9e0:	aa1503e1 	mov	x1, x21
   8d9e4:	2a1c03e2 	mov	w2, w28
   8d9e8:	aa1403e0 	mov	x0, x20
   8d9ec:	94000ad1 	bl	90530 <__lshift>
   8d9f0:	aa0003f5 	mov	x21, x0
   8d9f4:	b4001260 	cbz	x0, 8dc40 <_strtod_l+0x8c8>
   8d9f8:	f94073e1 	ldr	x1, [sp, #224]
   8d9fc:	aa1803e2 	mov	x2, x24
   8da00:	aa1403e0 	mov	x0, x20
   8da04:	94000b2b 	bl	906b0 <__mdiff>
   8da08:	aa0003f9 	mov	x25, x0
   8da0c:	b40011a0 	cbz	x0, 8dc40 <_strtod_l+0x8c8>
   8da10:	b9401001 	ldr	w1, [x0, #16]
   8da14:	b900101f 	str	wzr, [x0, #16]
   8da18:	2a0103fb 	mov	w27, w1
   8da1c:	aa1503e1 	mov	x1, x21
   8da20:	94000b10 	bl	90660 <__mcmp>
   8da24:	7100001f 	cmp	w0, #0x0
   8da28:	54003c6b 	b.lt	8e1b4 <_strtod_l+0xe3c>  // b.tstop
   8da2c:	54004300 	b.eq	8e28c <_strtod_l+0xf14>  // b.none
   8da30:	aa1503e1 	mov	x1, x21
   8da34:	aa1903e0 	mov	x0, x25
   8da38:	94000c2a 	bl	90ae0 <__ratio>
   8da3c:	1e601001 	fmov	d1, #2.000000000000000000e+00
   8da40:	1e612010 	fcmpe	d0, d1
   8da44:	540006e8 	b.hi	8db20 <_strtod_l+0x7a8>  // b.pmore
   8da48:	340011db 	cbz	w27, 8dc80 <_strtod_l+0x908>
   8da4c:	d2e7fe00 	mov	x0, #0x3ff0000000000000    	// #4607182418800017408
   8da50:	1e6e100e 	fmov	d14, #1.000000000000000000e+00
   8da54:	d360fe62 	lsr	x2, x19, #32
   8da58:	52affc03 	mov	w3, #0x7fe00000            	// #2145386496
   8da5c:	120c2841 	and	w1, w2, #0x7ff00000
   8da60:	6b03003f 	cmp	w1, w3
   8da64:	540011e0 	b.eq	8dca0 <_strtod_l+0x928>  // b.none
   8da68:	7100035f 	cmp	w26, #0x0
   8da6c:	52a0d402 	mov	w2, #0x6a00000             	// #111149056
   8da70:	7a421022 	ccmp	w1, w2, #0x2, ne  // ne = any
   8da74:	540001e8 	b.hi	8dab0 <_strtod_l+0x738>  // b.pmore
   8da78:	1e6a21d0 	fcmpe	d14, d10
   8da7c:	54000108 	b.hi	8da9c <_strtod_l+0x724>  // b.pmore
   8da80:	1e7901c0 	fcvtzu	w0, d14
   8da84:	1e6e100e 	fmov	d14, #1.000000000000000000e+00
   8da88:	35001be0 	cbnz	w0, 8de04 <_strtod_l+0xa8c>
   8da8c:	1e6141c1 	fneg	d1, d14
   8da90:	7100037f 	cmp	w27, #0x0
   8da94:	1e6e0c20 	fcsel	d0, d1, d14, eq  // eq = none
   8da98:	9e660000 	fmov	x0, d0
   8da9c:	d360fc02 	lsr	x2, x0, #32
   8daa0:	52a0d603 	mov	w3, #0x6b00000             	// #112197632
   8daa4:	0b030042 	add	w2, w2, w3
   8daa8:	4b010042 	sub	w2, w2, w1
   8daac:	b3607c40 	bfi	x0, x2, #32, #32
   8dab0:	1e604120 	fmov	d0, d9
   8dab4:	9e670008 	fmov	d8, x0
   8dab8:	b900bfe1 	str	w1, [sp, #188]
   8dabc:	94000b5f 	bl	90838 <__ulp>
   8dac0:	1f402500 	fmadd	d0, d8, d0, d9
   8dac4:	b940bfe1 	ldr	w1, [sp, #188]
   8dac8:	9e660013 	fmov	x19, d0
   8dacc:	d360fe60 	lsr	x0, x19, #32
   8dad0:	120c2800 	and	w0, w0, #0x7ff00000
   8dad4:	7100035f 	cmp	w26, #0x0
   8dad8:	7a410000 	ccmp	w0, w1, #0x0, eq  // eq = none
   8dadc:	540026e0 	b.eq	8dfb8 <_strtod_l+0xc40>  // b.none
   8dae0:	f94073e1 	ldr	x1, [sp, #224]
   8dae4:	aa1403e0 	mov	x0, x20
   8dae8:	94000900 	bl	8fee8 <_Bfree>
   8daec:	aa1803e1 	mov	x1, x24
   8daf0:	aa1403e0 	mov	x0, x20
   8daf4:	940008fd 	bl	8fee8 <_Bfree>
   8daf8:	aa1503e1 	mov	x1, x21
   8dafc:	aa1403e0 	mov	x0, x20
   8db00:	940008fa 	bl	8fee8 <_Bfree>
   8db04:	aa1903e1 	mov	x1, x25
   8db08:	aa1403e0 	mov	x0, x20
   8db0c:	940008f7 	bl	8fee8 <_Bfree>
   8db10:	17ffff6e 	b	8d8c8 <_strtod_l+0x550>
   8db14:	52800020 	mov	w0, #0x1                   	// #1
   8db18:	2917ffe0 	stp	w0, wzr, [sp, #188]
   8db1c:	17ffff99 	b	8d980 <_strtod_l+0x608>
   8db20:	1e6c100e 	fmov	d14, #5.000000000000000000e-01
   8db24:	7100037f 	cmp	w27, #0x0
   8db28:	1e6e080e 	fmul	d14, d0, d14
   8db2c:	1e6141c1 	fneg	d1, d14
   8db30:	1e6e0c20 	fcsel	d0, d1, d14, eq  // eq = none
   8db34:	9e660000 	fmov	x0, d0
   8db38:	17ffffc7 	b	8da54 <_strtod_l+0x6dc>
   8db3c:	aa1503e1 	mov	x1, x21
   8db40:	aa1403e0 	mov	x0, x20
   8db44:	b900c7e4 	str	w4, [sp, #196]
   8db48:	94000a32 	bl	90410 <__pow5mult>
   8db4c:	b940c7e4 	ldr	w4, [sp, #196]
   8db50:	aa0003f5 	mov	x21, x0
   8db54:	b4000760 	cbz	x0, 8dc40 <_strtod_l+0x8c8>
   8db58:	f94073e2 	ldr	x2, [sp, #224]
   8db5c:	aa0003e1 	mov	x1, x0
   8db60:	aa1403e0 	mov	x0, x20
   8db64:	b900c7e4 	str	w4, [sp, #196]
   8db68:	940009b8 	bl	90248 <__multiply>
   8db6c:	aa0003e2 	mov	x2, x0
   8db70:	b940c7e4 	ldr	w4, [sp, #196]
   8db74:	b4000660 	cbz	x0, 8dc40 <_strtod_l+0x8c8>
   8db78:	f94073e1 	ldr	x1, [sp, #224]
   8db7c:	aa1403e0 	mov	x0, x20
   8db80:	b900c7e4 	str	w4, [sp, #196]
   8db84:	f90067e2 	str	x2, [sp, #200]
   8db88:	940008d8 	bl	8fee8 <_Bfree>
   8db8c:	f94067e2 	ldr	x2, [sp, #200]
   8db90:	f90073e2 	str	x2, [sp, #224]
   8db94:	b940c7e4 	ldr	w4, [sp, #196]
   8db98:	7100009f 	cmp	w4, #0x0
   8db9c:	54fff14d 	b.le	8d9c4 <_strtod_l+0x64c>
   8dba0:	f94073e1 	ldr	x1, [sp, #224]
   8dba4:	2a0403e2 	mov	w2, w4
   8dba8:	aa1403e0 	mov	x0, x20
   8dbac:	94000a61 	bl	90530 <__lshift>
   8dbb0:	f90073e0 	str	x0, [sp, #224]
   8dbb4:	b5fff080 	cbnz	x0, 8d9c4 <_strtod_l+0x64c>
   8dbb8:	52800441 	mov	w1, #0x22                  	// #34
   8dbbc:	d2effe13 	mov	x19, #0x7ff0000000000000    	// #9218868437227405312
   8dbc0:	b9000281 	str	w1, [x20]
   8dbc4:	aa0003e1 	mov	x1, x0
   8dbc8:	aa1403e0 	mov	x0, x20
   8dbcc:	940008c7 	bl	8fee8 <_Bfree>
   8dbd0:	aa1803e1 	mov	x1, x24
   8dbd4:	aa1403e0 	mov	x0, x20
   8dbd8:	940008c4 	bl	8fee8 <_Bfree>
   8dbdc:	aa1503e1 	mov	x1, x21
   8dbe0:	aa1403e0 	mov	x0, x20
   8dbe4:	940008c1 	bl	8fee8 <_Bfree>
   8dbe8:	f9405be1 	ldr	x1, [sp, #176]
   8dbec:	aa1403e0 	mov	x0, x20
   8dbf0:	940008be 	bl	8fee8 <_Bfree>
   8dbf4:	aa1903e1 	mov	x1, x25
   8dbf8:	aa1403e0 	mov	x0, x20
   8dbfc:	940008bb 	bl	8fee8 <_Bfree>
   8dc00:	9e670260 	fmov	d0, x19
   8dc04:	6d4627e8 	ldp	d8, d9, [sp, #96]
   8dc08:	6d472fea 	ldp	d10, d11, [sp, #112]
   8dc0c:	6d4837ec 	ldp	d12, d13, [sp, #128]
   8dc10:	6d493fee 	ldp	d14, d15, [sp, #144]
   8dc14:	17fffe55 	b	8d568 <_strtod_l+0x1f0>
   8dc18:	b940bbe1 	ldr	w1, [sp, #184]
   8dc1c:	b940a3fc 	ldr	w28, [sp, #160]
   8dc20:	4b000023 	sub	w3, w1, w0
   8dc24:	17ffff47 	b	8d940 <_strtod_l+0x5c8>
   8dc28:	b940bbe2 	ldr	w2, [sp, #184]
   8dc2c:	aa1803e1 	mov	x1, x24
   8dc30:	aa1403e0 	mov	x0, x20
   8dc34:	940009f7 	bl	90410 <__pow5mult>
   8dc38:	aa0003f8 	mov	x24, x0
   8dc3c:	b5ffeca0 	cbnz	x0, 8d9d0 <_strtod_l+0x658>
   8dc40:	f94073e0 	ldr	x0, [sp, #224]
   8dc44:	17ffffdd 	b	8dbb8 <_strtod_l+0x840>
   8dc48:	aa1803e1 	mov	x1, x24
   8dc4c:	2a1b03e2 	mov	w2, w27
   8dc50:	aa1403e0 	mov	x0, x20
   8dc54:	94000a37 	bl	90530 <__lshift>
   8dc58:	aa0003f8 	mov	x24, x0
   8dc5c:	b5ffebe0 	cbnz	x0, 8d9d8 <_strtod_l+0x660>
   8dc60:	f94073e0 	ldr	x0, [sp, #224]
   8dc64:	17ffffd5 	b	8dbb8 <_strtod_l+0x840>
   8dc68:	128083a2 	mov	w2, #0xfffffbe2            	// #-1054
   8dc6c:	4b000040 	sub	w0, w2, w0
   8dc70:	52800022 	mov	w2, #0x1                   	// #1
   8dc74:	1ac02040 	lsl	w0, w2, w0
   8dc78:	291783e2 	stp	w2, w0, [sp, #188]
   8dc7c:	17ffff41 	b	8d980 <_strtod_l+0x608>
   8dc80:	9e660120 	fmov	x0, d9
   8dc84:	f240cc1f 	tst	x0, #0xfffffffffffff
   8dc88:	54000a60 	b.eq	8ddd4 <_strtod_l+0xa5c>  // b.none
   8dc8c:	f100041f 	cmp	x0, #0x1
   8dc90:	540036c0 	b.eq	8e368 <_strtod_l+0xff0>  // b.none
   8dc94:	d2f7fe00 	mov	x0, #0xbff0000000000000    	// #-4616189618054758400
   8dc98:	1e6e100e 	fmov	d14, #1.000000000000000000e+00
   8dc9c:	17ffff6e 	b	8da54 <_strtod_l+0x6dc>
   8dca0:	52bf9603 	mov	w3, #0xfcb00000            	// #-55574528
   8dca4:	0b020062 	add	w2, w3, w2
   8dca8:	9e670008 	fmov	d8, x0
   8dcac:	b900bfe1 	str	w1, [sp, #188]
   8dcb0:	b3607c53 	bfi	x19, x2, #32, #32
   8dcb4:	9e67026f 	fmov	d15, x19
   8dcb8:	9e670260 	fmov	d0, x19
   8dcbc:	94000adf 	bl	90838 <__ulp>
   8dcc0:	1f403d00 	fmadd	d0, d8, d0, d15
   8dcc4:	12b06c00 	mov	w0, #0x7c9fffff            	// #2090860543
   8dcc8:	b940bfe1 	ldr	w1, [sp, #188]
   8dccc:	9e660013 	fmov	x19, d0
   8dcd0:	d360fe62 	lsr	x2, x19, #32
   8dcd4:	120c2843 	and	w3, w2, #0x7ff00000
   8dcd8:	6b00007f 	cmp	w3, w0
   8dcdc:	540008c9 	b.ls	8ddf4 <_strtod_l+0xa7c>  // b.plast
   8dce0:	9e660120 	fmov	x0, d9
   8dce4:	92f00213 	mov	x19, #0x7fefffffffffffff    	// #9218868437227405311
   8dce8:	eb13001f 	cmp	x0, x19
   8dcec:	54ffefa1 	b.ne	8dae0 <_strtod_l+0x768>  // b.any
   8dcf0:	f94073e0 	ldr	x0, [sp, #224]
   8dcf4:	17ffffb1 	b	8dbb8 <_strtod_l+0x840>
   8dcf8:	52800005 	mov	w5, #0x0                   	// #0
   8dcfc:	f9006ffc 	str	x28, [sp, #216]
   8dd00:	17fffe7e 	b	8d6f8 <_strtod_l+0x380>
   8dd04:	54ffd9c0 	b.eq	8d83c <_strtod_l+0x4c4>  // b.none
   8dd08:	4b0003e0 	neg	w0, w0
   8dd0c:	72000c02 	ands	w2, w0, #0xf
   8dd10:	540000e0 	b.eq	8dd2c <_strtod_l+0x9b4>  // b.none
   8dd14:	90000041 	adrp	x1, 95000 <BitFont+0xb40>
   8dd18:	91242021 	add	x1, x1, #0x908
   8dd1c:	9e670261 	fmov	d1, x19
   8dd20:	fc62d820 	ldr	d0, [x1, w2, sxtw #3]
   8dd24:	1e601820 	fdiv	d0, d1, d0
   8dd28:	9e660013 	fmov	x19, d0
   8dd2c:	13047c00 	asr	w0, w0, #4
   8dd30:	34ffd860 	cbz	w0, 8d83c <_strtod_l+0x4c4>
   8dd34:	71007c1f 	cmp	w0, #0x1f
   8dd38:	5400046c 	b.gt	8ddc4 <_strtod_l+0xa4c>
   8dd3c:	52800d42 	mov	w2, #0x6a                  	// #106
   8dd40:	721c001a 	ands	w26, w0, #0x10
   8dd44:	90000041 	adrp	x1, 95000 <BitFont+0xb40>
   8dd48:	911ac021 	add	x1, x1, #0x6b0
   8dd4c:	1a82035a 	csel	w26, w26, w2, eq  // eq = none
   8dd50:	9e670260 	fmov	d0, x19
   8dd54:	52800002 	mov	w2, #0x0                   	// #0
   8dd58:	36000080 	tbz	w0, #0, 8dd68 <_strtod_l+0x9f0>
   8dd5c:	fd400021 	ldr	d1, [x1]
   8dd60:	52800022 	mov	w2, #0x1                   	// #1
   8dd64:	1e610800 	fmul	d0, d0, d1
   8dd68:	13017c00 	asr	w0, w0, #1
   8dd6c:	91002021 	add	x1, x1, #0x8
   8dd70:	35ffff40 	cbnz	w0, 8dd58 <_strtod_l+0x9e0>
   8dd74:	9e660000 	fmov	x0, d0
   8dd78:	7100005f 	cmp	w2, #0x0
   8dd7c:	9a800273 	csel	x19, x19, x0, eq  // eq = none
   8dd80:	340001da 	cbz	w26, 8ddb8 <_strtod_l+0xa40>
   8dd84:	d360fe64 	lsr	x4, x19, #32
   8dd88:	52800d60 	mov	w0, #0x6b                  	// #107
   8dd8c:	53147881 	ubfx	w1, w4, #20, #11
   8dd90:	4b010000 	sub	w0, w0, w1
   8dd94:	7100001f 	cmp	w0, #0x0
   8dd98:	5400010d 	b.le	8ddb8 <_strtod_l+0xa40>
   8dd9c:	71007c1f 	cmp	w0, #0x1f
   8dda0:	5400320d 	b.le	8e3e0 <_strtod_l+0x1068>
   8dda4:	92607e73 	and	x19, x19, #0xffffffff00000000
   8dda8:	7100d01f 	cmp	w0, #0x34
   8ddac:	5400324d 	b.le	8e3f4 <_strtod_l+0x107c>
   8ddb0:	d2a06e00 	mov	x0, #0x3700000             	// #57671680
   8ddb4:	b3607c13 	bfi	x19, x0, #32, #32
   8ddb8:	9e670260 	fmov	d0, x19
   8ddbc:	1e602008 	fcmp	d0, #0.0
   8ddc0:	54ffd401 	b.ne	8d840 <_strtod_l+0x4c8>  // b.any
   8ddc4:	52800440 	mov	w0, #0x22                  	// #34
   8ddc8:	2f00e400 	movi	d0, #0x0
   8ddcc:	b9000280 	str	w0, [x20]
   8ddd0:	17fffde6 	b	8d568 <_strtod_l+0x1f0>
   8ddd4:	1e6e1001 	fmov	d1, #1.000000000000000000e+00
   8ddd8:	1e612010 	fcmpe	d0, d1
   8dddc:	540018e4 	b.mi	8e0f8 <_strtod_l+0xd80>  // b.first
   8dde0:	1e6c100e 	fmov	d14, #5.000000000000000000e-01
   8dde4:	1e6e080e 	fmul	d14, d0, d14
   8dde8:	1e6141c1 	fneg	d1, d14
   8ddec:	9e660020 	fmov	x0, d1
   8ddf0:	17ffff19 	b	8da54 <_strtod_l+0x6dc>
   8ddf4:	52a06a00 	mov	w0, #0x3500000             	// #55574528
   8ddf8:	0b020000 	add	w0, w0, w2
   8ddfc:	b3607c13 	bfi	x19, x0, #32, #32
   8de00:	17ffff34 	b	8dad0 <_strtod_l+0x758>
   8de04:	1e63000e 	ucvtf	d14, w0
   8de08:	17ffff21 	b	8da8c <_strtod_l+0x714>
   8de0c:	7104d01f 	cmp	w0, #0x134
   8de10:	540011ec 	b.gt	8e04c <_strtod_l+0xcd4>
   8de14:	13047c00 	asr	w0, w0, #4
   8de18:	7100041f 	cmp	w0, #0x1
   8de1c:	5400294d 	b.le	8e344 <_strtod_l+0xfcc>
   8de20:	90000044 	adrp	x4, 95000 <BitFont+0xb40>
   8de24:	91236084 	add	x4, x4, #0x8d8
   8de28:	9e670260 	fmov	d0, x19
   8de2c:	d2800021 	mov	x1, #0x1                   	// #1
   8de30:	52800008 	mov	w8, #0x0                   	// #0
   8de34:	d503201f 	nop
   8de38:	36000080 	tbz	w0, #0, 8de48 <_strtod_l+0xad0>
   8de3c:	fc617881 	ldr	d1, [x4, x1, lsl #3]
   8de40:	52800028 	mov	w8, #0x1                   	// #1
   8de44:	1e610800 	fmul	d0, d0, d1
   8de48:	13017c00 	asr	w0, w0, #1
   8de4c:	2a0103e2 	mov	w2, w1
   8de50:	7100041f 	cmp	w0, #0x1
   8de54:	91000421 	add	x1, x1, #0x1
   8de58:	54ffff01 	b.ne	8de38 <_strtod_l+0xac0>  // b.any
   8de5c:	9e660000 	fmov	x0, d0
   8de60:	7100011f 	cmp	w8, #0x0
   8de64:	9a800273 	csel	x19, x19, x0, eq  // eq = none
   8de68:	90000040 	adrp	x0, 95000 <BitFont+0xb40>
   8de6c:	91238000 	add	x0, x0, #0x8e0
   8de70:	d360fe61 	lsr	x1, x19, #32
   8de74:	52bf9604 	mov	w4, #0xfcb00000            	// #-55574528
   8de78:	0b040021 	add	w1, w1, w4
   8de7c:	52af9404 	mov	w4, #0x7ca00000            	// #2090860544
   8de80:	fc62d800 	ldr	d0, [x0, w2, sxtw #3]
   8de84:	b3607c33 	bfi	x19, x1, #32, #32
   8de88:	9e670261 	fmov	d1, x19
   8de8c:	1e610800 	fmul	d0, d0, d1
   8de90:	9e660013 	fmov	x19, d0
   8de94:	d360fe61 	lsr	x1, x19, #32
   8de98:	120c2820 	and	w0, w1, #0x7ff00000
   8de9c:	6b04001f 	cmp	w0, w4
   8dea0:	54000d68 	b.hi	8e04c <_strtod_l+0xcd4>  // b.pmore
   8dea4:	52af9202 	mov	w2, #0x7c900000            	// #2089811968
   8dea8:	6b02001f 	cmp	w0, w2
   8deac:	54002149 	b.ls	8e2d4 <_strtod_l+0xf5c>  // b.plast
   8deb0:	92f00213 	mov	x19, #0x7fefffffffffffff    	// #9218868437227405311
   8deb4:	5280001a 	mov	w26, #0x0                   	// #0
   8deb8:	17fffe62 	b	8d840 <_strtod_l+0x4c8>
   8debc:	f9406fea 	ldr	x10, [sp, #216]
   8dec0:	5100c2a5 	sub	w5, w21, #0x30
   8dec4:	91000541 	add	x1, x10, #0x1
   8dec8:	f9006fe1 	str	x1, [sp, #216]
   8decc:	39400555 	ldrb	w21, [x10, #1]
   8ded0:	5100c2a1 	sub	w1, w21, #0x30
   8ded4:	7100243f 	cmp	w1, #0x9
   8ded8:	54000208 	b.hi	8df18 <_strtod_l+0xba0>  // b.pmore
   8dedc:	91000941 	add	x1, x10, #0x2
   8dee0:	0b0508a5 	add	w5, w5, w5, lsl #2
   8dee4:	f9006fe1 	str	x1, [sp, #216]
   8dee8:	aa0103e8 	mov	x8, x1
   8deec:	0b0506a5 	add	w5, w21, w5, lsl #1
   8def0:	38401435 	ldrb	w21, [x1], #1
   8def4:	5100c0a5 	sub	w5, w5, #0x30
   8def8:	5100c2a2 	sub	w2, w21, #0x30
   8defc:	7100245f 	cmp	w2, #0x9
   8df00:	54ffff09 	b.ls	8dee0 <_strtod_l+0xb68>  // b.plast
   8df04:	cb0a0108 	sub	x8, x8, x10
   8df08:	5289c3e1 	mov	w1, #0x4e1f                	// #19999
   8df0c:	f100211f 	cmp	x8, #0x8
   8df10:	7a41d0a0 	ccmp	w5, w1, #0x0, le
   8df14:	1a81d0a5 	csel	w5, w5, w1, le
   8df18:	7100013f 	cmp	w9, #0x0
   8df1c:	5a8504a5 	cneg	w5, w5, ne  // ne = any
   8df20:	17fffdf6 	b	8d6f8 <_strtod_l+0x380>
   8df24:	aa0803e2 	mov	x2, x8
   8df28:	aa1903e0 	mov	x0, x25
   8df2c:	f90057e8 	str	x8, [sp, #168]
   8df30:	97fffc4b 	bl	8d05c <strncmp>
   8df34:	2a0003e4 	mov	w4, w0
   8df38:	f94057e8 	ldr	x8, [sp, #168]
   8df3c:	350026e0 	cbnz	w0, 8e418 <_strtod_l+0x10a0>
   8df40:	f9406fe0 	ldr	x0, [sp, #216]
   8df44:	52800022 	mov	w2, #0x1                   	// #1
   8df48:	8b080001 	add	x1, x0, x8
   8df4c:	f9006fe1 	str	x1, [sp, #216]
   8df50:	4b010042 	sub	w2, w2, w1
   8df54:	38686815 	ldrb	w21, [x0, x8]
   8df58:	52800000 	mov	w0, #0x0                   	// #0
   8df5c:	7100c2bf 	cmp	w21, #0x30
   8df60:	54000101 	b.ne	8df80 <_strtod_l+0xc08>  // b.any
   8df64:	d503201f 	nop
   8df68:	0b010040 	add	w0, w2, w1
   8df6c:	91000421 	add	x1, x1, #0x1
   8df70:	f9006fe1 	str	x1, [sp, #216]
   8df74:	39400035 	ldrb	w21, [x1]
   8df78:	7100c2bf 	cmp	w21, #0x30
   8df7c:	54ffff60 	b.eq	8df68 <_strtod_l+0xbf0>  // b.none
   8df80:	5100c6a1 	sub	w1, w21, #0x31
   8df84:	7100203f 	cmp	w1, #0x8
   8df88:	54ffb0a8 	b.hi	8d59c <_strtod_l+0x224>  // b.pmore
   8df8c:	f9406fe9 	ldr	x9, [sp, #216]
   8df90:	5100c2b5 	sub	w21, w21, #0x30
   8df94:	11000406 	add	w6, w0, #0x1
   8df98:	52800038 	mov	w24, #0x1                   	// #1
   8df9c:	aa0903f9 	mov	x25, x9
   8dfa0:	5280001a 	mov	w26, #0x0                   	// #0
   8dfa4:	5280001b 	mov	w27, #0x0                   	// #0
   8dfa8:	0b1b0b7b 	add	w27, w27, w27, lsl #2
   8dfac:	52800000 	mov	w0, #0x0                   	// #0
   8dfb0:	0b1b06bb 	add	w27, w21, w27, lsl #1
   8dfb4:	17fffe0f 	b	8d7f0 <_strtod_l+0x478>
   8dfb8:	1e7801c0 	fcvtzs	w0, d14
   8dfbc:	1e620000 	scvtf	d0, w0
   8dfc0:	1e6039ce 	fsub	d14, d14, d0
   8dfc4:	3500039b 	cbnz	w27, 8e034 <_strtod_l+0xcbc>
   8dfc8:	f240ce7f 	tst	x19, #0xfffffffffffff
   8dfcc:	54000341 	b.ne	8e034 <_strtod_l+0xcbc>  // b.any
   8dfd0:	1e6d21d0 	fcmpe	d14, d13
   8dfd4:	54ffd865 	b.pl	8dae0 <_strtod_l+0x768>  // b.nfrst
   8dfd8:	f94073e0 	ldr	x0, [sp, #224]
   8dfdc:	17fffefa 	b	8dbc4 <_strtod_l+0x84c>
   8dfe0:	52800009 	mov	w9, #0x0                   	// #0
   8dfe4:	17fffdb3 	b	8d6b0 <_strtod_l+0x338>
   8dfe8:	aa0303e6 	mov	x6, x3
   8dfec:	90000042 	adrp	x2, 95000 <BitFont+0xb40>
   8dff0:	2a1603e5 	mov	w5, w22
   8dff4:	911a0042 	add	x2, x2, #0x680
   8dff8:	910383e4 	add	x4, sp, #0xe0
   8dffc:	910353e3 	add	x3, sp, #0xd4
   8e000:	910363e1 	add	x1, sp, #0xd8
   8e004:	aa1403e0 	mov	x0, x20
   8e008:	94000424 	bl	8f098 <__gethex>
   8e00c:	2a0003f5 	mov	w21, w0
   8e010:	72000818 	ands	w24, w0, #0x7
   8e014:	54ffbd00 	b.eq	8d7b4 <_strtod_l+0x43c>  // b.none
   8e018:	71001b1f 	cmp	w24, #0x6
   8e01c:	540007a1 	b.ne	8e110 <_strtod_l+0xd98>  // b.any
   8e020:	91000727 	add	x7, x25, #0x1
   8e024:	2f00e400 	movi	d0, #0x0
   8e028:	b4ffaad7 	cbz	x23, 8d580 <_strtod_l+0x208>
   8e02c:	f90002e7 	str	x7, [x23]
   8e030:	17fffd54 	b	8d580 <_strtod_l+0x208>
   8e034:	1e6c21d0 	fcmpe	d14, d12
   8e038:	54fffd04 	b.mi	8dfd8 <_strtod_l+0xc60>  // b.first
   8e03c:	1e6b21d0 	fcmpe	d14, d11
   8e040:	54ffd50d 	b.le	8dae0 <_strtod_l+0x768>
   8e044:	f94073e0 	ldr	x0, [sp, #224]
   8e048:	17fffedf 	b	8dbc4 <_strtod_l+0x84c>
   8e04c:	52800441 	mov	w1, #0x22                  	// #34
   8e050:	d2effe00 	mov	x0, #0x7ff0000000000000    	// #9218868437227405312
   8e054:	9e670000 	fmov	d0, x0
   8e058:	b9000281 	str	w1, [x20]
   8e05c:	17fffd43 	b	8d568 <_strtod_l+0x1f0>
   8e060:	0b0000c6 	add	w6, w6, w0
   8e064:	7100041f 	cmp	w0, #0x1
   8e068:	11000701 	add	w1, w24, #0x1
   8e06c:	54001d00 	b.eq	8e40c <_strtod_l+0x1094>  // b.none
   8e070:	0b180000 	add	w0, w0, w24
   8e074:	51000408 	sub	w8, w0, #0x1
   8e078:	14000005 	b	8e08c <_strtod_l+0xd14>
   8e07c:	531f78bb 	lsl	w27, w5, #1
   8e080:	6b02011f 	cmp	w8, w2
   8e084:	2a0203f8 	mov	w24, w2
   8e088:	54000140 	b.eq	8e0b0 <_strtod_l+0xd38>  // b.none
   8e08c:	0b1a0b41 	add	w1, w26, w26, lsl #2
   8e090:	11000702 	add	w2, w24, #0x1
   8e094:	0b1b0b65 	add	w5, w27, w27, lsl #2
   8e098:	7100231f 	cmp	w24, #0x8
   8e09c:	531f7821 	lsl	w1, w1, #1
   8e0a0:	54fffeed 	b.le	8e07c <_strtod_l+0xd04>
   8e0a4:	7100445f 	cmp	w2, #0x11
   8e0a8:	1a9ab03a 	csel	w26, w1, w26, lt  // lt = tstop
   8e0ac:	17fffff5 	b	8e080 <_strtod_l+0xd08>
   8e0b0:	2a0003f8 	mov	w24, w0
   8e0b4:	7100211f 	cmp	w8, #0x8
   8e0b8:	54fff78d 	b.le	8dfa8 <_strtod_l+0xc30>
   8e0bc:	0b1a0b41 	add	w1, w26, w26, lsl #2
   8e0c0:	7100471f 	cmp	w24, #0x11
   8e0c4:	52800000 	mov	w0, #0x0                   	// #0
   8e0c8:	0b010463 	add	w3, w3, w1, lsl #1
   8e0cc:	1a9ab07a 	csel	w26, w3, w26, lt  // lt = tstop
   8e0d0:	17fffdc8 	b	8d7f0 <_strtod_l+0x478>
   8e0d4:	3100583f 	cmn	w1, #0x16
   8e0d8:	54ffb94b 	b.lt	8d800 <_strtod_l+0x488>  // b.tstop
   8e0dc:	4b0500c5 	sub	w5, w6, w5
   8e0e0:	f0000020 	adrp	x0, 95000 <BitFont+0xb40>
   8e0e4:	91242000 	add	x0, x0, #0x908
   8e0e8:	9e670260 	fmov	d0, x19
   8e0ec:	fc65d801 	ldr	d1, [x0, w5, sxtw #3]
   8e0f0:	1e611800 	fdiv	d0, d0, d1
   8e0f4:	17fffd1d 	b	8d568 <_strtod_l+0x1f0>
   8e0f8:	1e7c1001 	fmov	d1, #-5.000000000000000000e-01
   8e0fc:	1e6c100e 	fmov	d14, #5.000000000000000000e-01
   8e100:	9e660020 	fmov	x0, d1
   8e104:	17fffe54 	b	8da54 <_strtod_l+0x6dc>
   8e108:	52800005 	mov	w5, #0x0                   	// #0
   8e10c:	17fffd7b 	b	8d6f8 <_strtod_l+0x380>
   8e110:	f94073e2 	ldr	x2, [sp, #224]
   8e114:	b40000e2 	cbz	x2, 8e130 <_strtod_l+0xdb8>
   8e118:	528006a1 	mov	w1, #0x35                  	// #53
   8e11c:	9103a3e0 	add	x0, sp, #0xe8
   8e120:	94000a92 	bl	90b68 <__copybits>
   8e124:	f94073e1 	ldr	x1, [sp, #224]
   8e128:	aa1403e0 	mov	x0, x20
   8e12c:	9400076f 	bl	8fee8 <_Bfree>
   8e130:	71000f1f 	cmp	w24, #0x3
   8e134:	54000e40 	b.eq	8e2fc <_strtod_l+0xf84>  // b.none
   8e138:	5400018c 	b.gt	8e168 <_strtod_l+0xdf0>
   8e13c:	7100071f 	cmp	w24, #0x1
   8e140:	540001c0 	b.eq	8e178 <_strtod_l+0xe00>  // b.none
   8e144:	f94077f3 	ldr	x19, [sp, #232]
   8e148:	71000b1f 	cmp	w24, #0x2
   8e14c:	9a9f0273 	csel	x19, x19, xzr, eq  // eq = none
   8e150:	361fb035 	tbz	w21, #3, 8d754 <_strtod_l+0x3dc>
   8e154:	d360fe60 	lsr	x0, x19, #32
   8e158:	32010000 	orr	w0, w0, #0x80000000
   8e15c:	b3607c13 	bfi	x19, x0, #32, #32
   8e160:	9e670260 	fmov	d0, x19
   8e164:	17fffd01 	b	8d568 <_strtod_l+0x1f0>
   8e168:	7100131f 	cmp	w24, #0x4
   8e16c:	54000ce0 	b.eq	8e308 <_strtod_l+0xf90>  // b.none
   8e170:	7100171f 	cmp	w24, #0x5
   8e174:	54fffee1 	b.ne	8e150 <_strtod_l+0xdd8>  // b.any
   8e178:	295d07e2 	ldp	w2, w1, [sp, #232]
   8e17c:	b940d7e0 	ldr	w0, [sp, #212]
   8e180:	120b7821 	and	w1, w1, #0xffefffff
   8e184:	1110cc00 	add	w0, w0, #0x433
   8e188:	b3407c53 	bfxil	x19, x2, #0, #32
   8e18c:	2a005020 	orr	w0, w1, w0, lsl #20
   8e190:	b3607c13 	bfi	x19, x0, #32, #32
   8e194:	17ffffef 	b	8e150 <_strtod_l+0xdd8>
   8e198:	b940abe1 	ldr	w1, [sp, #168]
   8e19c:	f0000020 	adrp	x0, 95000 <BitFont+0xb40>
   8e1a0:	91242000 	add	x0, x0, #0x908
   8e1a4:	9e670261 	fmov	d1, x19
   8e1a8:	fc61d800 	ldr	d0, [x0, w1, sxtw #3]
   8e1ac:	1e610800 	fmul	d0, d0, d1
   8e1b0:	17fffcee 	b	8d568 <_strtod_l+0x1f0>
   8e1b4:	3500033b 	cbnz	w27, 8e218 <_strtod_l+0xea0>
   8e1b8:	9e660120 	fmov	x0, d9
   8e1bc:	f240cc1f 	tst	x0, #0xfffffffffffff
   8e1c0:	540002c1 	b.ne	8e218 <_strtod_l+0xea0>  // b.any
   8e1c4:	d360fe64 	lsr	x4, x19, #32
   8e1c8:	52a0d600 	mov	w0, #0x6b00000             	// #112197632
   8e1cc:	120c2881 	and	w1, w4, #0x7ff00000
   8e1d0:	6b00003f 	cmp	w1, w0
   8e1d4:	54000229 	b.ls	8e218 <_strtod_l+0xea0>  // b.plast
   8e1d8:	b9401b20 	ldr	w0, [x25, #24]
   8e1dc:	35000080 	cbnz	w0, 8e1ec <_strtod_l+0xe74>
   8e1e0:	b9401720 	ldr	w0, [x25, #20]
   8e1e4:	7100041f 	cmp	w0, #0x1
   8e1e8:	5400018d 	b.le	8e218 <_strtod_l+0xea0>
   8e1ec:	52800022 	mov	w2, #0x1                   	// #1
   8e1f0:	aa1903e1 	mov	x1, x25
   8e1f4:	aa1403e0 	mov	x0, x20
   8e1f8:	f90053e4 	str	x4, [sp, #160]
   8e1fc:	940008cd 	bl	90530 <__lshift>
   8e200:	aa0003f9 	mov	x25, x0
   8e204:	aa1503e1 	mov	x1, x21
   8e208:	94000916 	bl	90660 <__mcmp>
   8e20c:	7100001f 	cmp	w0, #0x0
   8e210:	f94053e4 	ldr	x4, [sp, #160]
   8e214:	540001ec 	b.gt	8e250 <_strtod_l+0xed8>
   8e218:	f94073e0 	ldr	x0, [sp, #224]
   8e21c:	34ffcd5a 	cbz	w26, 8dbc4 <_strtod_l+0x84c>
   8e220:	d2e72a01 	mov	x1, #0x3950000000000000    	// #4129800858298744832
   8e224:	9e670020 	fmov	d0, x1
   8e228:	1e600920 	fmul	d0, d9, d0
   8e22c:	9e660013 	fmov	x19, d0
   8e230:	b5ffccb3 	cbnz	x19, 8dbc4 <_strtod_l+0x84c>
   8e234:	52800441 	mov	w1, #0x22                  	// #34
   8e238:	b9000281 	str	w1, [x20]
   8e23c:	17fffe62 	b	8dbc4 <_strtod_l+0x84c>
   8e240:	9e660120 	fmov	x0, d9
   8e244:	f240cc1f 	tst	x0, #0xfffffffffffff
   8e248:	540002c1 	b.ne	8e2a0 <_strtod_l+0xf28>  // b.any
   8e24c:	d360fe64 	lsr	x4, x19, #32
   8e250:	f94073e0 	ldr	x0, [sp, #224]
   8e254:	120c2884 	and	w4, w4, #0x7ff00000
   8e258:	aa0003e1 	mov	x1, x0
   8e25c:	34000b7a 	cbz	w26, 8e3c8 <_strtod_l+0x1050>
   8e260:	52a0d602 	mov	w2, #0x6b00000             	// #112197632
   8e264:	6b02009f 	cmp	w4, w2
   8e268:	54000b0c 	b.gt	8e3c8 <_strtod_l+0x1050>
   8e26c:	52a06e02 	mov	w2, #0x3700000             	// #57671680
   8e270:	6b02009f 	cmp	w4, w2
   8e274:	54fffd6c 	b.gt	8e220 <_strtod_l+0xea8>
   8e278:	aa0103e0 	mov	x0, x1
   8e27c:	d2800013 	mov	x19, #0x0                   	// #0
   8e280:	52800441 	mov	w1, #0x22                  	// #34
   8e284:	b9000281 	str	w1, [x20]
   8e288:	17fffe4f 	b	8dbc4 <_strtod_l+0x84c>
   8e28c:	34fffdbb 	cbz	w27, 8e240 <_strtod_l+0xec8>
   8e290:	d360fe61 	lsr	x1, x19, #32
   8e294:	aa2103e0 	mvn	x0, x1
   8e298:	f2404c1f 	tst	x0, #0xfffff
   8e29c:	540006a0 	b.eq	8e370 <_strtod_l+0xff8>  // b.none
   8e2a0:	b940c3e1 	ldr	w1, [sp, #192]
   8e2a4:	34000221 	cbz	w1, 8e2e8 <_strtod_l+0xf70>
   8e2a8:	d360fe60 	lsr	x0, x19, #32
   8e2ac:	6a00003f 	tst	w1, w0
   8e2b0:	54fffb40 	b.eq	8e218 <_strtod_l+0xea0>  // b.none
   8e2b4:	340004db 	cbz	w27, 8e34c <_strtod_l+0xfd4>
   8e2b8:	aa1303e0 	mov	x0, x19
   8e2bc:	2a1a03e1 	mov	w1, w26
   8e2c0:	97fffc18 	bl	8d320 <sulp>
   8e2c4:	1e602929 	fadd	d9, d9, d0
   8e2c8:	f94073e0 	ldr	x0, [sp, #224]
   8e2cc:	9e660133 	fmov	x19, d9
   8e2d0:	17ffffd3 	b	8e21c <_strtod_l+0xea4>
   8e2d4:	52a06a00 	mov	w0, #0x3500000             	// #55574528
   8e2d8:	0b010001 	add	w1, w0, w1
   8e2dc:	5280001a 	mov	w26, #0x0                   	// #0
   8e2e0:	b3607c33 	bfi	x19, x1, #32, #32
   8e2e4:	17fffd57 	b	8d840 <_strtod_l+0x4c8>
   8e2e8:	b940bfe0 	ldr	w0, [sp, #188]
   8e2ec:	6a13001f 	tst	w0, w19
   8e2f0:	54fffe21 	b.ne	8e2b4 <_strtod_l+0xf3c>  // b.any
   8e2f4:	f94073e0 	ldr	x0, [sp, #224]
   8e2f8:	17ffffc9 	b	8e21c <_strtod_l+0xea4>
   8e2fc:	d2affe00 	mov	x0, #0x7ff00000            	// #2146435072
   8e300:	b3607c13 	bfi	x19, x0, #32, #32
   8e304:	17ffff93 	b	8e150 <_strtod_l+0xdd8>
   8e308:	92f00013 	mov	x19, #0x7fffffffffffffff    	// #9223372036854775807
   8e30c:	17ffff91 	b	8e150 <_strtod_l+0xdd8>
   8e310:	910363e0 	add	x0, sp, #0xd8
   8e314:	f0000021 	adrp	x1, 95000 <BitFont+0xb40>
   8e318:	9103a3e2 	add	x2, sp, #0xe8
   8e31c:	911a6021 	add	x1, x1, #0x698
   8e320:	9400055e 	bl	8f898 <__hexnan>
   8e324:	7100141f 	cmp	w0, #0x5
   8e328:	54ffa121 	b.ne	8d74c <_strtod_l+0x3d4>  // b.any
   8e32c:	295d03e1 	ldp	w1, w0, [sp, #232]
   8e330:	320c2800 	orr	w0, w0, #0x7ff00000
   8e334:	b3607c13 	bfi	x19, x0, #32, #32
   8e338:	b3407c33 	bfxil	x19, x1, #0, #32
   8e33c:	9e670260 	fmov	d0, x19
   8e340:	17fffc8a 	b	8d568 <_strtod_l+0x1f0>
   8e344:	52800002 	mov	w2, #0x0                   	// #0
   8e348:	17fffec8 	b	8de68 <_strtod_l+0xaf0>
   8e34c:	aa1303e0 	mov	x0, x19
   8e350:	2a1a03e1 	mov	w1, w26
   8e354:	97fffbf3 	bl	8d320 <sulp>
   8e358:	1e603929 	fsub	d9, d9, d0
   8e35c:	1e602128 	fcmp	d9, #0.0
   8e360:	9e660133 	fmov	x19, d9
   8e364:	54fff5a1 	b.ne	8e218 <_strtod_l+0xea0>  // b.any
   8e368:	f94073e1 	ldr	x1, [sp, #224]
   8e36c:	17ffffc3 	b	8e278 <_strtod_l+0xf00>
   8e370:	2a1303e3 	mov	w3, w19
   8e374:	12800002 	mov	w2, #0xffffffff            	// #-1
   8e378:	3400011a 	cbz	w26, 8e398 <_strtod_l+0x1020>
   8e37c:	120c2820 	and	w0, w1, #0x7ff00000
   8e380:	52800d64 	mov	w4, #0x6b                  	// #107
   8e384:	52a0d405 	mov	w5, #0x6a00000             	// #111149056
   8e388:	6b05001f 	cmp	w0, w5
   8e38c:	4b405080 	sub	w0, w4, w0, lsr #20
   8e390:	1ac02040 	lsl	w0, w2, w0
   8e394:	1a829002 	csel	w2, w0, w2, ls  // ls = plast
   8e398:	6b02007f 	cmp	w3, w2
   8e39c:	54fff821 	b.ne	8e2a0 <_strtod_l+0xf28>  // b.any
   8e3a0:	9e660122 	fmov	x2, d9
   8e3a4:	92f00200 	mov	x0, #0x7fefffffffffffff    	// #9218868437227405311
   8e3a8:	eb00005f 	cmp	x2, x0
   8e3ac:	f94073e0 	ldr	x0, [sp, #224]
   8e3b0:	54ffc040 	b.eq	8dbb8 <_strtod_l+0x840>  // b.none
   8e3b4:	120c2833 	and	w19, w1, #0x7ff00000
   8e3b8:	11440273 	add	w19, w19, #0x100, lsl #12
   8e3bc:	d3607e73 	lsl	x19, x19, #32
   8e3c0:	9e670269 	fmov	d9, x19
   8e3c4:	17ffff96 	b	8e21c <_strtod_l+0xea4>
   8e3c8:	51440084 	sub	w4, w4, #0x100, lsl #12
   8e3cc:	32004c81 	orr	w1, w4, #0xfffff
   8e3d0:	b3607c33 	bfi	x19, x1, #32, #32
   8e3d4:	b2407e73 	orr	x19, x19, #0xffffffff
   8e3d8:	9e670269 	fmov	d9, x19
   8e3dc:	17ffff90 	b	8e21c <_strtod_l+0xea4>
   8e3e0:	12800001 	mov	w1, #0xffffffff            	// #-1
   8e3e4:	1ac02020 	lsl	w0, w1, w0
   8e3e8:	0a130000 	and	w0, w0, w19
   8e3ec:	b3407c13 	bfxil	x19, x0, #0, #32
   8e3f0:	17fffe72 	b	8ddb8 <_strtod_l+0xa40>
   8e3f4:	51008000 	sub	w0, w0, #0x20
   8e3f8:	12800001 	mov	w1, #0xffffffff            	// #-1
   8e3fc:	1ac02020 	lsl	w0, w1, w0
   8e400:	0a040004 	and	w4, w0, w4
   8e404:	b3607c93 	bfi	x19, x4, #32, #32
   8e408:	17fffe6c 	b	8ddb8 <_strtod_l+0xa40>
   8e40c:	2a1803e8 	mov	w8, w24
   8e410:	2a0103f8 	mov	w24, w1
   8e414:	17ffff28 	b	8e0b4 <_strtod_l+0xd3c>
   8e418:	52800004 	mov	w4, #0x0                   	// #0
   8e41c:	5280001a 	mov	w26, #0x0                   	// #0
   8e420:	5280001b 	mov	w27, #0x0                   	// #0
   8e424:	52800000 	mov	w0, #0x0                   	// #0
   8e428:	52800006 	mov	w6, #0x0                   	// #0
   8e42c:	52800018 	mov	w24, #0x0                   	// #0
   8e430:	52800003 	mov	w3, #0x0                   	// #0
   8e434:	17fffc5f 	b	8d5b0 <_strtod_l+0x238>
   8e438:	2a1803e3 	mov	w3, w24
   8e43c:	2a0403f8 	mov	w24, w4
   8e440:	17fffc1d 	b	8d4b4 <_strtod_l+0x13c>
   8e444:	00000000 	.inst	0x00000000 ; undefined

000000000008e448 <strtod>:
   8e448:	f0000024 	adrp	x4, 95000 <BitFont+0xb40>
   8e44c:	aa0103e2 	mov	x2, x1
   8e450:	aa0003e1 	mov	x1, x0
   8e454:	f0000023 	adrp	x3, 95000 <BitFont+0xb40>
   8e458:	f9469084 	ldr	x4, [x4, #3360]
   8e45c:	912d8063 	add	x3, x3, #0xb60
   8e460:	aa0403e0 	mov	x0, x4
   8e464:	f9402484 	ldr	x4, [x4, #72]
   8e468:	f100009f 	cmp	x4, #0x0
   8e46c:	9a840063 	csel	x3, x3, x4, eq  // eq = none
   8e470:	17fffbc2 	b	8d378 <_strtod_l>
   8e474:	00000000 	.inst	0x00000000 ; undefined

000000000008e478 <strtof>:
   8e478:	a9be7bfd 	stp	x29, x30, [sp, #-32]!
   8e47c:	aa0103e2 	mov	x2, x1
   8e480:	aa0003e1 	mov	x1, x0
   8e484:	910003fd 	mov	x29, sp
   8e488:	f9000bf3 	str	x19, [sp, #16]
   8e48c:	f0000033 	adrp	x19, 95000 <BitFont+0xb40>
   8e490:	f0000023 	adrp	x3, 95000 <BitFont+0xb40>
   8e494:	912d8063 	add	x3, x3, #0xb60
   8e498:	f9469264 	ldr	x4, [x19, #3360]
   8e49c:	aa0403e0 	mov	x0, x4
   8e4a0:	f9402484 	ldr	x4, [x4, #72]
   8e4a4:	f100009f 	cmp	x4, #0x0
   8e4a8:	9a840063 	csel	x3, x3, x4, eq  // eq = none
   8e4ac:	97fffbb3 	bl	8d378 <_strtod_l>
   8e4b0:	1e602000 	fcmp	d0, d0
   8e4b4:	54000266 	b.vs	8e500 <strtof+0x88>
   8e4b8:	1e624002 	fcvt	s2, d0
   8e4bc:	12b01000 	mov	w0, #0x7f7fffff            	// #2139095039
   8e4c0:	1e270001 	fmov	s1, w0
   8e4c4:	1e20c043 	fabs	s3, s2
   8e4c8:	1e212060 	fcmp	s3, s1
   8e4cc:	5400012d 	b.le	8e4f0 <strtof+0x78>
   8e4d0:	1e60c001 	fabs	d1, d0
   8e4d4:	92f00200 	mov	x0, #0x7fefffffffffffff    	// #9218868437227405311
   8e4d8:	9e670000 	fmov	d0, x0
   8e4dc:	1e602020 	fcmp	d1, d0
   8e4e0:	5400008c 	b.gt	8e4f0 <strtof+0x78>
   8e4e4:	f9469260 	ldr	x0, [x19, #3360]
   8e4e8:	52800441 	mov	w1, #0x22                  	// #34
   8e4ec:	b9000001 	str	w1, [x0]
   8e4f0:	1e204040 	fmov	s0, s2
   8e4f4:	f9400bf3 	ldr	x19, [sp, #16]
   8e4f8:	a8c27bfd 	ldp	x29, x30, [sp], #32
   8e4fc:	d65f03c0 	ret
   8e500:	f9400bf3 	ldr	x19, [sp, #16]
   8e504:	d2800000 	mov	x0, #0x0                   	// #0
   8e508:	a8c27bfd 	ldp	x29, x30, [sp], #32
   8e50c:	140009d3 	b	90c58 <nanf>

000000000008e510 <_strtol_l.isra.0>:
   8e510:	a9bb7bfd 	stp	x29, x30, [sp, #-80]!
   8e514:	910003fd 	mov	x29, sp
   8e518:	a90153f3 	stp	x19, x20, [sp, #16]
   8e51c:	a9025bf5 	stp	x21, x22, [sp, #32]
   8e520:	aa0103f5 	mov	x21, x1
   8e524:	aa0203f6 	mov	x22, x2
   8e528:	a90363f7 	stp	x23, x24, [sp, #48]
   8e52c:	aa0003f7 	mov	x23, x0
   8e530:	2a0303f8 	mov	w24, w3
   8e534:	a9046bf9 	stp	x25, x26, [sp, #64]
   8e538:	aa0403fa 	mov	x26, x4
   8e53c:	aa0103f9 	mov	x25, x1
   8e540:	14000002 	b	8e548 <_strtol_l.isra.0+0x38>
   8e544:	aa1403f9 	mov	x25, x20
   8e548:	aa1903f4 	mov	x20, x25
   8e54c:	aa1a03e0 	mov	x0, x26
   8e550:	38401693 	ldrb	w19, [x20], #1
   8e554:	97fff927 	bl	8c9f0 <__locale_ctype_ptr_l>
   8e558:	8b330000 	add	x0, x0, w19, uxtb
   8e55c:	39400400 	ldrb	w0, [x0, #1]
   8e560:	371fff20 	tbnz	w0, #3, 8e544 <_strtol_l.isra.0+0x34>
   8e564:	7100b67f 	cmp	w19, #0x2d
   8e568:	54000940 	b.eq	8e690 <_strtol_l.isra.0+0x180>  // b.none
   8e56c:	7100ae7f 	cmp	w19, #0x2b
   8e570:	54000160 	b.eq	8e59c <_strtol_l.isra.0+0x8c>  // b.none
   8e574:	2a1303e2 	mov	w2, w19
   8e578:	52800008 	mov	w8, #0x0                   	// #0
   8e57c:	721b7b1f 	tst	w24, #0xffffffef
   8e580:	54000181 	b.ne	8e5b0 <_strtol_l.isra.0+0xa0>  // b.any
   8e584:	7100c05f 	cmp	w2, #0x30
   8e588:	54000900 	b.eq	8e6a8 <_strtol_l.isra.0+0x198>  // b.none
   8e58c:	35000138 	cbnz	w24, 8e5b0 <_strtol_l.isra.0+0xa0>
   8e590:	d2800146 	mov	x6, #0xa                   	// #10
   8e594:	2a0603f8 	mov	w24, w6
   8e598:	14000007 	b	8e5b4 <_strtol_l.isra.0+0xa4>
   8e59c:	39400282 	ldrb	w2, [x20]
   8e5a0:	52800008 	mov	w8, #0x0                   	// #0
   8e5a4:	91000b34 	add	x20, x25, #0x2
   8e5a8:	721b7b1f 	tst	w24, #0xffffffef
   8e5ac:	54fffec0 	b.eq	8e584 <_strtol_l.isra.0+0x74>  // b.none
   8e5b0:	93407f06 	sxtw	x6, w24
   8e5b4:	7100011f 	cmp	w8, #0x0
   8e5b8:	92f00007 	mov	x7, #0x7fffffffffffffff    	// #9223372036854775807
   8e5bc:	da8700e7 	cinv	x7, x7, ne  // ne = any
   8e5c0:	52800004 	mov	w4, #0x0                   	// #0
   8e5c4:	d2800000 	mov	x0, #0x0                   	// #0
   8e5c8:	9ac608e3 	udiv	x3, x7, x6
   8e5cc:	1b069c65 	msub	w5, w3, w6, w7
   8e5d0:	5100c041 	sub	w1, w2, #0x30
   8e5d4:	7100243f 	cmp	w1, #0x9
   8e5d8:	540000a9 	b.ls	8e5ec <_strtol_l.isra.0+0xdc>  // b.plast
   8e5dc:	51010441 	sub	w1, w2, #0x41
   8e5e0:	7100643f 	cmp	w1, #0x19
   8e5e4:	54000208 	b.hi	8e624 <_strtol_l.isra.0+0x114>  // b.pmore
   8e5e8:	5100dc41 	sub	w1, w2, #0x37
   8e5ec:	6b01031f 	cmp	w24, w1
   8e5f0:	5400028d 	b.le	8e640 <_strtol_l.isra.0+0x130>
   8e5f4:	7100009f 	cmp	w4, #0x0
   8e5f8:	12800004 	mov	w4, #0xffffffff            	// #-1
   8e5fc:	fa40a060 	ccmp	x3, x0, #0x0, ge  // ge = tcont
   8e600:	540000e3 	b.cc	8e61c <_strtol_l.isra.0+0x10c>  // b.lo, b.ul, b.last
   8e604:	eb00007f 	cmp	x3, x0
   8e608:	7a4100a0 	ccmp	w5, w1, #0x0, eq  // eq = none
   8e60c:	5400008b 	b.lt	8e61c <_strtol_l.isra.0+0x10c>  // b.tstop
   8e610:	93407c21 	sxtw	x1, w1
   8e614:	52800024 	mov	w4, #0x1                   	// #1
   8e618:	9b060400 	madd	x0, x0, x6, x1
   8e61c:	38401682 	ldrb	w2, [x20], #1
   8e620:	17ffffec 	b	8e5d0 <_strtol_l.isra.0+0xc0>
   8e624:	51018441 	sub	w1, w2, #0x61
   8e628:	7100643f 	cmp	w1, #0x19
   8e62c:	540000a8 	b.hi	8e640 <_strtol_l.isra.0+0x130>  // b.pmore
   8e630:	51015c41 	sub	w1, w2, #0x57
   8e634:	6b01031f 	cmp	w24, w1
   8e638:	54fffdec 	b.gt	8e5f4 <_strtol_l.isra.0+0xe4>
   8e63c:	d503201f 	nop
   8e640:	3100049f 	cmn	w4, #0x1
   8e644:	54000180 	b.eq	8e674 <_strtol_l.isra.0+0x164>  // b.none
   8e648:	7100011f 	cmp	w8, #0x0
   8e64c:	da800400 	cneg	x0, x0, ne  // ne = any
   8e650:	b4000076 	cbz	x22, 8e65c <_strtol_l.isra.0+0x14c>
   8e654:	35000264 	cbnz	w4, 8e6a0 <_strtol_l.isra.0+0x190>
   8e658:	f90002d5 	str	x21, [x22]
   8e65c:	a94153f3 	ldp	x19, x20, [sp, #16]
   8e660:	a9425bf5 	ldp	x21, x22, [sp, #32]
   8e664:	a94363f7 	ldp	x23, x24, [sp, #48]
   8e668:	a9446bf9 	ldp	x25, x26, [sp, #64]
   8e66c:	a8c57bfd 	ldp	x29, x30, [sp], #80
   8e670:	d65f03c0 	ret
   8e674:	52800440 	mov	w0, #0x22                  	// #34
   8e678:	b90002e0 	str	w0, [x23]
   8e67c:	aa0703e0 	mov	x0, x7
   8e680:	b4fffef6 	cbz	x22, 8e65c <_strtol_l.isra.0+0x14c>
   8e684:	d1000695 	sub	x21, x20, #0x1
   8e688:	aa0703e0 	mov	x0, x7
   8e68c:	17fffff3 	b	8e658 <_strtol_l.isra.0+0x148>
   8e690:	39400282 	ldrb	w2, [x20]
   8e694:	52800028 	mov	w8, #0x1                   	// #1
   8e698:	91000b34 	add	x20, x25, #0x2
   8e69c:	17ffffb8 	b	8e57c <_strtol_l.isra.0+0x6c>
   8e6a0:	aa0003e7 	mov	x7, x0
   8e6a4:	17fffff8 	b	8e684 <_strtol_l.isra.0+0x174>
   8e6a8:	39400280 	ldrb	w0, [x20]
   8e6ac:	121a7800 	and	w0, w0, #0xffffffdf
   8e6b0:	12001c00 	and	w0, w0, #0xff
   8e6b4:	7101601f 	cmp	w0, #0x58
   8e6b8:	540000c1 	b.ne	8e6d0 <_strtol_l.isra.0+0x1c0>  // b.any
   8e6bc:	39400682 	ldrb	w2, [x20, #1]
   8e6c0:	d2800206 	mov	x6, #0x10                  	// #16
   8e6c4:	91000a94 	add	x20, x20, #0x2
   8e6c8:	2a0603f8 	mov	w24, w6
   8e6cc:	17ffffba 	b	8e5b4 <_strtol_l.isra.0+0xa4>
   8e6d0:	35fff718 	cbnz	w24, 8e5b0 <_strtol_l.isra.0+0xa0>
   8e6d4:	d2800106 	mov	x6, #0x8                   	// #8
   8e6d8:	2a0603f8 	mov	w24, w6
   8e6dc:	17ffffb6 	b	8e5b4 <_strtol_l.isra.0+0xa4>

000000000008e6e0 <strtol>:
   8e6e0:	f0000025 	adrp	x5, 95000 <BitFont+0xb40>
   8e6e4:	2a0203e3 	mov	w3, w2
   8e6e8:	aa0103e2 	mov	x2, x1
   8e6ec:	aa0003e1 	mov	x1, x0
   8e6f0:	f94690a5 	ldr	x5, [x5, #3360]
   8e6f4:	f0000024 	adrp	x4, 95000 <BitFont+0xb40>
   8e6f8:	912d8084 	add	x4, x4, #0xb60
   8e6fc:	aa0503e0 	mov	x0, x5
   8e700:	f94024a5 	ldr	x5, [x5, #72]
   8e704:	f10000bf 	cmp	x5, #0x0
   8e708:	9a850084 	csel	x4, x4, x5, eq  // eq = none
   8e70c:	17ffff81 	b	8e510 <_strtol_l.isra.0>

000000000008e710 <strtold>:
   8e710:	a9be7bfd 	stp	x29, x30, [sp, #-32]!
   8e714:	f0000023 	adrp	x3, 95000 <BitFont+0xb40>
   8e718:	aa0103e2 	mov	x2, x1
   8e71c:	910003fd 	mov	x29, sp
   8e720:	f9469066 	ldr	x6, [x3, #3360]
   8e724:	aa0003e1 	mov	x1, x0
   8e728:	f0000025 	adrp	x5, 95000 <BitFont+0xb40>
   8e72c:	912d80a5 	add	x5, x5, #0xb60
   8e730:	aa0603e0 	mov	x0, x6
   8e734:	910043e4 	add	x4, sp, #0x10
   8e738:	f94024c6 	ldr	x6, [x6, #72]
   8e73c:	52800003 	mov	w3, #0x0                   	// #0
   8e740:	f10000df 	cmp	x6, #0x0
   8e744:	9a8600a5 	csel	x5, x5, x6, eq  // eq = none
   8e748:	940000ac 	bl	8e9f8 <_strtorx_l>
   8e74c:	3dc007e0 	ldr	q0, [sp, #16]
   8e750:	a8c27bfd 	ldp	x29, x30, [sp], #32
   8e754:	d65f03c0 	ret

000000000008e758 <_strtoll_l.isra.0>:
   8e758:	a9bb7bfd 	stp	x29, x30, [sp, #-80]!
   8e75c:	910003fd 	mov	x29, sp
   8e760:	a90153f3 	stp	x19, x20, [sp, #16]
   8e764:	a9025bf5 	stp	x21, x22, [sp, #32]
   8e768:	aa0103f5 	mov	x21, x1
   8e76c:	aa0203f6 	mov	x22, x2
   8e770:	a90363f7 	stp	x23, x24, [sp, #48]
   8e774:	aa0003f7 	mov	x23, x0
   8e778:	2a0303f8 	mov	w24, w3
   8e77c:	a9046bf9 	stp	x25, x26, [sp, #64]
   8e780:	aa0403fa 	mov	x26, x4
   8e784:	aa0103f9 	mov	x25, x1
   8e788:	14000002 	b	8e790 <_strtoll_l.isra.0+0x38>
   8e78c:	aa1403f9 	mov	x25, x20
   8e790:	aa1903f4 	mov	x20, x25
   8e794:	aa1a03e0 	mov	x0, x26
   8e798:	38401693 	ldrb	w19, [x20], #1
   8e79c:	97fff895 	bl	8c9f0 <__locale_ctype_ptr_l>
   8e7a0:	8b330000 	add	x0, x0, w19, uxtb
   8e7a4:	39400400 	ldrb	w0, [x0, #1]
   8e7a8:	371fff20 	tbnz	w0, #3, 8e78c <_strtoll_l.isra.0+0x34>
   8e7ac:	7100b67f 	cmp	w19, #0x2d
   8e7b0:	54000940 	b.eq	8e8d8 <_strtoll_l.isra.0+0x180>  // b.none
   8e7b4:	7100ae7f 	cmp	w19, #0x2b
   8e7b8:	54000160 	b.eq	8e7e4 <_strtoll_l.isra.0+0x8c>  // b.none
   8e7bc:	2a1303e2 	mov	w2, w19
   8e7c0:	52800008 	mov	w8, #0x0                   	// #0
   8e7c4:	721b7b1f 	tst	w24, #0xffffffef
   8e7c8:	54000181 	b.ne	8e7f8 <_strtoll_l.isra.0+0xa0>  // b.any
   8e7cc:	7100c05f 	cmp	w2, #0x30
   8e7d0:	54000900 	b.eq	8e8f0 <_strtoll_l.isra.0+0x198>  // b.none
   8e7d4:	35000138 	cbnz	w24, 8e7f8 <_strtoll_l.isra.0+0xa0>
   8e7d8:	d2800146 	mov	x6, #0xa                   	// #10
   8e7dc:	2a0603f8 	mov	w24, w6
   8e7e0:	14000007 	b	8e7fc <_strtoll_l.isra.0+0xa4>
   8e7e4:	39400282 	ldrb	w2, [x20]
   8e7e8:	52800008 	mov	w8, #0x0                   	// #0
   8e7ec:	91000b34 	add	x20, x25, #0x2
   8e7f0:	721b7b1f 	tst	w24, #0xffffffef
   8e7f4:	54fffec0 	b.eq	8e7cc <_strtoll_l.isra.0+0x74>  // b.none
   8e7f8:	93407f06 	sxtw	x6, w24
   8e7fc:	7100011f 	cmp	w8, #0x0
   8e800:	92f00007 	mov	x7, #0x7fffffffffffffff    	// #9223372036854775807
   8e804:	da8700e7 	cinv	x7, x7, ne  // ne = any
   8e808:	52800004 	mov	w4, #0x0                   	// #0
   8e80c:	d2800000 	mov	x0, #0x0                   	// #0
   8e810:	9ac608e3 	udiv	x3, x7, x6
   8e814:	1b069c65 	msub	w5, w3, w6, w7
   8e818:	5100c041 	sub	w1, w2, #0x30
   8e81c:	7100243f 	cmp	w1, #0x9
   8e820:	540000a9 	b.ls	8e834 <_strtoll_l.isra.0+0xdc>  // b.plast
   8e824:	51010441 	sub	w1, w2, #0x41
   8e828:	7100643f 	cmp	w1, #0x19
   8e82c:	54000208 	b.hi	8e86c <_strtoll_l.isra.0+0x114>  // b.pmore
   8e830:	5100dc41 	sub	w1, w2, #0x37
   8e834:	6b01031f 	cmp	w24, w1
   8e838:	5400028d 	b.le	8e888 <_strtoll_l.isra.0+0x130>
   8e83c:	7100009f 	cmp	w4, #0x0
   8e840:	12800004 	mov	w4, #0xffffffff            	// #-1
   8e844:	fa40a060 	ccmp	x3, x0, #0x0, ge  // ge = tcont
   8e848:	540000e3 	b.cc	8e864 <_strtoll_l.isra.0+0x10c>  // b.lo, b.ul, b.last
   8e84c:	eb00007f 	cmp	x3, x0
   8e850:	7a4100a0 	ccmp	w5, w1, #0x0, eq  // eq = none
   8e854:	5400008b 	b.lt	8e864 <_strtoll_l.isra.0+0x10c>  // b.tstop
   8e858:	93407c21 	sxtw	x1, w1
   8e85c:	52800024 	mov	w4, #0x1                   	// #1
   8e860:	9b060400 	madd	x0, x0, x6, x1
   8e864:	38401682 	ldrb	w2, [x20], #1
   8e868:	17ffffec 	b	8e818 <_strtoll_l.isra.0+0xc0>
   8e86c:	51018441 	sub	w1, w2, #0x61
   8e870:	7100643f 	cmp	w1, #0x19
   8e874:	540000a8 	b.hi	8e888 <_strtoll_l.isra.0+0x130>  // b.pmore
   8e878:	51015c41 	sub	w1, w2, #0x57
   8e87c:	6b01031f 	cmp	w24, w1
   8e880:	54fffdec 	b.gt	8e83c <_strtoll_l.isra.0+0xe4>
   8e884:	d503201f 	nop
   8e888:	3100049f 	cmn	w4, #0x1
   8e88c:	54000180 	b.eq	8e8bc <_strtoll_l.isra.0+0x164>  // b.none
   8e890:	7100011f 	cmp	w8, #0x0
   8e894:	da800400 	cneg	x0, x0, ne  // ne = any
   8e898:	b4000076 	cbz	x22, 8e8a4 <_strtoll_l.isra.0+0x14c>
   8e89c:	35000264 	cbnz	w4, 8e8e8 <_strtoll_l.isra.0+0x190>
   8e8a0:	f90002d5 	str	x21, [x22]
   8e8a4:	a94153f3 	ldp	x19, x20, [sp, #16]
   8e8a8:	a9425bf5 	ldp	x21, x22, [sp, #32]
   8e8ac:	a94363f7 	ldp	x23, x24, [sp, #48]
   8e8b0:	a9446bf9 	ldp	x25, x26, [sp, #64]
   8e8b4:	a8c57bfd 	ldp	x29, x30, [sp], #80
   8e8b8:	d65f03c0 	ret
   8e8bc:	52800440 	mov	w0, #0x22                  	// #34
   8e8c0:	b90002e0 	str	w0, [x23]
   8e8c4:	aa0703e0 	mov	x0, x7
   8e8c8:	b4fffef6 	cbz	x22, 8e8a4 <_strtoll_l.isra.0+0x14c>
   8e8cc:	d1000695 	sub	x21, x20, #0x1
   8e8d0:	aa0703e0 	mov	x0, x7
   8e8d4:	17fffff3 	b	8e8a0 <_strtoll_l.isra.0+0x148>
   8e8d8:	39400282 	ldrb	w2, [x20]
   8e8dc:	52800028 	mov	w8, #0x1                   	// #1
   8e8e0:	91000b34 	add	x20, x25, #0x2
   8e8e4:	17ffffb8 	b	8e7c4 <_strtoll_l.isra.0+0x6c>
   8e8e8:	aa0003e7 	mov	x7, x0
   8e8ec:	17fffff8 	b	8e8cc <_strtoll_l.isra.0+0x174>
   8e8f0:	39400280 	ldrb	w0, [x20]
   8e8f4:	121a7800 	and	w0, w0, #0xffffffdf
   8e8f8:	12001c00 	and	w0, w0, #0xff
   8e8fc:	7101601f 	cmp	w0, #0x58
   8e900:	540000c1 	b.ne	8e918 <_strtoll_l.isra.0+0x1c0>  // b.any
   8e904:	39400682 	ldrb	w2, [x20, #1]
   8e908:	d2800206 	mov	x6, #0x10                  	// #16
   8e90c:	91000a94 	add	x20, x20, #0x2
   8e910:	2a0603f8 	mov	w24, w6
   8e914:	17ffffba 	b	8e7fc <_strtoll_l.isra.0+0xa4>
   8e918:	35fff718 	cbnz	w24, 8e7f8 <_strtoll_l.isra.0+0xa0>
   8e91c:	d2800106 	mov	x6, #0x8                   	// #8
   8e920:	2a0603f8 	mov	w24, w6
   8e924:	17ffffb6 	b	8e7fc <_strtoll_l.isra.0+0xa4>

000000000008e928 <strtoll>:
   8e928:	f0000025 	adrp	x5, 95000 <BitFont+0xb40>
   8e92c:	2a0203e3 	mov	w3, w2
   8e930:	aa0103e2 	mov	x2, x1
   8e934:	aa0003e1 	mov	x1, x0
   8e938:	f94690a5 	ldr	x5, [x5, #3360]
   8e93c:	f0000024 	adrp	x4, 95000 <BitFont+0xb40>
   8e940:	912d8084 	add	x4, x4, #0xb60
   8e944:	aa0503e0 	mov	x0, x5
   8e948:	f94024a5 	ldr	x5, [x5, #72]
   8e94c:	f10000bf 	cmp	x5, #0x0
   8e950:	9a850084 	csel	x4, x4, x5, eq  // eq = none
   8e954:	17ffff81 	b	8e758 <_strtoll_l.isra.0>

000000000008e958 <ULtox>:
   8e958:	12000864 	and	w4, w3, #0x7
   8e95c:	71000c9f 	cmp	w4, #0x3
   8e960:	54000280 	b.eq	8e9b0 <ULtox+0x58>  // b.none
   8e964:	540001cd 	b.le	8e99c <ULtox+0x44>
   8e968:	7100149f 	cmp	w4, #0x5
   8e96c:	540002c0 	b.eq	8e9c4 <ULtox+0x6c>  // b.none
   8e970:	5400036b 	b.lt	8e9dc <ULtox+0x84>  // b.tstop
   8e974:	7100189f 	cmp	w4, #0x6
   8e978:	54000081 	b.ne	8e988 <ULtox+0x30>  // b.any
   8e97c:	f900001f 	str	xzr, [x0]
   8e980:	7900101f 	strh	wzr, [x0, #8]
   8e984:	d503201f 	nop
   8e988:	36180083 	tbz	w3, #3, 8e998 <ULtox+0x40>
   8e98c:	79401001 	ldrh	w1, [x0, #8]
   8e990:	32114021 	orr	w1, w1, #0xffff8000
   8e994:	79001001 	strh	w1, [x0, #8]
   8e998:	d65f03c0 	ret
   8e99c:	7100049f 	cmp	w4, #0x1
   8e9a0:	54000120 	b.eq	8e9c4 <ULtox+0x6c>  // b.none
   8e9a4:	5400026c 	b.gt	8e9f0 <ULtox+0x98>
   8e9a8:	34fffea4 	cbz	w4, 8e97c <ULtox+0x24>
   8e9ac:	17fffff7 	b	8e988 <ULtox+0x30>
   8e9b0:	d2f00002 	mov	x2, #0x8000000000000000    	// #-9223372036854775808
   8e9b4:	528fffe1 	mov	w1, #0x7fff                	// #32767
   8e9b8:	f9000002 	str	x2, [x0]
   8e9bc:	79001001 	strh	w1, [x0, #8]
   8e9c0:	17fffff2 	b	8e988 <ULtox+0x30>
   8e9c4:	528807c4 	mov	w4, #0x403e                	// #16446
   8e9c8:	0b040042 	add	w2, w2, w4
   8e9cc:	79001002 	strh	w2, [x0, #8]
   8e9d0:	29400422 	ldp	w2, w1, [x1]
   8e9d4:	29000402 	stp	w2, w1, [x0]
   8e9d8:	17ffffec 	b	8e988 <ULtox+0x30>
   8e9dc:	d2f80002 	mov	x2, #0xc000000000000000    	// #-4611686018427387904
   8e9e0:	12800001 	mov	w1, #0xffffffff            	// #-1
   8e9e4:	f9000002 	str	x2, [x0]
   8e9e8:	79001001 	strh	w1, [x0, #8]
   8e9ec:	17ffffe7 	b	8e988 <ULtox+0x30>
   8e9f0:	7900101f 	strh	wzr, [x0, #8]
   8e9f4:	17fffff7 	b	8e9d0 <ULtox+0x78>

000000000008e9f8 <_strtorx_l>:
   8e9f8:	a9bb7bfd 	stp	x29, x30, [sp, #-80]!
   8e9fc:	7100047f 	cmp	w3, #0x1
   8ea00:	910003fd 	mov	x29, sp
   8ea04:	f9000bf3 	str	x19, [sp, #16]
   8ea08:	aa0403f3 	mov	x19, x4
   8ea0c:	540002e0 	b.eq	8ea68 <_strtorx_l+0x70>  // b.none
   8ea10:	f0000024 	adrp	x4, 95000 <BitFont+0xb40>
   8ea14:	91342084 	add	x4, x4, #0xd08
   8ea18:	2a0303e7 	mov	w7, w3
   8ea1c:	9100e3e3 	add	x3, sp, #0x38
   8ea20:	a9402488 	ldp	x8, x9, [x4]
   8ea24:	a903a7e8 	stp	x8, x9, [sp, #56]
   8ea28:	b9401084 	ldr	w4, [x4, #16]
   8ea2c:	290893e7 	stp	w7, w4, [sp, #68]
   8ea30:	aa0503e6 	mov	x6, x5
   8ea34:	9100b3e4 	add	x4, sp, #0x2c
   8ea38:	9100c3e5 	add	x5, sp, #0x30
   8ea3c:	94000a1b 	bl	912a8 <_strtodg_l>
   8ea40:	b9402fe2 	ldr	w2, [sp, #44]
   8ea44:	2a0003e5 	mov	w5, w0
   8ea48:	2a0003e3 	mov	w3, w0
   8ea4c:	9100c3e1 	add	x1, sp, #0x30
   8ea50:	aa1303e0 	mov	x0, x19
   8ea54:	97ffffc1 	bl	8e958 <ULtox>
   8ea58:	2a0503e0 	mov	w0, w5
   8ea5c:	f9400bf3 	ldr	x19, [sp, #16]
   8ea60:	a8c57bfd 	ldp	x29, x30, [sp], #80
   8ea64:	d65f03c0 	ret
   8ea68:	f0000023 	adrp	x3, 95000 <BitFont+0xb40>
   8ea6c:	91342063 	add	x3, x3, #0xd08
   8ea70:	17fffff0 	b	8ea30 <_strtorx_l+0x38>
   8ea74:	00000000 	.inst	0x00000000 ; undefined

000000000008ea78 <_strtoul_l.isra.0>:
   8ea78:	a9bb7bfd 	stp	x29, x30, [sp, #-80]!
   8ea7c:	910003fd 	mov	x29, sp
   8ea80:	a90153f3 	stp	x19, x20, [sp, #16]
   8ea84:	a9025bf5 	stp	x21, x22, [sp, #32]
   8ea88:	aa0103f5 	mov	x21, x1
   8ea8c:	aa0203f6 	mov	x22, x2
   8ea90:	a90363f7 	stp	x23, x24, [sp, #48]
   8ea94:	aa0003f7 	mov	x23, x0
   8ea98:	2a0303f8 	mov	w24, w3
   8ea9c:	a9046bf9 	stp	x25, x26, [sp, #64]
   8eaa0:	aa0403fa 	mov	x26, x4
   8eaa4:	aa0103f9 	mov	x25, x1
   8eaa8:	14000002 	b	8eab0 <_strtoul_l.isra.0+0x38>
   8eaac:	aa1403f9 	mov	x25, x20
   8eab0:	aa1903f4 	mov	x20, x25
   8eab4:	aa1a03e0 	mov	x0, x26
   8eab8:	38401693 	ldrb	w19, [x20], #1
   8eabc:	97fff7cd 	bl	8c9f0 <__locale_ctype_ptr_l>
   8eac0:	8b330000 	add	x0, x0, w19, uxtb
   8eac4:	39400400 	ldrb	w0, [x0, #1]
   8eac8:	371fff20 	tbnz	w0, #3, 8eaac <_strtoul_l.isra.0+0x34>
   8eacc:	7100b67f 	cmp	w19, #0x2d
   8ead0:	54000980 	b.eq	8ec00 <_strtoul_l.isra.0+0x188>  // b.none
   8ead4:	7100ae7f 	cmp	w19, #0x2b
   8ead8:	540001c0 	b.eq	8eb10 <_strtoul_l.isra.0+0x98>  // b.none
   8eadc:	2a1303e2 	mov	w2, w19
   8eae0:	52800007 	mov	w7, #0x0                   	// #0
   8eae4:	721b7b1f 	tst	w24, #0xffffffef
   8eae8:	54000201 	b.ne	8eb28 <_strtoul_l.isra.0+0xb0>  // b.any
   8eaec:	7100c05f 	cmp	w2, #0x30
   8eaf0:	54000900 	b.eq	8ec10 <_strtoul_l.isra.0+0x198>  // b.none
   8eaf4:	350001b8 	cbnz	w24, 8eb28 <_strtoul_l.isra.0+0xb0>
   8eaf8:	b201e7e3 	mov	x3, #0x9999999999999999    	// #-7378697629483820647
   8eafc:	d2800146 	mov	x6, #0xa                   	// #10
   8eb00:	528000a5 	mov	w5, #0x5                   	// #5
   8eb04:	2a0603f8 	mov	w24, w6
   8eb08:	f2e33323 	movk	x3, #0x1999, lsl #48
   8eb0c:	1400000c 	b	8eb3c <_strtoul_l.isra.0+0xc4>
   8eb10:	39400282 	ldrb	w2, [x20]
   8eb14:	52800007 	mov	w7, #0x0                   	// #0
   8eb18:	91000b34 	add	x20, x25, #0x2
   8eb1c:	721b7b1f 	tst	w24, #0xffffffef
   8eb20:	54fffe60 	b.eq	8eaec <_strtoul_l.isra.0+0x74>  // b.none
   8eb24:	d503201f 	nop
   8eb28:	93407f06 	sxtw	x6, w24
   8eb2c:	92800003 	mov	x3, #0xffffffffffffffff    	// #-1
   8eb30:	9ac60863 	udiv	x3, x3, x6
   8eb34:	9b067c65 	mul	x5, x3, x6
   8eb38:	2a2503e5 	mvn	w5, w5
   8eb3c:	52800004 	mov	w4, #0x0                   	// #0
   8eb40:	d2800000 	mov	x0, #0x0                   	// #0
   8eb44:	d503201f 	nop
   8eb48:	5100c041 	sub	w1, w2, #0x30
   8eb4c:	7100243f 	cmp	w1, #0x9
   8eb50:	540000a9 	b.ls	8eb64 <_strtoul_l.isra.0+0xec>  // b.plast
   8eb54:	51010441 	sub	w1, w2, #0x41
   8eb58:	7100643f 	cmp	w1, #0x19
   8eb5c:	54000208 	b.hi	8eb9c <_strtoul_l.isra.0+0x124>  // b.pmore
   8eb60:	5100dc41 	sub	w1, w2, #0x37
   8eb64:	6b01031f 	cmp	w24, w1
   8eb68:	5400028d 	b.le	8ebb8 <_strtoul_l.isra.0+0x140>
   8eb6c:	7100009f 	cmp	w4, #0x0
   8eb70:	12800004 	mov	w4, #0xffffffff            	// #-1
   8eb74:	fa43a002 	ccmp	x0, x3, #0x2, ge  // ge = tcont
   8eb78:	540000e8 	b.hi	8eb94 <_strtoul_l.isra.0+0x11c>  // b.pmore
   8eb7c:	eb03001f 	cmp	x0, x3
   8eb80:	7a450024 	ccmp	w1, w5, #0x4, eq  // eq = none
   8eb84:	5400008c 	b.gt	8eb94 <_strtoul_l.isra.0+0x11c>
   8eb88:	93407c21 	sxtw	x1, w1
   8eb8c:	52800024 	mov	w4, #0x1                   	// #1
   8eb90:	9b060400 	madd	x0, x0, x6, x1
   8eb94:	38401682 	ldrb	w2, [x20], #1
   8eb98:	17ffffec 	b	8eb48 <_strtoul_l.isra.0+0xd0>
   8eb9c:	51018441 	sub	w1, w2, #0x61
   8eba0:	7100643f 	cmp	w1, #0x19
   8eba4:	540000a8 	b.hi	8ebb8 <_strtoul_l.isra.0+0x140>  // b.pmore
   8eba8:	51015c41 	sub	w1, w2, #0x57
   8ebac:	6b01031f 	cmp	w24, w1
   8ebb0:	54fffdec 	b.gt	8eb6c <_strtoul_l.isra.0+0xf4>
   8ebb4:	d503201f 	nop
   8ebb8:	37f80184 	tbnz	w4, #31, 8ebe8 <_strtoul_l.isra.0+0x170>
   8ebbc:	710000ff 	cmp	w7, #0x0
   8ebc0:	da800400 	cneg	x0, x0, ne  // ne = any
   8ebc4:	b4000076 	cbz	x22, 8ebd0 <_strtoul_l.isra.0+0x158>
   8ebc8:	35000184 	cbnz	w4, 8ebf8 <_strtoul_l.isra.0+0x180>
   8ebcc:	f90002d5 	str	x21, [x22]
   8ebd0:	a94153f3 	ldp	x19, x20, [sp, #16]
   8ebd4:	a9425bf5 	ldp	x21, x22, [sp, #32]
   8ebd8:	a94363f7 	ldp	x23, x24, [sp, #48]
   8ebdc:	a9446bf9 	ldp	x25, x26, [sp, #64]
   8ebe0:	a8c57bfd 	ldp	x29, x30, [sp], #80
   8ebe4:	d65f03c0 	ret
   8ebe8:	52800440 	mov	w0, #0x22                  	// #34
   8ebec:	b90002e0 	str	w0, [x23]
   8ebf0:	92800000 	mov	x0, #0xffffffffffffffff    	// #-1
   8ebf4:	b4fffef6 	cbz	x22, 8ebd0 <_strtoul_l.isra.0+0x158>
   8ebf8:	d1000695 	sub	x21, x20, #0x1
   8ebfc:	17fffff4 	b	8ebcc <_strtoul_l.isra.0+0x154>
   8ec00:	39400282 	ldrb	w2, [x20]
   8ec04:	52800027 	mov	w7, #0x1                   	// #1
   8ec08:	91000b34 	add	x20, x25, #0x2
   8ec0c:	17ffffb6 	b	8eae4 <_strtoul_l.isra.0+0x6c>
   8ec10:	39400280 	ldrb	w0, [x20]
   8ec14:	121a7800 	and	w0, w0, #0xffffffdf
   8ec18:	12001c00 	and	w0, w0, #0xff
   8ec1c:	7101601f 	cmp	w0, #0x58
   8ec20:	54000101 	b.ne	8ec40 <_strtoul_l.isra.0+0x1c8>  // b.any
   8ec24:	39400682 	ldrb	w2, [x20, #1]
   8ec28:	d2800206 	mov	x6, #0x10                  	// #16
   8ec2c:	91000a94 	add	x20, x20, #0x2
   8ec30:	2a0603f8 	mov	w24, w6
   8ec34:	528001e5 	mov	w5, #0xf                   	// #15
   8ec38:	92fe0003 	mov	x3, #0xfffffffffffffff     	// #1152921504606846975
   8ec3c:	17ffffc0 	b	8eb3c <_strtoul_l.isra.0+0xc4>
   8ec40:	35fff758 	cbnz	w24, 8eb28 <_strtoul_l.isra.0+0xb0>
   8ec44:	d2800106 	mov	x6, #0x8                   	// #8
   8ec48:	528000e5 	mov	w5, #0x7                   	// #7
   8ec4c:	2a0603f8 	mov	w24, w6
   8ec50:	92fc0003 	mov	x3, #0x1fffffffffffffff    	// #2305843009213693951
   8ec54:	17ffffba 	b	8eb3c <_strtoul_l.isra.0+0xc4>

000000000008ec58 <strtoul>:
   8ec58:	f0000025 	adrp	x5, 95000 <BitFont+0xb40>
   8ec5c:	2a0203e3 	mov	w3, w2
   8ec60:	aa0103e2 	mov	x2, x1
   8ec64:	aa0003e1 	mov	x1, x0
   8ec68:	f94690a5 	ldr	x5, [x5, #3360]
   8ec6c:	f0000024 	adrp	x4, 95000 <BitFont+0xb40>
   8ec70:	912d8084 	add	x4, x4, #0xb60
   8ec74:	aa0503e0 	mov	x0, x5
   8ec78:	f94024a5 	ldr	x5, [x5, #72]
   8ec7c:	f10000bf 	cmp	x5, #0x0
   8ec80:	9a850084 	csel	x4, x4, x5, eq  // eq = none
   8ec84:	17ffff7d 	b	8ea78 <_strtoul_l.isra.0>

000000000008ec88 <_strtoull_l.isra.0>:
   8ec88:	a9bb7bfd 	stp	x29, x30, [sp, #-80]!
   8ec8c:	910003fd 	mov	x29, sp
   8ec90:	a90153f3 	stp	x19, x20, [sp, #16]
   8ec94:	a9025bf5 	stp	x21, x22, [sp, #32]
   8ec98:	aa0103f5 	mov	x21, x1
   8ec9c:	aa0203f6 	mov	x22, x2
   8eca0:	a90363f7 	stp	x23, x24, [sp, #48]
   8eca4:	aa0003f7 	mov	x23, x0
   8eca8:	2a0303f8 	mov	w24, w3
   8ecac:	a9046bf9 	stp	x25, x26, [sp, #64]
   8ecb0:	aa0403fa 	mov	x26, x4
   8ecb4:	aa0103f9 	mov	x25, x1
   8ecb8:	14000002 	b	8ecc0 <_strtoull_l.isra.0+0x38>
   8ecbc:	aa1403f9 	mov	x25, x20
   8ecc0:	aa1903f4 	mov	x20, x25
   8ecc4:	aa1a03e0 	mov	x0, x26
   8ecc8:	38401693 	ldrb	w19, [x20], #1
   8eccc:	97fff749 	bl	8c9f0 <__locale_ctype_ptr_l>
   8ecd0:	8b330000 	add	x0, x0, w19, uxtb
   8ecd4:	39400400 	ldrb	w0, [x0, #1]
   8ecd8:	371fff20 	tbnz	w0, #3, 8ecbc <_strtoull_l.isra.0+0x34>
   8ecdc:	7100b67f 	cmp	w19, #0x2d
   8ece0:	54000980 	b.eq	8ee10 <_strtoull_l.isra.0+0x188>  // b.none
   8ece4:	7100ae7f 	cmp	w19, #0x2b
   8ece8:	540001c0 	b.eq	8ed20 <_strtoull_l.isra.0+0x98>  // b.none
   8ecec:	2a1303e2 	mov	w2, w19
   8ecf0:	52800007 	mov	w7, #0x0                   	// #0
   8ecf4:	721b7b1f 	tst	w24, #0xffffffef
   8ecf8:	54000201 	b.ne	8ed38 <_strtoull_l.isra.0+0xb0>  // b.any
   8ecfc:	7100c05f 	cmp	w2, #0x30
   8ed00:	54000900 	b.eq	8ee20 <_strtoull_l.isra.0+0x198>  // b.none
   8ed04:	350001b8 	cbnz	w24, 8ed38 <_strtoull_l.isra.0+0xb0>
   8ed08:	b201e7e3 	mov	x3, #0x9999999999999999    	// #-7378697629483820647
   8ed0c:	d2800146 	mov	x6, #0xa                   	// #10
   8ed10:	528000a5 	mov	w5, #0x5                   	// #5
   8ed14:	2a0603f8 	mov	w24, w6
   8ed18:	f2e33323 	movk	x3, #0x1999, lsl #48
   8ed1c:	1400000c 	b	8ed4c <_strtoull_l.isra.0+0xc4>
   8ed20:	39400282 	ldrb	w2, [x20]
   8ed24:	52800007 	mov	w7, #0x0                   	// #0
   8ed28:	91000b34 	add	x20, x25, #0x2
   8ed2c:	721b7b1f 	tst	w24, #0xffffffef
   8ed30:	54fffe60 	b.eq	8ecfc <_strtoull_l.isra.0+0x74>  // b.none
   8ed34:	d503201f 	nop
   8ed38:	93407f06 	sxtw	x6, w24
   8ed3c:	92800003 	mov	x3, #0xffffffffffffffff    	// #-1
   8ed40:	9ac60863 	udiv	x3, x3, x6
   8ed44:	9b067c65 	mul	x5, x3, x6
   8ed48:	2a2503e5 	mvn	w5, w5
   8ed4c:	52800004 	mov	w4, #0x0                   	// #0
   8ed50:	d2800000 	mov	x0, #0x0                   	// #0
   8ed54:	d503201f 	nop
   8ed58:	5100c041 	sub	w1, w2, #0x30
   8ed5c:	7100243f 	cmp	w1, #0x9
   8ed60:	540000a9 	b.ls	8ed74 <_strtoull_l.isra.0+0xec>  // b.plast
   8ed64:	51010441 	sub	w1, w2, #0x41
   8ed68:	7100643f 	cmp	w1, #0x19
   8ed6c:	54000208 	b.hi	8edac <_strtoull_l.isra.0+0x124>  // b.pmore
   8ed70:	5100dc41 	sub	w1, w2, #0x37
   8ed74:	6b01031f 	cmp	w24, w1
   8ed78:	5400028d 	b.le	8edc8 <_strtoull_l.isra.0+0x140>
   8ed7c:	7100009f 	cmp	w4, #0x0
   8ed80:	12800004 	mov	w4, #0xffffffff            	// #-1
   8ed84:	fa43a002 	ccmp	x0, x3, #0x2, ge  // ge = tcont
   8ed88:	540000e8 	b.hi	8eda4 <_strtoull_l.isra.0+0x11c>  // b.pmore
   8ed8c:	eb03001f 	cmp	x0, x3
   8ed90:	7a450024 	ccmp	w1, w5, #0x4, eq  // eq = none
   8ed94:	5400008c 	b.gt	8eda4 <_strtoull_l.isra.0+0x11c>
   8ed98:	93407c21 	sxtw	x1, w1
   8ed9c:	52800024 	mov	w4, #0x1                   	// #1
   8eda0:	9b060400 	madd	x0, x0, x6, x1
   8eda4:	38401682 	ldrb	w2, [x20], #1
   8eda8:	17ffffec 	b	8ed58 <_strtoull_l.isra.0+0xd0>
   8edac:	51018441 	sub	w1, w2, #0x61
   8edb0:	7100643f 	cmp	w1, #0x19
   8edb4:	540000a8 	b.hi	8edc8 <_strtoull_l.isra.0+0x140>  // b.pmore
   8edb8:	51015c41 	sub	w1, w2, #0x57
   8edbc:	6b01031f 	cmp	w24, w1
   8edc0:	54fffdec 	b.gt	8ed7c <_strtoull_l.isra.0+0xf4>
   8edc4:	d503201f 	nop
   8edc8:	37f80184 	tbnz	w4, #31, 8edf8 <_strtoull_l.isra.0+0x170>
   8edcc:	710000ff 	cmp	w7, #0x0
   8edd0:	da800400 	cneg	x0, x0, ne  // ne = any
   8edd4:	b4000076 	cbz	x22, 8ede0 <_strtoull_l.isra.0+0x158>
   8edd8:	35000184 	cbnz	w4, 8ee08 <_strtoull_l.isra.0+0x180>
   8eddc:	f90002d5 	str	x21, [x22]
   8ede0:	a94153f3 	ldp	x19, x20, [sp, #16]
   8ede4:	a9425bf5 	ldp	x21, x22, [sp, #32]
   8ede8:	a94363f7 	ldp	x23, x24, [sp, #48]
   8edec:	a9446bf9 	ldp	x25, x26, [sp, #64]
   8edf0:	a8c57bfd 	ldp	x29, x30, [sp], #80
   8edf4:	d65f03c0 	ret
   8edf8:	52800440 	mov	w0, #0x22                  	// #34
   8edfc:	b90002e0 	str	w0, [x23]
   8ee00:	92800000 	mov	x0, #0xffffffffffffffff    	// #-1
   8ee04:	b4fffef6 	cbz	x22, 8ede0 <_strtoull_l.isra.0+0x158>
   8ee08:	d1000695 	sub	x21, x20, #0x1
   8ee0c:	17fffff4 	b	8eddc <_strtoull_l.isra.0+0x154>
   8ee10:	39400282 	ldrb	w2, [x20]
   8ee14:	52800027 	mov	w7, #0x1                   	// #1
   8ee18:	91000b34 	add	x20, x25, #0x2
   8ee1c:	17ffffb6 	b	8ecf4 <_strtoull_l.isra.0+0x6c>
   8ee20:	39400280 	ldrb	w0, [x20]
   8ee24:	121a7800 	and	w0, w0, #0xffffffdf
   8ee28:	12001c00 	and	w0, w0, #0xff
   8ee2c:	7101601f 	cmp	w0, #0x58
   8ee30:	54000101 	b.ne	8ee50 <_strtoull_l.isra.0+0x1c8>  // b.any
   8ee34:	39400682 	ldrb	w2, [x20, #1]
   8ee38:	d2800206 	mov	x6, #0x10                  	// #16
   8ee3c:	91000a94 	add	x20, x20, #0x2
   8ee40:	2a0603f8 	mov	w24, w6
   8ee44:	528001e5 	mov	w5, #0xf                   	// #15
   8ee48:	92fe0003 	mov	x3, #0xfffffffffffffff     	// #1152921504606846975
   8ee4c:	17ffffc0 	b	8ed4c <_strtoull_l.isra.0+0xc4>
   8ee50:	35fff758 	cbnz	w24, 8ed38 <_strtoull_l.isra.0+0xb0>
   8ee54:	d2800106 	mov	x6, #0x8                   	// #8
   8ee58:	528000e5 	mov	w5, #0x7                   	// #7
   8ee5c:	2a0603f8 	mov	w24, w6
   8ee60:	92fc0003 	mov	x3, #0x1fffffffffffffff    	// #2305843009213693951
   8ee64:	17ffffba 	b	8ed4c <_strtoull_l.isra.0+0xc4>

000000000008ee68 <strtoull>:
   8ee68:	f0000025 	adrp	x5, 95000 <BitFont+0xb40>
   8ee6c:	2a0203e3 	mov	w3, w2
   8ee70:	aa0103e2 	mov	x2, x1
   8ee74:	aa0003e1 	mov	x1, x0
   8ee78:	f94690a5 	ldr	x5, [x5, #3360]
   8ee7c:	f0000024 	adrp	x4, 95000 <BitFont+0xb40>
   8ee80:	912d8084 	add	x4, x4, #0xb60
   8ee84:	aa0503e0 	mov	x0, x5
   8ee88:	f94024a5 	ldr	x5, [x5, #72]
   8ee8c:	f10000bf 	cmp	x5, #0x0
   8ee90:	9a850084 	csel	x4, x4, x5, eq  // eq = none
   8ee94:	17ffff7d 	b	8ec88 <_strtoull_l.isra.0>

000000000008ee98 <wcscpy>:
   8ee98:	b9400022 	ldr	w2, [x1]
   8ee9c:	aa0003e3 	mov	x3, x0
   8eea0:	b900001f 	str	wzr, [x0]
   8eea4:	34000082 	cbz	w2, 8eeb4 <wcscpy+0x1c>
   8eea8:	b8004462 	str	w2, [x3], #4
   8eeac:	b8404c22 	ldr	w2, [x1, #4]!
   8eeb0:	35ffffc2 	cbnz	w2, 8eea8 <wcscpy+0x10>
   8eeb4:	b900007f 	str	wzr, [x3]
   8eeb8:	d65f03c0 	ret
   8eebc:	00000000 	.inst	0x00000000 ; undefined

000000000008eec0 <wctob>:
   8eec0:	3100041f 	cmn	w0, #0x1
   8eec4:	540003c0 	b.eq	8ef3c <wctob+0x7c>  // b.none
   8eec8:	a9bd7bfd 	stp	x29, x30, [sp, #-48]!
   8eecc:	d2800102 	mov	x2, #0x8                   	// #8
   8eed0:	52800001 	mov	w1, #0x0                   	// #0
   8eed4:	910003fd 	mov	x29, sp
   8eed8:	f9000bf3 	str	x19, [sp, #16]
   8eedc:	2a0003f3 	mov	w19, w0
   8eee0:	9100a3e0 	add	x0, sp, #0x28
   8eee4:	94000367 	bl	8fc80 <memset>
   8eee8:	f0000020 	adrp	x0, 95000 <BitFont+0xb40>
   8eeec:	f0000025 	adrp	x5, 95000 <BitFont+0xb40>
   8eef0:	912d80a5 	add	x5, x5, #0xb60
   8eef4:	9100a3e3 	add	x3, sp, #0x28
   8eef8:	f9469004 	ldr	x4, [x0, #3360]
   8eefc:	2a1303e2 	mov	w2, w19
   8ef00:	910083e1 	add	x1, sp, #0x20
   8ef04:	aa0403e0 	mov	x0, x4
   8ef08:	f9402484 	ldr	x4, [x4, #72]
   8ef0c:	f100009f 	cmp	x4, #0x0
   8ef10:	9a8400a4 	csel	x4, x5, x4, eq  // eq = none
   8ef14:	f9407084 	ldr	x4, [x4, #224]
   8ef18:	d63f0080 	blr	x4
   8ef1c:	7100041f 	cmp	w0, #0x1
   8ef20:	540000a1 	b.ne	8ef34 <wctob+0x74>  // b.any
   8ef24:	394083e0 	ldrb	w0, [sp, #32]
   8ef28:	f9400bf3 	ldr	x19, [sp, #16]
   8ef2c:	a8c37bfd 	ldp	x29, x30, [sp], #48
   8ef30:	d65f03c0 	ret
   8ef34:	12800000 	mov	w0, #0xffffffff            	// #-1
   8ef38:	17fffffc 	b	8ef28 <wctob+0x68>
   8ef3c:	12800000 	mov	w0, #0xffffffff            	// #-1
   8ef40:	d65f03c0 	ret
   8ef44:	00000000 	.inst	0x00000000 ; undefined

000000000008ef48 <__ascii_wctomb>:
   8ef48:	aa0003e3 	mov	x3, x0
   8ef4c:	b4000141 	cbz	x1, 8ef74 <__ascii_wctomb+0x2c>
   8ef50:	7103fc5f 	cmp	w2, #0xff
   8ef54:	54000088 	b.hi	8ef64 <__ascii_wctomb+0x1c>  // b.pmore
   8ef58:	52800020 	mov	w0, #0x1                   	// #1
   8ef5c:	39000022 	strb	w2, [x1]
   8ef60:	d65f03c0 	ret
   8ef64:	52801141 	mov	w1, #0x8a                  	// #138
   8ef68:	12800000 	mov	w0, #0xffffffff            	// #-1
   8ef6c:	b9000061 	str	w1, [x3]
   8ef70:	d65f03c0 	ret
   8ef74:	52800000 	mov	w0, #0x0                   	// #0
   8ef78:	d65f03c0 	ret
   8ef7c:	00000000 	.inst	0x00000000 ; undefined

000000000008ef80 <rshift>:
   8ef80:	b9401402 	ldr	w2, [x0, #20]
   8ef84:	13057c23 	asr	w3, w1, #5
   8ef88:	6b03005f 	cmp	w2, w3
   8ef8c:	5400056d 	b.le	8f038 <rshift+0xb8>
   8ef90:	93407c44 	sxtw	x4, w2
   8ef94:	93407c68 	sxtw	x8, w3
   8ef98:	91006006 	add	x6, x0, #0x18
   8ef9c:	72001021 	ands	w1, w1, #0x1f
   8efa0:	8b0408c9 	add	x9, x6, x4, lsl #2
   8efa4:	8b0808c3 	add	x3, x6, x8, lsl #2
   8efa8:	540004e0 	b.eq	8f044 <rshift+0xc4>  // b.none
   8efac:	b86878c5 	ldr	w5, [x6, x8, lsl #2]
   8efb0:	91001063 	add	x3, x3, #0x4
   8efb4:	5280040a 	mov	w10, #0x20                  	// #32
   8efb8:	eb03013f 	cmp	x9, x3
   8efbc:	4b01014a 	sub	w10, w10, w1
   8efc0:	1ac124a5 	lsr	w5, w5, w1
   8efc4:	54000329 	b.ls	8f028 <rshift+0xa8>  // b.plast
   8efc8:	aa0603e7 	mov	x7, x6
   8efcc:	d503201f 	nop
   8efd0:	b9400062 	ldr	w2, [x3]
   8efd4:	1aca2042 	lsl	w2, w2, w10
   8efd8:	2a050042 	orr	w2, w2, w5
   8efdc:	b80044e2 	str	w2, [x7], #4
   8efe0:	b8404462 	ldr	w2, [x3], #4
   8efe4:	eb03013f 	cmp	x9, x3
   8efe8:	1ac12445 	lsr	w5, w2, w1
   8efec:	54ffff28 	b.hi	8efd0 <rshift+0x50>  // b.pmore
   8eff0:	cb080081 	sub	x1, x4, x8
   8eff4:	d37ef421 	lsl	x1, x1, #2
   8eff8:	d1001421 	sub	x1, x1, #0x5
   8effc:	d342fc21 	lsr	x1, x1, #2
   8f000:	91000421 	add	x1, x1, #0x1
   8f004:	8b0108c2 	add	x2, x6, x1, lsl #2
   8f008:	b82178c5 	str	w5, [x6, x1, lsl #2]
   8f00c:	340003a5 	cbz	w5, 8f080 <rshift+0x100>
   8f010:	91001042 	add	x2, x2, #0x4
   8f014:	cb060046 	sub	x6, x2, x6
   8f018:	9342fcc6 	asr	x6, x6, #2
   8f01c:	b9001406 	str	w6, [x0, #20]
   8f020:	340000e6 	cbz	w6, 8f03c <rshift+0xbc>
   8f024:	d65f03c0 	ret
   8f028:	b9001805 	str	w5, [x0, #24]
   8f02c:	aa0603e2 	mov	x2, x6
   8f030:	35ffff05 	cbnz	w5, 8f010 <rshift+0x90>
   8f034:	d503201f 	nop
   8f038:	b900141f 	str	wzr, [x0, #20]
   8f03c:	b900181f 	str	wzr, [x0, #24]
   8f040:	d65f03c0 	ret
   8f044:	eb03013f 	cmp	x9, x3
   8f048:	54ffff89 	b.ls	8f038 <rshift+0xb8>  // b.plast
   8f04c:	cb080082 	sub	x2, x4, x8
   8f050:	d2800001 	mov	x1, #0x0                   	// #0
   8f054:	d37ef442 	lsl	x2, x2, #2
   8f058:	d1000442 	sub	x2, x2, #0x1
   8f05c:	d342fc42 	lsr	x2, x2, #2
   8f060:	91000444 	add	x4, x2, #0x1
   8f064:	d503201f 	nop
   8f068:	b8617865 	ldr	w5, [x3, x1, lsl #2]
   8f06c:	eb02003f 	cmp	x1, x2
   8f070:	b82178c5 	str	w5, [x6, x1, lsl #2]
   8f074:	91000421 	add	x1, x1, #0x1
   8f078:	54ffff81 	b.ne	8f068 <rshift+0xe8>  // b.any
   8f07c:	8b0408c2 	add	x2, x6, x4, lsl #2
   8f080:	cb060046 	sub	x6, x2, x6
   8f084:	9342fcc6 	asr	x6, x6, #2
   8f088:	b9001406 	str	w6, [x0, #20]
   8f08c:	34fffd86 	cbz	w6, 8f03c <rshift+0xbc>
   8f090:	d65f03c0 	ret
   8f094:	00000000 	.inst	0x00000000 ; undefined

000000000008f098 <__gethex>:
   8f098:	a9b47bfd 	stp	x29, x30, [sp, #-192]!
   8f09c:	910003fd 	mov	x29, sp
   8f0a0:	fd0033e8 	str	d8, [sp, #96]
   8f0a4:	9e670008 	fmov	d8, x0
   8f0a8:	aa0603e0 	mov	x0, x6
   8f0ac:	a90153f3 	stp	x19, x20, [sp, #16]
   8f0b0:	aa0203f4 	mov	x20, x2
   8f0b4:	a9025bf5 	stp	x21, x22, [sp, #32]
   8f0b8:	a90363f7 	stp	x23, x24, [sp, #48]
   8f0bc:	a9046bf9 	stp	x25, x26, [sp, #64]
   8f0c0:	aa0103fa 	mov	x26, x1
   8f0c4:	a90573fb 	stp	x27, x28, [sp, #80]
   8f0c8:	f90043e4 	str	x4, [sp, #128]
   8f0cc:	f9004be3 	str	x3, [sp, #144]
   8f0d0:	b9009be5 	str	w5, [sp, #152]
   8f0d4:	9400027d 	bl	8fac8 <__localeconv_l>
   8f0d8:	f9400013 	ldr	x19, [x0]
   8f0dc:	aa1303e0 	mov	x0, x19
   8f0e0:	97fff788 	bl	8cf00 <strlen>
   8f0e4:	8b000262 	add	x2, x19, x0
   8f0e8:	aa0003f7 	mov	x23, x0
   8f0ec:	f9400340 	ldr	x0, [x26]
   8f0f0:	385ff055 	ldurb	w21, [x2, #-1]
   8f0f4:	39400801 	ldrb	w1, [x0, #2]
   8f0f8:	7100c03f 	cmp	w1, #0x30
   8f0fc:	54002ea1 	b.ne	8f6d0 <__gethex+0x638>  // b.any
   8f100:	91000c00 	add	x0, x0, #0x3
   8f104:	52800022 	mov	w2, #0x1                   	// #1
   8f108:	4b000042 	sub	w2, w2, w0
   8f10c:	d503201f 	nop
   8f110:	0b000043 	add	w3, w2, w0
   8f114:	aa0003fb 	mov	x27, x0
   8f118:	38401401 	ldrb	w1, [x0], #1
   8f11c:	7100c03f 	cmp	w1, #0x30
   8f120:	54ffff80 	b.eq	8f110 <__gethex+0x78>  // b.none
   8f124:	d000003c 	adrp	x28, 95000 <BitFont+0xb40>
   8f128:	911f839c 	add	x28, x28, #0x7e0
   8f12c:	3861cb80 	ldrb	w0, [x28, w1, sxtw]
   8f130:	34001780 	cbz	w0, 8f420 <__gethex+0x388>
   8f134:	39400360 	ldrb	w0, [x27]
   8f138:	52800007 	mov	w7, #0x0                   	// #0
   8f13c:	d2800018 	mov	x24, #0x0                   	// #0
   8f140:	3860cb80 	ldrb	w0, [x28, w0, sxtw]
   8f144:	aa1b03f9 	mov	x25, x27
   8f148:	340000a0 	cbz	w0, 8f15c <__gethex+0xc4>
   8f14c:	d503201f 	nop
   8f150:	38401f20 	ldrb	w0, [x25, #1]!
   8f154:	3860cb80 	ldrb	w0, [x28, w0, sxtw]
   8f158:	35ffffc0 	cbnz	w0, 8f150 <__gethex+0xb8>
   8f15c:	aa1703e2 	mov	x2, x23
   8f160:	aa1303e1 	mov	x1, x19
   8f164:	aa1903e0 	mov	x0, x25
   8f168:	b9007be3 	str	w3, [sp, #120]
   8f16c:	b9008be7 	str	w7, [sp, #136]
   8f170:	97fff7bb 	bl	8d05c <strncmp>
   8f174:	b9407be3 	ldr	w3, [sp, #120]
   8f178:	2a0003f6 	mov	w22, w0
   8f17c:	b9408be7 	ldr	w7, [sp, #136]
   8f180:	34000d60 	cbz	w0, 8f32c <__gethex+0x294>
   8f184:	cb180324 	sub	x4, x25, x24
   8f188:	f100031f 	cmp	x24, #0x0
   8f18c:	39400320 	ldrb	w0, [x25]
   8f190:	4b040be4 	neg	w4, w4, lsl #2
   8f194:	1a9f1096 	csel	w22, w4, wzr, ne  // ne = any
   8f198:	7101401f 	cmp	w0, #0x50
   8f19c:	54000d60 	b.eq	8f348 <__gethex+0x2b0>  // b.none
   8f1a0:	7101c01f 	cmp	w0, #0x70
   8f1a4:	aa1903f8 	mov	x24, x25
   8f1a8:	54000d00 	b.eq	8f348 <__gethex+0x2b0>  // b.none
   8f1ac:	f9000359 	str	x25, [x26]
   8f1b0:	35001107 	cbnz	w7, 8f3d0 <__gethex+0x338>
   8f1b4:	cb1b0300 	sub	x0, x24, x27
   8f1b8:	52800001 	mov	w1, #0x0                   	// #0
   8f1bc:	51000400 	sub	w0, w0, #0x1
   8f1c0:	71001c1f 	cmp	w0, #0x7
   8f1c4:	540000ad 	b.le	8f1d8 <__gethex+0x140>
   8f1c8:	13017c00 	asr	w0, w0, #1
   8f1cc:	11000421 	add	w1, w1, #0x1
   8f1d0:	71001c1f 	cmp	w0, #0x7
   8f1d4:	54ffffac 	b.gt	8f1c8 <__gethex+0x130>
   8f1d8:	9e660100 	fmov	x0, d8
   8f1dc:	9400031f 	bl	8fe58 <_Balloc>
   8f1e0:	9100600a 	add	x10, x0, #0x18
   8f1e4:	f9003fea 	str	x10, [sp, #120]
   8f1e8:	aa0003f9 	mov	x25, x0
   8f1ec:	eb18037f 	cmp	x27, x24
   8f1f0:	540028a2 	b.cs	8f704 <__gethex+0x66c>  // b.hs, b.nlast
   8f1f4:	d280002b 	mov	x11, #0x1                   	// #1
   8f1f8:	5280001a 	mov	w26, #0x0                   	// #0
   8f1fc:	cb17016b 	sub	x11, x11, x23
   8f200:	52800008 	mov	w8, #0x0                   	// #0
   8f204:	1400000d 	b	8f238 <__gethex+0x1a0>
   8f208:	7100835f 	cmp	w26, #0x20
   8f20c:	54000fa0 	b.eq	8f400 <__gethex+0x368>  // b.none
   8f210:	2a1a03e1 	mov	w1, w26
   8f214:	1100135a 	add	w26, w26, #0x4
   8f218:	385ff300 	ldurb	w0, [x24, #-1]
   8f21c:	aa0903f8 	mov	x24, x9
   8f220:	eb1b031f 	cmp	x24, x27
   8f224:	3860cb80 	ldrb	w0, [x28, w0, sxtw]
   8f228:	12000c00 	and	w0, w0, #0xf
   8f22c:	1ac12000 	lsl	w0, w0, w1
   8f230:	2a000108 	orr	w8, w8, w0
   8f234:	54000329 	b.ls	8f298 <__gethex+0x200>  // b.plast
   8f238:	385ff300 	ldurb	w0, [x24, #-1]
   8f23c:	d1000709 	sub	x9, x24, #0x1
   8f240:	91001143 	add	x3, x10, #0x4
   8f244:	6b15001f 	cmp	w0, w21
   8f248:	54fffe01 	b.ne	8f208 <__gethex+0x170>  // b.any
   8f24c:	8b0b012c 	add	x12, x9, x11
   8f250:	eb1b019f 	cmp	x12, x27
   8f254:	54fffda3 	b.cc	8f208 <__gethex+0x170>  // b.lo, b.ul, b.last
   8f258:	aa0c03e0 	mov	x0, x12
   8f25c:	aa1703e2 	mov	x2, x23
   8f260:	aa1303e1 	mov	x1, x19
   8f264:	f90047ec 	str	x12, [sp, #136]
   8f268:	b9009fe8 	str	w8, [sp, #156]
   8f26c:	a90a2be9 	stp	x9, x10, [sp, #160]
   8f270:	a90b2fe3 	stp	x3, x11, [sp, #176]
   8f274:	97fff77a 	bl	8d05c <strncmp>
   8f278:	b9409fe8 	ldr	w8, [sp, #156]
   8f27c:	f94047ec 	ldr	x12, [sp, #136]
   8f280:	a94a2be9 	ldp	x9, x10, [sp, #160]
   8f284:	a94b2fe3 	ldp	x3, x11, [sp, #176]
   8f288:	35fffc00 	cbnz	w0, 8f208 <__gethex+0x170>
   8f28c:	aa0c03f8 	mov	x24, x12
   8f290:	eb1b031f 	cmp	x24, x27
   8f294:	54fffd28 	b.hi	8f238 <__gethex+0x1a0>  // b.pmore
   8f298:	f9403fe0 	ldr	x0, [sp, #120]
   8f29c:	b9000148 	str	w8, [x10]
   8f2a0:	cb000063 	sub	x3, x3, x0
   8f2a4:	2a0803e0 	mov	w0, w8
   8f2a8:	9342fc63 	asr	x3, x3, #2
   8f2ac:	b9001723 	str	w3, [x25, #20]
   8f2b0:	531b6873 	lsl	w19, w3, #5
   8f2b4:	94000399 	bl	90118 <__hi0bits>
   8f2b8:	b9400298 	ldr	w24, [x20]
   8f2bc:	4b000273 	sub	w19, w19, w0
   8f2c0:	6b18027f 	cmp	w19, w24
   8f2c4:	540010ec 	b.gt	8f4e0 <__gethex+0x448>
   8f2c8:	5280001a 	mov	w26, #0x0                   	// #0
   8f2cc:	54001d6b 	b.lt	8f678 <__gethex+0x5e0>  // b.tstop
   8f2d0:	b9400a80 	ldr	w0, [x20, #8]
   8f2d4:	6b16001f 	cmp	w0, w22
   8f2d8:	5400208b 	b.lt	8f6e8 <__gethex+0x650>  // b.tstop
   8f2dc:	b9400680 	ldr	w0, [x20, #4]
   8f2e0:	6b16001f 	cmp	w0, w22
   8f2e4:	54000ccd 	b.le	8f47c <__gethex+0x3e4>
   8f2e8:	4b160016 	sub	w22, w0, w22
   8f2ec:	6b16031f 	cmp	w24, w22
   8f2f0:	5400126c 	b.gt	8f53c <__gethex+0x4a4>
   8f2f4:	b9400e81 	ldr	w1, [x20, #12]
   8f2f8:	7100083f 	cmp	w1, #0x2
   8f2fc:	54002260 	b.eq	8f748 <__gethex+0x6b0>  // b.none
   8f300:	71000c3f 	cmp	w1, #0x3
   8f304:	540024e0 	b.eq	8f7a0 <__gethex+0x708>  // b.none
   8f308:	7100043f 	cmp	w1, #0x1
   8f30c:	54002360 	b.eq	8f778 <__gethex+0x6e0>  // b.none
   8f310:	9e660100 	fmov	x0, d8
   8f314:	aa1903e1 	mov	x1, x25
   8f318:	52800a13 	mov	w19, #0x50                  	// #80
   8f31c:	940002f3 	bl	8fee8 <_Bfree>
   8f320:	f94043e0 	ldr	x0, [sp, #128]
   8f324:	f900001f 	str	xzr, [x0]
   8f328:	1400002d 	b	8f3dc <__gethex+0x344>
   8f32c:	b4001bb8 	cbz	x24, 8f6a0 <__gethex+0x608>
   8f330:	cb180324 	sub	x4, x25, x24
   8f334:	39400320 	ldrb	w0, [x25]
   8f338:	4b040bf6 	neg	w22, w4, lsl #2
   8f33c:	7101401f 	cmp	w0, #0x50
   8f340:	54fff301 	b.ne	8f1a0 <__gethex+0x108>  // b.any
   8f344:	d503201f 	nop
   8f348:	39400720 	ldrb	w0, [x25, #1]
   8f34c:	7100ac1f 	cmp	w0, #0x2b
   8f350:	54001900 	b.eq	8f670 <__gethex+0x5d8>  // b.none
   8f354:	7100b41f 	cmp	w0, #0x2d
   8f358:	54000b00 	b.eq	8f4b8 <__gethex+0x420>  // b.none
   8f35c:	3860cb80 	ldrb	w0, [x28, w0, sxtw]
   8f360:	91000728 	add	x8, x25, #0x1
   8f364:	52800009 	mov	w9, #0x0                   	// #0
   8f368:	aa1903f8 	mov	x24, x25
   8f36c:	51000401 	sub	w1, w0, #0x1
   8f370:	12001c21 	and	w1, w1, #0xff
   8f374:	7100603f 	cmp	w1, #0x18
   8f378:	54fff1a8 	b.hi	8f1ac <__gethex+0x114>  // b.pmore
   8f37c:	39400501 	ldrb	w1, [x8, #1]
   8f380:	51004000 	sub	w0, w0, #0x10
   8f384:	91000508 	add	x8, x8, #0x1
   8f388:	14000005 	b	8f39c <__gethex+0x304>
   8f38c:	0b000800 	add	w0, w0, w0, lsl #2
   8f390:	38401d01 	ldrb	w1, [x8, #1]!
   8f394:	0b000440 	add	w0, w2, w0, lsl #1
   8f398:	51004000 	sub	w0, w0, #0x10
   8f39c:	3861cb82 	ldrb	w2, [x28, w1, sxtw]
   8f3a0:	51000441 	sub	w1, w2, #0x1
   8f3a4:	12001c21 	and	w1, w1, #0xff
   8f3a8:	7100603f 	cmp	w1, #0x18
   8f3ac:	54ffff09 	b.ls	8f38c <__gethex+0x2f4>  // b.plast
   8f3b0:	7100013f 	cmp	w9, #0x0
   8f3b4:	aa1903f8 	mov	x24, x25
   8f3b8:	aa0803f9 	mov	x25, x8
   8f3bc:	f9000359 	str	x25, [x26]
   8f3c0:	5a800400 	cneg	w0, w0, ne  // ne = any
   8f3c4:	0b0002d6 	add	w22, w22, w0
   8f3c8:	34ffef67 	cbz	w7, 8f1b4 <__gethex+0x11c>
   8f3cc:	d503201f 	nop
   8f3d0:	7100007f 	cmp	w3, #0x0
   8f3d4:	528000d3 	mov	w19, #0x6                   	// #6
   8f3d8:	1a9313f3 	csel	w19, wzr, w19, ne  // ne = any
   8f3dc:	2a1303e0 	mov	w0, w19
   8f3e0:	fd4033e8 	ldr	d8, [sp, #96]
   8f3e4:	a94153f3 	ldp	x19, x20, [sp, #16]
   8f3e8:	a9425bf5 	ldp	x21, x22, [sp, #32]
   8f3ec:	a94363f7 	ldp	x23, x24, [sp, #48]
   8f3f0:	a9446bf9 	ldp	x25, x26, [sp, #64]
   8f3f4:	a94573fb 	ldp	x27, x28, [sp, #80]
   8f3f8:	a8cc7bfd 	ldp	x29, x30, [sp], #192
   8f3fc:	d65f03c0 	ret
   8f400:	aa0a03e0 	mov	x0, x10
   8f404:	52800001 	mov	w1, #0x0                   	// #0
   8f408:	aa0303ea 	mov	x10, x3
   8f40c:	5280009a 	mov	w26, #0x4                   	// #4
   8f410:	b8008408 	str	w8, [x0], #8
   8f414:	52800008 	mov	w8, #0x0                   	// #0
   8f418:	aa0003e3 	mov	x3, x0
   8f41c:	17ffff7f 	b	8f218 <__gethex+0x180>
   8f420:	aa1703e2 	mov	x2, x23
   8f424:	aa1303e1 	mov	x1, x19
   8f428:	aa1b03e0 	mov	x0, x27
   8f42c:	b9007be3 	str	w3, [sp, #120]
   8f430:	97fff70b 	bl	8d05c <strncmp>
   8f434:	b9407be3 	ldr	w3, [sp, #120]
   8f438:	35000a60 	cbnz	w0, 8f584 <__gethex+0x4ec>
   8f43c:	38776b61 	ldrb	w1, [x27, x23]
   8f440:	8b170379 	add	x25, x27, x23
   8f444:	3861cb80 	ldrb	w0, [x28, w1, sxtw]
   8f448:	34000a20 	cbz	w0, 8f58c <__gethex+0x4f4>
   8f44c:	aa1903fb 	mov	x27, x25
   8f450:	7100c03f 	cmp	w1, #0x30
   8f454:	540000a1 	b.ne	8f468 <__gethex+0x3d0>  // b.any
   8f458:	38401f60 	ldrb	w0, [x27, #1]!
   8f45c:	7100c01f 	cmp	w0, #0x30
   8f460:	54ffffc0 	b.eq	8f458 <__gethex+0x3c0>  // b.none
   8f464:	3860cb80 	ldrb	w0, [x28, w0, sxtw]
   8f468:	7100001f 	cmp	w0, #0x0
   8f46c:	aa1903f8 	mov	x24, x25
   8f470:	1a9f17e7 	cset	w7, eq  // eq = none
   8f474:	52800023 	mov	w3, #0x1                   	// #1
   8f478:	17ffff33 	b	8f144 <__gethex+0xac>
   8f47c:	52800033 	mov	w19, #0x1                   	// #1
   8f480:	3400013a 	cbz	w26, 8f4a4 <__gethex+0x40c>
   8f484:	b9400e80 	ldr	w0, [x20, #12]
   8f488:	7100081f 	cmp	w0, #0x2
   8f48c:	540008c0 	b.eq	8f5a4 <__gethex+0x50c>  // b.none
   8f490:	71000c1f 	cmp	w0, #0x3
   8f494:	54000900 	b.eq	8f5b4 <__gethex+0x51c>  // b.none
   8f498:	7100041f 	cmp	w0, #0x1
   8f49c:	54000dc0 	b.eq	8f654 <__gethex+0x5bc>  // b.none
   8f4a0:	321c0273 	orr	w19, w19, #0x10
   8f4a4:	f94043e0 	ldr	x0, [sp, #128]
   8f4a8:	f9000019 	str	x25, [x0]
   8f4ac:	f9404be0 	ldr	x0, [sp, #144]
   8f4b0:	b9000016 	str	w22, [x0]
   8f4b4:	17ffffca 	b	8f3dc <__gethex+0x344>
   8f4b8:	52800029 	mov	w9, #0x1                   	// #1
   8f4bc:	39400b20 	ldrb	w0, [x25, #2]
   8f4c0:	91000b28 	add	x8, x25, #0x2
   8f4c4:	aa1903f8 	mov	x24, x25
   8f4c8:	3860cb80 	ldrb	w0, [x28, w0, sxtw]
   8f4cc:	51000401 	sub	w1, w0, #0x1
   8f4d0:	12001c21 	and	w1, w1, #0xff
   8f4d4:	7100603f 	cmp	w1, #0x18
   8f4d8:	54ffe6a8 	b.hi	8f1ac <__gethex+0x114>  // b.pmore
   8f4dc:	17ffffa8 	b	8f37c <__gethex+0x2e4>
   8f4e0:	4b180273 	sub	w19, w19, w24
   8f4e4:	aa1903e0 	mov	x0, x25
   8f4e8:	2a1303e1 	mov	w1, w19
   8f4ec:	940005b9 	bl	90bd0 <__any_on>
   8f4f0:	2a0003fa 	mov	w26, w0
   8f4f4:	340001a0 	cbz	w0, 8f528 <__gethex+0x490>
   8f4f8:	51000661 	sub	w1, w19, #0x1
   8f4fc:	52800020 	mov	w0, #0x1                   	// #1
   8f500:	f9403fe3 	ldr	x3, [sp, #120]
   8f504:	13057c22 	asr	w2, w1, #5
   8f508:	2a0003fa 	mov	w26, w0
   8f50c:	1ac12000 	lsl	w0, w0, w1
   8f510:	b862d862 	ldr	w2, [x3, w2, sxtw #2]
   8f514:	6a02001f 	tst	w0, w2
   8f518:	54000080 	b.eq	8f528 <__gethex+0x490>  // b.none
   8f51c:	6b1a003f 	cmp	w1, w26
   8f520:	5400108c 	b.gt	8f730 <__gethex+0x698>
   8f524:	5280005a 	mov	w26, #0x2                   	// #2
   8f528:	0b1302d6 	add	w22, w22, w19
   8f52c:	2a1303e1 	mov	w1, w19
   8f530:	aa1903e0 	mov	x0, x25
   8f534:	97fffe93 	bl	8ef80 <rshift>
   8f538:	17ffff66 	b	8f2d0 <__gethex+0x238>
   8f53c:	510006db 	sub	w27, w22, #0x1
   8f540:	35000eba 	cbnz	w26, 8f714 <__gethex+0x67c>
   8f544:	35000edb 	cbnz	w27, 8f71c <__gethex+0x684>
   8f548:	f9403fe4 	ldr	x4, [sp, #120]
   8f54c:	13057f60 	asr	w0, w27, #5
   8f550:	52800022 	mov	w2, #0x1                   	// #1
   8f554:	321f0343 	orr	w3, w26, #0x2
   8f558:	1adb2042 	lsl	w2, w2, w27
   8f55c:	2a1603e1 	mov	w1, w22
   8f560:	b860d884 	ldr	w4, [x4, w0, sxtw #2]
   8f564:	4b160318 	sub	w24, w24, w22
   8f568:	aa1903e0 	mov	x0, x25
   8f56c:	52800053 	mov	w19, #0x2                   	// #2
   8f570:	6a04005f 	tst	w2, w4
   8f574:	1a9a107a 	csel	w26, w3, w26, ne  // ne = any
   8f578:	97fffe82 	bl	8ef80 <rshift>
   8f57c:	b9400696 	ldr	w22, [x20, #4]
   8f580:	17ffffc0 	b	8f480 <__gethex+0x3e8>
   8f584:	39400361 	ldrb	w1, [x27]
   8f588:	aa1b03f9 	mov	x25, x27
   8f58c:	7101403f 	cmp	w1, #0x50
   8f590:	54000a60 	b.eq	8f6dc <__gethex+0x644>  // b.none
   8f594:	7101c03f 	cmp	w1, #0x70
   8f598:	54000a20 	b.eq	8f6dc <__gethex+0x644>  // b.none
   8f59c:	f9000359 	str	x25, [x26]
   8f5a0:	17ffff8c 	b	8f3d0 <__gethex+0x338>
   8f5a4:	b9409be1 	ldr	w1, [sp, #152]
   8f5a8:	52800020 	mov	w0, #0x1                   	// #1
   8f5ac:	4b010000 	sub	w0, w0, w1
   8f5b0:	b9009be0 	str	w0, [sp, #152]
   8f5b4:	b9409be0 	ldr	w0, [sp, #152]
   8f5b8:	34fff740 	cbz	w0, 8f4a0 <__gethex+0x408>
   8f5bc:	b9401737 	ldr	w23, [x25, #20]
   8f5c0:	f9403fe3 	ldr	x3, [sp, #120]
   8f5c4:	937e7efa 	sbfiz	x26, x23, #2, #32
   8f5c8:	aa0303e0 	mov	x0, x3
   8f5cc:	8b1a0062 	add	x2, x3, x26
   8f5d0:	14000004 	b	8f5e0 <__gethex+0x548>
   8f5d4:	b800441f 	str	wzr, [x0], #4
   8f5d8:	eb00005f 	cmp	x2, x0
   8f5dc:	54000e89 	b.ls	8f7ac <__gethex+0x714>  // b.plast
   8f5e0:	b9400001 	ldr	w1, [x0]
   8f5e4:	3100043f 	cmn	w1, #0x1
   8f5e8:	54ffff60 	b.eq	8f5d4 <__gethex+0x53c>  // b.none
   8f5ec:	11000421 	add	w1, w1, #0x1
   8f5f0:	b9000001 	str	w1, [x0]
   8f5f4:	71000a7f 	cmp	w19, #0x2
   8f5f8:	54000ee0 	b.eq	8f7d4 <__gethex+0x73c>  // b.none
   8f5fc:	b9401720 	ldr	w0, [x25, #20]
   8f600:	6b17001f 	cmp	w0, w23
   8f604:	5400016c 	b.gt	8f630 <__gethex+0x598>
   8f608:	72001317 	ands	w23, w24, #0x1f
   8f60c:	52800433 	mov	w19, #0x21                  	// #33
   8f610:	54fff4a0 	b.eq	8f4a4 <__gethex+0x40c>  // b.none
   8f614:	8b1a0060 	add	x0, x3, x26
   8f618:	b85fc000 	ldur	w0, [x0, #-4]
   8f61c:	940002bf 	bl	90118 <__hi0bits>
   8f620:	52800401 	mov	w1, #0x20                  	// #32
   8f624:	4b170037 	sub	w23, w1, w23
   8f628:	6b17001f 	cmp	w0, w23
   8f62c:	54fff3ca 	b.ge	8f4a4 <__gethex+0x40c>  // b.tcont
   8f630:	aa1903e0 	mov	x0, x25
   8f634:	52800021 	mov	w1, #0x1                   	// #1
   8f638:	97fffe52 	bl	8ef80 <rshift>
   8f63c:	110006d6 	add	w22, w22, #0x1
   8f640:	b9400a80 	ldr	w0, [x20, #8]
   8f644:	6b16001f 	cmp	w0, w22
   8f648:	5400050b 	b.lt	8f6e8 <__gethex+0x650>  // b.tstop
   8f64c:	52800433 	mov	w19, #0x21                  	// #33
   8f650:	17ffff95 	b	8f4a4 <__gethex+0x40c>
   8f654:	360ff27a 	tbz	w26, #1, 8f4a0 <__gethex+0x408>
   8f658:	f9403fe0 	ldr	x0, [sp, #120]
   8f65c:	b9400000 	ldr	w0, [x0]
   8f660:	2a000340 	orr	w0, w26, w0
   8f664:	3707fac0 	tbnz	w0, #0, 8f5bc <__gethex+0x524>
   8f668:	321c0273 	orr	w19, w19, #0x10
   8f66c:	17ffff8e 	b	8f4a4 <__gethex+0x40c>
   8f670:	52800009 	mov	w9, #0x0                   	// #0
   8f674:	17ffff92 	b	8f4bc <__gethex+0x424>
   8f678:	9e660100 	fmov	x0, d8
   8f67c:	4b130313 	sub	w19, w24, w19
   8f680:	aa1903e1 	mov	x1, x25
   8f684:	2a1303e2 	mov	w2, w19
   8f688:	4b1302d6 	sub	w22, w22, w19
   8f68c:	940003a9 	bl	90530 <__lshift>
   8f690:	aa0003f9 	mov	x25, x0
   8f694:	91006000 	add	x0, x0, #0x18
   8f698:	f9003fe0 	str	x0, [sp, #120]
   8f69c:	17ffff0d 	b	8f2d0 <__gethex+0x238>
   8f6a0:	38776b20 	ldrb	w0, [x25, x23]
   8f6a4:	8b170322 	add	x2, x25, x23
   8f6a8:	aa0203f9 	mov	x25, x2
   8f6ac:	3860cb81 	ldrb	w1, [x28, w0, sxtw]
   8f6b0:	34ffd741 	cbz	w1, 8f198 <__gethex+0x100>
   8f6b4:	d503201f 	nop
   8f6b8:	38401f20 	ldrb	w0, [x25, #1]!
   8f6bc:	3860cb81 	ldrb	w1, [x28, w0, sxtw]
   8f6c0:	35ffffc1 	cbnz	w1, 8f6b8 <__gethex+0x620>
   8f6c4:	cb020322 	sub	x2, x25, x2
   8f6c8:	4b020bf6 	neg	w22, w2, lsl #2
   8f6cc:	17fffeb3 	b	8f198 <__gethex+0x100>
   8f6d0:	9100081b 	add	x27, x0, #0x2
   8f6d4:	52800003 	mov	w3, #0x0                   	// #0
   8f6d8:	17fffe93 	b	8f124 <__gethex+0x8c>
   8f6dc:	52800016 	mov	w22, #0x0                   	// #0
   8f6e0:	52800027 	mov	w7, #0x1                   	// #1
   8f6e4:	17ffff19 	b	8f348 <__gethex+0x2b0>
   8f6e8:	9e660100 	fmov	x0, d8
   8f6ec:	aa1903e1 	mov	x1, x25
   8f6f0:	52801473 	mov	w19, #0xa3                  	// #163
   8f6f4:	940001fd 	bl	8fee8 <_Bfree>
   8f6f8:	f94043e0 	ldr	x0, [sp, #128]
   8f6fc:	f900001f 	str	xzr, [x0]
   8f700:	17ffff37 	b	8f3dc <__gethex+0x344>
   8f704:	91007003 	add	x3, x0, #0x1c
   8f708:	52800008 	mov	w8, #0x0                   	// #0
   8f70c:	f9403fea 	ldr	x10, [sp, #120]
   8f710:	17fffee2 	b	8f298 <__gethex+0x200>
   8f714:	5280003a 	mov	w26, #0x1                   	// #1
   8f718:	17ffff8c 	b	8f548 <__gethex+0x4b0>
   8f71c:	2a1b03e1 	mov	w1, w27
   8f720:	aa1903e0 	mov	x0, x25
   8f724:	9400052b 	bl	90bd0 <__any_on>
   8f728:	2a0003fa 	mov	w26, w0
   8f72c:	17ffff87 	b	8f548 <__gethex+0x4b0>
   8f730:	51000a61 	sub	w1, w19, #0x2
   8f734:	aa1903e0 	mov	x0, x25
   8f738:	5280007a 	mov	w26, #0x3                   	// #3
   8f73c:	94000525 	bl	90bd0 <__any_on>
   8f740:	35ffef40 	cbnz	w0, 8f528 <__gethex+0x490>
   8f744:	17ffff78 	b	8f524 <__gethex+0x48c>
   8f748:	b9409be1 	ldr	w1, [sp, #152]
   8f74c:	35ffde21 	cbnz	w1, 8f310 <__gethex+0x278>
   8f750:	f9404be1 	ldr	x1, [sp, #144]
   8f754:	52800c53 	mov	w19, #0x62                  	// #98
   8f758:	b9000020 	str	w0, [x1]
   8f75c:	52800020 	mov	w0, #0x1                   	// #1
   8f760:	f9403fe1 	ldr	x1, [sp, #120]
   8f764:	b9001720 	str	w0, [x25, #20]
   8f768:	b9000020 	str	w0, [x1]
   8f76c:	f94043e0 	ldr	x0, [sp, #128]
   8f770:	f9000019 	str	x25, [x0]
   8f774:	17ffff1a 	b	8f3dc <__gethex+0x344>
   8f778:	6b16031f 	cmp	w24, w22
   8f77c:	54ffdca1 	b.ne	8f310 <__gethex+0x278>  // b.any
   8f780:	7100071f 	cmp	w24, #0x1
   8f784:	54fffe60 	b.eq	8f750 <__gethex+0x6b8>  // b.none
   8f788:	51000701 	sub	w1, w24, #0x1
   8f78c:	aa1903e0 	mov	x0, x25
   8f790:	94000510 	bl	90bd0 <__any_on>
   8f794:	34ffdbe0 	cbz	w0, 8f310 <__gethex+0x278>
   8f798:	b9400680 	ldr	w0, [x20, #4]
   8f79c:	17ffffed 	b	8f750 <__gethex+0x6b8>
   8f7a0:	b9409be1 	ldr	w1, [sp, #152]
   8f7a4:	34ffdb61 	cbz	w1, 8f310 <__gethex+0x278>
   8f7a8:	17ffffea 	b	8f750 <__gethex+0x6b8>
   8f7ac:	b9400f21 	ldr	w1, [x25, #12]
   8f7b0:	b9401720 	ldr	w0, [x25, #20]
   8f7b4:	6b01001f 	cmp	w0, w1
   8f7b8:	5400028a 	b.ge	8f808 <__gethex+0x770>  // b.tcont
   8f7bc:	8b20cb21 	add	x1, x25, w0, sxtw #2
   8f7c0:	11000400 	add	w0, w0, #0x1
   8f7c4:	b9001720 	str	w0, [x25, #20]
   8f7c8:	52800020 	mov	w0, #0x1                   	// #1
   8f7cc:	b9001820 	str	w0, [x1, #24]
   8f7d0:	17ffff89 	b	8f5f4 <__gethex+0x55c>
   8f7d4:	b9400280 	ldr	w0, [x20]
   8f7d8:	52800453 	mov	w19, #0x22                  	// #34
   8f7dc:	51000400 	sub	w0, w0, #0x1
   8f7e0:	6b18001f 	cmp	w0, w24
   8f7e4:	54ffe601 	b.ne	8f4a4 <__gethex+0x40c>  // b.any
   8f7e8:	13057f00 	asr	w0, w24, #5
   8f7ec:	52800037 	mov	w23, #0x1                   	// #1
   8f7f0:	1ad822f7 	lsl	w23, w23, w24
   8f7f4:	b860d860 	ldr	w0, [x3, w0, sxtw #2]
   8f7f8:	6a0002ff 	tst	w23, w0
   8f7fc:	1a9f17f3 	cset	w19, eq  // eq = none
   8f800:	11008673 	add	w19, w19, #0x21
   8f804:	17ffff28 	b	8f4a4 <__gethex+0x40c>
   8f808:	9e660100 	fmov	x0, d8
   8f80c:	b9400b21 	ldr	w1, [x25, #8]
   8f810:	11000421 	add	w1, w1, #0x1
   8f814:	94000191 	bl	8fe58 <_Balloc>
   8f818:	aa0003f5 	mov	x21, x0
   8f81c:	b9801722 	ldrsw	x2, [x25, #20]
   8f820:	91004321 	add	x1, x25, #0x10
   8f824:	91004000 	add	x0, x0, #0x10
   8f828:	91000842 	add	x2, x2, #0x2
   8f82c:	d37ef442 	lsl	x2, x2, #2
   8f830:	940000b4 	bl	8fb00 <memcpy>
   8f834:	9e660100 	fmov	x0, d8
   8f838:	aa1903e1 	mov	x1, x25
   8f83c:	aa1503f9 	mov	x25, x21
   8f840:	940001aa 	bl	8fee8 <_Bfree>
   8f844:	910062a3 	add	x3, x21, #0x18
   8f848:	b94016a0 	ldr	w0, [x21, #20]
   8f84c:	17ffffdc 	b	8f7bc <__gethex+0x724>

000000000008f850 <__match>:
   8f850:	aa0003e7 	mov	x7, x0
   8f854:	f9400003 	ldr	x3, [x0]
   8f858:	14000008 	b	8f878 <__match+0x28>
   8f85c:	39400062 	ldrb	w2, [x3]
   8f860:	51010446 	sub	w6, w2, #0x41
   8f864:	11008045 	add	w5, w2, #0x20
   8f868:	710068df 	cmp	w6, #0x1a
   8f86c:	1a8230a2 	csel	w2, w5, w2, cc  // cc = lo, ul, last
   8f870:	6b04005f 	cmp	w2, w4
   8f874:	540000e1 	b.ne	8f890 <__match+0x40>  // b.any
   8f878:	38401424 	ldrb	w4, [x1], #1
   8f87c:	91000463 	add	x3, x3, #0x1
   8f880:	35fffee4 	cbnz	w4, 8f85c <__match+0xc>
   8f884:	52800020 	mov	w0, #0x1                   	// #1
   8f888:	f90000e3 	str	x3, [x7]
   8f88c:	d65f03c0 	ret
   8f890:	52800000 	mov	w0, #0x0                   	// #0
   8f894:	d65f03c0 	ret

000000000008f898 <__hexnan>:
   8f898:	b9400021 	ldr	w1, [x1]
   8f89c:	7200102f 	ands	w15, w1, #0x1f
   8f8a0:	13057c21 	asr	w1, w1, #5
   8f8a4:	8b21c841 	add	x1, x2, w1, sxtw #2
   8f8a8:	54000e21 	b.ne	8fa6c <__hexnan+0x1d4>  // b.any
   8f8ac:	d1001029 	sub	x9, x1, #0x4
   8f8b0:	aa0103ee 	mov	x14, x1
   8f8b4:	f9400006 	ldr	x6, [x0]
   8f8b8:	b81fc1df 	stur	wzr, [x14, #-4]
   8f8bc:	d000002c 	adrp	x12, 95000 <BitFont+0xb40>
   8f8c0:	aa0903eb 	mov	x11, x9
   8f8c4:	911f818c 	add	x12, x12, #0x7e0
   8f8c8:	aa0903e5 	mov	x5, x9
   8f8cc:	394004c4 	ldrb	w4, [x6, #1]
   8f8d0:	52800003 	mov	w3, #0x0                   	// #0
   8f8d4:	52800010 	mov	w16, #0x0                   	// #0
   8f8d8:	5280000a 	mov	w10, #0x0                   	// #0
   8f8dc:	52800112 	mov	w18, #0x8                   	// #8
   8f8e0:	52800411 	mov	w17, #0x20                  	// #32
   8f8e4:	910004c8 	add	x8, x6, #0x1
   8f8e8:	340002e4 	cbz	w4, 8f944 <__hexnan+0xac>
   8f8ec:	d503201f 	nop
   8f8f0:	38644981 	ldrb	w1, [x12, w4, uxtw]
   8f8f4:	350007a1 	cbnz	w1, 8f9e8 <__hexnan+0x150>
   8f8f8:	7100809f 	cmp	w4, #0x20
   8f8fc:	54000ce8 	b.hi	8fa98 <__hexnan+0x200>  // b.pmore
   8f900:	6b10015f 	cmp	w10, w16
   8f904:	5400018d 	b.le	8f934 <__hexnan+0x9c>
   8f908:	eb0b00bf 	cmp	x5, x11
   8f90c:	7a473860 	ccmp	w3, #0x7, #0x0, cc  // cc = lo, ul, last
   8f910:	5400090d 	b.le	8fa30 <__hexnan+0x198>
   8f914:	eb0200bf 	cmp	x5, x2
   8f918:	52800103 	mov	w3, #0x8                   	// #8
   8f91c:	540000c9 	b.ls	8f934 <__hexnan+0x9c>  // b.plast
   8f920:	d10010ab 	sub	x11, x5, #0x4
   8f924:	2a0a03f0 	mov	w16, w10
   8f928:	b81fc0bf 	stur	wzr, [x5, #-4]
   8f92c:	aa0b03e5 	mov	x5, x11
   8f930:	52800003 	mov	w3, #0x0                   	// #0
   8f934:	aa0803e6 	mov	x6, x8
   8f938:	394004c4 	ldrb	w4, [x6, #1]
   8f93c:	910004c8 	add	x8, x6, #0x1
   8f940:	35fffd84 	cbnz	w4, 8f8f0 <__hexnan+0x58>
   8f944:	34000aea 	cbz	w10, 8faa0 <__hexnan+0x208>
   8f948:	eb0b00bf 	cmp	x5, x11
   8f94c:	7a473860 	ccmp	w3, #0x7, #0x0, cc  // cc = lo, ul, last
   8f950:	5400020c 	b.gt	8f990 <__hexnan+0xf8>
   8f954:	52800106 	mov	w6, #0x8                   	// #8
   8f958:	4b0300c6 	sub	w6, w6, w3
   8f95c:	b94000a3 	ldr	w3, [x5]
   8f960:	52800407 	mov	w7, #0x20                  	// #32
   8f964:	531e74c6 	lsl	w6, w6, #2
   8f968:	aa0503e0 	mov	x0, x5
   8f96c:	4b0600e7 	sub	w7, w7, w6
   8f970:	b9400404 	ldr	w4, [x0, #4]
   8f974:	1ac72081 	lsl	w1, w4, w7
   8f978:	2a030021 	orr	w1, w1, w3
   8f97c:	1ac62483 	lsr	w3, w4, w6
   8f980:	b9000001 	str	w1, [x0]
   8f984:	b8004c03 	str	w3, [x0, #4]!
   8f988:	eb00017f 	cmp	x11, x0
   8f98c:	54ffff28 	b.hi	8f970 <__hexnan+0xd8>  // b.pmore
   8f990:	eb0200bf 	cmp	x5, x2
   8f994:	54000729 	b.ls	8fa78 <__hexnan+0x1e0>  // b.plast
   8f998:	aa0203e0 	mov	x0, x2
   8f99c:	d503201f 	nop
   8f9a0:	b84044a1 	ldr	w1, [x5], #4
   8f9a4:	b8004401 	str	w1, [x0], #4
   8f9a8:	eb0900bf 	cmp	x5, x9
   8f9ac:	54ffffa9 	b.ls	8f9a0 <__hexnan+0x108>  // b.plast
   8f9b0:	b800441f 	str	wzr, [x0], #4
   8f9b4:	eb09001f 	cmp	x0, x9
   8f9b8:	54ffffc9 	b.ls	8f9b0 <__hexnan+0x118>  // b.plast
   8f9bc:	b85fc1c0 	ldur	w0, [x14, #-4]
   8f9c0:	35000100 	cbnz	w0, 8f9e0 <__hexnan+0x148>
   8f9c4:	eb09005f 	cmp	x2, x9
   8f9c8:	54000061 	b.ne	8f9d4 <__hexnan+0x13c>  // b.any
   8f9cc:	14000037 	b	8faa8 <__hexnan+0x210>
   8f9d0:	540006c0 	b.eq	8faa8 <__hexnan+0x210>  // b.none
   8f9d4:	b85fcd20 	ldr	w0, [x9, #-4]!
   8f9d8:	eb09005f 	cmp	x2, x9
   8f9dc:	34ffffa0 	cbz	w0, 8f9d0 <__hexnan+0x138>
   8f9e0:	528000a0 	mov	w0, #0x5                   	// #5
   8f9e4:	d65f03c0 	ret
   8f9e8:	11000463 	add	w3, w3, #0x1
   8f9ec:	1100054a 	add	w10, w10, #0x1
   8f9f0:	7100207f 	cmp	w3, #0x8
   8f9f4:	5400010c 	b.gt	8fa14 <__hexnan+0x17c>
   8f9f8:	b94000a4 	ldr	w4, [x5]
   8f9fc:	531c6c84 	lsl	w4, w4, #4
   8fa00:	12000c21 	and	w1, w1, #0xf
   8fa04:	aa0803e6 	mov	x6, x8
   8fa08:	2a040021 	orr	w1, w1, w4
   8fa0c:	b90000a1 	str	w1, [x5]
   8fa10:	17ffffca 	b	8f938 <__hexnan+0xa0>
   8fa14:	eb0200bf 	cmp	x5, x2
   8fa18:	54fff8e9 	b.ls	8f934 <__hexnan+0x9c>  // b.plast
   8fa1c:	52800004 	mov	w4, #0x0                   	// #0
   8fa20:	52800023 	mov	w3, #0x1                   	// #1
   8fa24:	d10010a5 	sub	x5, x5, #0x4
   8fa28:	b90000bf 	str	wzr, [x5]
   8fa2c:	17fffff5 	b	8fa00 <__hexnan+0x168>
   8fa30:	4b030243 	sub	w3, w18, w3
   8fa34:	b94000a6 	ldr	w6, [x5]
   8fa38:	aa0503e1 	mov	x1, x5
   8fa3c:	531e7463 	lsl	w3, w3, #2
   8fa40:	4b03022d 	sub	w13, w17, w3
   8fa44:	d503201f 	nop
   8fa48:	b9400427 	ldr	w7, [x1, #4]
   8fa4c:	1acd20e4 	lsl	w4, w7, w13
   8fa50:	2a060084 	orr	w4, w4, w6
   8fa54:	1ac324e6 	lsr	w6, w7, w3
   8fa58:	b9000024 	str	w4, [x1]
   8fa5c:	b8004c26 	str	w6, [x1, #4]!
   8fa60:	eb01017f 	cmp	x11, x1
   8fa64:	54ffff28 	b.hi	8fa48 <__hexnan+0x1b0>  // b.pmore
   8fa68:	17ffffab 	b	8f914 <__hexnan+0x7c>
   8fa6c:	9100102e 	add	x14, x1, #0x4
   8fa70:	aa0103e9 	mov	x9, x1
   8fa74:	17ffff90 	b	8f8b4 <__hexnan+0x1c>
   8fa78:	b85fc1c0 	ldur	w0, [x14, #-4]
   8fa7c:	34fffa2f 	cbz	w15, 8f9c0 <__hexnan+0x128>
   8fa80:	4b0f03ef 	neg	w15, w15
   8fa84:	12800001 	mov	w1, #0xffffffff            	// #-1
   8fa88:	1acf242f 	lsr	w15, w1, w15
   8fa8c:	0a0f0000 	and	w0, w0, w15
   8fa90:	b81fc1c0 	stur	w0, [x14, #-4]
   8fa94:	17ffffcb 	b	8f9c0 <__hexnan+0x128>
   8fa98:	7100a49f 	cmp	w4, #0x29
   8fa9c:	540000e0 	b.eq	8fab8 <__hexnan+0x220>  // b.none
   8faa0:	52800080 	mov	w0, #0x4                   	// #4
   8faa4:	d65f03c0 	ret
   8faa8:	52800021 	mov	w1, #0x1                   	// #1
   8faac:	528000a0 	mov	w0, #0x5                   	// #5
   8fab0:	b9000121 	str	w1, [x9]
   8fab4:	d65f03c0 	ret
   8fab8:	910008c6 	add	x6, x6, #0x2
   8fabc:	f9000006 	str	x6, [x0]
   8fac0:	17ffffa1 	b	8f944 <__hexnan+0xac>
   8fac4:	00000000 	.inst	0x00000000 ; undefined

000000000008fac8 <__localeconv_l>:
   8fac8:	91040000 	add	x0, x0, #0x100
   8facc:	d65f03c0 	ret
	...

000000000008fb00 <memcpy>:
   8fb00:	f9800020 	prfm	pldl1keep, [x1]
   8fb04:	8b020024 	add	x4, x1, x2
   8fb08:	8b020005 	add	x5, x0, x2
   8fb0c:	f100405f 	cmp	x2, #0x10
   8fb10:	54000209 	b.ls	8fb50 <memcpy+0x50>  // b.plast
   8fb14:	f101805f 	cmp	x2, #0x60
   8fb18:	54000648 	b.hi	8fbe0 <memcpy+0xe0>  // b.pmore
   8fb1c:	d1000449 	sub	x9, x2, #0x1
   8fb20:	a9401c26 	ldp	x6, x7, [x1]
   8fb24:	37300469 	tbnz	w9, #6, 8fbb0 <memcpy+0xb0>
   8fb28:	a97f348c 	ldp	x12, x13, [x4, #-16]
   8fb2c:	362800a9 	tbz	w9, #5, 8fb40 <memcpy+0x40>
   8fb30:	a9412428 	ldp	x8, x9, [x1, #16]
   8fb34:	a97e2c8a 	ldp	x10, x11, [x4, #-32]
   8fb38:	a9012408 	stp	x8, x9, [x0, #16]
   8fb3c:	a93e2caa 	stp	x10, x11, [x5, #-32]
   8fb40:	a9001c06 	stp	x6, x7, [x0]
   8fb44:	a93f34ac 	stp	x12, x13, [x5, #-16]
   8fb48:	d65f03c0 	ret
   8fb4c:	d503201f 	nop
   8fb50:	f100205f 	cmp	x2, #0x8
   8fb54:	540000e3 	b.cc	8fb70 <memcpy+0x70>  // b.lo, b.ul, b.last
   8fb58:	f9400026 	ldr	x6, [x1]
   8fb5c:	f85f8087 	ldur	x7, [x4, #-8]
   8fb60:	f9000006 	str	x6, [x0]
   8fb64:	f81f80a7 	stur	x7, [x5, #-8]
   8fb68:	d65f03c0 	ret
   8fb6c:	d503201f 	nop
   8fb70:	361000c2 	tbz	w2, #2, 8fb88 <memcpy+0x88>
   8fb74:	b9400026 	ldr	w6, [x1]
   8fb78:	b85fc087 	ldur	w7, [x4, #-4]
   8fb7c:	b9000006 	str	w6, [x0]
   8fb80:	b81fc0a7 	stur	w7, [x5, #-4]
   8fb84:	d65f03c0 	ret
   8fb88:	b4000102 	cbz	x2, 8fba8 <memcpy+0xa8>
   8fb8c:	d341fc49 	lsr	x9, x2, #1
   8fb90:	39400026 	ldrb	w6, [x1]
   8fb94:	385ff087 	ldurb	w7, [x4, #-1]
   8fb98:	38696828 	ldrb	w8, [x1, x9]
   8fb9c:	39000006 	strb	w6, [x0]
   8fba0:	38296808 	strb	w8, [x0, x9]
   8fba4:	381ff0a7 	sturb	w7, [x5, #-1]
   8fba8:	d65f03c0 	ret
   8fbac:	d503201f 	nop
   8fbb0:	a9412428 	ldp	x8, x9, [x1, #16]
   8fbb4:	a9422c2a 	ldp	x10, x11, [x1, #32]
   8fbb8:	a943342c 	ldp	x12, x13, [x1, #48]
   8fbbc:	a97e0881 	ldp	x1, x2, [x4, #-32]
   8fbc0:	a97f0c84 	ldp	x4, x3, [x4, #-16]
   8fbc4:	a9001c06 	stp	x6, x7, [x0]
   8fbc8:	a9012408 	stp	x8, x9, [x0, #16]
   8fbcc:	a9022c0a 	stp	x10, x11, [x0, #32]
   8fbd0:	a903340c 	stp	x12, x13, [x0, #48]
   8fbd4:	a93e08a1 	stp	x1, x2, [x5, #-32]
   8fbd8:	a93f0ca4 	stp	x4, x3, [x5, #-16]
   8fbdc:	d65f03c0 	ret
   8fbe0:	92400c09 	and	x9, x0, #0xf
   8fbe4:	927cec03 	and	x3, x0, #0xfffffffffffffff0
   8fbe8:	a940342c 	ldp	x12, x13, [x1]
   8fbec:	cb090021 	sub	x1, x1, x9
   8fbf0:	8b090042 	add	x2, x2, x9
   8fbf4:	a9411c26 	ldp	x6, x7, [x1, #16]
   8fbf8:	a900340c 	stp	x12, x13, [x0]
   8fbfc:	a9422428 	ldp	x8, x9, [x1, #32]
   8fc00:	a9432c2a 	ldp	x10, x11, [x1, #48]
   8fc04:	a9c4342c 	ldp	x12, x13, [x1, #64]!
   8fc08:	f1024042 	subs	x2, x2, #0x90
   8fc0c:	54000169 	b.ls	8fc38 <memcpy+0x138>  // b.plast
   8fc10:	a9011c66 	stp	x6, x7, [x3, #16]
   8fc14:	a9411c26 	ldp	x6, x7, [x1, #16]
   8fc18:	a9022468 	stp	x8, x9, [x3, #32]
   8fc1c:	a9422428 	ldp	x8, x9, [x1, #32]
   8fc20:	a9032c6a 	stp	x10, x11, [x3, #48]
   8fc24:	a9432c2a 	ldp	x10, x11, [x1, #48]
   8fc28:	a984346c 	stp	x12, x13, [x3, #64]!
   8fc2c:	a9c4342c 	ldp	x12, x13, [x1, #64]!
   8fc30:	f1010042 	subs	x2, x2, #0x40
   8fc34:	54fffee8 	b.hi	8fc10 <memcpy+0x110>  // b.pmore
   8fc38:	a97c0881 	ldp	x1, x2, [x4, #-64]
   8fc3c:	a9011c66 	stp	x6, x7, [x3, #16]
   8fc40:	a97d1c86 	ldp	x6, x7, [x4, #-48]
   8fc44:	a9022468 	stp	x8, x9, [x3, #32]
   8fc48:	a97e2488 	ldp	x8, x9, [x4, #-32]
   8fc4c:	a9032c6a 	stp	x10, x11, [x3, #48]
   8fc50:	a97f2c8a 	ldp	x10, x11, [x4, #-16]
   8fc54:	a904346c 	stp	x12, x13, [x3, #64]
   8fc58:	a93c08a1 	stp	x1, x2, [x5, #-64]
   8fc5c:	a93d1ca6 	stp	x6, x7, [x5, #-48]
   8fc60:	a93e24a8 	stp	x8, x9, [x5, #-32]
   8fc64:	a93f2caa 	stp	x10, x11, [x5, #-16]
   8fc68:	d65f03c0 	ret
	...

000000000008fc80 <memset>:
   8fc80:	4e010c20 	dup	v0.16b, w1
   8fc84:	8b020004 	add	x4, x0, x2
   8fc88:	f101805f 	cmp	x2, #0x60
   8fc8c:	540003c8 	b.hi	8fd04 <memset+0x84>  // b.pmore
   8fc90:	f100405f 	cmp	x2, #0x10
   8fc94:	54000202 	b.cs	8fcd4 <memset+0x54>  // b.hs, b.nlast
   8fc98:	4e083c01 	mov	x1, v0.d[0]
   8fc9c:	361800a2 	tbz	w2, #3, 8fcb0 <memset+0x30>
   8fca0:	f9000001 	str	x1, [x0]
   8fca4:	f81f8081 	stur	x1, [x4, #-8]
   8fca8:	d65f03c0 	ret
   8fcac:	d503201f 	nop
   8fcb0:	36100082 	tbz	w2, #2, 8fcc0 <memset+0x40>
   8fcb4:	b9000001 	str	w1, [x0]
   8fcb8:	b81fc081 	stur	w1, [x4, #-4]
   8fcbc:	d65f03c0 	ret
   8fcc0:	b4000082 	cbz	x2, 8fcd0 <memset+0x50>
   8fcc4:	39000001 	strb	w1, [x0]
   8fcc8:	36080042 	tbz	w2, #1, 8fcd0 <memset+0x50>
   8fccc:	781fe081 	sturh	w1, [x4, #-2]
   8fcd0:	d65f03c0 	ret
   8fcd4:	3d800000 	str	q0, [x0]
   8fcd8:	373000c2 	tbnz	w2, #6, 8fcf0 <memset+0x70>
   8fcdc:	3c9f0080 	stur	q0, [x4, #-16]
   8fce0:	36280062 	tbz	w2, #5, 8fcec <memset+0x6c>
   8fce4:	3d800400 	str	q0, [x0, #16]
   8fce8:	3c9e0080 	stur	q0, [x4, #-32]
   8fcec:	d65f03c0 	ret
   8fcf0:	3d800400 	str	q0, [x0, #16]
   8fcf4:	ad010000 	stp	q0, q0, [x0, #32]
   8fcf8:	ad3f0080 	stp	q0, q0, [x4, #-32]
   8fcfc:	d65f03c0 	ret
   8fd00:	d503201f 	nop
   8fd04:	12001c21 	and	w1, w1, #0xff
   8fd08:	927cec03 	and	x3, x0, #0xfffffffffffffff0
   8fd0c:	3d800000 	str	q0, [x0]
   8fd10:	f104005f 	cmp	x2, #0x100
   8fd14:	7a402820 	ccmp	w1, #0x0, #0x0, cs  // cs = hs, nlast
   8fd18:	54000180 	b.eq	8fd48 <memset+0xc8>  // b.none
   8fd1c:	cb030082 	sub	x2, x4, x3
   8fd20:	91004063 	add	x3, x3, #0x10
   8fd24:	d1014042 	sub	x2, x2, #0x50
   8fd28:	ac820060 	stp	q0, q0, [x3], #64
   8fd2c:	ad3f0060 	stp	q0, q0, [x3, #-32]
   8fd30:	f1010042 	subs	x2, x2, #0x40
   8fd34:	54ffffa8 	b.hi	8fd28 <memset+0xa8>  // b.pmore
   8fd38:	ad3e0080 	stp	q0, q0, [x4, #-64]
   8fd3c:	ad3f0080 	stp	q0, q0, [x4, #-32]
   8fd40:	d65f03c0 	ret
   8fd44:	d503201f 	nop
   8fd48:	d53b00e5 	mrs	x5, dczid_el0
   8fd4c:	3727fe85 	tbnz	w5, #4, 8fd1c <memset+0x9c>
   8fd50:	12000ca5 	and	w5, w5, #0xf
   8fd54:	710010bf 	cmp	w5, #0x4
   8fd58:	54000281 	b.ne	8fda8 <memset+0x128>  // b.any
   8fd5c:	3d800460 	str	q0, [x3, #16]
   8fd60:	ad010060 	stp	q0, q0, [x3, #32]
   8fd64:	927ae463 	and	x3, x3, #0xffffffffffffffc0
   8fd68:	ad020060 	stp	q0, q0, [x3, #64]
   8fd6c:	ad030060 	stp	q0, q0, [x3, #96]
   8fd70:	cb030082 	sub	x2, x4, x3
   8fd74:	d1040042 	sub	x2, x2, #0x100
   8fd78:	91020063 	add	x3, x3, #0x80
   8fd7c:	d503201f 	nop
   8fd80:	d50b7423 	dc	zva, x3
   8fd84:	91010063 	add	x3, x3, #0x40
   8fd88:	f1010042 	subs	x2, x2, #0x40
   8fd8c:	54ffffa8 	b.hi	8fd80 <memset+0x100>  // b.pmore
   8fd90:	ad000060 	stp	q0, q0, [x3]
   8fd94:	ad010060 	stp	q0, q0, [x3, #32]
   8fd98:	ad3e0080 	stp	q0, q0, [x4, #-64]
   8fd9c:	ad3f0080 	stp	q0, q0, [x4, #-32]
   8fda0:	d65f03c0 	ret
   8fda4:	d503201f 	nop
   8fda8:	710014bf 	cmp	w5, #0x5
   8fdac:	54000241 	b.ne	8fdf4 <memset+0x174>  // b.any
   8fdb0:	3d800460 	str	q0, [x3, #16]
   8fdb4:	ad010060 	stp	q0, q0, [x3, #32]
   8fdb8:	ad020060 	stp	q0, q0, [x3, #64]
   8fdbc:	ad030060 	stp	q0, q0, [x3, #96]
   8fdc0:	9279e063 	and	x3, x3, #0xffffffffffffff80
   8fdc4:	cb030082 	sub	x2, x4, x3
   8fdc8:	d1040042 	sub	x2, x2, #0x100
   8fdcc:	91020063 	add	x3, x3, #0x80
   8fdd0:	d50b7423 	dc	zva, x3
   8fdd4:	91020063 	add	x3, x3, #0x80
   8fdd8:	f1020042 	subs	x2, x2, #0x80
   8fddc:	54ffffa8 	b.hi	8fdd0 <memset+0x150>  // b.pmore
   8fde0:	ad3c0080 	stp	q0, q0, [x4, #-128]
   8fde4:	ad3d0080 	stp	q0, q0, [x4, #-96]
   8fde8:	ad3e0080 	stp	q0, q0, [x4, #-64]
   8fdec:	ad3f0080 	stp	q0, q0, [x4, #-32]
   8fdf0:	d65f03c0 	ret
   8fdf4:	52800086 	mov	w6, #0x4                   	// #4
   8fdf8:	1ac520c7 	lsl	w7, w6, w5
   8fdfc:	910100e5 	add	x5, x7, #0x40
   8fe00:	eb05005f 	cmp	x2, x5
   8fe04:	54fff8c3 	b.cc	8fd1c <memset+0x9c>  // b.lo, b.ul, b.last
   8fe08:	d10004e6 	sub	x6, x7, #0x1
   8fe0c:	8b070065 	add	x5, x3, x7
   8fe10:	91004063 	add	x3, x3, #0x10
   8fe14:	eb0300a2 	subs	x2, x5, x3
   8fe18:	8a2600a5 	bic	x5, x5, x6
   8fe1c:	540000a0 	b.eq	8fe30 <memset+0x1b0>  // b.none
   8fe20:	ac820060 	stp	q0, q0, [x3], #64
   8fe24:	ad3f0060 	stp	q0, q0, [x3, #-32]
   8fe28:	f1010042 	subs	x2, x2, #0x40
   8fe2c:	54ffffa8 	b.hi	8fe20 <memset+0x1a0>  // b.pmore
   8fe30:	aa0503e3 	mov	x3, x5
   8fe34:	cb050082 	sub	x2, x4, x5
   8fe38:	eb070042 	subs	x2, x2, x7
   8fe3c:	540000a3 	b.cc	8fe50 <memset+0x1d0>  // b.lo, b.ul, b.last
   8fe40:	d50b7423 	dc	zva, x3
   8fe44:	8b070063 	add	x3, x3, x7
   8fe48:	eb070042 	subs	x2, x2, x7
   8fe4c:	54ffffa2 	b.cs	8fe40 <memset+0x1c0>  // b.hs, b.nlast
   8fe50:	8b070042 	add	x2, x2, x7
   8fe54:	17ffffb7 	b	8fd30 <memset+0xb0>

000000000008fe58 <_Balloc>:
   8fe58:	a9be7bfd 	stp	x29, x30, [sp, #-32]!
   8fe5c:	910003fd 	mov	x29, sp
   8fe60:	a90153f3 	stp	x19, x20, [sp, #16]
   8fe64:	2a0103f4 	mov	w20, w1
   8fe68:	aa0003f3 	mov	x19, x0
   8fe6c:	f9403c01 	ldr	x1, [x0, #120]
   8fe70:	b4000141 	cbz	x1, 8fe98 <_Balloc+0x40>
   8fe74:	93407e82 	sxtw	x2, w20
   8fe78:	f8627820 	ldr	x0, [x1, x2, lsl #3]
   8fe7c:	b40001e0 	cbz	x0, 8feb8 <_Balloc+0x60>
   8fe80:	f9400003 	ldr	x3, [x0]
   8fe84:	f8227823 	str	x3, [x1, x2, lsl #3]
   8fe88:	f900081f 	str	xzr, [x0, #16]
   8fe8c:	a94153f3 	ldp	x19, x20, [sp, #16]
   8fe90:	a8c27bfd 	ldp	x29, x30, [sp], #32
   8fe94:	d65f03c0 	ret
   8fe98:	d2800101 	mov	x1, #0x8                   	// #8
   8fe9c:	d2800822 	mov	x2, #0x41                  	// #65
   8fea0:	94000b5c 	bl	92c10 <_calloc_r>
   8fea4:	f9003e60 	str	x0, [x19, #120]
   8fea8:	aa0003e1 	mov	x1, x0
   8feac:	b5fffe40 	cbnz	x0, 8fe74 <_Balloc+0x1c>
   8feb0:	d2800000 	mov	x0, #0x0                   	// #0
   8feb4:	17fffff6 	b	8fe8c <_Balloc+0x34>
   8feb8:	52800021 	mov	w1, #0x1                   	// #1
   8febc:	aa1303e0 	mov	x0, x19
   8fec0:	1ad42033 	lsl	w19, w1, w20
   8fec4:	51000662 	sub	w2, w19, #0x1
   8fec8:	d2800021 	mov	x1, #0x1                   	// #1
   8fecc:	93407c42 	sxtw	x2, w2
   8fed0:	91002042 	add	x2, x2, #0x8
   8fed4:	d37ef442 	lsl	x2, x2, #2
   8fed8:	94000b4e 	bl	92c10 <_calloc_r>
   8fedc:	b4fffea0 	cbz	x0, 8feb0 <_Balloc+0x58>
   8fee0:	29014c14 	stp	w20, w19, [x0, #8]
   8fee4:	17ffffe9 	b	8fe88 <_Balloc+0x30>

000000000008fee8 <_Bfree>:
   8fee8:	b40000c1 	cbz	x1, 8ff00 <_Bfree+0x18>
   8feec:	b9800822 	ldrsw	x2, [x1, #8]
   8fef0:	f9403c00 	ldr	x0, [x0, #120]
   8fef4:	f8627803 	ldr	x3, [x0, x2, lsl #3]
   8fef8:	f9000023 	str	x3, [x1]
   8fefc:	f8227801 	str	x1, [x0, x2, lsl #3]
   8ff00:	d65f03c0 	ret
   8ff04:	00000000 	.inst	0x00000000 ; undefined

000000000008ff08 <__multadd>:
   8ff08:	a9bc7bfd 	stp	x29, x30, [sp, #-64]!
   8ff0c:	91006025 	add	x5, x1, #0x18
   8ff10:	d2800004 	mov	x4, #0x0                   	// #0
   8ff14:	910003fd 	mov	x29, sp
   8ff18:	a90153f3 	stp	x19, x20, [sp, #16]
   8ff1c:	aa0103f4 	mov	x20, x1
   8ff20:	b9401433 	ldr	w19, [x1, #20]
   8ff24:	a9025bf5 	stp	x21, x22, [sp, #32]
   8ff28:	aa0003f5 	mov	x21, x0
   8ff2c:	d503201f 	nop
   8ff30:	b86478a0 	ldr	w0, [x5, x4, lsl #2]
   8ff34:	12003c01 	and	w1, w0, #0xffff
   8ff38:	53107c00 	lsr	w0, w0, #16
   8ff3c:	1b020c23 	madd	w3, w1, w2, w3
   8ff40:	12003c61 	and	w1, w3, #0xffff
   8ff44:	53107c63 	lsr	w3, w3, #16
   8ff48:	1b020c03 	madd	w3, w0, w2, w3
   8ff4c:	0b034020 	add	w0, w1, w3, lsl #16
   8ff50:	b82478a0 	str	w0, [x5, x4, lsl #2]
   8ff54:	91000484 	add	x4, x4, #0x1
   8ff58:	53107c63 	lsr	w3, w3, #16
   8ff5c:	6b04027f 	cmp	w19, w4
   8ff60:	54fffe8c 	b.gt	8ff30 <__multadd+0x28>
   8ff64:	34000103 	cbz	w3, 8ff84 <__multadd+0x7c>
   8ff68:	b9400e80 	ldr	w0, [x20, #12]
   8ff6c:	6b13001f 	cmp	w0, w19
   8ff70:	5400014d 	b.le	8ff98 <__multadd+0x90>
   8ff74:	8b33ca80 	add	x0, x20, w19, sxtw #2
   8ff78:	11000673 	add	w19, w19, #0x1
   8ff7c:	b9001803 	str	w3, [x0, #24]
   8ff80:	b9001693 	str	w19, [x20, #20]
   8ff84:	aa1403e0 	mov	x0, x20
   8ff88:	a94153f3 	ldp	x19, x20, [sp, #16]
   8ff8c:	a9425bf5 	ldp	x21, x22, [sp, #32]
   8ff90:	a8c47bfd 	ldp	x29, x30, [sp], #64
   8ff94:	d65f03c0 	ret
   8ff98:	b9400a81 	ldr	w1, [x20, #8]
   8ff9c:	aa1503e0 	mov	x0, x21
   8ffa0:	b9003fe3 	str	w3, [sp, #60]
   8ffa4:	11000421 	add	w1, w1, #0x1
   8ffa8:	97ffffac 	bl	8fe58 <_Balloc>
   8ffac:	b9801682 	ldrsw	x2, [x20, #20]
   8ffb0:	91004281 	add	x1, x20, #0x10
   8ffb4:	aa0003f6 	mov	x22, x0
   8ffb8:	91004000 	add	x0, x0, #0x10
   8ffbc:	91000842 	add	x2, x2, #0x2
   8ffc0:	d37ef442 	lsl	x2, x2, #2
   8ffc4:	97fffecf 	bl	8fb00 <memcpy>
   8ffc8:	b9800a81 	ldrsw	x1, [x20, #8]
   8ffcc:	f9403ea0 	ldr	x0, [x21, #120]
   8ffd0:	b9403fe3 	ldr	w3, [sp, #60]
   8ffd4:	f8617802 	ldr	x2, [x0, x1, lsl #3]
   8ffd8:	f9000282 	str	x2, [x20]
   8ffdc:	f8217814 	str	x20, [x0, x1, lsl #3]
   8ffe0:	aa1603f4 	mov	x20, x22
   8ffe4:	8b33ca80 	add	x0, x20, w19, sxtw #2
   8ffe8:	11000673 	add	w19, w19, #0x1
   8ffec:	b9001803 	str	w3, [x0, #24]
   8fff0:	b9001693 	str	w19, [x20, #20]
   8fff4:	17ffffe4 	b	8ff84 <__multadd+0x7c>

000000000008fff8 <__s2b>:
   8fff8:	a9bb7bfd 	stp	x29, x30, [sp, #-80]!
   8fffc:	5291c725 	mov	w5, #0x8e39                	// #36409
   90000:	72a71c65 	movk	w5, #0x38e3, lsl #16
   90004:	910003fd 	mov	x29, sp
   90008:	a90153f3 	stp	x19, x20, [sp, #16]
   9000c:	2a0303f4 	mov	w20, w3
   90010:	11002063 	add	w3, w3, #0x8
   90014:	a9025bf5 	stp	x21, x22, [sp, #32]
   90018:	2a0203f6 	mov	w22, w2
   9001c:	7100269f 	cmp	w20, #0x9
   90020:	9b257c62 	smull	x2, w3, w5
   90024:	a90363f7 	stp	x23, x24, [sp, #48]
   90028:	aa0003f5 	mov	x21, x0
   9002c:	aa0103f3 	mov	x19, x1
   90030:	2a0403f7 	mov	w23, w4
   90034:	9361fc42 	asr	x2, x2, #33
   90038:	4b837c42 	sub	w2, w2, w3, asr #31
   9003c:	540006ad 	b.le	90110 <__s2b+0x118>
   90040:	52800020 	mov	w0, #0x1                   	// #1
   90044:	52800001 	mov	w1, #0x0                   	// #0
   90048:	531f7800 	lsl	w0, w0, #1
   9004c:	11000421 	add	w1, w1, #0x1
   90050:	6b00005f 	cmp	w2, w0
   90054:	54ffffac 	b.gt	90048 <__s2b+0x50>
   90058:	aa1503e0 	mov	x0, x21
   9005c:	97ffff7f 	bl	8fe58 <_Balloc>
   90060:	52800021 	mov	w1, #0x1                   	// #1
   90064:	2902dc01 	stp	w1, w23, [x0, #20]
   90068:	710026df 	cmp	w22, #0x9
   9006c:	540004cd 	b.le	90104 <__s2b+0x10c>
   90070:	51002ad8 	sub	w24, w22, #0xa
   90074:	f90023f9 	str	x25, [sp, #64]
   90078:	91002b01 	add	x1, x24, #0xa
   9007c:	91002679 	add	x25, x19, #0x9
   90080:	aa1903f7 	mov	x23, x25
   90084:	8b010273 	add	x19, x19, x1
   90088:	384016e3 	ldrb	w3, [x23], #1
   9008c:	aa0003e1 	mov	x1, x0
   90090:	52800142 	mov	w2, #0xa                   	// #10
   90094:	aa1503e0 	mov	x0, x21
   90098:	5100c063 	sub	w3, w3, #0x30
   9009c:	97ffff9b 	bl	8ff08 <__multadd>
   900a0:	eb1302ff 	cmp	x23, x19
   900a4:	54ffff21 	b.ne	90088 <__s2b+0x90>  // b.any
   900a8:	91000b13 	add	x19, x24, #0x2
   900ac:	8b130333 	add	x19, x25, x19
   900b0:	f94023f9 	ldr	x25, [sp, #64]
   900b4:	6b16029f 	cmp	w20, w22
   900b8:	540001cd 	b.le	900f0 <__s2b+0xf8>
   900bc:	51000694 	sub	w20, w20, #0x1
   900c0:	4b160294 	sub	w20, w20, w22
   900c4:	91000694 	add	x20, x20, #0x1
   900c8:	8b140274 	add	x20, x19, x20
   900cc:	d503201f 	nop
   900d0:	38401663 	ldrb	w3, [x19], #1
   900d4:	aa0003e1 	mov	x1, x0
   900d8:	52800142 	mov	w2, #0xa                   	// #10
   900dc:	aa1503e0 	mov	x0, x21
   900e0:	5100c063 	sub	w3, w3, #0x30
   900e4:	97ffff89 	bl	8ff08 <__multadd>
   900e8:	eb14027f 	cmp	x19, x20
   900ec:	54ffff21 	b.ne	900d0 <__s2b+0xd8>  // b.any
   900f0:	a94153f3 	ldp	x19, x20, [sp, #16]
   900f4:	a9425bf5 	ldp	x21, x22, [sp, #32]
   900f8:	a94363f7 	ldp	x23, x24, [sp, #48]
   900fc:	a8c57bfd 	ldp	x29, x30, [sp], #80
   90100:	d65f03c0 	ret
   90104:	91002a73 	add	x19, x19, #0xa
   90108:	52800136 	mov	w22, #0x9                   	// #9
   9010c:	17ffffea 	b	900b4 <__s2b+0xbc>
   90110:	52800001 	mov	w1, #0x0                   	// #0
   90114:	17ffffd1 	b	90058 <__s2b+0x60>

0000000000090118 <__hi0bits>:
   90118:	52800001 	mov	w1, #0x0                   	// #0
   9011c:	72103c1f 	tst	w0, #0xffff0000
   90120:	54000061 	b.ne	9012c <__hi0bits+0x14>  // b.any
   90124:	53103c00 	lsl	w0, w0, #16
   90128:	52800201 	mov	w1, #0x10                  	// #16
   9012c:	72081c1f 	tst	w0, #0xff000000
   90130:	54000061 	b.ne	9013c <__hi0bits+0x24>  // b.any
   90134:	11002021 	add	w1, w1, #0x8
   90138:	53185c00 	lsl	w0, w0, #8
   9013c:	72040c1f 	tst	w0, #0xf0000000
   90140:	54000061 	b.ne	9014c <__hi0bits+0x34>  // b.any
   90144:	11001021 	add	w1, w1, #0x4
   90148:	531c6c00 	lsl	w0, w0, #4
   9014c:	7202041f 	tst	w0, #0xc0000000
   90150:	54000061 	b.ne	9015c <__hi0bits+0x44>  // b.any
   90154:	11000821 	add	w1, w1, #0x2
   90158:	531e7400 	lsl	w0, w0, #2
   9015c:	37f80080 	tbnz	w0, #31, 9016c <__hi0bits+0x54>
   90160:	f262001f 	tst	x0, #0x40000000
   90164:	52800400 	mov	w0, #0x20                  	// #32
   90168:	1a810401 	csinc	w1, w0, w1, eq  // eq = none
   9016c:	2a0103e0 	mov	w0, w1
   90170:	d65f03c0 	ret
   90174:	00000000 	.inst	0x00000000 ; undefined

0000000000090178 <__lo0bits>:
   90178:	b9400001 	ldr	w1, [x0]
   9017c:	aa0003e2 	mov	x2, x0
   90180:	f240083f 	tst	x1, #0x7
   90184:	54000100 	b.eq	901a4 <__lo0bits+0x2c>  // b.none
   90188:	52800000 	mov	w0, #0x0                   	// #0
   9018c:	370000a1 	tbnz	w1, #0, 901a0 <__lo0bits+0x28>
   90190:	360803c1 	tbz	w1, #1, 90208 <__lo0bits+0x90>
   90194:	53017c21 	lsr	w1, w1, #1
   90198:	52800020 	mov	w0, #0x1                   	// #1
   9019c:	b9000041 	str	w1, [x2]
   901a0:	d65f03c0 	ret
   901a4:	12003c23 	and	w3, w1, #0xffff
   901a8:	52800000 	mov	w0, #0x0                   	// #0
   901ac:	35000063 	cbnz	w3, 901b8 <__lo0bits+0x40>
   901b0:	53107c21 	lsr	w1, w1, #16
   901b4:	52800200 	mov	w0, #0x10                  	// #16
   901b8:	12001c23 	and	w3, w1, #0xff
   901bc:	35000063 	cbnz	w3, 901c8 <__lo0bits+0x50>
   901c0:	11002000 	add	w0, w0, #0x8
   901c4:	53087c21 	lsr	w1, w1, #8
   901c8:	f2400c3f 	tst	x1, #0xf
   901cc:	54000061 	b.ne	901d8 <__lo0bits+0x60>  // b.any
   901d0:	11001000 	add	w0, w0, #0x4
   901d4:	53047c21 	lsr	w1, w1, #4
   901d8:	f240043f 	tst	x1, #0x3
   901dc:	54000061 	b.ne	901e8 <__lo0bits+0x70>  // b.any
   901e0:	11000800 	add	w0, w0, #0x2
   901e4:	53027c21 	lsr	w1, w1, #2
   901e8:	37000081 	tbnz	w1, #0, 901f8 <__lo0bits+0x80>
   901ec:	11000400 	add	w0, w0, #0x1
   901f0:	53017c21 	lsr	w1, w1, #1
   901f4:	34000061 	cbz	w1, 90200 <__lo0bits+0x88>
   901f8:	b9000041 	str	w1, [x2]
   901fc:	d65f03c0 	ret
   90200:	52800400 	mov	w0, #0x20                  	// #32
   90204:	d65f03c0 	ret
   90208:	53027c21 	lsr	w1, w1, #2
   9020c:	52800040 	mov	w0, #0x2                   	// #2
   90210:	b9000041 	str	w1, [x2]
   90214:	d65f03c0 	ret

0000000000090218 <__i2b>:
   90218:	a9be7bfd 	stp	x29, x30, [sp, #-32]!
   9021c:	910003fd 	mov	x29, sp
   90220:	f9000bf3 	str	x19, [sp, #16]
   90224:	2a0103f3 	mov	w19, w1
   90228:	52800021 	mov	w1, #0x1                   	// #1
   9022c:	97ffff0b 	bl	8fe58 <_Balloc>
   90230:	52800022 	mov	w2, #0x1                   	// #1
   90234:	2902cc02 	stp	w2, w19, [x0, #20]
   90238:	f9400bf3 	ldr	x19, [sp, #16]
   9023c:	a8c27bfd 	ldp	x29, x30, [sp], #32
   90240:	d65f03c0 	ret
   90244:	00000000 	.inst	0x00000000 ; undefined

0000000000090248 <__multiply>:
   90248:	a9bc7bfd 	stp	x29, x30, [sp, #-64]!
   9024c:	910003fd 	mov	x29, sp
   90250:	a90153f3 	stp	x19, x20, [sp, #16]
   90254:	b9401454 	ldr	w20, [x2, #20]
   90258:	a9025bf5 	stp	x21, x22, [sp, #32]
   9025c:	aa0103f5 	mov	x21, x1
   90260:	b9401436 	ldr	w22, [x1, #20]
   90264:	f9001bf7 	str	x23, [sp, #48]
   90268:	aa0203f7 	mov	x23, x2
   9026c:	6b1402df 	cmp	w22, w20
   90270:	540000eb 	b.lt	9028c <__multiply+0x44>  // b.tstop
   90274:	2a1403e2 	mov	w2, w20
   90278:	aa1703e1 	mov	x1, x23
   9027c:	2a1603f4 	mov	w20, w22
   90280:	aa1503f7 	mov	x23, x21
   90284:	2a0203f6 	mov	w22, w2
   90288:	aa0103f5 	mov	x21, x1
   9028c:	29410ae1 	ldp	w1, w2, [x23, #8]
   90290:	0b160293 	add	w19, w20, w22
   90294:	6b13005f 	cmp	w2, w19
   90298:	1a81a421 	cinc	w1, w1, lt  // lt = tstop
   9029c:	97fffeef 	bl	8fe58 <_Balloc>
   902a0:	91006007 	add	x7, x0, #0x18
   902a4:	8b33c8e6 	add	x6, x7, w19, sxtw #2
   902a8:	aa0003e9 	mov	x9, x0
   902ac:	eb0600ff 	cmp	x7, x6
   902b0:	aa0703e0 	mov	x0, x7
   902b4:	54000082 	b.cs	902c4 <__multiply+0x7c>  // b.hs, b.nlast
   902b8:	b800441f 	str	wzr, [x0], #4
   902bc:	eb0000df 	cmp	x6, x0
   902c0:	54ffffc8 	b.hi	902b8 <__multiply+0x70>  // b.pmore
   902c4:	910062a5 	add	x5, x21, #0x18
   902c8:	910062ea 	add	x10, x23, #0x18
   902cc:	8b36c8a8 	add	x8, x5, w22, sxtw #2
   902d0:	8b34c944 	add	x4, x10, w20, sxtw #2
   902d4:	eb0800bf 	cmp	x5, x8
   902d8:	54000103 	b.cc	902f8 <__multiply+0xb0>  // b.lo, b.ul, b.last
   902dc:	1400003c 	b	903cc <__multiply+0x184>
   902e0:	53107c63 	lsr	w3, w3, #16
   902e4:	350003e3 	cbnz	w3, 90360 <__multiply+0x118>
   902e8:	910010a5 	add	x5, x5, #0x4
   902ec:	910010e7 	add	x7, x7, #0x4
   902f0:	eb05011f 	cmp	x8, x5
   902f4:	540006c9 	b.ls	903cc <__multiply+0x184>  // b.plast
   902f8:	b94000a3 	ldr	w3, [x5]
   902fc:	72003c6c 	ands	w12, w3, #0xffff
   90300:	54ffff00 	b.eq	902e0 <__multiply+0x98>  // b.none
   90304:	aa0703e3 	mov	x3, x7
   90308:	aa0a03eb 	mov	x11, x10
   9030c:	5280000d 	mov	w13, #0x0                   	// #0
   90310:	b8404561 	ldr	w1, [x11], #4
   90314:	b9400062 	ldr	w2, [x3]
   90318:	12003c20 	and	w0, w1, #0xffff
   9031c:	eb0b009f 	cmp	x4, x11
   90320:	12003c4e 	and	w14, w2, #0xffff
   90324:	53107c21 	lsr	w1, w1, #16
   90328:	53107c42 	lsr	w2, w2, #16
   9032c:	1b0c3800 	madd	w0, w0, w12, w14
   90330:	1b0c0821 	madd	w1, w1, w12, w2
   90334:	0b0d0000 	add	w0, w0, w13
   90338:	12003c02 	and	w2, w0, #0xffff
   9033c:	0b404020 	add	w0, w1, w0, lsr #16
   90340:	2a004041 	orr	w1, w2, w0, lsl #16
   90344:	b8004461 	str	w1, [x3], #4
   90348:	53107c0d 	lsr	w13, w0, #16
   9034c:	54fffe28 	b.hi	90310 <__multiply+0xc8>  // b.pmore
   90350:	b900006d 	str	w13, [x3]
   90354:	b94000a3 	ldr	w3, [x5]
   90358:	53107c63 	lsr	w3, w3, #16
   9035c:	34fffc63 	cbz	w3, 902e8 <__multiply+0xa0>
   90360:	b94000e0 	ldr	w0, [x7]
   90364:	aa0703ec 	mov	x12, x7
   90368:	aa0a03eb 	mov	x11, x10
   9036c:	5280000d 	mov	w13, #0x0                   	// #0
   90370:	2a0003e2 	mov	w2, w0
   90374:	d503201f 	nop
   90378:	79400161 	ldrh	w1, [x11]
   9037c:	53107c42 	lsr	w2, w2, #16
   90380:	12003c00 	and	w0, w0, #0xffff
   90384:	1b030821 	madd	w1, w1, w3, w2
   90388:	0b0d0021 	add	w1, w1, w13
   9038c:	2a014000 	orr	w0, w0, w1, lsl #16
   90390:	b8004580 	str	w0, [x12], #4
   90394:	b8404560 	ldr	w0, [x11], #4
   90398:	b9400182 	ldr	w2, [x12]
   9039c:	eb0b009f 	cmp	x4, x11
   903a0:	12003c4d 	and	w13, w2, #0xffff
   903a4:	53107c00 	lsr	w0, w0, #16
   903a8:	1b033400 	madd	w0, w0, w3, w13
   903ac:	0b414000 	add	w0, w0, w1, lsr #16
   903b0:	53107c0d 	lsr	w13, w0, #16
   903b4:	54fffe28 	b.hi	90378 <__multiply+0x130>  // b.pmore
   903b8:	b9000180 	str	w0, [x12]
   903bc:	910010a5 	add	x5, x5, #0x4
   903c0:	910010e7 	add	x7, x7, #0x4
   903c4:	eb05011f 	cmp	x8, x5
   903c8:	54fff988 	b.hi	902f8 <__multiply+0xb0>  // b.pmore
   903cc:	7100027f 	cmp	w19, #0x0
   903d0:	5400012d 	b.le	903f4 <__multiply+0x1ac>
   903d4:	b85fc0c0 	ldur	w0, [x6, #-4]
   903d8:	d10010c6 	sub	x6, x6, #0x4
   903dc:	34000080 	cbz	w0, 903ec <__multiply+0x1a4>
   903e0:	14000005 	b	903f4 <__multiply+0x1ac>
   903e4:	b85fccc0 	ldr	w0, [x6, #-4]!
   903e8:	35000060 	cbnz	w0, 903f4 <__multiply+0x1ac>
   903ec:	71000673 	subs	w19, w19, #0x1
   903f0:	54ffffa1 	b.ne	903e4 <__multiply+0x19c>  // b.any
   903f4:	a9425bf5 	ldp	x21, x22, [sp, #32]
   903f8:	aa0903e0 	mov	x0, x9
   903fc:	f9401bf7 	ldr	x23, [sp, #48]
   90400:	b9001533 	str	w19, [x9, #20]
   90404:	a94153f3 	ldp	x19, x20, [sp, #16]
   90408:	a8c47bfd 	ldp	x29, x30, [sp], #64
   9040c:	d65f03c0 	ret

0000000000090410 <__pow5mult>:
   90410:	a9bc7bfd 	stp	x29, x30, [sp, #-64]!
   90414:	910003fd 	mov	x29, sp
   90418:	a90153f3 	stp	x19, x20, [sp, #16]
   9041c:	2a0203f3 	mov	w19, w2
   90420:	72000442 	ands	w2, w2, #0x3
   90424:	a9025bf5 	stp	x21, x22, [sp, #32]
   90428:	aa0003f6 	mov	x22, x0
   9042c:	f9001bf7 	str	x23, [sp, #48]
   90430:	aa0103f7 	mov	x23, x1
   90434:	54000581 	b.ne	904e4 <__pow5mult+0xd4>  // b.any
   90438:	13027e73 	asr	w19, w19, #2
   9043c:	aa1703f5 	mov	x21, x23
   90440:	34000333 	cbz	w19, 904a4 <__pow5mult+0x94>
   90444:	f9403ad4 	ldr	x20, [x22, #112]
   90448:	b40005f4 	cbz	x20, 90504 <__pow5mult+0xf4>
   9044c:	aa1703f5 	mov	x21, x23
   90450:	37000113 	tbnz	w19, #0, 90470 <__pow5mult+0x60>
   90454:	d503201f 	nop
   90458:	13017e73 	asr	w19, w19, #1
   9045c:	34000253 	cbz	w19, 904a4 <__pow5mult+0x94>
   90460:	f9400280 	ldr	x0, [x20]
   90464:	b40002c0 	cbz	x0, 904bc <__pow5mult+0xac>
   90468:	aa0003f4 	mov	x20, x0
   9046c:	3607ff73 	tbz	w19, #0, 90458 <__pow5mult+0x48>
   90470:	aa1403e2 	mov	x2, x20
   90474:	aa1503e1 	mov	x1, x21
   90478:	aa1603e0 	mov	x0, x22
   9047c:	97ffff73 	bl	90248 <__multiply>
   90480:	b40002f5 	cbz	x21, 904dc <__pow5mult+0xcc>
   90484:	b9800aa2 	ldrsw	x2, [x21, #8]
   90488:	13017e73 	asr	w19, w19, #1
   9048c:	f9403ec1 	ldr	x1, [x22, #120]
   90490:	f8627823 	ldr	x3, [x1, x2, lsl #3]
   90494:	f90002a3 	str	x3, [x21]
   90498:	f8227835 	str	x21, [x1, x2, lsl #3]
   9049c:	aa0003f5 	mov	x21, x0
   904a0:	35fffe13 	cbnz	w19, 90460 <__pow5mult+0x50>
   904a4:	aa1503e0 	mov	x0, x21
   904a8:	a94153f3 	ldp	x19, x20, [sp, #16]
   904ac:	a9425bf5 	ldp	x21, x22, [sp, #32]
   904b0:	f9401bf7 	ldr	x23, [sp, #48]
   904b4:	a8c47bfd 	ldp	x29, x30, [sp], #64
   904b8:	d65f03c0 	ret
   904bc:	aa1403e2 	mov	x2, x20
   904c0:	aa1403e1 	mov	x1, x20
   904c4:	aa1603e0 	mov	x0, x22
   904c8:	97ffff60 	bl	90248 <__multiply>
   904cc:	f9000280 	str	x0, [x20]
   904d0:	aa0003f4 	mov	x20, x0
   904d4:	f900001f 	str	xzr, [x0]
   904d8:	17ffffe5 	b	9046c <__pow5mult+0x5c>
   904dc:	aa0003f5 	mov	x21, x0
   904e0:	17ffffde 	b	90458 <__pow5mult+0x48>
   904e4:	51000442 	sub	w2, w2, #0x1
   904e8:	b0000024 	adrp	x4, 95000 <BitFont+0xb40>
   904ec:	9127e084 	add	x4, x4, #0x9f8
   904f0:	52800003 	mov	w3, #0x0                   	// #0
   904f4:	b862d882 	ldr	w2, [x4, w2, sxtw #2]
   904f8:	97fffe84 	bl	8ff08 <__multadd>
   904fc:	aa0003f7 	mov	x23, x0
   90500:	17ffffce 	b	90438 <__pow5mult+0x28>
   90504:	52800021 	mov	w1, #0x1                   	// #1
   90508:	aa1603e0 	mov	x0, x22
   9050c:	97fffe53 	bl	8fe58 <_Balloc>
   90510:	aa0003f4 	mov	x20, x0
   90514:	d2800020 	mov	x0, #0x1                   	// #1
   90518:	aa1703f5 	mov	x21, x23
   9051c:	f2c04e20 	movk	x0, #0x271, lsl #32
   90520:	f8014280 	stur	x0, [x20, #20]
   90524:	f9003ad4 	str	x20, [x22, #112]
   90528:	f900029f 	str	xzr, [x20]
   9052c:	17ffffc9 	b	90450 <__pow5mult+0x40>

0000000000090530 <__lshift>:
   90530:	a9bc7bfd 	stp	x29, x30, [sp, #-64]!
   90534:	910003fd 	mov	x29, sp
   90538:	a90363f7 	stp	x23, x24, [sp, #48]
   9053c:	aa0003f8 	mov	x24, x0
   90540:	b9401437 	ldr	w23, [x1, #20]
   90544:	a9025bf5 	stp	x21, x22, [sp, #32]
   90548:	13057c56 	asr	w22, w2, #5
   9054c:	b9400c20 	ldr	w0, [x1, #12]
   90550:	0b1702d7 	add	w23, w22, w23
   90554:	a90153f3 	stp	x19, x20, [sp, #16]
   90558:	110006f3 	add	w19, w23, #0x1
   9055c:	aa0103f5 	mov	x21, x1
   90560:	2a0203f4 	mov	w20, w2
   90564:	b9400821 	ldr	w1, [x1, #8]
   90568:	6b00027f 	cmp	w19, w0
   9056c:	540000ad 	b.le	90580 <__lshift+0x50>
   90570:	531f7800 	lsl	w0, w0, #1
   90574:	11000421 	add	w1, w1, #0x1
   90578:	6b00027f 	cmp	w19, w0
   9057c:	54ffffac 	b.gt	90570 <__lshift+0x40>
   90580:	aa1803e0 	mov	x0, x24
   90584:	97fffe35 	bl	8fe58 <_Balloc>
   90588:	710002df 	cmp	w22, #0x0
   9058c:	aa0003e7 	mov	x7, x0
   90590:	91006003 	add	x3, x0, #0x18
   90594:	5400014d 	b.le	905bc <__lshift+0x8c>
   90598:	510006d6 	sub	w22, w22, #0x1
   9059c:	aa0303e0 	mov	x0, x3
   905a0:	91001ec1 	add	x1, x22, #0x7
   905a4:	8b0108e1 	add	x1, x7, x1, lsl #2
   905a8:	b800441f 	str	wzr, [x0], #4
   905ac:	eb01001f 	cmp	x0, x1
   905b0:	54ffffc1 	b.ne	905a8 <__lshift+0x78>  // b.any
   905b4:	910006d6 	add	x22, x22, #0x1
   905b8:	8b160863 	add	x3, x3, x22, lsl #2
   905bc:	b98016a5 	ldrsw	x5, [x21, #20]
   905c0:	910062a0 	add	x0, x21, #0x18
   905c4:	72001282 	ands	w2, w20, #0x1f
   905c8:	8b050805 	add	x5, x0, x5, lsl #2
   905cc:	54000380 	b.eq	9063c <__lshift+0x10c>  // b.none
   905d0:	52800406 	mov	w6, #0x20                  	// #32
   905d4:	4b0200c6 	sub	w6, w6, w2
   905d8:	52800004 	mov	w4, #0x0                   	// #0
   905dc:	d503201f 	nop
   905e0:	b9400001 	ldr	w1, [x0]
   905e4:	1ac22021 	lsl	w1, w1, w2
   905e8:	2a040021 	orr	w1, w1, w4
   905ec:	b8004461 	str	w1, [x3], #4
   905f0:	b8404401 	ldr	w1, [x0], #4
   905f4:	eb0000bf 	cmp	x5, x0
   905f8:	1ac62424 	lsr	w4, w1, w6
   905fc:	54ffff28 	b.hi	905e0 <__lshift+0xb0>  // b.pmore
   90600:	7100009f 	cmp	w4, #0x0
   90604:	b9000064 	str	w4, [x3]
   90608:	1a9302f7 	csel	w23, w23, w19, eq  // eq = none
   9060c:	b9800aa2 	ldrsw	x2, [x21, #8]
   90610:	aa0703e0 	mov	x0, x7
   90614:	f9403f01 	ldr	x1, [x24, #120]
   90618:	a94153f3 	ldp	x19, x20, [sp, #16]
   9061c:	f8627823 	ldr	x3, [x1, x2, lsl #3]
   90620:	b90014f7 	str	w23, [x7, #20]
   90624:	a94363f7 	ldp	x23, x24, [sp, #48]
   90628:	f90002a3 	str	x3, [x21]
   9062c:	f8227835 	str	x21, [x1, x2, lsl #3]
   90630:	a9425bf5 	ldp	x21, x22, [sp, #32]
   90634:	a8c47bfd 	ldp	x29, x30, [sp], #64
   90638:	d65f03c0 	ret
   9063c:	b8404401 	ldr	w1, [x0], #4
   90640:	b8004461 	str	w1, [x3], #4
   90644:	eb0000bf 	cmp	x5, x0
   90648:	54fffe29 	b.ls	9060c <__lshift+0xdc>  // b.plast
   9064c:	b8404401 	ldr	w1, [x0], #4
   90650:	b8004461 	str	w1, [x3], #4
   90654:	eb0000bf 	cmp	x5, x0
   90658:	54ffff28 	b.hi	9063c <__lshift+0x10c>  // b.pmore
   9065c:	17ffffec 	b	9060c <__lshift+0xdc>

0000000000090660 <__mcmp>:
   90660:	aa0003e5 	mov	x5, x0
   90664:	b9401422 	ldr	w2, [x1, #20]
   90668:	b9401400 	ldr	w0, [x0, #20]
   9066c:	6b020000 	subs	w0, w0, w2
   90670:	540001e1 	b.ne	906ac <__mcmp+0x4c>  // b.any
   90674:	937e7c43 	sbfiz	x3, x2, #2, #32
   90678:	910060a5 	add	x5, x5, #0x18
   9067c:	91006021 	add	x1, x1, #0x18
   90680:	8b0300a2 	add	x2, x5, x3
   90684:	8b030021 	add	x1, x1, x3
   90688:	14000003 	b	90694 <__mcmp+0x34>
   9068c:	eb0200bf 	cmp	x5, x2
   90690:	540000e2 	b.cs	906ac <__mcmp+0x4c>  // b.hs, b.nlast
   90694:	b85fcc44 	ldr	w4, [x2, #-4]!
   90698:	b85fcc23 	ldr	w3, [x1, #-4]!
   9069c:	6b03009f 	cmp	w4, w3
   906a0:	54ffff60 	b.eq	9068c <__mcmp+0x2c>  // b.none
   906a4:	52800020 	mov	w0, #0x1                   	// #1
   906a8:	5a802400 	cneg	w0, w0, cc  // cc = lo, ul, last
   906ac:	d65f03c0 	ret

00000000000906b0 <__mdiff>:
   906b0:	a9bc7bfd 	stp	x29, x30, [sp, #-64]!
   906b4:	910003fd 	mov	x29, sp
   906b8:	b9401443 	ldr	w3, [x2, #20]
   906bc:	a90153f3 	stp	x19, x20, [sp, #16]
   906c0:	91006033 	add	x19, x1, #0x18
   906c4:	91006054 	add	x20, x2, #0x18
   906c8:	a9025bf5 	stp	x21, x22, [sp, #32]
   906cc:	aa0103f6 	mov	x22, x1
   906d0:	b9401435 	ldr	w21, [x1, #20]
   906d4:	f9001bf7 	str	x23, [sp, #48]
   906d8:	aa0203f7 	mov	x23, x2
   906dc:	6b0302b5 	subs	w21, w21, w3
   906e0:	54000861 	b.ne	907ec <__mdiff+0x13c>  // b.any
   906e4:	937e7c63 	sbfiz	x3, x3, #2, #32
   906e8:	8b030261 	add	x1, x19, x3
   906ec:	8b030283 	add	x3, x20, x3
   906f0:	14000003 	b	906fc <__mdiff+0x4c>
   906f4:	eb13003f 	cmp	x1, x19
   906f8:	540008e9 	b.ls	90814 <__mdiff+0x164>  // b.plast
   906fc:	b85fcc25 	ldr	w5, [x1, #-4]!
   90700:	b85fcc64 	ldr	w4, [x3, #-4]!
   90704:	6b0400bf 	cmp	w5, w4
   90708:	54ffff60 	b.eq	906f4 <__mdiff+0x44>  // b.none
   9070c:	54000743 	b.cc	907f4 <__mdiff+0x144>  // b.lo, b.ul, b.last
   90710:	b9400ac1 	ldr	w1, [x22, #8]
   90714:	97fffdd1 	bl	8fe58 <_Balloc>
   90718:	91006004 	add	x4, x0, #0x18
   9071c:	b98016e6 	ldrsw	x6, [x23, #20]
   90720:	52800001 	mov	w1, #0x0                   	// #0
   90724:	b94016c7 	ldr	w7, [x22, #20]
   90728:	b9001015 	str	w21, [x0, #16]
   9072c:	8b060a86 	add	x6, x20, x6, lsl #2
   90730:	8b27ca68 	add	x8, x19, w7, sxtw #2
   90734:	14000002 	b	9073c <__mdiff+0x8c>
   90738:	aa0503e4 	mov	x4, x5
   9073c:	b8404663 	ldr	w3, [x19], #4
   90740:	aa0403e5 	mov	x5, x4
   90744:	b8404682 	ldr	w2, [x20], #4
   90748:	0b232021 	add	w1, w1, w3, uxth
   9074c:	53107c63 	lsr	w3, w3, #16
   90750:	4b222021 	sub	w1, w1, w2, uxth
   90754:	4b424063 	sub	w3, w3, w2, lsr #16
   90758:	12003c22 	and	w2, w1, #0xffff
   9075c:	eb1400df 	cmp	x6, x20
   90760:	0b814061 	add	w1, w3, w1, asr #16
   90764:	2a014042 	orr	w2, w2, w1, lsl #16
   90768:	b80044a2 	str	w2, [x5], #4
   9076c:	13107c21 	asr	w1, w1, #16
   90770:	54fffe48 	b.hi	90738 <__mdiff+0x88>  // b.pmore
   90774:	eb13011f 	cmp	x8, x19
   90778:	54000269 	b.ls	907c4 <__mdiff+0x114>  // b.plast
   9077c:	d1000504 	sub	x4, x8, #0x1
   90780:	d2800006 	mov	x6, #0x0                   	// #0
   90784:	cb130084 	sub	x4, x4, x19
   90788:	d342fc84 	lsr	x4, x4, #2
   9078c:	d503201f 	nop
   90790:	b8667a63 	ldr	w3, [x19, x6, lsl #2]
   90794:	910004c8 	add	x8, x6, #0x1
   90798:	eb06009f 	cmp	x4, x6
   9079c:	0b232021 	add	w1, w1, w3, uxth
   907a0:	12003c22 	and	w2, w1, #0xffff
   907a4:	13107c21 	asr	w1, w1, #16
   907a8:	0b434021 	add	w1, w1, w3, lsr #16
   907ac:	2a014042 	orr	w2, w2, w1, lsl #16
   907b0:	b82678a2 	str	w2, [x5, x6, lsl #2]
   907b4:	13107c21 	asr	w1, w1, #16
   907b8:	aa0803e6 	mov	x6, x8
   907bc:	54fffea1 	b.ne	90790 <__mdiff+0xe0>  // b.any
   907c0:	8b0408a4 	add	x4, x5, x4, lsl #2
   907c4:	35000082 	cbnz	w2, 907d4 <__mdiff+0x124>
   907c8:	b85fcc81 	ldr	w1, [x4, #-4]!
   907cc:	510004e7 	sub	w7, w7, #0x1
   907d0:	34ffffc1 	cbz	w1, 907c8 <__mdiff+0x118>
   907d4:	b9001407 	str	w7, [x0, #20]
   907d8:	a94153f3 	ldp	x19, x20, [sp, #16]
   907dc:	a9425bf5 	ldp	x21, x22, [sp, #32]
   907e0:	f9401bf7 	ldr	x23, [sp, #48]
   907e4:	a8c47bfd 	ldp	x29, x30, [sp], #64
   907e8:	d65f03c0 	ret
   907ec:	52800015 	mov	w21, #0x0                   	// #0
   907f0:	54fff905 	b.pl	90710 <__mdiff+0x60>  // b.nfrst
   907f4:	aa1303e2 	mov	x2, x19
   907f8:	aa1603e1 	mov	x1, x22
   907fc:	aa1403f3 	mov	x19, x20
   90800:	aa1703f6 	mov	x22, x23
   90804:	aa0203f4 	mov	x20, x2
   90808:	aa0103f7 	mov	x23, x1
   9080c:	52800035 	mov	w21, #0x1                   	// #1
   90810:	17ffffc0 	b	90710 <__mdiff+0x60>
   90814:	52800001 	mov	w1, #0x0                   	// #0
   90818:	97fffd90 	bl	8fe58 <_Balloc>
   9081c:	d2800021 	mov	x1, #0x1                   	// #1
   90820:	f8014001 	stur	x1, [x0, #20]
   90824:	a94153f3 	ldp	x19, x20, [sp, #16]
   90828:	a9425bf5 	ldp	x21, x22, [sp, #32]
   9082c:	f9401bf7 	ldr	x23, [sp, #48]
   90830:	a8c47bfd 	ldp	x29, x30, [sp], #64
   90834:	d65f03c0 	ret

0000000000090838 <__ulp>:
   90838:	7f600400 	ushr	d0, d0, #32
   9083c:	52bf9801 	mov	w1, #0xfcc00000            	// #-54525952
   90840:	1e260000 	fmov	w0, s0
   90844:	120c2800 	and	w0, w0, #0x7ff00000
   90848:	0b010000 	add	w0, w0, w1
   9084c:	7100001f 	cmp	w0, #0x0
   90850:	5400008d 	b.le	90860 <__ulp+0x28>
   90854:	d3607c00 	lsl	x0, x0, #32
   90858:	9e670000 	fmov	d0, x0
   9085c:	d65f03c0 	ret
   90860:	4b0003e0 	neg	w0, w0
   90864:	13147c00 	asr	w0, w0, #20
   90868:	71004c1f 	cmp	w0, #0x13
   9086c:	5400008c 	b.gt	9087c <__ulp+0x44>
   90870:	52a00101 	mov	w1, #0x80000               	// #524288
   90874:	1ac02820 	asr	w0, w1, w0
   90878:	17fffff7 	b	90854 <__ulp+0x1c>
   9087c:	51005002 	sub	w2, w0, #0x14
   90880:	52b00001 	mov	w1, #0x80000000            	// #-2147483648
   90884:	71007c5f 	cmp	w2, #0x1f
   90888:	d2800000 	mov	x0, #0x0                   	// #0
   9088c:	1ac22421 	lsr	w1, w1, w2
   90890:	1a9fb421 	csinc	w1, w1, wzr, lt  // lt = tstop
   90894:	b3407c20 	bfxil	x0, x1, #0, #32
   90898:	9e670000 	fmov	d0, x0
   9089c:	d65f03c0 	ret

00000000000908a0 <__b2d>:
   908a0:	a9bf7bfd 	stp	x29, x30, [sp, #-16]!
   908a4:	91006005 	add	x5, x0, #0x18
   908a8:	aa0103e7 	mov	x7, x1
   908ac:	910003fd 	mov	x29, sp
   908b0:	b9801404 	ldrsw	x4, [x0, #20]
   908b4:	8b0408a4 	add	x4, x5, x4, lsl #2
   908b8:	d1001086 	sub	x6, x4, #0x4
   908bc:	b85fc082 	ldur	w2, [x4, #-4]
   908c0:	2a0203e0 	mov	w0, w2
   908c4:	97fffe15 	bl	90118 <__hi0bits>
   908c8:	7100281f 	cmp	w0, #0xa
   908cc:	52800403 	mov	w3, #0x20                  	// #32
   908d0:	4b000061 	sub	w1, w3, w0
   908d4:	b90000e1 	str	w1, [x7]
   908d8:	5400042d 	b.le	9095c <__b2d+0xbc>
   908dc:	51002c00 	sub	w0, w0, #0xb
   908e0:	eb0600bf 	cmp	x5, x6
   908e4:	540002a2 	b.cs	90938 <__b2d+0x98>  // b.hs, b.nlast
   908e8:	b85f8087 	ldur	w7, [x4, #-8]
   908ec:	340002a0 	cbz	w0, 90940 <__b2d+0xa0>
   908f0:	4b000066 	sub	w6, w3, w0
   908f4:	1ac02041 	lsl	w1, w2, w0
   908f8:	d2800003 	mov	x3, #0x0                   	// #0
   908fc:	d1002082 	sub	x2, x4, #0x8
   90900:	1ac624e8 	lsr	w8, w7, w6
   90904:	2a080021 	orr	w1, w1, w8
   90908:	320c2421 	orr	w1, w1, #0x3ff00000
   9090c:	1ac020e0 	lsl	w0, w7, w0
   90910:	eb0200bf 	cmp	x5, x2
   90914:	b3607c23 	bfi	x3, x1, #32, #32
   90918:	54000082 	b.cs	90928 <__b2d+0x88>  // b.hs, b.nlast
   9091c:	b85f4081 	ldur	w1, [x4, #-12]
   90920:	1ac62426 	lsr	w6, w1, w6
   90924:	2a060000 	orr	w0, w0, w6
   90928:	b3407c03 	bfxil	x3, x0, #0, #32
   9092c:	9e670060 	fmov	d0, x3
   90930:	a8c17bfd 	ldp	x29, x30, [sp], #16
   90934:	d65f03c0 	ret
   90938:	52800007 	mov	w7, #0x0                   	// #0
   9093c:	35000340 	cbnz	w0, 909a4 <__b2d+0x104>
   90940:	320c2442 	orr	w2, w2, #0x3ff00000
   90944:	d2800003 	mov	x3, #0x0                   	// #0
   90948:	a8c17bfd 	ldp	x29, x30, [sp], #16
   9094c:	b3607c43 	bfi	x3, x2, #32, #32
   90950:	b3407ce3 	bfxil	x3, x7, #0, #32
   90954:	9e670060 	fmov	d0, x3
   90958:	d65f03c0 	ret
   9095c:	52800161 	mov	w1, #0xb                   	// #11
   90960:	4b000021 	sub	w1, w1, w0
   90964:	eb0600bf 	cmp	x5, x6
   90968:	d2800003 	mov	x3, #0x0                   	// #0
   9096c:	1ac12445 	lsr	w5, w2, w1
   90970:	320c24a5 	orr	w5, w5, #0x3ff00000
   90974:	52800006 	mov	w6, #0x0                   	// #0
   90978:	b3607ca3 	bfi	x3, x5, #32, #32
   9097c:	54000062 	b.cs	90988 <__b2d+0xe8>  // b.hs, b.nlast
   90980:	b85f8086 	ldur	w6, [x4, #-8]
   90984:	1ac124c6 	lsr	w6, w6, w1
   90988:	11005400 	add	w0, w0, #0x15
   9098c:	a8c17bfd 	ldp	x29, x30, [sp], #16
   90990:	1ac02042 	lsl	w2, w2, w0
   90994:	2a060042 	orr	w2, w2, w6
   90998:	b3407c43 	bfxil	x3, x2, #0, #32
   9099c:	9e670060 	fmov	d0, x3
   909a0:	d65f03c0 	ret
   909a4:	1ac02042 	lsl	w2, w2, w0
   909a8:	320c2442 	orr	w2, w2, #0x3ff00000
   909ac:	d2800003 	mov	x3, #0x0                   	// #0
   909b0:	52800000 	mov	w0, #0x0                   	// #0
   909b4:	b3607c43 	bfi	x3, x2, #32, #32
   909b8:	b3407c03 	bfxil	x3, x0, #0, #32
   909bc:	17ffffdc 	b	9092c <__b2d+0x8c>

00000000000909c0 <__d2b>:
   909c0:	a9bc7bfd 	stp	x29, x30, [sp, #-64]!
   909c4:	910003fd 	mov	x29, sp
   909c8:	fd0013e8 	str	d8, [sp, #32]
   909cc:	1e604008 	fmov	d8, d0
   909d0:	a90153f3 	stp	x19, x20, [sp, #16]
   909d4:	aa0103f4 	mov	x20, x1
   909d8:	52800021 	mov	w1, #0x1                   	// #1
   909dc:	aa0203f3 	mov	x19, x2
   909e0:	97fffd1e 	bl	8fe58 <_Balloc>
   909e4:	9e660101 	fmov	x1, d8
   909e8:	aa0003e5 	mov	x5, x0
   909ec:	d360fc24 	lsr	x4, x1, #32
   909f0:	12004c80 	and	w0, w4, #0xfffff
   909f4:	53147884 	ubfx	w4, w4, #20, #11
   909f8:	320c0002 	orr	w2, w0, #0x100000
   909fc:	7100009f 	cmp	w4, #0x0
   90a00:	1a820000 	csel	w0, w0, w2, eq  // eq = none
   90a04:	b9003fe0 	str	w0, [sp, #60]
   90a08:	34000421 	cbz	w1, 90a8c <__d2b+0xcc>
   90a0c:	9100e3e0 	add	x0, sp, #0x38
   90a10:	bd003be8 	str	s8, [sp, #56]
   90a14:	97fffdd9 	bl	90178 <__lo0bits>
   90a18:	b9403fe1 	ldr	w1, [sp, #60]
   90a1c:	35000280 	cbnz	w0, 90a6c <__d2b+0xac>
   90a20:	b9403be2 	ldr	w2, [sp, #56]
   90a24:	b90018a2 	str	w2, [x5, #24]
   90a28:	7100003f 	cmp	w1, #0x0
   90a2c:	b9001ca1 	str	w1, [x5, #28]
   90a30:	1a9f07e2 	cset	w2, ne  // ne = any
   90a34:	11000442 	add	w2, w2, #0x1
   90a38:	b90014a2 	str	w2, [x5, #20]
   90a3c:	34000384 	cbz	w4, 90aac <__d2b+0xec>
   90a40:	5110cc84 	sub	w4, w4, #0x433
   90a44:	528006a1 	mov	w1, #0x35                  	// #53
   90a48:	0b000084 	add	w4, w4, w0
   90a4c:	b9000284 	str	w4, [x20]
   90a50:	4b000020 	sub	w0, w1, w0
   90a54:	b9000260 	str	w0, [x19]
   90a58:	aa0503e0 	mov	x0, x5
   90a5c:	fd4013e8 	ldr	d8, [sp, #32]
   90a60:	a94153f3 	ldp	x19, x20, [sp, #16]
   90a64:	a8c47bfd 	ldp	x29, x30, [sp], #64
   90a68:	d65f03c0 	ret
   90a6c:	4b0003e2 	neg	w2, w0
   90a70:	b9403be3 	ldr	w3, [sp, #56]
   90a74:	1ac22022 	lsl	w2, w1, w2
   90a78:	2a030042 	orr	w2, w2, w3
   90a7c:	1ac02421 	lsr	w1, w1, w0
   90a80:	b90018a2 	str	w2, [x5, #24]
   90a84:	b9003fe1 	str	w1, [sp, #60]
   90a88:	17ffffe8 	b	90a28 <__d2b+0x68>
   90a8c:	9100f3e0 	add	x0, sp, #0x3c
   90a90:	97fffdba 	bl	90178 <__lo0bits>
   90a94:	b9403fe3 	ldr	w3, [sp, #60]
   90a98:	52800021 	mov	w1, #0x1                   	// #1
   90a9c:	29028ca1 	stp	w1, w3, [x5, #20]
   90aa0:	11008000 	add	w0, w0, #0x20
   90aa4:	2a0103e2 	mov	w2, w1
   90aa8:	35fffcc4 	cbnz	w4, 90a40 <__d2b+0x80>
   90aac:	8b22c8a1 	add	x1, x5, w2, sxtw #2
   90ab0:	5110c800 	sub	w0, w0, #0x432
   90ab4:	b9000280 	str	w0, [x20]
   90ab8:	b9401420 	ldr	w0, [x1, #20]
   90abc:	97fffd97 	bl	90118 <__hi0bits>
   90ac0:	531b6842 	lsl	w2, w2, #5
   90ac4:	4b000042 	sub	w2, w2, w0
   90ac8:	b9000262 	str	w2, [x19]
   90acc:	aa0503e0 	mov	x0, x5
   90ad0:	fd4013e8 	ldr	d8, [sp, #32]
   90ad4:	a94153f3 	ldp	x19, x20, [sp, #16]
   90ad8:	a8c47bfd 	ldp	x29, x30, [sp], #64
   90adc:	d65f03c0 	ret

0000000000090ae0 <__ratio>:
   90ae0:	aa0103e9 	mov	x9, x1
   90ae4:	aa0003ea 	mov	x10, x0
   90ae8:	a9be7bfd 	stp	x29, x30, [sp, #-32]!
   90aec:	910003fd 	mov	x29, sp
   90af0:	910063e1 	add	x1, sp, #0x18
   90af4:	97ffff6b 	bl	908a0 <__b2d>
   90af8:	1e604001 	fmov	d1, d0
   90afc:	aa0903e0 	mov	x0, x9
   90b00:	910073e1 	add	x1, sp, #0x1c
   90b04:	97ffff67 	bl	908a0 <__b2d>
   90b08:	b9401523 	ldr	w3, [x9, #20]
   90b0c:	b9401540 	ldr	w0, [x10, #20]
   90b10:	294313e1 	ldp	w1, w4, [sp, #24]
   90b14:	4b030000 	sub	w0, w0, w3
   90b18:	4b040021 	sub	w1, w1, w4
   90b1c:	0b001420 	add	w0, w1, w0, lsl #5
   90b20:	7100001f 	cmp	w0, #0x0
   90b24:	5400012d 	b.le	90b48 <__ratio+0x68>
   90b28:	9e660022 	fmov	x2, d1
   90b2c:	a8c27bfd 	ldp	x29, x30, [sp], #32
   90b30:	d360fc41 	lsr	x1, x2, #32
   90b34:	0b005020 	add	w0, w1, w0, lsl #20
   90b38:	b3607c02 	bfi	x2, x0, #32, #32
   90b3c:	9e670041 	fmov	d1, x2
   90b40:	1e601820 	fdiv	d0, d1, d0
   90b44:	d65f03c0 	ret
   90b48:	9e660003 	fmov	x3, d0
   90b4c:	a8c27bfd 	ldp	x29, x30, [sp], #32
   90b50:	d360fc61 	lsr	x1, x3, #32
   90b54:	4b005020 	sub	w0, w1, w0, lsl #20
   90b58:	b3607c03 	bfi	x3, x0, #32, #32
   90b5c:	9e670060 	fmov	d0, x3
   90b60:	1e601820 	fdiv	d0, d1, d0
   90b64:	d65f03c0 	ret

0000000000090b68 <__copybits>:
   90b68:	51000421 	sub	w1, w1, #0x1
   90b6c:	91006045 	add	x5, x2, #0x18
   90b70:	13057c24 	asr	w4, w1, #5
   90b74:	b9801441 	ldrsw	x1, [x2, #20]
   90b78:	8b24c804 	add	x4, x0, w4, sxtw #2
   90b7c:	8b0108a1 	add	x1, x5, x1, lsl #2
   90b80:	91001084 	add	x4, x4, #0x4
   90b84:	eb0100bf 	cmp	x5, x1
   90b88:	540001e2 	b.cs	90bc4 <__copybits+0x5c>  // b.hs, b.nlast
   90b8c:	cb020022 	sub	x2, x1, x2
   90b90:	d2800001 	mov	x1, #0x0                   	// #0
   90b94:	d1006442 	sub	x2, x2, #0x19
   90b98:	d342fc42 	lsr	x2, x2, #2
   90b9c:	91000446 	add	x6, x2, #0x1
   90ba0:	b86178a3 	ldr	w3, [x5, x1, lsl #2]
   90ba4:	eb02003f 	cmp	x1, x2
   90ba8:	b8217803 	str	w3, [x0, x1, lsl #2]
   90bac:	91000421 	add	x1, x1, #0x1
   90bb0:	54ffff81 	b.ne	90ba0 <__copybits+0x38>  // b.any
   90bb4:	8b060800 	add	x0, x0, x6, lsl #2
   90bb8:	eb00009f 	cmp	x4, x0
   90bbc:	54000089 	b.ls	90bcc <__copybits+0x64>  // b.plast
   90bc0:	b800441f 	str	wzr, [x0], #4
   90bc4:	eb00009f 	cmp	x4, x0
   90bc8:	54ffffc8 	b.hi	90bc0 <__copybits+0x58>  // b.pmore
   90bcc:	d65f03c0 	ret

0000000000090bd0 <__any_on>:
   90bd0:	b9401402 	ldr	w2, [x0, #20]
   90bd4:	13057c24 	asr	w4, w1, #5
   90bd8:	91006003 	add	x3, x0, #0x18
   90bdc:	6b04005f 	cmp	w2, w4
   90be0:	540001aa 	b.ge	90c14 <__any_on+0x44>  // b.tcont
   90be4:	8b22c862 	add	x2, x3, w2, sxtw #2
   90be8:	eb02007f 	cmp	x3, x2
   90bec:	54000302 	b.cs	90c4c <__any_on+0x7c>  // b.hs, b.nlast
   90bf0:	b85fc040 	ldur	w0, [x2, #-4]
   90bf4:	d1001041 	sub	x1, x2, #0x4
   90bf8:	34000080 	cbz	w0, 90c08 <__any_on+0x38>
   90bfc:	14000012 	b	90c44 <__any_on+0x74>
   90c00:	b85fcc22 	ldr	w2, [x1, #-4]!
   90c04:	35000202 	cbnz	w2, 90c44 <__any_on+0x74>
   90c08:	eb01007f 	cmp	x3, x1
   90c0c:	54ffffa3 	b.cc	90c00 <__any_on+0x30>  // b.lo, b.ul, b.last
   90c10:	d65f03c0 	ret
   90c14:	93407c84 	sxtw	x4, w4
   90c18:	8b040862 	add	x2, x3, x4, lsl #2
   90c1c:	54fffe6d 	b.le	90be8 <__any_on+0x18>
   90c20:	72001021 	ands	w1, w1, #0x1f
   90c24:	54fffe20 	b.eq	90be8 <__any_on+0x18>  // b.none
   90c28:	b8647865 	ldr	w5, [x3, x4, lsl #2]
   90c2c:	52800020 	mov	w0, #0x1                   	// #1
   90c30:	1ac124a4 	lsr	w4, w5, w1
   90c34:	1ac12081 	lsl	w1, w4, w1
   90c38:	6b0100bf 	cmp	w5, w1
   90c3c:	54fffd60 	b.eq	90be8 <__any_on+0x18>  // b.none
   90c40:	d65f03c0 	ret
   90c44:	52800020 	mov	w0, #0x1                   	// #1
   90c48:	d65f03c0 	ret
   90c4c:	52800000 	mov	w0, #0x0                   	// #0
   90c50:	d65f03c0 	ret
   90c54:	00000000 	.inst	0x00000000 ; undefined

0000000000090c58 <nanf>:
   90c58:	52aff800 	mov	w0, #0x7fc00000            	// #2143289344
   90c5c:	1e270000 	fmov	s0, w0
   90c60:	d65f03c0 	ret
   90c64:	00000000 	.inst	0x00000000 ; undefined

0000000000090c68 <rshift>:
   90c68:	b9401402 	ldr	w2, [x0, #20]
   90c6c:	13057c23 	asr	w3, w1, #5
   90c70:	6b03005f 	cmp	w2, w3
   90c74:	5400056d 	b.le	90d20 <rshift+0xb8>
   90c78:	93407c44 	sxtw	x4, w2
   90c7c:	93407c68 	sxtw	x8, w3
   90c80:	91006006 	add	x6, x0, #0x18
   90c84:	72001021 	ands	w1, w1, #0x1f
   90c88:	8b0408c9 	add	x9, x6, x4, lsl #2
   90c8c:	8b0808c3 	add	x3, x6, x8, lsl #2
   90c90:	540004e0 	b.eq	90d2c <rshift+0xc4>  // b.none
   90c94:	b86878c5 	ldr	w5, [x6, x8, lsl #2]
   90c98:	91001063 	add	x3, x3, #0x4
   90c9c:	5280040a 	mov	w10, #0x20                  	// #32
   90ca0:	eb03013f 	cmp	x9, x3
   90ca4:	4b01014a 	sub	w10, w10, w1
   90ca8:	1ac124a5 	lsr	w5, w5, w1
   90cac:	54000329 	b.ls	90d10 <rshift+0xa8>  // b.plast
   90cb0:	aa0603e7 	mov	x7, x6
   90cb4:	d503201f 	nop
   90cb8:	b9400062 	ldr	w2, [x3]
   90cbc:	1aca2042 	lsl	w2, w2, w10
   90cc0:	2a050042 	orr	w2, w2, w5
   90cc4:	b80044e2 	str	w2, [x7], #4
   90cc8:	b8404462 	ldr	w2, [x3], #4
   90ccc:	eb03013f 	cmp	x9, x3
   90cd0:	1ac12445 	lsr	w5, w2, w1
   90cd4:	54ffff28 	b.hi	90cb8 <rshift+0x50>  // b.pmore
   90cd8:	cb080081 	sub	x1, x4, x8
   90cdc:	d37ef421 	lsl	x1, x1, #2
   90ce0:	d1001421 	sub	x1, x1, #0x5
   90ce4:	d342fc21 	lsr	x1, x1, #2
   90ce8:	91000421 	add	x1, x1, #0x1
   90cec:	8b0108c2 	add	x2, x6, x1, lsl #2
   90cf0:	b82178c5 	str	w5, [x6, x1, lsl #2]
   90cf4:	340003a5 	cbz	w5, 90d68 <rshift+0x100>
   90cf8:	91001042 	add	x2, x2, #0x4
   90cfc:	cb060046 	sub	x6, x2, x6
   90d00:	9342fcc6 	asr	x6, x6, #2
   90d04:	b9001406 	str	w6, [x0, #20]
   90d08:	340000e6 	cbz	w6, 90d24 <rshift+0xbc>
   90d0c:	d65f03c0 	ret
   90d10:	b9001805 	str	w5, [x0, #24]
   90d14:	aa0603e2 	mov	x2, x6
   90d18:	35ffff05 	cbnz	w5, 90cf8 <rshift+0x90>
   90d1c:	d503201f 	nop
   90d20:	b900141f 	str	wzr, [x0, #20]
   90d24:	b900181f 	str	wzr, [x0, #24]
   90d28:	d65f03c0 	ret
   90d2c:	eb03013f 	cmp	x9, x3
   90d30:	54ffff89 	b.ls	90d20 <rshift+0xb8>  // b.plast
   90d34:	cb080082 	sub	x2, x4, x8
   90d38:	d2800001 	mov	x1, #0x0                   	// #0
   90d3c:	d37ef442 	lsl	x2, x2, #2
   90d40:	d1000442 	sub	x2, x2, #0x1
   90d44:	d342fc42 	lsr	x2, x2, #2
   90d48:	91000444 	add	x4, x2, #0x1
   90d4c:	d503201f 	nop
   90d50:	b8617865 	ldr	w5, [x3, x1, lsl #2]
   90d54:	eb02003f 	cmp	x1, x2
   90d58:	b82178c5 	str	w5, [x6, x1, lsl #2]
   90d5c:	91000421 	add	x1, x1, #0x1
   90d60:	54ffff81 	b.ne	90d50 <rshift+0xe8>  // b.any
   90d64:	8b0408c2 	add	x2, x6, x4, lsl #2
   90d68:	cb060046 	sub	x6, x2, x6
   90d6c:	9342fcc6 	asr	x6, x6, #2
   90d70:	b9001406 	str	w6, [x0, #20]
   90d74:	34fffd86 	cbz	w6, 90d24 <rshift+0xbc>
   90d78:	d65f03c0 	ret
   90d7c:	00000000 	.inst	0x00000000 ; undefined

0000000000090d80 <increment>:
   90d80:	a9bd7bfd 	stp	x29, x30, [sp, #-48]!
   90d84:	910003fd 	mov	x29, sp
   90d88:	b9801422 	ldrsw	x2, [x1, #20]
   90d8c:	a90153f3 	stp	x19, x20, [sp, #16]
   90d90:	aa0003f4 	mov	x20, x0
   90d94:	91006020 	add	x0, x1, #0x18
   90d98:	aa0103f3 	mov	x19, x1
   90d9c:	8b020802 	add	x2, x0, x2, lsl #2
   90da0:	14000004 	b	90db0 <increment+0x30>
   90da4:	b800441f 	str	wzr, [x0], #4
   90da8:	eb00005f 	cmp	x2, x0
   90dac:	54000149 	b.ls	90dd4 <increment+0x54>  // b.plast
   90db0:	b9400001 	ldr	w1, [x0]
   90db4:	3100043f 	cmn	w1, #0x1
   90db8:	54ffff60 	b.eq	90da4 <increment+0x24>  // b.none
   90dbc:	11000421 	add	w1, w1, #0x1
   90dc0:	b9000001 	str	w1, [x0]
   90dc4:	aa1303e0 	mov	x0, x19
   90dc8:	a94153f3 	ldp	x19, x20, [sp, #16]
   90dcc:	a8c37bfd 	ldp	x29, x30, [sp], #48
   90dd0:	d65f03c0 	ret
   90dd4:	b9400e61 	ldr	w1, [x19, #12]
   90dd8:	b9401660 	ldr	w0, [x19, #20]
   90ddc:	6b01001f 	cmp	w0, w1
   90de0:	5400014a 	b.ge	90e08 <increment+0x88>  // b.tcont
   90de4:	8b20ca61 	add	x1, x19, w0, sxtw #2
   90de8:	11000400 	add	w0, w0, #0x1
   90dec:	b9001660 	str	w0, [x19, #20]
   90df0:	52800020 	mov	w0, #0x1                   	// #1
   90df4:	b9001820 	str	w0, [x1, #24]
   90df8:	aa1303e0 	mov	x0, x19
   90dfc:	a94153f3 	ldp	x19, x20, [sp, #16]
   90e00:	a8c37bfd 	ldp	x29, x30, [sp], #48
   90e04:	d65f03c0 	ret
   90e08:	b9400a61 	ldr	w1, [x19, #8]
   90e0c:	aa1403e0 	mov	x0, x20
   90e10:	f90013f5 	str	x21, [sp, #32]
   90e14:	11000421 	add	w1, w1, #0x1
   90e18:	97fffc10 	bl	8fe58 <_Balloc>
   90e1c:	b9801662 	ldrsw	x2, [x19, #20]
   90e20:	aa0003f5 	mov	x21, x0
   90e24:	91004261 	add	x1, x19, #0x10
   90e28:	91004000 	add	x0, x0, #0x10
   90e2c:	91000842 	add	x2, x2, #0x2
   90e30:	d37ef442 	lsl	x2, x2, #2
   90e34:	97fffb33 	bl	8fb00 <memcpy>
   90e38:	aa1303e1 	mov	x1, x19
   90e3c:	aa1403e0 	mov	x0, x20
   90e40:	aa1503f3 	mov	x19, x21
   90e44:	97fffc29 	bl	8fee8 <_Bfree>
   90e48:	b94016a0 	ldr	w0, [x21, #20]
   90e4c:	f94013f5 	ldr	x21, [sp, #32]
   90e50:	17ffffe5 	b	90de4 <increment+0x64>
   90e54:	00000000 	.inst	0x00000000 ; undefined

0000000000090e58 <rvOK>:
   90e58:	a9b77bfd 	stp	x29, x30, [sp, #-144]!
   90e5c:	910003fd 	mov	x29, sp
   90e60:	fd0033e8 	str	d8, [sp, #96]
   90e64:	9e670068 	fmov	d8, x3
   90e68:	a9046bf9 	stp	x25, x26, [sp, #64]
   90e6c:	aa0103fa 	mov	x26, x1
   90e70:	910233e1 	add	x1, sp, #0x8c
   90e74:	a90153f3 	stp	x19, x20, [sp, #16]
   90e78:	2a0503f3 	mov	w19, w5
   90e7c:	a9025bf5 	stp	x21, x22, [sp, #32]
   90e80:	aa0603f6 	mov	x22, x6
   90e84:	a90363f7 	stp	x23, x24, [sp, #48]
   90e88:	2a0403f7 	mov	w23, w4
   90e8c:	aa0203f8 	mov	x24, x2
   90e90:	910223e2 	add	x2, sp, #0x88
   90e94:	a90573fb 	stp	x27, x28, [sp, #80]
   90e98:	aa0003fc 	mov	x28, x0
   90e9c:	97fffec9 	bl	909c0 <__d2b>
   90ea0:	b9400355 	ldr	w21, [x26]
   90ea4:	295113e2 	ldp	w2, w4, [sp, #136]
   90ea8:	aa0003f4 	mov	x20, x0
   90eac:	4b150041 	sub	w1, w2, w21
   90eb0:	0b040024 	add	w4, w1, w4
   90eb4:	291113e1 	stp	w1, w4, [sp, #136]
   90eb8:	7100003f 	cmp	w1, #0x0
   90ebc:	5400086d 	b.le	90fc8 <rvOK+0x170>
   90ec0:	7100d6bf 	cmp	w21, #0x35
   90ec4:	54000600 	b.eq	90f84 <rvOK+0x12c>  // b.none
   90ec8:	7100067f 	cmp	w19, #0x1
   90ecc:	54001140 	b.eq	910f4 <rvOK+0x29c>  // b.none
   90ed0:	71000a7f 	cmp	w19, #0x2
   90ed4:	54001021 	b.ne	910d8 <rvOK+0x280>  // b.any
   90ed8:	52800033 	mov	w19, #0x1                   	// #1
   90edc:	aa1403e0 	mov	x0, x20
   90ee0:	97ffff3c 	bl	90bd0 <__any_on>
   90ee4:	b9408be1 	ldr	w1, [sp, #136]
   90ee8:	2a0003e3 	mov	w3, w0
   90eec:	7100001f 	cmp	w0, #0x0
   90ef0:	aa1403e0 	mov	x0, x20
   90ef4:	1a9f07f9 	cset	w25, ne  // ne = any
   90ef8:	b9007fe3 	str	w3, [sp, #124]
   90efc:	97ffff5b 	bl	90c68 <rshift>
   90f00:	531c6f39 	lsl	w25, w25, #4
   90f04:	b9407fe3 	ldr	w3, [sp, #124]
   90f08:	34001093 	cbz	w19, 91118 <rvOK+0x2c0>
   90f0c:	aa1403e1 	mov	x1, x20
   90f10:	aa1c03e0 	mov	x0, x28
   90f14:	b9007fe3 	str	w3, [sp, #124]
   90f18:	97ffff9a 	bl	90d80 <increment>
   90f1c:	aa0003f4 	mov	x20, x0
   90f20:	b9401400 	ldr	w0, [x0, #20]
   90f24:	720012b3 	ands	w19, w21, #0x1f
   90f28:	52800419 	mov	w25, #0x20                  	// #32
   90f2c:	51000400 	sub	w0, w0, #0x1
   90f30:	4b130321 	sub	w1, w25, w19
   90f34:	1a931033 	csel	w19, w1, w19, ne  // ne = any
   90f38:	8b20ca80 	add	x0, x20, w0, sxtw #2
   90f3c:	b9401800 	ldr	w0, [x0, #24]
   90f40:	97fffc76 	bl	90118 <__hi0bits>
   90f44:	6b13001f 	cmp	w0, w19
   90f48:	b9407fe3 	ldr	w3, [sp, #124]
   90f4c:	54000e60 	b.eq	91118 <rvOK+0x2c0>  // b.none
   90f50:	35000063 	cbnz	w3, 90f5c <rvOK+0x104>
   90f54:	b9401a83 	ldr	w3, [x20, #24]
   90f58:	12000063 	and	w3, w3, #0x1
   90f5c:	52800021 	mov	w1, #0x1                   	// #1
   90f60:	aa1403e0 	mov	x0, x20
   90f64:	b9007fe3 	str	w3, [sp, #124]
   90f68:	97ffff40 	bl	90c68 <rshift>
   90f6c:	b9408fe4 	ldr	w4, [sp, #140]
   90f70:	52800419 	mov	w25, #0x20                  	// #32
   90f74:	b9407fe3 	ldr	w3, [sp, #124]
   90f78:	11000484 	add	w4, w4, #0x1
   90f7c:	b9008fe4 	str	w4, [sp, #140]
   90f80:	14000017 	b	90fdc <rvOK+0x184>
   90f84:	5280001b 	mov	w27, #0x0                   	// #0
   90f88:	34000097 	cbz	w23, 90f98 <rvOK+0x140>
   90f8c:	b9400f42 	ldr	w2, [x26, #12]
   90f90:	7100045f 	cmp	w2, #0x1
   90f94:	54000f80 	b.eq	91184 <rvOK+0x32c>  // b.none
   90f98:	aa1403e1 	mov	x1, x20
   90f9c:	aa1c03e0 	mov	x0, x28
   90fa0:	97fffbd2 	bl	8fee8 <_Bfree>
   90fa4:	2a1b03e0 	mov	w0, w27
   90fa8:	fd4033e8 	ldr	d8, [sp, #96]
   90fac:	a94153f3 	ldp	x19, x20, [sp, #16]
   90fb0:	a9425bf5 	ldp	x21, x22, [sp, #32]
   90fb4:	a94363f7 	ldp	x23, x24, [sp, #48]
   90fb8:	a9446bf9 	ldp	x25, x26, [sp, #64]
   90fbc:	a94573fb 	ldp	x27, x28, [sp, #80]
   90fc0:	a8c97bfd 	ldp	x29, x30, [sp], #144
   90fc4:	d65f03c0 	ret
   90fc8:	5280001b 	mov	w27, #0x0                   	// #0
   90fcc:	34fffe77 	cbz	w23, 90f98 <rvOK+0x140>
   90fd0:	52800003 	mov	w3, #0x0                   	// #0
   90fd4:	52800019 	mov	w25, #0x0                   	// #0
   90fd8:	35000a41 	cbnz	w1, 91120 <rvOK+0x2c8>
   90fdc:	b9400740 	ldr	w0, [x26, #4]
   90fe0:	6b04001f 	cmp	w0, w4
   90fe4:	540005ed 	b.le	910a0 <rvOK+0x248>
   90fe8:	b9008fe0 	str	w0, [sp, #140]
   90fec:	4b040013 	sub	w19, w0, w4
   90ff0:	6b1302bf 	cmp	w21, w19
   90ff4:	5400038b 	b.lt	91064 <rvOK+0x20c>  // b.tstop
   90ff8:	b940135b 	ldr	w27, [x26, #16]
   90ffc:	3500035b 	cbnz	w27, 91064 <rvOK+0x20c>
   91000:	5100067a 	sub	w26, w19, #0x1
   91004:	7100035f 	cmp	w26, #0x0
   91008:	7a40c860 	ccmp	w3, #0x0, #0x0, gt
   9100c:	54000d20 	b.eq	911b0 <rvOK+0x358>  // b.none
   91010:	b9007fe3 	str	w3, [sp, #124]
   91014:	2a0302f7 	orr	w23, w23, w3
   91018:	34fffc17 	cbz	w23, 90f98 <rvOK+0x140>
   9101c:	13057f42 	asr	w2, w26, #5
   91020:	52800020 	mov	w0, #0x1                   	// #1
   91024:	1ada201a 	lsl	w26, w0, w26
   91028:	2a1303e1 	mov	w1, w19
   9102c:	8b22ca82 	add	x2, x20, w2, sxtw #2
   91030:	aa1403e0 	mov	x0, x20
   91034:	b9401842 	ldr	w2, [x2, #24]
   91038:	0a02035a 	and	w26, w26, w2
   9103c:	97ffff0b 	bl	90c68 <rshift>
   91040:	52800040 	mov	w0, #0x2                   	// #2
   91044:	b90002c0 	str	w0, [x22]
   91048:	b9407fe3 	ldr	w3, [sp, #124]
   9104c:	35000bda 	cbnz	w26, 911c4 <rvOK+0x36c>
   91050:	7100007f 	cmp	w3, #0x0
   91054:	52800a00 	mov	w0, #0x50                  	// #80
   91058:	b9408fe4 	ldr	w4, [sp, #140]
   9105c:	1a800339 	csel	w25, w25, w0, eq  // eq = none
   91060:	14000006 	b	91078 <rvOK+0x220>
   91064:	b900169f 	str	wzr, [x20, #20]
   91068:	2a0003e4 	mov	w4, w0
   9106c:	52800019 	mov	w25, #0x0                   	// #0
   91070:	52800a00 	mov	w0, #0x50                  	// #80
   91074:	b90002c0 	str	w0, [x22]
   91078:	9e660100 	fmov	x0, d8
   9107c:	b9000304 	str	w4, [x24]
   91080:	2a1503e1 	mov	w1, w21
   91084:	aa1403e2 	mov	x2, x20
   91088:	5280003b 	mov	w27, #0x1                   	// #1
   9108c:	97fffeb7 	bl	90b68 <__copybits>
   91090:	b94002c0 	ldr	w0, [x22]
   91094:	2a190019 	orr	w25, w0, w25
   91098:	b90002d9 	str	w25, [x22]
   9109c:	17ffffbf 	b	90f98 <rvOK+0x140>
   910a0:	b9400b40 	ldr	w0, [x26, #8]
   910a4:	6b04001f 	cmp	w0, w4
   910a8:	54fffe8a 	b.ge	91078 <rvOK+0x220>  // b.tcont
   910ac:	11000400 	add	w0, w0, #0x1
   910b0:	52801461 	mov	w1, #0xa3                  	// #163
   910b4:	b90002c1 	str	w1, [x22]
   910b8:	52800019 	mov	w25, #0x0                   	// #0
   910bc:	b9008fe0 	str	w0, [sp, #140]
   910c0:	940006fa 	bl	92ca8 <__errno>
   910c4:	52800441 	mov	w1, #0x22                  	// #34
   910c8:	b9000001 	str	w1, [x0]
   910cc:	b900169f 	str	wzr, [x20, #20]
   910d0:	b9408fe4 	ldr	w4, [sp, #140]
   910d4:	17ffffe9 	b	91078 <rvOK+0x220>
   910d8:	71000420 	subs	w0, w1, #0x1
   910dc:	54000441 	b.ne	91164 <rvOK+0x30c>  // b.any
   910e0:	5280001b 	mov	w27, #0x0                   	// #0
   910e4:	34fff5b7 	cbz	w23, 90f98 <rvOK+0x140>
   910e8:	b9401a93 	ldr	w19, [x20, #24]
   910ec:	d3410673 	ubfx	x19, x19, #1, #1
   910f0:	17ffff7b 	b	90edc <rvOK+0x84>
   910f4:	97fffeb7 	bl	90bd0 <__any_on>
   910f8:	2a0003e3 	mov	w3, w0
   910fc:	35000240 	cbnz	w0, 91144 <rvOK+0x2ec>
   91100:	b9408be1 	ldr	w1, [sp, #136]
   91104:	aa1403e0 	mov	x0, x20
   91108:	b9007fe3 	str	w3, [sp, #124]
   9110c:	52800019 	mov	w25, #0x0                   	// #0
   91110:	97fffed6 	bl	90c68 <rshift>
   91114:	b9407fe3 	ldr	w3, [sp, #124]
   91118:	b9408fe4 	ldr	w4, [sp, #140]
   9111c:	17ffffb0 	b	90fdc <rvOK+0x184>
   91120:	aa0003e1 	mov	x1, x0
   91124:	4b0202a2 	sub	w2, w21, w2
   91128:	aa1c03e0 	mov	x0, x28
   9112c:	b9007fe3 	str	w3, [sp, #124]
   91130:	97fffd00 	bl	90530 <__lshift>
   91134:	aa0003f4 	mov	x20, x0
   91138:	b9407fe3 	ldr	w3, [sp, #124]
   9113c:	b9408fe4 	ldr	w4, [sp, #140]
   91140:	17ffffa7 	b	90fdc <rvOK+0x184>
   91144:	b9408be1 	ldr	w1, [sp, #136]
   91148:	aa1403e0 	mov	x0, x20
   9114c:	b9007fe3 	str	w3, [sp, #124]
   91150:	52800219 	mov	w25, #0x10                  	// #16
   91154:	97fffec5 	bl	90c68 <rshift>
   91158:	b9407fe3 	ldr	w3, [sp, #124]
   9115c:	b9408fe4 	ldr	w4, [sp, #140]
   91160:	17ffff9f 	b	90fdc <rvOK+0x184>
   91164:	13057c03 	asr	w3, w0, #5
   91168:	52800022 	mov	w2, #0x1                   	// #1
   9116c:	1ac02040 	lsl	w0, w2, w0
   91170:	8b23ca82 	add	x2, x20, w3, sxtw #2
   91174:	b9401842 	ldr	w2, [x2, #24]
   91178:	6a02001f 	tst	w0, w2
   9117c:	1a9f07f3 	cset	w19, ne  // ne = any
   91180:	17ffff57 	b	90edc <rvOK+0x84>
   91184:	97fffe93 	bl	90bd0 <__any_on>
   91188:	2a0003e3 	mov	w3, w0
   9118c:	35fffdc0 	cbnz	w0, 91144 <rvOK+0x2ec>
   91190:	b9408be1 	ldr	w1, [sp, #136]
   91194:	aa1403e0 	mov	x0, x20
   91198:	b9007fe3 	str	w3, [sp, #124]
   9119c:	52800019 	mov	w25, #0x0                   	// #0
   911a0:	97fffeb2 	bl	90c68 <rshift>
   911a4:	b9407fe3 	ldr	w3, [sp, #124]
   911a8:	b9408fe4 	ldr	w4, [sp, #140]
   911ac:	17ffff8c 	b	90fdc <rvOK+0x184>
   911b0:	2a1a03e1 	mov	w1, w26
   911b4:	aa1403e0 	mov	x0, x20
   911b8:	97fffe86 	bl	90bd0 <__any_on>
   911bc:	2a0003e3 	mov	w3, w0
   911c0:	17ffff94 	b	91010 <rvOK+0x1b8>
   911c4:	aa1403e1 	mov	x1, x20
   911c8:	aa1c03e0 	mov	x0, x28
   911cc:	97fffeed 	bl	90d80 <increment>
   911d0:	52800c19 	mov	w25, #0x60                  	// #96
   911d4:	aa0003f4 	mov	x20, x0
   911d8:	b9408fe4 	ldr	w4, [sp, #140]
   911dc:	17ffffa7 	b	91078 <rvOK+0x220>

00000000000911e0 <set_ones>:
   911e0:	a9bd7bfd 	stp	x29, x30, [sp, #-48]!
   911e4:	aa0103e4 	mov	x4, x1
   911e8:	910003fd 	mov	x29, sp
   911ec:	a90153f3 	stp	x19, x20, [sp, #16]
   911f0:	11007c54 	add	w20, w2, #0x1f
   911f4:	2a0203f3 	mov	w19, w2
   911f8:	b9400822 	ldr	w2, [x1, #8]
   911fc:	13057e94 	asr	w20, w20, #5
   91200:	6b14005f 	cmp	w2, w20
   91204:	5400040b 	b.lt	91284 <set_ones+0xa4>  // b.tstop
   91208:	13057e61 	asr	w1, w19, #5
   9120c:	91006080 	add	x0, x4, #0x18
   91210:	72001273 	ands	w19, w19, #0x1f
   91214:	540001e0 	b.eq	91250 <set_ones+0x70>  // b.none
   91218:	11000421 	add	w1, w1, #0x1
   9121c:	b9001481 	str	w1, [x4, #20]
   91220:	8b21c801 	add	x1, x0, w1, sxtw #2
   91224:	eb00003f 	cmp	x1, x0
   91228:	540001e9 	b.ls	91264 <set_ones+0x84>  // b.plast
   9122c:	12800003 	mov	w3, #0xffffffff            	// #-1
   91230:	b8004403 	str	w3, [x0], #4
   91234:	eb00003f 	cmp	x1, x0
   91238:	54ffffc8 	b.hi	91230 <set_ones+0x50>  // b.pmore
   9123c:	35000153 	cbnz	w19, 91264 <set_ones+0x84>
   91240:	aa0403e0 	mov	x0, x4
   91244:	a94153f3 	ldp	x19, x20, [sp, #16]
   91248:	a8c37bfd 	ldp	x29, x30, [sp], #48
   9124c:	d65f03c0 	ret
   91250:	b9001481 	str	w1, [x4, #20]
   91254:	8b21c801 	add	x1, x0, w1, sxtw #2
   91258:	eb00003f 	cmp	x1, x0
   9125c:	54fffe88 	b.hi	9122c <set_ones+0x4c>  // b.pmore
   91260:	17fffff8 	b	91240 <set_ones+0x60>
   91264:	b85fc001 	ldur	w1, [x0, #-4]
   91268:	4b1303f3 	neg	w19, w19
   9126c:	1ad32433 	lsr	w19, w1, w19
   91270:	b81fc013 	stur	w19, [x0, #-4]
   91274:	aa0403e0 	mov	x0, x4
   91278:	a94153f3 	ldp	x19, x20, [sp, #16]
   9127c:	a8c37bfd 	ldp	x29, x30, [sp], #48
   91280:	d65f03c0 	ret
   91284:	f90013f5 	str	x21, [sp, #32]
   91288:	aa0003f5 	mov	x21, x0
   9128c:	97fffb17 	bl	8fee8 <_Bfree>
   91290:	aa1503e0 	mov	x0, x21
   91294:	2a1403e1 	mov	w1, w20
   91298:	97fffaf0 	bl	8fe58 <_Balloc>
   9129c:	aa0003e4 	mov	x4, x0
   912a0:	f94013f5 	ldr	x21, [sp, #32]
   912a4:	17ffffd9 	b	91208 <set_ones+0x28>

00000000000912a8 <_strtodg_l>:
   912a8:	a9ac7bfd 	stp	x29, x30, [sp, #-320]!
   912ac:	910003fd 	mov	x29, sp
   912b0:	6d0627e8 	stp	d8, d9, [sp, #96]
   912b4:	9e670008 	fmov	d8, x0
   912b8:	aa0603e0 	mov	x0, x6
   912bc:	6d0837ec 	stp	d12, d13, [sp, #128]
   912c0:	9e6700ac 	fmov	d12, x5
   912c4:	a90153f3 	stp	x19, x20, [sp, #16]
   912c8:	a9025bf5 	stp	x21, x22, [sp, #32]
   912cc:	a90363f7 	stp	x23, x24, [sp, #48]
   912d0:	a9046bf9 	stp	x25, x26, [sp, #64]
   912d4:	aa0303fa 	mov	x26, x3
   912d8:	a90573fb 	stp	x27, x28, [sp, #80]
   912dc:	aa0103fb 	mov	x27, x1
   912e0:	a90a0be6 	stp	x6, x2, [sp, #160]
   912e4:	f90067e4 	str	x4, [sp, #200]
   912e8:	97fff9f8 	bl	8fac8 <__localeconv_l>
   912ec:	aa0003f5 	mov	x21, x0
   912f0:	f9400000 	ldr	x0, [x0]
   912f4:	97ffef03 	bl	8cf00 <strlen>
   912f8:	b9400357 	ldr	w23, [x26]
   912fc:	f94053e6 	ldr	x6, [sp, #160]
   91300:	aa1b03e1 	mov	x1, x27
   91304:	b90123ff 	str	wzr, [sp, #288]
   91308:	a9137ffb 	stp	x27, xzr, [sp, #304]
   9130c:	39400033 	ldrb	w19, [x1]
   91310:	aa0103f9 	mov	x25, x1
   91314:	7100367f 	cmp	w19, #0xd
   91318:	54001109 	b.ls	91538 <_strtodg_l+0x290>  // b.plast
   9131c:	7100ae7f 	cmp	w19, #0x2b
   91320:	54001640 	b.eq	915e8 <_strtodg_l+0x340>  // b.none
   91324:	7100b67f 	cmp	w19, #0x2d
   91328:	540012e1 	b.ne	91584 <_strtodg_l+0x2dc>  // b.any
   9132c:	52800022 	mov	w2, #0x1                   	// #1
   91330:	b900a3e2 	str	w2, [sp, #160]
   91334:	91000439 	add	x25, x1, #0x1
   91338:	f9009bf9 	str	x25, [sp, #304]
   9133c:	39400433 	ldrb	w19, [x1, #1]
   91340:	34001033 	cbz	w19, 91544 <_strtodg_l+0x29c>
   91344:	7100c27f 	cmp	w19, #0x30
   91348:	52800014 	mov	w20, #0x0                   	// #0
   9134c:	54001280 	b.eq	9159c <_strtodg_l+0x2f4>  // b.none
   91350:	93407c1c 	sxtw	x28, w0
   91354:	b9401340 	ldr	w0, [x26, #16]
   91358:	b900efe0 	str	w0, [sp, #236]
   9135c:	5100c261 	sub	w1, w19, #0x30
   91360:	7100243f 	cmp	w1, #0x9
   91364:	f94002a1 	ldr	x1, [x21]
   91368:	54008f88 	b.hi	92558 <_strtodg_l+0x12b0>  // b.pmore
   9136c:	91000722 	add	x2, x25, #0x1
   91370:	52800018 	mov	w24, #0x0                   	// #0
   91374:	52800015 	mov	w21, #0x0                   	// #0
   91378:	52800016 	mov	w22, #0x0                   	// #0
   9137c:	1400000a 	b	913a4 <_strtodg_l+0xfc>
   91380:	f9009be2 	str	x2, [sp, #304]
   91384:	0b030660 	add	w0, w19, w3, lsl #1
   91388:	5100c015 	sub	w21, w0, #0x30
   9138c:	aa0203e0 	mov	x0, x2
   91390:	38401453 	ldrb	w19, [x2], #1
   91394:	110006d6 	add	w22, w22, #0x1
   91398:	5100c263 	sub	w3, w19, #0x30
   9139c:	7100247f 	cmp	w3, #0x9
   913a0:	54000208 	b.hi	913e0 <_strtodg_l+0x138>  // b.pmore
   913a4:	0b180b00 	add	w0, w24, w24, lsl #2
   913a8:	0b150aa3 	add	w3, w21, w21, lsl #2
   913ac:	710022df 	cmp	w22, #0x8
   913b0:	54fffe8d 	b.le	91380 <_strtodg_l+0xd8>
   913b4:	0b000660 	add	w0, w19, w0, lsl #1
   913b8:	f9009be2 	str	x2, [sp, #304]
   913bc:	710042df 	cmp	w22, #0x10
   913c0:	5100c000 	sub	w0, w0, #0x30
   913c4:	1a98b018 	csel	w24, w0, w24, lt  // lt = tstop
   913c8:	aa0203e0 	mov	x0, x2
   913cc:	38401453 	ldrb	w19, [x2], #1
   913d0:	110006d6 	add	w22, w22, #0x1
   913d4:	5100c263 	sub	w3, w19, #0x30
   913d8:	7100247f 	cmp	w3, #0x9
   913dc:	54fffe49 	b.ls	913a4 <_strtodg_l+0xfc>  // b.plast
   913e0:	aa1c03e2 	mov	x2, x28
   913e4:	97ffef1e 	bl	8d05c <strncmp>
   913e8:	34001bc0 	cbz	w0, 91760 <_strtodg_l+0x4b8>
   913ec:	121a7a60 	and	w0, w19, #0xffffffdf
   913f0:	7101141f 	cmp	w0, #0x45
   913f4:	54000fe0 	b.eq	915f0 <_strtodg_l+0x348>  // b.none
   913f8:	2a1603fb 	mov	w27, w22
   913fc:	52800007 	mov	w7, #0x0                   	// #0
   91400:	5280001c 	mov	w28, #0x0                   	// #0
   91404:	52800021 	mov	w1, #0x1                   	// #1
   91408:	b9400f40 	ldr	w0, [x26, #12]
   9140c:	b90123e1 	str	w1, [sp, #288]
   91410:	4b070381 	sub	w1, w28, w7
   91414:	b900d3e1 	str	w1, [sp, #208]
   91418:	12000400 	and	w0, w0, #0x3
   9141c:	b940a3e1 	ldr	w1, [sp, #160]
   91420:	7100081f 	cmp	w0, #0x2
   91424:	4b010002 	sub	w2, w0, w1
   91428:	b900c3e2 	str	w2, [sp, #192]
   9142c:	54000100 	b.eq	9144c <_strtodg_l+0x1a4>  // b.none
   91430:	11000421 	add	w1, w1, #0x1
   91434:	b900c3e1 	str	w1, [sp, #192]
   91438:	71000c1f 	cmp	w0, #0x3
   9143c:	54000080 	b.eq	9144c <_strtodg_l+0x1a4>  // b.none
   91440:	7100001f 	cmp	w0, #0x0
   91444:	1a9f17e0 	cset	w0, eq  // eq = none
   91448:	b900c3e0 	str	w0, [sp, #192]
   9144c:	1e6302a0 	ucvtf	d0, w21
   91450:	710002df 	cmp	w22, #0x0
   91454:	1a9b12d6 	csel	w22, w22, w27, ne  // ne = any
   91458:	7100437f 	cmp	w27, #0x10
   9145c:	52800208 	mov	w8, #0x10                  	// #16
   91460:	1a88d368 	csel	w8, w27, w8, le
   91464:	7100277f 	cmp	w27, #0x9
   91468:	9e660013 	fmov	x19, d0
   9146c:	5400010d 	b.le	9148c <_strtodg_l+0x1e4>
   91470:	90000020 	adrp	x0, 95000 <BitFont+0xb40>
   91474:	51002501 	sub	w1, w8, #0x9
   91478:	91242000 	add	x0, x0, #0x908
   9147c:	1e630301 	ucvtf	d1, w24
   91480:	fc61d802 	ldr	d2, [x0, w1, sxtw #3]
   91484:	1f420400 	fmadd	d0, d0, d2, d1
   91488:	9e660013 	fmov	x19, d0
   9148c:	7100d6ff 	cmp	w23, #0x35
   91490:	7a4fdb60 	ccmp	w27, #0xf, #0x0, le
   91494:	54001bec 	b.gt	91810 <_strtodg_l+0x568>
   91498:	4b070380 	sub	w0, w28, w7
   9149c:	7100001f 	cmp	w0, #0x0
   914a0:	540019a0 	b.eq	917d4 <_strtodg_l+0x52c>  // b.none
   914a4:	4b070380 	sub	w0, w28, w7
   914a8:	5400954d 	b.le	92750 <_strtodg_l+0x14a8>
   914ac:	7100581f 	cmp	w0, #0x16
   914b0:	54009aad 	b.le	92804 <_strtodg_l+0x155c>
   914b4:	4b070381 	sub	w1, w28, w7
   914b8:	528004a0 	mov	w0, #0x25                  	// #37
   914bc:	4b080374 	sub	w20, w27, w8
   914c0:	4b1b0000 	sub	w0, w0, w27
   914c4:	0b010294 	add	w20, w20, w1
   914c8:	6b01001f 	cmp	w0, w1
   914cc:	54001acb 	b.lt	91824 <_strtodg_l+0x57c>  // b.tstop
   914d0:	528001e1 	mov	w1, #0xf                   	// #15
   914d4:	90000020 	adrp	x0, 95000 <BitFont+0xb40>
   914d8:	4b1b0021 	sub	w1, w1, w27
   914dc:	91242000 	add	x0, x0, #0x908
   914e0:	b940d3e2 	ldr	w2, [sp, #208]
   914e4:	9e670262 	fmov	d2, x19
   914e8:	9e660183 	fmov	x3, d12
   914ec:	b940c3e5 	ldr	w5, [sp, #192]
   914f0:	fc61d801 	ldr	d1, [x0, w1, sxtw #3]
   914f4:	4b010042 	sub	w2, w2, w1
   914f8:	910483e6 	add	x6, sp, #0x120
   914fc:	aa1a03e1 	mov	x1, x26
   91500:	52800004 	mov	w4, #0x0                   	// #0
   91504:	2916a3e7 	stp	w7, w8, [sp, #180]
   91508:	1e620821 	fmul	d1, d1, d2
   9150c:	fc62d800 	ldr	d0, [x0, w2, sxtw #3]
   91510:	9e660100 	fmov	x0, d8
   91514:	f94067e2 	ldr	x2, [sp, #200]
   91518:	1e600821 	fmul	d1, d1, d0
   9151c:	1e604020 	fmov	d0, d1
   91520:	9e660033 	fmov	x19, d1
   91524:	97fffe4d 	bl	90e58 <rvOK>
   91528:	2956a3e7 	ldp	w7, w8, [sp, #180]
   9152c:	350016e0 	cbnz	w0, 91808 <_strtodg_l+0x560>
   91530:	52800014 	mov	w20, #0x0                   	// #0
   91534:	140000b8 	b	91814 <_strtodg_l+0x56c>
   91538:	7100267f 	cmp	w19, #0x9
   9153c:	54000502 	b.cs	915dc <_strtodg_l+0x334>  // b.hs, b.nlast
   91540:	35000273 	cbnz	w19, 9158c <_strtodg_l+0x2e4>
   91544:	f94057e1 	ldr	x1, [sp, #168]
   91548:	528000c0 	mov	w0, #0x6                   	// #6
   9154c:	b90123e0 	str	w0, [sp, #288]
   91550:	b4000081 	cbz	x1, 91560 <_strtodg_l+0x2b8>
   91554:	f94057e0 	ldr	x0, [sp, #168]
   91558:	f900001b 	str	x27, [x0]
   9155c:	b94123e0 	ldr	w0, [sp, #288]
   91560:	a94153f3 	ldp	x19, x20, [sp, #16]
   91564:	a9425bf5 	ldp	x21, x22, [sp, #32]
   91568:	a94363f7 	ldp	x23, x24, [sp, #48]
   9156c:	a9446bf9 	ldp	x25, x26, [sp, #64]
   91570:	a94573fb 	ldp	x27, x28, [sp, #80]
   91574:	6d4627e8 	ldp	d8, d9, [sp, #96]
   91578:	6d4837ec 	ldp	d12, d13, [sp, #128]
   9157c:	a8d47bfd 	ldp	x29, x30, [sp], #320
   91580:	d65f03c0 	ret
   91584:	7100827f 	cmp	w19, #0x20
   91588:	540002a0 	b.eq	915dc <_strtodg_l+0x334>  // b.none
   9158c:	b900a3ff 	str	wzr, [sp, #160]
   91590:	7100c27f 	cmp	w19, #0x30
   91594:	52800014 	mov	w20, #0x0                   	// #0
   91598:	54ffedc1 	b.ne	91350 <_strtodg_l+0xa8>  // b.any
   9159c:	39400722 	ldrb	w2, [x25, #1]
   915a0:	7101605f 	cmp	w2, #0x58
   915a4:	54008560 	b.eq	92650 <_strtodg_l+0x13a8>  // b.none
   915a8:	91000721 	add	x1, x25, #0x1
   915ac:	7101e05f 	cmp	w2, #0x78
   915b0:	54008500 	b.eq	92650 <_strtodg_l+0x13a8>  // b.none
   915b4:	d503201f 	nop
   915b8:	f9009be1 	str	x1, [sp, #304]
   915bc:	aa0103f9 	mov	x25, x1
   915c0:	38401433 	ldrb	w19, [x1], #1
   915c4:	7100c27f 	cmp	w19, #0x30
   915c8:	54ffff80 	b.eq	915b8 <_strtodg_l+0x310>  // b.none
   915cc:	d2800002 	mov	x2, #0x0                   	// #0
   915d0:	34000713 	cbz	w19, 916b0 <_strtodg_l+0x408>
   915d4:	52800034 	mov	w20, #0x1                   	// #1
   915d8:	17ffff5e 	b	91350 <_strtodg_l+0xa8>
   915dc:	91000421 	add	x1, x1, #0x1
   915e0:	f9009be1 	str	x1, [sp, #304]
   915e4:	17ffff4a 	b	9130c <_strtodg_l+0x64>
   915e8:	b900a3ff 	str	wzr, [sp, #160]
   915ec:	17ffff52 	b	91334 <_strtodg_l+0x8c>
   915f0:	2a1603e5 	mov	w5, w22
   915f4:	52800000 	mov	w0, #0x0                   	// #0
   915f8:	52800007 	mov	w7, #0x0                   	// #0
   915fc:	52800003 	mov	w3, #0x0                   	// #0
   91600:	f9409bfb 	ldr	x27, [sp, #304]
   91604:	91000761 	add	x1, x27, #0x1
   91608:	f9009be1 	str	x1, [sp, #304]
   9160c:	39400773 	ldrb	w19, [x27, #1]
   91610:	7100ae7f 	cmp	w19, #0x2b
   91614:	540081a0 	b.eq	92648 <_strtodg_l+0x13a0>  // b.none
   91618:	52800006 	mov	w6, #0x0                   	// #0
   9161c:	7100b67f 	cmp	w19, #0x2d
   91620:	540000a1 	b.ne	91634 <_strtodg_l+0x38c>  // b.any
   91624:	52800026 	mov	w6, #0x1                   	// #1
   91628:	91000b61 	add	x1, x27, #0x2
   9162c:	f9009be1 	str	x1, [sp, #304]
   91630:	39400b73 	ldrb	w19, [x27, #2]
   91634:	5100c261 	sub	w1, w19, #0x30
   91638:	7100243f 	cmp	w1, #0x9
   9163c:	54003988 	b.hi	91d6c <_strtodg_l+0xac4>  // b.pmore
   91640:	7100c27f 	cmp	w19, #0x30
   91644:	540000e1 	b.ne	91660 <_strtodg_l+0x3b8>  // b.any
   91648:	f9409be1 	ldr	x1, [sp, #304]
   9164c:	91000421 	add	x1, x1, #0x1
   91650:	f9009be1 	str	x1, [sp, #304]
   91654:	38401433 	ldrb	w19, [x1], #1
   91658:	7100c27f 	cmp	w19, #0x30
   9165c:	54ffffa0 	b.eq	91650 <_strtodg_l+0x3a8>  // b.none
   91660:	5100c661 	sub	w1, w19, #0x31
   91664:	5280001c 	mov	w28, #0x0                   	// #0
   91668:	7100203f 	cmp	w1, #0x8
   9166c:	540047e9 	b.ls	91f68 <_strtodg_l+0xcc0>  // b.plast
   91670:	3500ac96 	cbnz	w22, 92c00 <_strtodg_l+0x1958>
   91674:	2a000280 	orr	w0, w20, w0
   91678:	35000c80 	cbnz	w0, 91808 <_strtodg_l+0x560>
   9167c:	35000123 	cbnz	w3, 916a0 <_strtodg_l+0x3f8>
   91680:	71013a7f 	cmp	w19, #0x4e
   91684:	540044a0 	b.eq	91f18 <_strtodg_l+0xc70>  // b.none
   91688:	5400038d 	b.le	916f8 <_strtodg_l+0x450>
   9168c:	7101a67f 	cmp	w19, #0x69
   91690:	54000380 	b.eq	91700 <_strtodg_l+0x458>  // b.none
   91694:	7101ba7f 	cmp	w19, #0x6e
   91698:	54004400 	b.eq	91f18 <_strtodg_l+0xc70>  // b.none
   9169c:	d503201f 	nop
   916a0:	f9409fe2 	ldr	x2, [sp, #312]
   916a4:	528000c0 	mov	w0, #0x6                   	// #6
   916a8:	b90123e0 	str	w0, [sp, #288]
   916ac:	f9009bfb 	str	x27, [sp, #304]
   916b0:	f94057e1 	ldr	x1, [sp, #168]
   916b4:	b4000061 	cbz	x1, 916c0 <_strtodg_l+0x418>
   916b8:	f9409be0 	ldr	x0, [sp, #304]
   916bc:	f9000020 	str	x0, [x1]
   916c0:	b940a3e0 	ldr	w0, [sp, #160]
   916c4:	34000080 	cbz	w0, 916d4 <_strtodg_l+0x42c>
   916c8:	b94123e1 	ldr	w1, [sp, #288]
   916cc:	321d0021 	orr	w1, w1, #0x8
   916d0:	b90123e1 	str	w1, [sp, #288]
   916d4:	b4fff442 	cbz	x2, 9155c <_strtodg_l+0x2b4>
   916d8:	9e660180 	fmov	x0, d12
   916dc:	2a1703e1 	mov	w1, w23
   916e0:	97fffd22 	bl	90b68 <__copybits>
   916e4:	9e660100 	fmov	x0, d8
   916e8:	f9409fe1 	ldr	x1, [sp, #312]
   916ec:	97fff9ff 	bl	8fee8 <_Bfree>
   916f0:	b94123e0 	ldr	w0, [sp, #288]
   916f4:	17ffff9b 	b	91560 <_strtodg_l+0x2b8>
   916f8:	7101267f 	cmp	w19, #0x49
   916fc:	54fffd21 	b.ne	916a0 <_strtodg_l+0x3f8>  // b.any
   91700:	90000021 	adrp	x1, 95000 <BitFont+0xb40>
   91704:	9104c3e0 	add	x0, sp, #0x130
   91708:	9119a021 	add	x1, x1, #0x668
   9170c:	97fff851 	bl	8f850 <__match>
   91710:	34fffc80 	cbz	w0, 916a0 <_strtodg_l+0x3f8>
   91714:	f9409be2 	ldr	x2, [sp, #304]
   91718:	90000021 	adrp	x1, 95000 <BitFont+0xb40>
   9171c:	9104c3e0 	add	x0, sp, #0x130
   91720:	9119c021 	add	x1, x1, #0x670
   91724:	d1000442 	sub	x2, x2, #0x1
   91728:	f9009be2 	str	x2, [sp, #304]
   9172c:	97fff849 	bl	8f850 <__match>
   91730:	35000080 	cbnz	w0, 91740 <_strtodg_l+0x498>
   91734:	f9409be0 	ldr	x0, [sp, #304]
   91738:	91000400 	add	x0, x0, #0x1
   9173c:	f9009be0 	str	x0, [sp, #304]
   91740:	52800061 	mov	w1, #0x3                   	// #3
   91744:	b90123e1 	str	w1, [sp, #288]
   91748:	f94067e1 	ldr	x1, [sp, #200]
   9174c:	b9400b40 	ldr	w0, [x26, #8]
   91750:	f9409fe2 	ldr	x2, [sp, #312]
   91754:	11000400 	add	w0, w0, #0x1
   91758:	b9000020 	str	w0, [x1]
   9175c:	17ffffd5 	b	916b0 <_strtodg_l+0x408>
   91760:	f9409be1 	ldr	x1, [sp, #304]
   91764:	2a1603e5 	mov	w5, w22
   91768:	52800007 	mov	w7, #0x0                   	// #0
   9176c:	8b1c0022 	add	x2, x1, x28
   91770:	f9009be2 	str	x2, [sp, #304]
   91774:	387c6833 	ldrb	w19, [x1, x28]
   91778:	5100c263 	sub	w3, w19, #0x30
   9177c:	7100247f 	cmp	w3, #0x9
   91780:	540001a8 	b.hi	917b4 <_strtodg_l+0x50c>  // b.pmore
   91784:	11000400 	add	w0, w0, #0x1
   91788:	2a0303f3 	mov	w19, w3
   9178c:	f9409be6 	ldr	x6, [sp, #304]
   91790:	35007a23 	cbnz	w3, 926d4 <_strtodg_l+0x142c>
   91794:	910004c1 	add	x1, x6, #0x1
   91798:	f9009be1 	str	x1, [sp, #304]
   9179c:	394004d3 	ldrb	w19, [x6, #1]
   917a0:	17fffff6 	b	91778 <_strtodg_l+0x4d0>
   917a4:	52800005 	mov	w5, #0x0                   	// #0
   917a8:	52800007 	mov	w7, #0x0                   	// #0
   917ac:	52800018 	mov	w24, #0x0                   	// #0
   917b0:	52800015 	mov	w21, #0x0                   	// #0
   917b4:	52800023 	mov	w3, #0x1                   	// #1
   917b8:	121a7a61 	and	w1, w19, #0xffffffdf
   917bc:	7101143f 	cmp	w1, #0x45
   917c0:	54007f21 	b.ne	927a4 <_strtodg_l+0x14fc>  // b.any
   917c4:	2a0002c1 	orr	w1, w22, w0
   917c8:	2a140021 	orr	w1, w1, w20
   917cc:	34fff6a1 	cbz	w1, 916a0 <_strtodg_l+0x3f8>
   917d0:	17ffff8c 	b	91600 <_strtodg_l+0x358>
   917d4:	9e660183 	fmov	x3, d12
   917d8:	9e660100 	fmov	x0, d8
   917dc:	b940c3e5 	ldr	w5, [sp, #192]
   917e0:	9e670260 	fmov	d0, x19
   917e4:	f94067e2 	ldr	x2, [sp, #200]
   917e8:	910483e6 	add	x6, sp, #0x120
   917ec:	52800024 	mov	w4, #0x1                   	// #1
   917f0:	aa1a03e1 	mov	x1, x26
   917f4:	2916a3e7 	stp	w7, w8, [sp, #180]
   917f8:	97fffd98 	bl	90e58 <rvOK>
   917fc:	2956a3e7 	ldp	w7, w8, [sp, #180]
   91800:	34ffe980 	cbz	w0, 91530 <_strtodg_l+0x288>
   91804:	d503201f 	nop
   91808:	f9409fe2 	ldr	x2, [sp, #312]
   9180c:	17ffffa9 	b	916b0 <_strtodg_l+0x408>
   91810:	4b070394 	sub	w20, w28, w7
   91814:	4b080368 	sub	w8, w27, w8
   91818:	0b140114 	add	w20, w8, w20
   9181c:	7100029f 	cmp	w20, #0x0
   91820:	54002acd 	b.le	91d78 <_strtodg_l+0xad0>
   91824:	72000e81 	ands	w1, w20, #0xf
   91828:	540000e0 	b.eq	91844 <_strtodg_l+0x59c>  // b.none
   9182c:	90000020 	adrp	x0, 95000 <BitFont+0xb40>
   91830:	91242000 	add	x0, x0, #0x908
   91834:	9e670261 	fmov	d1, x19
   91838:	fc61d800 	ldr	d0, [x0, w1, sxtw #3]
   9183c:	1e610800 	fmul	d0, d0, d1
   91840:	9e660013 	fmov	x19, d0
   91844:	721c6e94 	ands	w20, w20, #0xfffffff0
   91848:	540030c1 	b.ne	91e60 <_strtodg_l+0xbb8>  // b.any
   9184c:	9e670260 	fmov	d0, x19
   91850:	9e660100 	fmov	x0, d8
   91854:	910493e2 	add	x2, sp, #0x124
   91858:	9104a3e1 	add	x1, sp, #0x128
   9185c:	b900b7e7 	str	w7, [sp, #180]
   91860:	97fffc58 	bl	909c0 <__d2b>
   91864:	f9009fe0 	str	x0, [sp, #312]
   91868:	b9412be2 	ldr	w2, [sp, #296]
   9186c:	b94127e1 	ldr	w1, [sp, #292]
   91870:	0b020294 	add	w20, w20, w2
   91874:	b9012bf4 	str	w20, [sp, #296]
   91878:	4b17002b 	sub	w11, w1, w23
   9187c:	b940b7e7 	ldr	w7, [sp, #180]
   91880:	7100017f 	cmp	w11, #0x0
   91884:	5400014d 	b.le	918ac <_strtodg_l+0x604>
   91888:	2a0b03e1 	mov	w1, w11
   9188c:	b900b7e7 	str	w7, [sp, #180]
   91890:	97fffcf6 	bl	90c68 <rshift>
   91894:	b9412bf4 	ldr	w20, [sp, #296]
   91898:	b940b7e7 	ldr	w7, [sp, #180]
   9189c:	2a1703e1 	mov	w1, w23
   918a0:	0b140174 	add	w20, w11, w20
   918a4:	b90127f7 	str	w23, [sp, #292]
   918a8:	b9012bf4 	str	w20, [sp, #296]
   918ac:	0b140022 	add	w2, w1, w20
   918b0:	b9400b40 	ldr	w0, [x26, #8]
   918b4:	4b170042 	sub	w2, w2, w23
   918b8:	b900d7e2 	str	w2, [sp, #212]
   918bc:	11000400 	add	w0, w0, #0x1
   918c0:	6b02001f 	cmp	w0, w2
   918c4:	54006bab 	b.lt	92638 <_strtodg_l+0x1390>  // b.tstop
   918c8:	b9400740 	ldr	w0, [x26, #4]
   918cc:	b90107e0 	str	w0, [sp, #260]
   918d0:	6b00005f 	cmp	w2, w0
   918d4:	54006eca 	b.ge	926ac <_strtodg_l+0x1404>  // b.tcont
   918d8:	4b000293 	sub	w19, w20, w0
   918dc:	7100027f 	cmp	w19, #0x0
   918e0:	540037ac 	b.gt	91fd4 <_strtodg_l+0xd2c>
   918e4:	54007641 	b.ne	927ac <_strtodg_l+0x1504>  // b.any
   918e8:	b940efe0 	ldr	w0, [sp, #236]
   918ec:	b94107e1 	ldr	w1, [sp, #260]
   918f0:	b9012be1 	str	w1, [sp, #296]
   918f4:	34006e40 	cbz	w0, 926bc <_strtodg_l+0x1414>
   918f8:	b940d7e0 	ldr	w0, [sp, #212]
   918fc:	52800038 	mov	w24, #0x1                   	// #1
   91900:	b900d7e1 	str	w1, [sp, #212]
   91904:	11000400 	add	w0, w0, #0x1
   91908:	6b01001f 	cmp	w0, w1
   9190c:	5400768b 	b.lt	927dc <_strtodg_l+0x1534>  // b.tstop
   91910:	6d072fea 	stp	d10, d11, [sp, #112]
   91914:	fd004bee 	str	d14, [sp, #144]
   91918:	9e660100 	fmov	x0, d8
   9191c:	aa1903e1 	mov	x1, x25
   91920:	2a1503e4 	mov	w4, w21
   91924:	2a1b03e3 	mov	w3, w27
   91928:	2a1603e2 	mov	w2, w22
   9192c:	b900b7e7 	str	w7, [sp, #180]
   91930:	52800013 	mov	w19, #0x0                   	// #0
   91934:	97fff9b1 	bl	8fff8 <__s2b>
   91938:	f9006fe0 	str	x0, [sp, #216]
   9193c:	b940d3e1 	ldr	w1, [sp, #208]
   91940:	91004000 	add	x0, x0, #0x10
   91944:	b940b7e7 	ldr	w7, [sp, #180]
   91948:	7100003f 	cmp	w1, #0x0
   9194c:	f90073e0 	str	x0, [sp, #224]
   91950:	4b1c00e7 	sub	w7, w7, w28
   91954:	f90087fa 	str	x26, [sp, #264]
   91958:	1a9fb0e0 	csel	w0, w7, wzr, lt  // lt = tstop
   9195c:	b900b7e0 	str	w0, [sp, #180]
   91960:	1a9fa020 	csel	w0, w1, wzr, ge  // ge = tcont
   91964:	90000021 	adrp	x1, 95000 <BitFont+0xb40>
   91968:	b94107fa 	ldr	w26, [sp, #260]
   9196c:	b900c7e0 	str	w0, [sp, #196]
   91970:	110006e0 	add	w0, w23, #0x1
   91974:	fd45042d 	ldr	d13, [x1, #2568]
   91978:	b900ebe0 	str	w0, [sp, #232]
   9197c:	b26a67e0 	mov	x0, #0xffffffc00000        	// #281474972516352
   91980:	f2e83be0 	movk	x0, #0x41df, lsl #48
   91984:	9e67000e 	fmov	d14, x0
   91988:	f9406ff4 	ldr	x20, [sp, #216]
   9198c:	9e660100 	fmov	x0, d8
   91990:	b9400a81 	ldr	w1, [x20, #8]
   91994:	97fff931 	bl	8fe58 <_Balloc>
   91998:	aa0003f6 	mov	x22, x0
   9199c:	b9801682 	ldrsw	x2, [x20, #20]
   919a0:	91004000 	add	x0, x0, #0x10
   919a4:	f94073e1 	ldr	x1, [sp, #224]
   919a8:	91000842 	add	x2, x2, #0x2
   919ac:	d37ef442 	lsl	x2, x2, #2
   919b0:	97fff854 	bl	8fb00 <memcpy>
   919b4:	9e660100 	fmov	x0, d8
   919b8:	f9409fe1 	ldr	x1, [sp, #312]
   919bc:	b9400821 	ldr	w1, [x1, #8]
   919c0:	97fff926 	bl	8fe58 <_Balloc>
   919c4:	aa0003f5 	mov	x21, x0
   919c8:	f9409fe2 	ldr	x2, [sp, #312]
   919cc:	91004000 	add	x0, x0, #0x10
   919d0:	91004041 	add	x1, x2, #0x10
   919d4:	b9801442 	ldrsw	x2, [x2, #20]
   919d8:	91000842 	add	x2, x2, #0x2
   919dc:	d37ef442 	lsl	x2, x2, #2
   919e0:	97fff848 	bl	8fb00 <memcpy>
   919e4:	b9412be2 	ldr	w2, [sp, #296]
   919e8:	9e660100 	fmov	x0, d8
   919ec:	b94127f4 	ldr	w20, [sp, #292]
   919f0:	52800021 	mov	w1, #0x1                   	// #1
   919f4:	b900bbe2 	str	w2, [sp, #184]
   919f8:	4b130299 	sub	w25, w20, w19
   919fc:	97fffa07 	bl	90218 <__i2b>
   91a00:	9e670009 	fmov	d9, x0
   91a04:	b940bbe2 	ldr	w2, [sp, #184]
   91a08:	0b13005c 	add	w28, w2, w19
   91a0c:	37f8477c 	tbnz	w28, #31, 922f8 <_strtodg_l+0x1050>
   91a10:	b940b7e0 	ldr	w0, [sp, #180]
   91a14:	0b1c001b 	add	w27, w0, w28
   91a18:	b940c7fc 	ldr	w28, [sp, #196]
   91a1c:	0b020294 	add	w20, w20, w2
   91a20:	b940ebe0 	ldr	w0, [sp, #232]
   91a24:	4b170294 	sub	w20, w20, w23
   91a28:	4b1a0281 	sub	w1, w20, w26
   91a2c:	4b190000 	sub	w0, w0, w25
   91a30:	6b14035f 	cmp	w26, w20
   91a34:	0b010001 	add	w1, w0, w1
   91a38:	1a80c020 	csel	w0, w1, w0, gt
   91a3c:	0b00039c 	add	w28, w28, w0
   91a40:	0b000374 	add	w20, w27, w0
   91a44:	6b1c029f 	cmp	w20, w28
   91a48:	1a9cd280 	csel	w0, w20, w28, le
   91a4c:	6b00037f 	cmp	w27, w0
   91a50:	1a80d360 	csel	w0, w27, w0, le
   91a54:	7100001f 	cmp	w0, #0x0
   91a58:	5400008d 	b.le	91a68 <_strtodg_l+0x7c0>
   91a5c:	4b000294 	sub	w20, w20, w0
   91a60:	4b00039c 	sub	w28, w28, w0
   91a64:	4b00037b 	sub	w27, w27, w0
   91a68:	b940b7e0 	ldr	w0, [sp, #180]
   91a6c:	7100001f 	cmp	w0, #0x0
   91a70:	540001ed 	b.le	91aac <_strtodg_l+0x804>
   91a74:	9e660121 	fmov	x1, d9
   91a78:	2a0003e2 	mov	w2, w0
   91a7c:	9e660100 	fmov	x0, d8
   91a80:	97fffa64 	bl	90410 <__pow5mult>
   91a84:	aa0003e1 	mov	x1, x0
   91a88:	9e670009 	fmov	d9, x0
   91a8c:	9e660100 	fmov	x0, d8
   91a90:	aa1503e2 	mov	x2, x21
   91a94:	97fff9ed 	bl	90248 <__multiply>
   91a98:	aa0003e2 	mov	x2, x0
   91a9c:	9e660100 	fmov	x0, d8
   91aa0:	aa1503e1 	mov	x1, x21
   91aa4:	aa0203f5 	mov	x21, x2
   91aa8:	97fff910 	bl	8fee8 <_Bfree>
   91aac:	4b130282 	sub	w2, w20, w19
   91ab0:	7100005f 	cmp	w2, #0x0
   91ab4:	5400418c 	b.gt	922e4 <_strtodg_l+0x103c>
   91ab8:	54005121 	b.ne	924dc <_strtodg_l+0x1234>  // b.any
   91abc:	b940d3e0 	ldr	w0, [sp, #208]
   91ac0:	7100001f 	cmp	w0, #0x0
   91ac4:	540000cd 	b.le	91adc <_strtodg_l+0x834>
   91ac8:	9e660100 	fmov	x0, d8
   91acc:	b940c7e2 	ldr	w2, [sp, #196]
   91ad0:	aa1603e1 	mov	x1, x22
   91ad4:	97fffa4f 	bl	90410 <__pow5mult>
   91ad8:	aa0003f6 	mov	x22, x0
   91adc:	7100039f 	cmp	w28, #0x0
   91ae0:	540000cd 	b.le	91af8 <_strtodg_l+0x850>
   91ae4:	9e660100 	fmov	x0, d8
   91ae8:	aa1603e1 	mov	x1, x22
   91aec:	2a1c03e2 	mov	w2, w28
   91af0:	97fffa90 	bl	90530 <__lshift>
   91af4:	aa0003f6 	mov	x22, x0
   91af8:	7100037f 	cmp	w27, #0x0
   91afc:	540000cd 	b.le	91b14 <_strtodg_l+0x86c>
   91b00:	9e660121 	fmov	x1, d9
   91b04:	9e660100 	fmov	x0, d8
   91b08:	2a1b03e2 	mov	w2, w27
   91b0c:	97fffa89 	bl	90530 <__lshift>
   91b10:	9e670009 	fmov	d9, x0
   91b14:	9e660100 	fmov	x0, d8
   91b18:	aa1603e2 	mov	x2, x22
   91b1c:	aa1503e1 	mov	x1, x21
   91b20:	97fffae4 	bl	906b0 <__mdiff>
   91b24:	aa0003f4 	mov	x20, x0
   91b28:	b9401400 	ldr	w0, [x0, #20]
   91b2c:	7100041f 	cmp	w0, #0x1
   91b30:	5400006c 	b.gt	91b3c <_strtodg_l+0x894>
   91b34:	b9401a80 	ldr	w0, [x20, #24]
   91b38:	34005ae0 	cbz	w0, 92694 <_strtodg_l+0x13ec>
   91b3c:	9e660121 	fmov	x1, d9
   91b40:	b940129b 	ldr	w27, [x20, #16]
   91b44:	b900129f 	str	wzr, [x20, #16]
   91b48:	aa1403e0 	mov	x0, x20
   91b4c:	97fffac5 	bl	90660 <__mcmp>
   91b50:	b940c3e1 	ldr	w1, [sp, #192]
   91b54:	7100003f 	cmp	w1, #0x0
   91b58:	7a401800 	ccmp	w0, #0x0, #0x0, ne  // ne = any
   91b5c:	54002e0c 	b.gt	9211c <_strtodg_l+0xe74>
   91b60:	12000020 	and	w0, w1, #0x1
   91b64:	6b1b001f 	cmp	w0, w27
   91b68:	4a1b0013 	eor	w19, w0, w27
   91b6c:	540071a0 	b.eq	929a0 <_strtodg_l+0x16f8>  // b.none
   91b70:	350048fb 	cbnz	w27, 9248c <_strtodg_l+0x11e4>
   91b74:	52800220 	mov	w0, #0x11                  	// #17
   91b78:	b90123e0 	str	w0, [sp, #288]
   91b7c:	b940d7e0 	ldr	w0, [sp, #212]
   91b80:	6b1a001f 	cmp	w0, w26
   91b84:	54000340 	b.eq	91bec <_strtodg_l+0x944>  // b.none
   91b88:	f9409fe4 	ldr	x4, [sp, #312]
   91b8c:	71007eff 	cmp	w23, #0x1f
   91b90:	aa0403e1 	mov	x1, x4
   91b94:	5400676d 	b.le	92880 <_strtodg_l+0x15d8>
   91b98:	b9401880 	ldr	w0, [x4, #24]
   91b9c:	35000280 	cbnz	w0, 91bec <_strtodg_l+0x944>
   91ba0:	2a1703fc 	mov	w28, w23
   91ba4:	d2800020 	mov	x0, #0x1                   	// #1
   91ba8:	91005083 	add	x3, x4, #0x14
   91bac:	14000003 	b	91bb8 <_strtodg_l+0x910>
   91bb0:	b8607862 	ldr	w2, [x3, x0, lsl #2]
   91bb4:	350001c2 	cbnz	w2, 91bec <_strtodg_l+0x944>
   91bb8:	5100839c 	sub	w28, w28, #0x20
   91bbc:	2a0003fb 	mov	w27, w0
   91bc0:	71007f9f 	cmp	w28, #0x1f
   91bc4:	91000400 	add	x0, x0, #0x1
   91bc8:	54ffff4c 	b.gt	91bb0 <_strtodg_l+0x908>
   91bcc:	7100079f 	cmp	w28, #0x1
   91bd0:	54007d8d 	b.le	92b80 <_strtodg_l+0x18d8>
   91bd4:	91006080 	add	x0, x4, #0x18
   91bd8:	5100079c 	sub	w28, w28, #0x1
   91bdc:	8b3bc800 	add	x0, x0, w27, sxtw #2
   91be0:	97fff966 	bl	90178 <__lo0bits>
   91be4:	6b1c001f 	cmp	w0, w28
   91be8:	54007b4a 	b.ge	92b50 <_strtodg_l+0x18a8>  // b.tcont
   91bec:	7100073f 	cmp	w25, #0x1
   91bf0:	1a9fc7e0 	cset	w0, le
   91bf4:	6a00031f 	tst	w24, w0
   91bf8:	54006f01 	b.ne	929d8 <_strtodg_l+0x1730>  // b.any
   91bfc:	1e6e100a 	fmov	d10, #1.000000000000000000e+00
   91c00:	52800200 	mov	w0, #0x10                  	// #16
   91c04:	5280003c 	mov	w28, #0x1                   	// #1
   91c08:	b900bbff 	str	wzr, [sp, #184]
   91c0c:	1e60414b 	fmov	d11, d10
   91c10:	b90103e0 	str	w0, [sp, #256]
   91c14:	b94127e2 	ldr	w2, [sp, #292]
   91c18:	52000300 	eor	w0, w24, #0x1
   91c1c:	b9412be3 	ldr	w3, [sp, #296]
   91c20:	6b17005f 	cmp	w2, w23
   91c24:	0b030043 	add	w3, w2, w3
   91c28:	b900bfe3 	str	w3, [sp, #188]
   91c2c:	1a9fa7e1 	cset	w1, lt  // lt = tstop
   91c30:	6a01001f 	tst	w0, w1
   91c34:	540043e1 	b.ne	924b0 <_strtodg_l+0x1208>  // b.any
   91c38:	1e604140 	fmov	d0, d10
   91c3c:	9e660100 	fmov	x0, d8
   91c40:	910473e2 	add	x2, sp, #0x11c
   91c44:	910463e1 	add	x1, sp, #0x118
   91c48:	97fffb5e 	bl	909c0 <__d2b>
   91c4c:	aa0003f9 	mov	x25, x0
   91c50:	b9411be2 	ldr	w2, [sp, #280]
   91c54:	7100005f 	cmp	w2, #0x0
   91c58:	54003b4b 	b.lt	923c0 <_strtodg_l+0x1118>  // b.tstop
   91c5c:	540000a0 	b.eq	91c70 <_strtodg_l+0x9c8>  // b.none
   91c60:	aa0003e1 	mov	x1, x0
   91c64:	9e660100 	fmov	x0, d8
   91c68:	97fffa32 	bl	90530 <__lshift>
   91c6c:	aa0003f9 	mov	x25, x0
   91c70:	f9409ffb 	ldr	x27, [sp, #312]
   91c74:	b9401760 	ldr	w0, [x27, #20]
   91c78:	3400277c 	cbz	w28, 92164 <_strtodg_l+0xebc>
   91c7c:	51000400 	sub	w0, w0, #0x1
   91c80:	8b20cb60 	add	x0, x27, w0, sxtw #2
   91c84:	b9401800 	ldr	w0, [x0, #24]
   91c88:	97fff924 	bl	90118 <__hi0bits>
   91c8c:	9e660100 	fmov	x0, d8
   91c90:	f9409fe1 	ldr	x1, [sp, #312]
   91c94:	aa1903e2 	mov	x2, x25
   91c98:	97fffa86 	bl	906b0 <__mdiff>
   91c9c:	f9009fe0 	str	x0, [sp, #312]
   91ca0:	350001d8 	cbnz	w24, 91cd8 <_strtodg_l+0xa30>
   91ca4:	b9401761 	ldr	w1, [x27, #20]
   91ca8:	b9401402 	ldr	w2, [x0, #20]
   91cac:	51000421 	sub	w1, w1, #0x1
   91cb0:	6b01005f 	cmp	w2, w1
   91cb4:	5400430c 	b.gt	92514 <_strtodg_l+0x126c>
   91cb8:	b940d7e0 	ldr	w0, [sp, #212]
   91cbc:	6b1a001f 	cmp	w0, w26
   91cc0:	54003241 	b.ne	92308 <_strtodg_l+0x1060>  // b.any
   91cc4:	b94127e0 	ldr	w0, [sp, #292]
   91cc8:	2a1c03f8 	mov	w24, w28
   91ccc:	51000400 	sub	w0, w0, #0x1
   91cd0:	b90127e0 	str	w0, [sp, #292]
   91cd4:	d503201f 	nop
   91cd8:	9e660100 	fmov	x0, d8
   91cdc:	aa1903e1 	mov	x1, x25
   91ce0:	97fff882 	bl	8fee8 <_Bfree>
   91ce4:	9e660100 	fmov	x0, d8
   91ce8:	aa1b03e1 	mov	x1, x27
   91cec:	97fff87f 	bl	8fee8 <_Bfree>
   91cf0:	35004d33 	cbnz	w19, 92694 <_strtodg_l+0x13ec>
   91cf4:	b940bbe0 	ldr	w0, [sp, #184]
   91cf8:	b94127e1 	ldr	w1, [sp, #292]
   91cfc:	7100001f 	cmp	w0, #0x0
   91d00:	b9412be0 	ldr	w0, [sp, #296]
   91d04:	0b010000 	add	w0, w0, w1
   91d08:	b940bfe1 	ldr	w1, [sp, #188]
   91d0c:	7a411000 	ccmp	w0, w1, #0x0, ne  // ne = any
   91d10:	54000121 	b.ne	91d34 <_strtodg_l+0xa8c>  // b.any
   91d14:	1e6d094a 	fmul	d10, d10, d13
   91d18:	1e6c1000 	fmov	d0, #5.000000000000000000e-01
   91d1c:	1e603960 	fsub	d0, d11, d0
   91d20:	1e614141 	fneg	d1, d10
   91d24:	1e612010 	fcmpe	d0, d1
   91d28:	540016c5 	b.pl	92000 <_strtodg_l+0xd58>  // b.nfrst
   91d2c:	1e6a2170 	fcmpe	d11, d10
   91d30:	5400174c 	b.gt	92018 <_strtodg_l+0xd70>
   91d34:	340030d8 	cbz	w24, 9234c <_strtodg_l+0x10a4>
   91d38:	9e660100 	fmov	x0, d8
   91d3c:	aa1503e1 	mov	x1, x21
   91d40:	97fff86a 	bl	8fee8 <_Bfree>
   91d44:	9e660100 	fmov	x0, d8
   91d48:	aa1603e1 	mov	x1, x22
   91d4c:	97fff867 	bl	8fee8 <_Bfree>
   91d50:	9e660121 	fmov	x1, d9
   91d54:	9e660100 	fmov	x0, d8
   91d58:	97fff864 	bl	8fee8 <_Bfree>
   91d5c:	9e660100 	fmov	x0, d8
   91d60:	aa1403e1 	mov	x1, x20
   91d64:	97fff861 	bl	8fee8 <_Bfree>
   91d68:	17ffff08 	b	91988 <_strtodg_l+0x6e0>
   91d6c:	5280001c 	mov	w28, #0x0                   	// #0
   91d70:	f9009bfb 	str	x27, [sp, #304]
   91d74:	17fffe3f 	b	91670 <_strtodg_l+0x3c8>
   91d78:	54ffd6a0 	b.eq	9184c <_strtodg_l+0x5a4>  // b.none
   91d7c:	4b1403f4 	neg	w20, w20
   91d80:	72000e81 	ands	w1, w20, #0xf
   91d84:	540000e0 	b.eq	91da0 <_strtodg_l+0xaf8>  // b.none
   91d88:	90000020 	adrp	x0, 95000 <BitFont+0xb40>
   91d8c:	91242000 	add	x0, x0, #0x908
   91d90:	9e670261 	fmov	d1, x19
   91d94:	fc61d800 	ldr	d0, [x0, w1, sxtw #3]
   91d98:	1e601820 	fdiv	d0, d1, d0
   91d9c:	9e660013 	fmov	x19, d0
   91da0:	721c6e94 	ands	w20, w20, #0xfffffff0
   91da4:	54ffd540 	b.eq	9184c <_strtodg_l+0x5a4>  // b.none
   91da8:	13047e81 	asr	w1, w20, #4
   91dac:	71003c3f 	cmp	w1, #0xf
   91db0:	54006ecd 	b.le	92b88 <_strtodg_l+0x18e0>
   91db4:	90000020 	adrp	x0, 95000 <BitFont+0xb40>
   91db8:	2a0103e4 	mov	w4, w1
   91dbc:	52800002 	mov	w2, #0x0                   	// #0
   91dc0:	fd44f800 	ldr	d0, [x0, #2544]
   91dc4:	d503201f 	nop
   91dc8:	d360fe60 	lsr	x0, x19, #32
   91dcc:	510ffc42 	sub	w2, w2, #0x3ff
   91dd0:	12015003 	and	w3, w0, #0x800fffff
   91dd4:	51004084 	sub	w4, w4, #0x10
   91dd8:	320c2463 	orr	w3, w3, #0x3ff00000
   91ddc:	53147800 	ubfx	w0, w0, #20, #11
   91de0:	0b020000 	add	w0, w0, w2
   91de4:	71003c9f 	cmp	w4, #0xf
   91de8:	b3607c73 	bfi	x19, x3, #32, #32
   91dec:	9e670261 	fmov	d1, x19
   91df0:	2a0003e2 	mov	w2, w0
   91df4:	1e610801 	fmul	d1, d0, d1
   91df8:	9e660033 	fmov	x19, d1
   91dfc:	54fffe6c 	b.gt	91dc8 <_strtodg_l+0xb20>
   91e00:	12000c21 	and	w1, w1, #0xf
   91e04:	d360fe62 	lsr	x2, x19, #32
   91e08:	12015043 	and	w3, w2, #0x800fffff
   91e0c:	320c2463 	orr	w3, w3, #0x3ff00000
   91e10:	53147854 	ubfx	w20, w2, #20, #11
   91e14:	510ffe94 	sub	w20, w20, #0x3ff
   91e18:	b3607c73 	bfi	x19, x3, #32, #32
   91e1c:	0b000294 	add	w20, w20, w0
   91e20:	34ffd161 	cbz	w1, 9184c <_strtodg_l+0x5a4>
   91e24:	90000020 	adrp	x0, 95000 <BitFont+0xb40>
   91e28:	91274000 	add	x0, x0, #0x9d0
   91e2c:	9e670262 	fmov	d2, x19
   91e30:	52800002 	mov	w2, #0x0                   	// #0
   91e34:	9e670260 	fmov	d0, x19
   91e38:	36000081 	tbz	w1, #0, 91e48 <_strtodg_l+0xba0>
   91e3c:	fd400001 	ldr	d1, [x0]
   91e40:	52800022 	mov	w2, #0x1                   	// #1
   91e44:	1e610800 	fmul	d0, d0, d1
   91e48:	13017c21 	asr	w1, w1, #1
   91e4c:	91002000 	add	x0, x0, #0x8
   91e50:	35ffff41 	cbnz	w1, 91e38 <_strtodg_l+0xb90>
   91e54:	7100005f 	cmp	w2, #0x0
   91e58:	1e621c00 	fcsel	d0, d0, d2, ne  // ne = any
   91e5c:	17fffe7d 	b	91850 <_strtodg_l+0x5a8>
   91e60:	13047e83 	asr	w3, w20, #4
   91e64:	71003c7f 	cmp	w3, #0xf
   91e68:	5400618d 	b.le	92a98 <_strtodg_l+0x17f0>
   91e6c:	90000020 	adrp	x0, 95000 <BitFont+0xb40>
   91e70:	2a0303e2 	mov	w2, w3
   91e74:	52800001 	mov	w1, #0x0                   	// #0
   91e78:	fd448000 	ldr	d0, [x0, #2304]
   91e7c:	d503201f 	nop
   91e80:	d360fe60 	lsr	x0, x19, #32
   91e84:	510ffc21 	sub	w1, w1, #0x3ff
   91e88:	12015004 	and	w4, w0, #0x800fffff
   91e8c:	51004042 	sub	w2, w2, #0x10
   91e90:	320c2484 	orr	w4, w4, #0x3ff00000
   91e94:	53147800 	ubfx	w0, w0, #20, #11
   91e98:	0b010000 	add	w0, w0, w1
   91e9c:	71003c5f 	cmp	w2, #0xf
   91ea0:	b3607c93 	bfi	x19, x4, #32, #32
   91ea4:	9e670261 	fmov	d1, x19
   91ea8:	2a0003e1 	mov	w1, w0
   91eac:	1e610801 	fmul	d1, d0, d1
   91eb0:	9e660033 	fmov	x19, d1
   91eb4:	54fffe6c 	b.gt	91e80 <_strtodg_l+0xbd8>
   91eb8:	12000c63 	and	w3, w3, #0xf
   91ebc:	d360fe61 	lsr	x1, x19, #32
   91ec0:	12015022 	and	w2, w1, #0x800fffff
   91ec4:	320c2442 	orr	w2, w2, #0x3ff00000
   91ec8:	53147834 	ubfx	w20, w1, #20, #11
   91ecc:	510ffe94 	sub	w20, w20, #0x3ff
   91ed0:	b3607c53 	bfi	x19, x2, #32, #32
   91ed4:	0b000294 	add	w20, w20, w0
   91ed8:	34ffcba3 	cbz	w3, 9184c <_strtodg_l+0x5a4>
   91edc:	90000020 	adrp	x0, 95000 <BitFont+0xb40>
   91ee0:	91238000 	add	x0, x0, #0x8e0
   91ee4:	9e670262 	fmov	d2, x19
   91ee8:	52800001 	mov	w1, #0x0                   	// #0
   91eec:	9e670260 	fmov	d0, x19
   91ef0:	36000083 	tbz	w3, #0, 91f00 <_strtodg_l+0xc58>
   91ef4:	fd400001 	ldr	d1, [x0]
   91ef8:	52800021 	mov	w1, #0x1                   	// #1
   91efc:	1e610800 	fmul	d0, d0, d1
   91f00:	13017c63 	asr	w3, w3, #1
   91f04:	91002000 	add	x0, x0, #0x8
   91f08:	35ffff43 	cbnz	w3, 91ef0 <_strtodg_l+0xc48>
   91f0c:	7100003f 	cmp	w1, #0x0
   91f10:	1e621c00 	fcsel	d0, d0, d2, ne  // ne = any
   91f14:	17fffe4f 	b	91850 <_strtodg_l+0x5a8>
   91f18:	90000021 	adrp	x1, 95000 <BitFont+0xb40>
   91f1c:	9104c3e0 	add	x0, sp, #0x130
   91f20:	9119e021 	add	x1, x1, #0x678
   91f24:	97fff64b 	bl	8f850 <__match>
   91f28:	34ffbbc0 	cbz	w0, 916a0 <_strtodg_l+0x3f8>
   91f2c:	f94067e3 	ldr	x3, [sp, #200]
   91f30:	52800082 	mov	w2, #0x4                   	// #4
   91f34:	b9400b40 	ldr	w0, [x26, #8]
   91f38:	f9409be1 	ldr	x1, [sp, #304]
   91f3c:	11000400 	add	w0, w0, #0x1
   91f40:	b9000060 	str	w0, [x3]
   91f44:	b90123e2 	str	w2, [sp, #288]
   91f48:	39400020 	ldrb	w0, [x1]
   91f4c:	7100a01f 	cmp	w0, #0x28
   91f50:	54005c60 	b.eq	92adc <_strtodg_l+0x1834>  // b.none
   91f54:	b9400b40 	ldr	w0, [x26, #8]
   91f58:	f9409fe2 	ldr	x2, [sp, #312]
   91f5c:	11000400 	add	w0, w0, #0x1
   91f60:	b9000060 	str	w0, [x3]
   91f64:	17fffdd3 	b	916b0 <_strtodg_l+0x408>
   91f68:	f9409be8 	ldr	x8, [sp, #304]
   91f6c:	5100c27c 	sub	w28, w19, #0x30
   91f70:	91000501 	add	x1, x8, #0x1
   91f74:	f9009be1 	str	x1, [sp, #304]
   91f78:	39400513 	ldrb	w19, [x8, #1]
   91f7c:	5100c261 	sub	w1, w19, #0x30
   91f80:	7100243f 	cmp	w1, #0x9
   91f84:	54000228 	b.hi	91fc8 <_strtodg_l+0xd20>  // b.pmore
   91f88:	91000901 	add	x1, x8, #0x2
   91f8c:	d503201f 	nop
   91f90:	0b1c0b9c 	add	w28, w28, w28, lsl #2
   91f94:	f9009be1 	str	x1, [sp, #304]
   91f98:	aa0103e4 	mov	x4, x1
   91f9c:	0b1c067c 	add	w28, w19, w28, lsl #1
   91fa0:	38401433 	ldrb	w19, [x1], #1
   91fa4:	5100c39c 	sub	w28, w28, #0x30
   91fa8:	5100c262 	sub	w2, w19, #0x30
   91fac:	7100245f 	cmp	w2, #0x9
   91fb0:	54ffff09 	b.ls	91f90 <_strtodg_l+0xce8>  // b.plast
   91fb4:	cb080084 	sub	x4, x4, x8
   91fb8:	5289c3e1 	mov	w1, #0x4e1f                	// #19999
   91fbc:	f100209f 	cmp	x4, #0x8
   91fc0:	7a41d380 	ccmp	w28, w1, #0x0, le
   91fc4:	1a81d39c 	csel	w28, w28, w1, le
   91fc8:	710000df 	cmp	w6, #0x0
   91fcc:	5a9c079c 	cneg	w28, w28, ne  // ne = any
   91fd0:	17fffda8 	b	91670 <_strtodg_l+0x3c8>
   91fd4:	9e660100 	fmov	x0, d8
   91fd8:	2a1303e2 	mov	w2, w19
   91fdc:	f9409fe1 	ldr	x1, [sp, #312]
   91fe0:	b900b7e7 	str	w7, [sp, #180]
   91fe4:	97fff953 	bl	90530 <__lshift>
   91fe8:	f9009fe0 	str	x0, [sp, #312]
   91fec:	b94127e1 	ldr	w1, [sp, #292]
   91ff0:	b940b7e7 	ldr	w7, [sp, #180]
   91ff4:	0b130021 	add	w1, w1, w19
   91ff8:	b90127e1 	str	w1, [sp, #292]
   91ffc:	17fffe3b 	b	918e8 <_strtodg_l+0x640>
   92000:	1e6a2010 	fcmpe	d0, d10
   92004:	54ffe98d 	b.le	91d34 <_strtodg_l+0xa8c>
   92008:	1e6e1000 	fmov	d0, #1.000000000000000000e+00
   9200c:	1e6a380a 	fsub	d10, d0, d10
   92010:	1e6b2150 	fcmpe	d10, d11
   92014:	54ffe90d 	b.le	91d34 <_strtodg_l+0xa8c>
   92018:	b94123e0 	ldr	w0, [sp, #288]
   9201c:	b94103e1 	ldr	w1, [sp, #256]
   92020:	f94087fa 	ldr	x26, [sp, #264]
   92024:	2a010000 	orr	w0, w0, w1
   92028:	b90123e0 	str	w0, [sp, #288]
   9202c:	34000598 	cbz	w24, 920dc <_strtodg_l+0xe34>
   92030:	b9412be0 	ldr	w0, [sp, #296]
   92034:	f94067e1 	ldr	x1, [sp, #200]
   92038:	b9000020 	str	w0, [x1]
   9203c:	9e660100 	fmov	x0, d8
   92040:	aa1503e1 	mov	x1, x21
   92044:	97fff7a9 	bl	8fee8 <_Bfree>
   92048:	9e660100 	fmov	x0, d8
   9204c:	aa1603e1 	mov	x1, x22
   92050:	97fff7a6 	bl	8fee8 <_Bfree>
   92054:	9e660121 	fmov	x1, d9
   92058:	9e660100 	fmov	x0, d8
   9205c:	97fff7a3 	bl	8fee8 <_Bfree>
   92060:	9e660100 	fmov	x0, d8
   92064:	f9406fe1 	ldr	x1, [sp, #216]
   92068:	97fff7a0 	bl	8fee8 <_Bfree>
   9206c:	9e660100 	fmov	x0, d8
   92070:	aa1403e1 	mov	x1, x20
   92074:	97fff79d 	bl	8fee8 <_Bfree>
   92078:	b9400b41 	ldr	w1, [x26, #8]
   9207c:	b9412be0 	ldr	w0, [sp, #296]
   92080:	6d472fea 	ldp	d10, d11, [sp, #112]
   92084:	6b00003f 	cmp	w1, w0
   92088:	fd404bee 	ldr	d14, [sp, #144]
   9208c:	5400018a 	b.ge	920bc <_strtodg_l+0xe14>  // b.tcont
   92090:	f9409fe0 	ldr	x0, [sp, #312]
   92094:	52801461 	mov	w1, #0xa3                  	// #163
   92098:	b90123e1 	str	w1, [sp, #288]
   9209c:	b900141f 	str	wzr, [x0, #20]
   920a0:	94000302 	bl	92ca8 <__errno>
   920a4:	52800441 	mov	w1, #0x22                  	// #34
   920a8:	b9000001 	str	w1, [x0]
   920ac:	f94067e1 	ldr	x1, [sp, #200]
   920b0:	b9400b40 	ldr	w0, [x26, #8]
   920b4:	11000400 	add	w0, w0, #0x1
   920b8:	b9000020 	str	w0, [x1]
   920bc:	f9409fe2 	ldr	x2, [sp, #312]
   920c0:	34ffaf98 	cbz	w24, 916b0 <_strtodg_l+0x408>
   920c4:	b940efe0 	ldr	w0, [sp, #236]
   920c8:	34001660 	cbz	w0, 92394 <_strtodg_l+0x10ec>
   920cc:	52800a00 	mov	w0, #0x50                  	// #80
   920d0:	b900145f 	str	wzr, [x2, #20]
   920d4:	b90123e0 	str	w0, [sp, #288]
   920d8:	17fffd76 	b	916b0 <_strtodg_l+0x408>
   920dc:	b94127e1 	ldr	w1, [sp, #292]
   920e0:	4b0102f8 	sub	w24, w23, w1
   920e4:	7100031f 	cmp	w24, #0x0
   920e8:	54fffa40 	b.eq	92030 <_strtodg_l+0xd88>  // b.none
   920ec:	f9409fe0 	ldr	x0, [sp, #312]
   920f0:	5400468d 	b.le	929c0 <_strtodg_l+0x1718>
   920f4:	aa0003e1 	mov	x1, x0
   920f8:	9e660100 	fmov	x0, d8
   920fc:	2a1803e2 	mov	w2, w24
   92100:	97fff90c 	bl	90530 <__lshift>
   92104:	f9009fe0 	str	x0, [sp, #312]
   92108:	b9412be0 	ldr	w0, [sp, #296]
   9210c:	4b180000 	sub	w0, w0, w24
   92110:	52800018 	mov	w24, #0x0                   	// #0
   92114:	b9012be0 	str	w0, [sp, #296]
   92118:	17ffffc7 	b	92034 <_strtodg_l+0xd8c>
   9211c:	7100001f 	cmp	w0, #0x0
   92120:	54003fab 	b.lt	92914 <_strtodg_l+0x166c>  // b.tstop
   92124:	54003b20 	b.eq	92888 <_strtodg_l+0x15e0>  // b.none
   92128:	9e660121 	fmov	x1, d9
   9212c:	aa1403e0 	mov	x0, x20
   92130:	97fffa6c 	bl	90ae0 <__ratio>
   92134:	1e601001 	fmov	d1, #2.000000000000000000e+00
   92138:	1e612010 	fcmpe	d0, d1
   9213c:	54001488 	b.hi	923cc <_strtodg_l+0x1124>  // b.pmore
   92140:	3400281b 	cbz	w27, 92640 <_strtodg_l+0x1398>
   92144:	1e6e100a 	fmov	d10, #1.000000000000000000e+00
   92148:	52800400 	mov	w0, #0x20                  	// #32
   9214c:	52800013 	mov	w19, #0x0                   	// #0
   92150:	5280001c 	mov	w28, #0x0                   	// #0
   92154:	1e60414b 	fmov	d11, d10
   92158:	b900bbff 	str	wzr, [sp, #184]
   9215c:	b90103e0 	str	w0, [sp, #256]
   92160:	17fffead 	b	91c14 <_strtodg_l+0x96c>
   92164:	b9401721 	ldr	w1, [x25, #20]
   92168:	6b00003f 	cmp	w1, w0
   9216c:	5400178d 	b.le	9245c <_strtodg_l+0x11b4>
   92170:	aa1b03e9 	mov	x9, x27
   92174:	aa1903e8 	mov	x8, x25
   92178:	b9400901 	ldr	w1, [x8, #8]
   9217c:	9e660100 	fmov	x0, d8
   92180:	a90f27e8 	stp	x8, x9, [sp, #240]
   92184:	97fff735 	bl	8fe58 <_Balloc>
   92188:	aa0003fc 	mov	x28, x0
   9218c:	a94f27e8 	ldp	x8, x9, [sp, #240]
   92190:	91006006 	add	x6, x0, #0x18
   92194:	b9401500 	ldr	w0, [x8, #20]
   92198:	91006107 	add	x7, x8, #0x18
   9219c:	b9001780 	str	w0, [x28, #20]
   921a0:	9100612a 	add	x10, x9, #0x18
   921a4:	52800000 	mov	w0, #0x0                   	// #0
   921a8:	b980152b 	ldrsw	x11, [x9, #20]
   921ac:	8b0b08cb 	add	x11, x6, x11, lsl #2
   921b0:	b8404543 	ldr	w3, [x10], #4
   921b4:	b84044e2 	ldr	w2, [x7], #4
   921b8:	12003c61 	and	w1, w3, #0xffff
   921bc:	53107c63 	lsr	w3, w3, #16
   921c0:	0b222021 	add	w1, w1, w2, uxth
   921c4:	0b424062 	add	w2, w3, w2, lsr #16
   921c8:	0b000020 	add	w0, w1, w0
   921cc:	12003c01 	and	w1, w0, #0xffff
   921d0:	0b404040 	add	w0, w2, w0, lsr #16
   921d4:	2a004021 	orr	w1, w1, w0, lsl #16
   921d8:	b80044c1 	str	w1, [x6], #4
   921dc:	53107c00 	lsr	w0, w0, #16
   921e0:	eb06017f 	cmp	x11, x6
   921e4:	54fffe68 	b.hi	921b0 <_strtodg_l+0xf08>  // b.pmore
   921e8:	b9401501 	ldr	w1, [x8, #20]
   921ec:	b9401522 	ldr	w2, [x9, #20]
   921f0:	4b020021 	sub	w1, w1, w2
   921f4:	8b21c96b 	add	x11, x11, w1, sxtw #2
   921f8:	eb0b00df 	cmp	x6, x11
   921fc:	54000222 	b.cs	92240 <_strtodg_l+0xf98>  // b.hs, b.nlast
   92200:	d100056b 	sub	x11, x11, #0x1
   92204:	d2800002 	mov	x2, #0x0                   	// #0
   92208:	cb060165 	sub	x5, x11, x6
   9220c:	d342fca5 	lsr	x5, x5, #2
   92210:	b86278e3 	ldr	w3, [x7, x2, lsl #2]
   92214:	91000444 	add	x4, x2, #0x1
   92218:	eb0200bf 	cmp	x5, x2
   9221c:	0b232000 	add	w0, w0, w3, uxth
   92220:	53107c63 	lsr	w3, w3, #16
   92224:	12003c01 	and	w1, w0, #0xffff
   92228:	0b404063 	add	w3, w3, w0, lsr #16
   9222c:	2a034021 	orr	w1, w1, w3, lsl #16
   92230:	b82278c1 	str	w1, [x6, x2, lsl #2]
   92234:	53107c60 	lsr	w0, w3, #16
   92238:	aa0403e2 	mov	x2, x4
   9223c:	54fffea1 	b.ne	92210 <_strtodg_l+0xf68>  // b.any
   92240:	b9401781 	ldr	w1, [x28, #20]
   92244:	35001120 	cbnz	w0, 92468 <_strtodg_l+0x11c0>
   92248:	51000421 	sub	w1, w1, #0x1
   9224c:	b9401760 	ldr	w0, [x27, #20]
   92250:	f9009ffc 	str	x28, [sp, #312]
   92254:	6b01001f 	cmp	w0, w1
   92258:	5400010c 	b.gt	92278 <_strtodg_l+0xfd0>
   9225c:	340002f8 	cbz	w24, 922b8 <_strtodg_l+0x1010>
   92260:	b94127e0 	ldr	w0, [sp, #292]
   92264:	11000400 	add	w0, w0, #0x1
   92268:	b90127e0 	str	w0, [sp, #292]
   9226c:	6b17001f 	cmp	w0, w23
   92270:	1a9f07f8 	cset	w24, ne  // ne = any
   92274:	17fffe99 	b	91cd8 <_strtodg_l+0xa30>
   92278:	93407c21 	sxtw	x1, w1
   9227c:	91001021 	add	x1, x1, #0x4
   92280:	d37ef421 	lsl	x1, x1, #2
   92284:	f9007be1 	str	x1, [sp, #240]
   92288:	8b01039c 	add	x28, x28, x1
   9228c:	b9400b80 	ldr	w0, [x28, #8]
   92290:	97fff7a2 	bl	90118 <__hi0bits>
   92294:	2a0003fc 	mov	w28, w0
   92298:	f9407be1 	ldr	x1, [sp, #240]
   9229c:	8b010361 	add	x1, x27, x1
   922a0:	b9400820 	ldr	w0, [x1, #8]
   922a4:	97fff79d 	bl	90118 <__hi0bits>
   922a8:	6b00039f 	cmp	w28, w0
   922ac:	54ffd16a 	b.ge	91cd8 <_strtodg_l+0xa30>  // b.tcont
   922b0:	35fffd98 	cbnz	w24, 92260 <_strtodg_l+0xfb8>
   922b4:	d503201f 	nop
   922b8:	b940d7e2 	ldr	w2, [sp, #212]
   922bc:	52800021 	mov	w1, #0x1                   	// #1
   922c0:	f9409fe0 	ldr	x0, [sp, #312]
   922c4:	0b010042 	add	w2, w2, w1
   922c8:	b900bbff 	str	wzr, [sp, #184]
   922cc:	b900d7e2 	str	w2, [sp, #212]
   922d0:	97fffa66 	bl	90c68 <rshift>
   922d4:	b9412be0 	ldr	w0, [sp, #296]
   922d8:	11000400 	add	w0, w0, #0x1
   922dc:	b9012be0 	str	w0, [sp, #296]
   922e0:	17fffe7e 	b	91cd8 <_strtodg_l+0xa30>
   922e4:	9e660100 	fmov	x0, d8
   922e8:	aa1503e1 	mov	x1, x21
   922ec:	97fff891 	bl	90530 <__lshift>
   922f0:	aa0003f5 	mov	x21, x0
   922f4:	17fffdf2 	b	91abc <_strtodg_l+0x814>
   922f8:	b940c7e0 	ldr	w0, [sp, #196]
   922fc:	b940b7fb 	ldr	w27, [sp, #180]
   92300:	4b1c001c 	sub	w28, w0, w28
   92304:	17fffdc6 	b	91a1c <_strtodg_l+0x774>
   92308:	b940d7e3 	ldr	w3, [sp, #212]
   9230c:	9e660100 	fmov	x0, d8
   92310:	f9409fe1 	ldr	x1, [sp, #312]
   92314:	51000463 	sub	w3, w3, #0x1
   92318:	52800022 	mov	w2, #0x1                   	// #1
   9231c:	b900d7e3 	str	w3, [sp, #212]
   92320:	97fff884 	bl	90530 <__lshift>
   92324:	f9009fe0 	str	x0, [sp, #312]
   92328:	b9412be2 	ldr	w2, [sp, #296]
   9232c:	9e660100 	fmov	x0, d8
   92330:	aa1903e1 	mov	x1, x25
   92334:	51000442 	sub	w2, w2, #0x1
   92338:	b9012be2 	str	w2, [sp, #296]
   9233c:	97fff6eb 	bl	8fee8 <_Bfree>
   92340:	9e660100 	fmov	x0, d8
   92344:	aa1b03e1 	mov	x1, x27
   92348:	97fff6e8 	bl	8fee8 <_Bfree>
   9234c:	f9409fe1 	ldr	x1, [sp, #312]
   92350:	91006020 	add	x0, x1, #0x18
   92354:	b9801422 	ldrsw	x2, [x1, #20]
   92358:	8b020802 	add	x2, x0, x2, lsl #2
   9235c:	eb02001f 	cmp	x0, x2
   92360:	540021c2 	b.cs	92798 <_strtodg_l+0x14f0>  // b.hs, b.nlast
   92364:	b9401821 	ldr	w1, [x1, #24]
   92368:	52800013 	mov	w19, #0x0                   	// #0
   9236c:	34000081 	cbz	w1, 9237c <_strtodg_l+0x10d4>
   92370:	14000063 	b	924fc <_strtodg_l+0x1254>
   92374:	b9400001 	ldr	w1, [x0]
   92378:	35000c21 	cbnz	w1, 924fc <_strtodg_l+0x1254>
   9237c:	91001000 	add	x0, x0, #0x4
   92380:	11008273 	add	w19, w19, #0x20
   92384:	eb00005f 	cmp	x2, x0
   92388:	54ffff68 	b.hi	92374 <_strtodg_l+0x10cc>  // b.pmore
   9238c:	52800018 	mov	w24, #0x0                   	// #0
   92390:	17fffe6a 	b	91d38 <_strtodg_l+0xa90>
   92394:	b94123e1 	ldr	w1, [sp, #288]
   92398:	b9401443 	ldr	w3, [x2, #20]
   9239c:	121d7021 	and	w1, w1, #0xfffffff8
   923a0:	7100007f 	cmp	w3, #0x0
   923a4:	321f0020 	orr	w0, w1, #0x2
   923a8:	1a81c001 	csel	w1, w0, w1, gt
   923ac:	721c043f 	tst	w1, #0x30
   923b0:	321a0020 	orr	w0, w1, #0x40
   923b4:	1a800021 	csel	w1, w1, w0, eq  // eq = none
   923b8:	b90123e1 	str	w1, [sp, #288]
   923bc:	17fffcbd 	b	916b0 <_strtodg_l+0x408>
   923c0:	4b0203e1 	neg	w1, w2
   923c4:	97fffa29 	bl	90c68 <rshift>
   923c8:	17fffe2a 	b	91c70 <_strtodg_l+0x9c8>
   923cc:	1e6c1001 	fmov	d1, #5.000000000000000000e-01
   923d0:	7100037f 	cmp	w27, #0x0
   923d4:	52800401 	mov	w1, #0x20                  	// #32
   923d8:	52800200 	mov	w0, #0x10                  	// #16
   923dc:	1e61080b 	fmul	d11, d0, d1
   923e0:	1a800020 	csel	w0, w1, w0, eq  // eq = none
   923e4:	1a9f17fc 	cset	w28, eq  // eq = none
   923e8:	b90103e0 	str	w0, [sp, #256]
   923ec:	1e6e2170 	fcmpe	d11, d14
   923f0:	540007e5 	b.pl	924ec <_strtodg_l+0x1244>  // b.nfrst
   923f4:	1e780160 	fcvtzs	w0, d11
   923f8:	b940c3e1 	ldr	w1, [sp, #192]
   923fc:	7100043f 	cmp	w1, #0x1
   92400:	1e62000a 	scvtf	d10, w0
   92404:	b900bbe0 	str	w0, [sp, #184]
   92408:	1e6a396b 	fsub	d11, d11, d10
   9240c:	540014a0 	b.eq	926a0 <_strtodg_l+0x13f8>  // b.none
   92410:	7100083f 	cmp	w1, #0x2
   92414:	540000a0 	b.eq	92428 <_strtodg_l+0x1180>  // b.none
   92418:	1e612170 	fcmpe	d11, d1
   9241c:	540000ca 	b.ge	92434 <_strtodg_l+0x118c>  // b.tcont
   92420:	52800013 	mov	w19, #0x0                   	// #0
   92424:	17fffdfc 	b	91c14 <_strtodg_l+0x96c>
   92428:	35ffffdc 	cbnz	w28, 92420 <_strtodg_l+0x1178>
   9242c:	1e602178 	fcmpe	d11, #0.0
   92430:	54ffff8d 	b.le	92420 <_strtodg_l+0x1178>
   92434:	b940bbe0 	ldr	w0, [sp, #184]
   92438:	52800013 	mov	w19, #0x0                   	// #0
   9243c:	b94103e2 	ldr	w2, [sp, #256]
   92440:	11000401 	add	w1, w0, #0x1
   92444:	52800600 	mov	w0, #0x30                  	// #48
   92448:	4b020000 	sub	w0, w0, w2
   9244c:	b900bbe1 	str	w1, [sp, #184]
   92450:	1e62002a 	scvtf	d10, w1
   92454:	b90103e0 	str	w0, [sp, #256]
   92458:	17fffdef 	b	91c14 <_strtodg_l+0x96c>
   9245c:	aa1903e9 	mov	x9, x25
   92460:	aa1b03e8 	mov	x8, x27
   92464:	17ffff45 	b	92178 <_strtodg_l+0xed0>
   92468:	b9400f80 	ldr	w0, [x28, #12]
   9246c:	6b01001f 	cmp	w0, w1
   92470:	54000bc0 	b.eq	925e8 <_strtodg_l+0x1340>  // b.none
   92474:	8b21cb80 	add	x0, x28, w1, sxtw #2
   92478:	11000422 	add	w2, w1, #0x1
   9247c:	b9001782 	str	w2, [x28, #20]
   92480:	52800022 	mov	w2, #0x1                   	// #1
   92484:	b9001802 	str	w2, [x0, #24]
   92488:	17ffff71 	b	9224c <_strtodg_l+0xfa4>
   9248c:	1e6e100a 	fmov	d10, #1.000000000000000000e+00
   92490:	52800420 	mov	w0, #0x21                  	// #33
   92494:	52800401 	mov	w1, #0x20                  	// #32
   92498:	5280001c 	mov	w28, #0x0                   	// #0
   9249c:	1e60414b 	fmov	d11, d10
   924a0:	b900bbff 	str	wzr, [sp, #184]
   924a4:	b90103e1 	str	w1, [sp, #256]
   924a8:	b90123e0 	str	w0, [sp, #288]
   924ac:	17fffdda 	b	91c14 <_strtodg_l+0x96c>
   924b0:	9e660100 	fmov	x0, d8
   924b4:	4b0202f9 	sub	w25, w23, w2
   924b8:	f9409fe1 	ldr	x1, [sp, #312]
   924bc:	2a1903e2 	mov	w2, w25
   924c0:	97fff81c 	bl	90530 <__lshift>
   924c4:	b90127f7 	str	w23, [sp, #292]
   924c8:	b9412be2 	ldr	w2, [sp, #296]
   924cc:	f9009fe0 	str	x0, [sp, #312]
   924d0:	4b190042 	sub	w2, w2, w25
   924d4:	b9012be2 	str	w2, [sp, #296]
   924d8:	17fffdd8 	b	91c38 <_strtodg_l+0x990>
   924dc:	4b140261 	sub	w1, w19, w20
   924e0:	aa1503e0 	mov	x0, x21
   924e4:	97fff9e1 	bl	90c68 <rshift>
   924e8:	17fffd75 	b	91abc <_strtodg_l+0x814>
   924ec:	1e60416a 	fmov	d10, d11
   924f0:	52800013 	mov	w19, #0x0                   	// #0
   924f4:	b900bbff 	str	wzr, [sp, #184]
   924f8:	17fffdc7 	b	91c14 <_strtodg_l+0x96c>
   924fc:	9104b3e0 	add	x0, sp, #0x12c
   92500:	52800018 	mov	w24, #0x0                   	// #0
   92504:	b9012fe1 	str	w1, [sp, #300]
   92508:	97fff71c 	bl	90178 <__lo0bits>
   9250c:	0b000273 	add	w19, w19, w0
   92510:	17fffe0a 	b	91d38 <_strtodg_l+0xa90>
   92514:	93407c21 	sxtw	x1, w1
   92518:	91001021 	add	x1, x1, #0x4
   9251c:	d37ef421 	lsl	x1, x1, #2
   92520:	f9007fe1 	str	x1, [sp, #248]
   92524:	8b010000 	add	x0, x0, x1
   92528:	b9400800 	ldr	w0, [x0, #8]
   9252c:	97fff6fb 	bl	90118 <__hi0bits>
   92530:	2a0003e2 	mov	w2, w0
   92534:	f9407fe1 	ldr	x1, [sp, #248]
   92538:	b900f3e2 	str	w2, [sp, #240]
   9253c:	8b010361 	add	x1, x27, x1
   92540:	b9400820 	ldr	w0, [x1, #8]
   92544:	97fff6f5 	bl	90118 <__hi0bits>
   92548:	b940f3e2 	ldr	w2, [sp, #240]
   9254c:	6b00005f 	cmp	w2, w0
   92550:	54ffbb4c 	b.gt	91cb8 <_strtodg_l+0xa10>
   92554:	17fffde1 	b	91cd8 <_strtodg_l+0xa30>
   92558:	aa1c03e2 	mov	x2, x28
   9255c:	aa1903e0 	mov	x0, x25
   92560:	97ffeabf 	bl	8d05c <strncmp>
   92564:	2a0003f6 	mov	w22, w0
   92568:	350033c0 	cbnz	w0, 92be0 <_strtodg_l+0x1938>
   9256c:	f9409be0 	ldr	x0, [sp, #304]
   92570:	52800022 	mov	w2, #0x1                   	// #1
   92574:	8b1c0001 	add	x1, x0, x28
   92578:	f9009be1 	str	x1, [sp, #304]
   9257c:	4b010042 	sub	w2, w2, w1
   92580:	387c6813 	ldrb	w19, [x0, x28]
   92584:	52800000 	mov	w0, #0x0                   	// #0
   92588:	7100c27f 	cmp	w19, #0x30
   9258c:	540000e1 	b.ne	925a8 <_strtodg_l+0x1300>  // b.any
   92590:	0b010040 	add	w0, w2, w1
   92594:	91000421 	add	x1, x1, #0x1
   92598:	f9009be1 	str	x1, [sp, #304]
   9259c:	39400033 	ldrb	w19, [x1]
   925a0:	7100c27f 	cmp	w19, #0x30
   925a4:	54ffff60 	b.eq	92590 <_strtodg_l+0x12e8>  // b.none
   925a8:	5100c661 	sub	w1, w19, #0x31
   925ac:	7100203f 	cmp	w1, #0x8
   925b0:	54ff8fa8 	b.hi	917a4 <_strtodg_l+0x4fc>  // b.pmore
   925b4:	f9409be6 	ldr	x6, [sp, #304]
   925b8:	5100c273 	sub	w19, w19, #0x30
   925bc:	11000407 	add	w7, w0, #0x1
   925c0:	52800018 	mov	w24, #0x0                   	// #0
   925c4:	aa0603f9 	mov	x25, x6
   925c8:	52800015 	mov	w21, #0x0                   	// #0
   925cc:	52800021 	mov	w1, #0x1                   	// #1
   925d0:	0b150ab5 	add	w21, w21, w21, lsl #2
   925d4:	2a1603e5 	mov	w5, w22
   925d8:	52800000 	mov	w0, #0x0                   	// #0
   925dc:	2a0103f6 	mov	w22, w1
   925e0:	0b150675 	add	w21, w19, w21, lsl #1
   925e4:	17fffc6c 	b	91794 <_strtodg_l+0x4ec>
   925e8:	9e660100 	fmov	x0, d8
   925ec:	b9400b81 	ldr	w1, [x28, #8]
   925f0:	11000421 	add	w1, w1, #0x1
   925f4:	97fff619 	bl	8fe58 <_Balloc>
   925f8:	aa0003e5 	mov	x5, x0
   925fc:	b9801782 	ldrsw	x2, [x28, #20]
   92600:	91004381 	add	x1, x28, #0x10
   92604:	91004000 	add	x0, x0, #0x10
   92608:	f9007be5 	str	x5, [sp, #240]
   9260c:	91000842 	add	x2, x2, #0x2
   92610:	d37ef442 	lsl	x2, x2, #2
   92614:	97fff53b 	bl	8fb00 <memcpy>
   92618:	9e660100 	fmov	x0, d8
   9261c:	aa1c03e1 	mov	x1, x28
   92620:	f9407be5 	ldr	x5, [sp, #240]
   92624:	aa0503fc 	mov	x28, x5
   92628:	97fff630 	bl	8fee8 <_Bfree>
   9262c:	f9407be5 	ldr	x5, [sp, #240]
   92630:	b94014a1 	ldr	w1, [x5, #20]
   92634:	17ffff90 	b	92474 <_strtodg_l+0x11cc>
   92638:	52800018 	mov	w24, #0x0                   	// #0
   9263c:	17fffe95 	b	92090 <_strtodg_l+0xde8>
   92640:	52800013 	mov	w19, #0x0                   	// #0
   92644:	17fffd6a 	b	91bec <_strtodg_l+0x944>
   92648:	52800006 	mov	w6, #0x0                   	// #0
   9264c:	17fffbf7 	b	91628 <_strtodg_l+0x380>
   92650:	9e660100 	fmov	x0, d8
   92654:	b940a3e5 	ldr	w5, [sp, #160]
   92658:	f94067e3 	ldr	x3, [sp, #200]
   9265c:	aa1a03e2 	mov	x2, x26
   92660:	9104e3e4 	add	x4, sp, #0x138
   92664:	9104c3e1 	add	x1, sp, #0x130
   92668:	97fff28c 	bl	8f098 <__gethex>
   9266c:	b90123e0 	str	w0, [sp, #288]
   92670:	7100181f 	cmp	w0, #0x6
   92674:	54ff8ca1 	b.ne	91808 <_strtodg_l+0x560>  // b.any
   92678:	f94057e0 	ldr	x0, [sp, #168]
   9267c:	f9009bfb 	str	x27, [sp, #304]
   92680:	f9409fe2 	ldr	x2, [sp, #312]
   92684:	b4ff8280 	cbz	x0, 916d4 <_strtodg_l+0x42c>
   92688:	f94057e0 	ldr	x0, [sp, #168]
   9268c:	f900001b 	str	x27, [x0]
   92690:	17fffc11 	b	916d4 <_strtodg_l+0x42c>
   92694:	f94087fa 	ldr	x26, [sp, #264]
   92698:	35ffccd8 	cbnz	w24, 92030 <_strtodg_l+0xd88>
   9269c:	17fffe90 	b	920dc <_strtodg_l+0xe34>
   926a0:	35ffec7c 	cbnz	w28, 9242c <_strtodg_l+0x1184>
   926a4:	52800013 	mov	w19, #0x0                   	// #0
   926a8:	17fffd5b 	b	91c14 <_strtodg_l+0x96c>
   926ac:	52800018 	mov	w24, #0x0                   	// #0
   926b0:	6d072fea 	stp	d10, d11, [sp, #112]
   926b4:	fd004bee 	str	d14, [sp, #144]
   926b8:	17fffc98 	b	91918 <_strtodg_l+0x670>
   926bc:	b94107e0 	ldr	w0, [sp, #260]
   926c0:	52800038 	mov	w24, #0x1                   	// #1
   926c4:	6d072fea 	stp	d10, d11, [sp, #112]
   926c8:	fd004bee 	str	d14, [sp, #144]
   926cc:	b900d7e0 	str	w0, [sp, #212]
   926d0:	17fffc92 	b	91918 <_strtodg_l+0x670>
   926d4:	0b0000e7 	add	w7, w7, w0
   926d8:	7100041f 	cmp	w0, #0x1
   926dc:	110006c1 	add	w1, w22, #0x1
   926e0:	54000260 	b.eq	9272c <_strtodg_l+0x1484>  // b.none
   926e4:	0b160008 	add	w8, w0, w22
   926e8:	2a1603e2 	mov	w2, w22
   926ec:	51000516 	sub	w22, w8, #0x1
   926f0:	14000005 	b	92704 <_strtodg_l+0x145c>
   926f4:	531f7895 	lsl	w21, w4, #1
   926f8:	6b0102df 	cmp	w22, w1
   926fc:	2a0103e2 	mov	w2, w1
   92700:	54000140 	b.eq	92728 <_strtodg_l+0x1480>  // b.none
   92704:	0b180b00 	add	w0, w24, w24, lsl #2
   92708:	11000441 	add	w1, w2, #0x1
   9270c:	0b150aa4 	add	w4, w21, w21, lsl #2
   92710:	7100205f 	cmp	w2, #0x8
   92714:	531f7800 	lsl	w0, w0, #1
   92718:	54fffeed 	b.le	926f4 <_strtodg_l+0x144c>
   9271c:	7100443f 	cmp	w1, #0x11
   92720:	1a98b018 	csel	w24, w0, w24, lt  // lt = tstop
   92724:	17fffff5 	b	926f8 <_strtodg_l+0x1450>
   92728:	2a0803e1 	mov	w1, w8
   9272c:	710022df 	cmp	w22, #0x8
   92730:	5400066d 	b.le	927fc <_strtodg_l+0x1554>
   92734:	7100403f 	cmp	w1, #0x10
   92738:	540014ac 	b.gt	929cc <_strtodg_l+0x1724>
   9273c:	0b180b18 	add	w24, w24, w24, lsl #2
   92740:	2a0103f6 	mov	w22, w1
   92744:	52800000 	mov	w0, #0x0                   	// #0
   92748:	0b180478 	add	w24, w3, w24, lsl #1
   9274c:	17fffc12 	b	91794 <_strtodg_l+0x4ec>
   92750:	3100581f 	cmn	w0, #0x16
   92754:	2a0003f4 	mov	w20, w0
   92758:	54ff85eb 	b.lt	91814 <_strtodg_l+0x56c>  // b.tstop
   9275c:	4b1c00e1 	sub	w1, w7, w28
   92760:	f0000000 	adrp	x0, 95000 <BitFont+0xb40>
   92764:	91242000 	add	x0, x0, #0x908
   92768:	9e670261 	fmov	d1, x19
   9276c:	910483e6 	add	x6, sp, #0x120
   92770:	52800004 	mov	w4, #0x0                   	// #0
   92774:	9e660183 	fmov	x3, d12
   92778:	b940c3e5 	ldr	w5, [sp, #192]
   9277c:	fc61d800 	ldr	d0, [x0, w1, sxtw #3]
   92780:	aa1a03e1 	mov	x1, x26
   92784:	9e660100 	fmov	x0, d8
   92788:	2916a3e7 	stp	w7, w8, [sp, #180]
   9278c:	f94067e2 	ldr	x2, [sp, #200]
   92790:	1e601821 	fdiv	d1, d1, d0
   92794:	17fffb62 	b	9151c <_strtodg_l+0x274>
   92798:	52800013 	mov	w19, #0x0                   	// #0
   9279c:	52800018 	mov	w24, #0x0                   	// #0
   927a0:	17fffd66 	b	91d38 <_strtodg_l+0xa90>
   927a4:	5280001c 	mov	w28, #0x0                   	// #0
   927a8:	17fffbb2 	b	91670 <_strtodg_l+0x3c8>
   927ac:	0b010261 	add	w1, w19, w1
   927b0:	b90127e1 	str	w1, [sp, #292]
   927b4:	7100003f 	cmp	w1, #0x0
   927b8:	f9409fe2 	ldr	x2, [sp, #312]
   927bc:	5400122c 	b.gt	92a00 <_strtodg_l+0x1758>
   927c0:	3100043f 	cmn	w1, #0x1
   927c4:	540000eb 	b.lt	927e0 <_strtodg_l+0x1538>  // b.tstop
   927c8:	52800020 	mov	w0, #0x1                   	// #1
   927cc:	b90127e0 	str	w0, [sp, #292]
   927d0:	b20003e0 	mov	x0, #0x100000001           	// #4294967297
   927d4:	f8014040 	stur	x0, [x2, #20]
   927d8:	17fffc44 	b	918e8 <_strtodg_l+0x640>
   927dc:	f9409fe2 	ldr	x2, [sp, #312]
   927e0:	52800a00 	mov	w0, #0x50                  	// #80
   927e4:	b90123e0 	str	w0, [sp, #288]
   927e8:	f94067e0 	ldr	x0, [sp, #200]
   927ec:	f801405f 	stur	xzr, [x2, #20]
   927f0:	b94107e1 	ldr	w1, [sp, #260]
   927f4:	b9000001 	str	w1, [x0]
   927f8:	17fffe33 	b	920c4 <_strtodg_l+0xe1c>
   927fc:	2a0503f6 	mov	w22, w5
   92800:	17ffff74 	b	925d0 <_strtodg_l+0x1328>
   92804:	b980d3f8 	ldrsw	x24, [sp, #208]
   92808:	f0000000 	adrp	x0, 95000 <BitFont+0xb40>
   9280c:	91284000 	add	x0, x0, #0xa10
   92810:	2916a3e7 	stp	w7, w8, [sp, #180]
   92814:	b9012ff3 	str	w19, [sp, #300]
   92818:	d360fe61 	lsr	x1, x19, #32
   9281c:	b8787814 	ldr	w20, [x0, x24, lsl #2]
   92820:	35001413 	cbnz	w19, 92aa0 <_strtodg_l+0x17f8>
   92824:	320c0021 	orr	w1, w1, #0x100000
   92828:	9104b3e0 	add	x0, sp, #0x12c
   9282c:	b9012fe1 	str	w1, [sp, #300]
   92830:	97fff652 	bl	90178 <__lo0bits>
   92834:	2956a3e7 	ldp	w7, w8, [sp, #180]
   92838:	528002a1 	mov	w1, #0x15                  	// #21
   9283c:	4b000020 	sub	w0, w1, w0
   92840:	f0000001 	adrp	x1, 95000 <BitFont+0xb40>
   92844:	91242021 	add	x1, x1, #0x908
   92848:	0b000294 	add	w20, w20, w0
   9284c:	9e670260 	fmov	d0, x19
   92850:	7100d69f 	cmp	w20, #0x35
   92854:	910483e6 	add	x6, sp, #0x120
   92858:	fc787821 	ldr	d1, [x1, x24, lsl #3]
   9285c:	1a9fc7e4 	cset	w4, le
   92860:	9e660183 	fmov	x3, d12
   92864:	aa1a03e1 	mov	x1, x26
   92868:	9e660100 	fmov	x0, d8
   9286c:	b940c3e5 	ldr	w5, [sp, #192]
   92870:	1e600821 	fmul	d1, d1, d0
   92874:	2916a3e7 	stp	w7, w8, [sp, #180]
   92878:	f94067e2 	ldr	x2, [sp, #200]
   9287c:	17fffb28 	b	9151c <_strtodg_l+0x274>
   92880:	2a1703fc 	mov	w28, w23
   92884:	17fffcd2 	b	91bcc <_strtodg_l+0x924>
   92888:	2a1b03fc 	mov	w28, w27
   9288c:	f94087fa 	ldr	x26, [sp, #264]
   92890:	34000c7b 	cbz	w27, 92a1c <_strtodg_l+0x1774>
   92894:	340011f8 	cbz	w24, 92ad0 <_strtodg_l+0x1828>
   92898:	b94127e3 	ldr	w3, [sp, #292]
   9289c:	f9409fe4 	ldr	x4, [sp, #312]
   928a0:	13057c61 	asr	w1, w3, #5
   928a4:	91006080 	add	x0, x4, #0x18
   928a8:	8b21c801 	add	x1, x0, w1, sxtw #2
   928ac:	eb01001f 	cmp	x0, x1
   928b0:	54000162 	b.cs	928dc <_strtodg_l+0x1634>  // b.hs, b.nlast
   928b4:	b9401882 	ldr	w2, [x4, #24]
   928b8:	91007080 	add	x0, x4, #0x1c
   928bc:	3100045f 	cmn	w2, #0x1
   928c0:	540000a0 	b.eq	928d4 <_strtodg_l+0x162c>  // b.none
   928c4:	14000083 	b	92ad0 <_strtodg_l+0x1828>
   928c8:	b8404402 	ldr	w2, [x0], #4
   928cc:	3100045f 	cmn	w2, #0x1
   928d0:	54001001 	b.ne	92ad0 <_strtodg_l+0x1828>  // b.any
   928d4:	eb00003f 	cmp	x1, x0
   928d8:	54ffff88 	b.hi	928c8 <_strtodg_l+0x1620>  // b.pmore
   928dc:	72001063 	ands	w3, w3, #0x1f
   928e0:	54000ec1 	b.ne	92ab8 <_strtodg_l+0x1810>  // b.any
   928e4:	b94107e0 	ldr	w0, [sp, #260]
   928e8:	b20003e2 	mov	x2, #0x100000001           	// #4294967297
   928ec:	52800023 	mov	w3, #0x1                   	// #1
   928f0:	52800425 	mov	w5, #0x21                  	// #33
   928f4:	0b0002e0 	add	w0, w23, w0
   928f8:	2a1803e1 	mov	w1, w24
   928fc:	51000400 	sub	w0, w0, #0x1
   92900:	f8014082 	stur	x2, [x4, #20]
   92904:	b90123e5 	str	w5, [sp, #288]
   92908:	b90127e3 	str	w3, [sp, #292]
   9290c:	b9012be0 	str	w0, [sp, #296]
   92910:	17fffdf4 	b	920e0 <_strtodg_l+0xe38>
   92914:	f94087fa 	ldr	x26, [sp, #264]
   92918:	35000b9b 	cbnz	w27, 92a88 <_strtodg_l+0x17e0>
   9291c:	52800420 	mov	w0, #0x21                  	// #33
   92920:	b90123e0 	str	w0, [sp, #288]
   92924:	7100073f 	cmp	w25, #0x1
   92928:	54ffb82c 	b.gt	9202c <_strtodg_l+0xd84>
   9292c:	b940d7e0 	ldr	w0, [sp, #212]
   92930:	b94107e1 	ldr	w1, [sp, #260]
   92934:	6b01001f 	cmp	w0, w1
   92938:	12000300 	and	w0, w24, #0x1
   9293c:	1a9f1400 	csinc	w0, w0, wzr, ne  // ne = any
   92940:	35ffb760 	cbnz	w0, 9202c <_strtodg_l+0xd84>
   92944:	9e660100 	fmov	x0, d8
   92948:	aa1403e1 	mov	x1, x20
   9294c:	52800022 	mov	w2, #0x1                   	// #1
   92950:	97fff6f8 	bl	90530 <__lshift>
   92954:	9e660121 	fmov	x1, d9
   92958:	aa0003f4 	mov	x20, x0
   9295c:	97fff741 	bl	90660 <__mcmp>
   92960:	7100001f 	cmp	w0, #0x0
   92964:	54ffbbcd 	b.le	920dc <_strtodg_l+0xe34>
   92968:	52800220 	mov	w0, #0x11                  	// #17
   9296c:	52800018 	mov	w24, #0x0                   	// #0
   92970:	b90123e0 	str	w0, [sp, #288]
   92974:	b9412be3 	ldr	w3, [sp, #296]
   92978:	9e660100 	fmov	x0, d8
   9297c:	f9409fe1 	ldr	x1, [sp, #312]
   92980:	4b170063 	sub	w3, w3, w23
   92984:	2a1703e2 	mov	w2, w23
   92988:	b90127f7 	str	w23, [sp, #292]
   9298c:	b9012be3 	str	w3, [sp, #296]
   92990:	97fffa14 	bl	911e0 <set_ones>
   92994:	f9009fe0 	str	x0, [sp, #312]
   92998:	35ffb4d8 	cbnz	w24, 92030 <_strtodg_l+0xd88>
   9299c:	17fffdd0 	b	920dc <_strtodg_l+0xe34>
   929a0:	7100001f 	cmp	w0, #0x0
   929a4:	52800421 	mov	w1, #0x21                  	// #33
   929a8:	52800220 	mov	w0, #0x11                  	// #17
   929ac:	1a811000 	csel	w0, w0, w1, ne  // ne = any
   929b0:	b90123e0 	str	w0, [sp, #288]
   929b4:	f94087fa 	ldr	x26, [sp, #264]
   929b8:	35ffb3d8 	cbnz	w24, 92030 <_strtodg_l+0xd88>
   929bc:	17fffdc8 	b	920dc <_strtodg_l+0xe34>
   929c0:	4b170021 	sub	w1, w1, w23
   929c4:	97fff8a9 	bl	90c68 <rshift>
   929c8:	17fffdd0 	b	92108 <_strtodg_l+0xe60>
   929cc:	2a0103f6 	mov	w22, w1
   929d0:	52800000 	mov	w0, #0x0                   	// #0
   929d4:	17fffb70 	b	91794 <_strtodg_l+0x4ec>
   929d8:	f94087fa 	ldr	x26, [sp, #264]
   929dc:	52800038 	mov	w24, #0x1                   	// #1
   929e0:	f9409fe1 	ldr	x1, [sp, #312]
   929e4:	52800a00 	mov	w0, #0x50                  	// #80
   929e8:	b90123e0 	str	w0, [sp, #288]
   929ec:	b94107e0 	ldr	w0, [sp, #260]
   929f0:	b900143f 	str	wzr, [x1, #20]
   929f4:	b9012be0 	str	w0, [sp, #296]
   929f8:	35ffb1d8 	cbnz	w24, 92030 <_strtodg_l+0xd88>
   929fc:	17fffdb8 	b	920dc <_strtodg_l+0xe34>
   92a00:	b94107e0 	ldr	w0, [sp, #260]
   92a04:	b900b7e7 	str	w7, [sp, #180]
   92a08:	4b140001 	sub	w1, w0, w20
   92a0c:	aa0203e0 	mov	x0, x2
   92a10:	97fff896 	bl	90c68 <rshift>
   92a14:	b940b7e7 	ldr	w7, [sp, #180]
   92a18:	17fffbb4 	b	918e8 <_strtodg_l+0x640>
   92a1c:	7100073f 	cmp	w25, #0x1
   92a20:	54000740 	b.eq	92b08 <_strtodg_l+0x1860>  // b.none
   92a24:	52800420 	mov	w0, #0x21                  	// #33
   92a28:	b90123e0 	str	w0, [sp, #288]
   92a2c:	6b1902ff 	cmp	w23, w25
   92a30:	52000300 	eor	w0, w24, #0x1
   92a34:	1a9fd7e1 	cset	w1, gt
   92a38:	6a01001f 	tst	w0, w1
   92a3c:	54ffb501 	b.ne	920dc <_strtodg_l+0xe34>  // b.any
   92a40:	f9409fe1 	ldr	x1, [sp, #312]
   92a44:	b9401820 	ldr	w0, [x1, #24]
   92a48:	3607af20 	tbz	w0, #0, 9202c <_strtodg_l+0xd84>
   92a4c:	35000a3c 	cbnz	w28, 92b90 <_strtodg_l+0x18e8>
   92a50:	7100073f 	cmp	w25, #0x1
   92a54:	54fffc80 	b.eq	929e4 <_strtodg_l+0x173c>  // b.none
   92a58:	b9801420 	ldrsw	x0, [x1, #20]
   92a5c:	91006021 	add	x1, x1, #0x18
   92a60:	12800003 	mov	w3, #0xffffffff            	// #-1
   92a64:	8b000822 	add	x2, x1, x0, lsl #2
   92a68:	14000004 	b	92a78 <_strtodg_l+0x17d0>
   92a6c:	b8004423 	str	w3, [x1], #4
   92a70:	eb01005f 	cmp	x2, x1
   92a74:	540000a9 	b.ls	92a88 <_strtodg_l+0x17e0>  // b.plast
   92a78:	b9400020 	ldr	w0, [x1]
   92a7c:	34ffff80 	cbz	w0, 92a6c <_strtodg_l+0x17c4>
   92a80:	51000400 	sub	w0, w0, #0x1
   92a84:	b9000020 	str	w0, [x1]
   92a88:	52800220 	mov	w0, #0x11                  	// #17
   92a8c:	b90123e0 	str	w0, [sp, #288]
   92a90:	35ffad18 	cbnz	w24, 92030 <_strtodg_l+0xd88>
   92a94:	17fffd92 	b	920dc <_strtodg_l+0xe34>
   92a98:	52800000 	mov	w0, #0x0                   	// #0
   92a9c:	17fffd08 	b	91ebc <_strtodg_l+0xc14>
   92aa0:	9104b3e0 	add	x0, sp, #0x12c
   92aa4:	97fff5b5 	bl	90178 <__lo0bits>
   92aa8:	528006a1 	mov	w1, #0x35                  	// #53
   92aac:	4b000020 	sub	w0, w1, w0
   92ab0:	2956a3e7 	ldp	w7, w8, [sp, #180]
   92ab4:	17ffff63 	b	92840 <_strtodg_l+0x1598>
   92ab8:	b9400001 	ldr	w1, [x0]
   92abc:	12800000 	mov	w0, #0xffffffff            	// #-1
   92ac0:	1ac32000 	lsl	w0, w0, w3
   92ac4:	2a010000 	orr	w0, w0, w1
   92ac8:	3100041f 	cmn	w0, #0x1
   92acc:	54fff0c0 	b.eq	928e4 <_strtodg_l+0x163c>  // b.none
   92ad0:	52800220 	mov	w0, #0x11                  	// #17
   92ad4:	b90123e0 	str	w0, [sp, #288]
   92ad8:	17ffffd5 	b	92a2c <_strtodg_l+0x1784>
   92adc:	9e660182 	fmov	x2, d12
   92ae0:	aa1a03e1 	mov	x1, x26
   92ae4:	9104c3e0 	add	x0, sp, #0x130
   92ae8:	97fff36c 	bl	8f898 <__hexnan>
   92aec:	b90123e0 	str	w0, [sp, #288]
   92af0:	f94067e0 	ldr	x0, [sp, #200]
   92af4:	b9400b41 	ldr	w1, [x26, #8]
   92af8:	f9409fe2 	ldr	x2, [sp, #312]
   92afc:	11000421 	add	w1, w1, #0x1
   92b00:	b9000001 	str	w1, [x0]
   92b04:	17fffaeb 	b	916b0 <_strtodg_l+0x408>
   92b08:	b940d7e0 	ldr	w0, [sp, #212]
   92b0c:	b94107e1 	ldr	w1, [sp, #260]
   92b10:	b90123f9 	str	w25, [sp, #288]
   92b14:	6b01001f 	cmp	w0, w1
   92b18:	54fff2e1 	b.ne	92974 <_strtodg_l+0x16cc>  // b.any
   92b1c:	f9409fe0 	ldr	x0, [sp, #312]
   92b20:	52800421 	mov	w1, #0x21                  	// #33
   92b24:	b90123e1 	str	w1, [sp, #288]
   92b28:	b9401401 	ldr	w1, [x0, #20]
   92b2c:	7100043f 	cmp	w1, #0x1
   92b30:	54ffa7e1 	b.ne	9202c <_strtodg_l+0xd84>  // b.any
   92b34:	b9401800 	ldr	w0, [x0, #24]
   92b38:	7100041f 	cmp	w0, #0x1
   92b3c:	b940efe0 	ldr	w0, [sp, #236]
   92b40:	1a991000 	csel	w0, w0, w25, ne  // ne = any
   92b44:	b900efe0 	str	w0, [sp, #236]
   92b48:	35ffa758 	cbnz	w24, 92030 <_strtodg_l+0xd88>
   92b4c:	17fffd64 	b	920dc <_strtodg_l+0xe34>
   92b50:	f94087fa 	ldr	x26, [sp, #264]
   92b54:	f9409fe1 	ldr	x1, [sp, #312]
   92b58:	2a1703e2 	mov	w2, w23
   92b5c:	b940d7e0 	ldr	w0, [sp, #212]
   92b60:	b90127f7 	str	w23, [sp, #292]
   92b64:	51000403 	sub	w3, w0, #0x1
   92b68:	9e660100 	fmov	x0, d8
   92b6c:	b9012be3 	str	w3, [sp, #296]
   92b70:	97fff99c 	bl	911e0 <set_ones>
   92b74:	f9009fe0 	str	x0, [sp, #312]
   92b78:	35ffa5d8 	cbnz	w24, 92030 <_strtodg_l+0xd88>
   92b7c:	17fffd58 	b	920dc <_strtodg_l+0xe34>
   92b80:	f94087fa 	ldr	x26, [sp, #264]
   92b84:	17fffff5 	b	92b58 <_strtodg_l+0x18b0>
   92b88:	52800000 	mov	w0, #0x0                   	// #0
   92b8c:	17fffc9e 	b	91e04 <_strtodg_l+0xb5c>
   92b90:	9e660100 	fmov	x0, d8
   92b94:	97fff87b 	bl	90d80 <increment>
   92b98:	b9401401 	ldr	w1, [x0, #20]
   92b9c:	b94127f3 	ldr	w19, [sp, #292]
   92ba0:	51000421 	sub	w1, w1, #0x1
   92ba4:	f9009fe0 	str	x0, [sp, #312]
   92ba8:	4b1303f3 	neg	w19, w19
   92bac:	8b21c801 	add	x1, x0, w1, sxtw #2
   92bb0:	12001273 	and	w19, w19, #0x1f
   92bb4:	b9401820 	ldr	w0, [x1, #24]
   92bb8:	97fff558 	bl	90118 <__hi0bits>
   92bbc:	6b13001f 	cmp	w0, w19
   92bc0:	54000080 	b.eq	92bd0 <_strtodg_l+0x1928>  // b.none
   92bc4:	b94127e0 	ldr	w0, [sp, #292]
   92bc8:	11000400 	add	w0, w0, #0x1
   92bcc:	b90127e0 	str	w0, [sp, #292]
   92bd0:	52800420 	mov	w0, #0x21                  	// #33
   92bd4:	b90123e0 	str	w0, [sp, #288]
   92bd8:	35ffa2d8 	cbnz	w24, 92030 <_strtodg_l+0xd88>
   92bdc:	17fffd40 	b	920dc <_strtodg_l+0xe34>
   92be0:	52800005 	mov	w5, #0x0                   	// #0
   92be4:	52800018 	mov	w24, #0x0                   	// #0
   92be8:	52800015 	mov	w21, #0x0                   	// #0
   92bec:	52800000 	mov	w0, #0x0                   	// #0
   92bf0:	52800007 	mov	w7, #0x0                   	// #0
   92bf4:	52800016 	mov	w22, #0x0                   	// #0
   92bf8:	52800003 	mov	w3, #0x0                   	// #0
   92bfc:	17fffaef 	b	917b8 <_strtodg_l+0x510>
   92c00:	2a1603fb 	mov	w27, w22
   92c04:	2a0503f6 	mov	w22, w5
   92c08:	17fff9ff 	b	91404 <_strtodg_l+0x15c>
   92c0c:	00000000 	.inst	0x00000000 ; undefined

0000000000092c10 <_calloc_r>:
   92c10:	9b027c21 	mul	x1, x1, x2
   92c14:	a9be7bfd 	stp	x29, x30, [sp, #-32]!
   92c18:	910003fd 	mov	x29, sp
   92c1c:	f9000bf3 	str	x19, [sp, #16]
   92c20:	94000026 	bl	92cb8 <_malloc_r>
   92c24:	aa0003f3 	mov	x19, x0
   92c28:	b4000140 	cbz	x0, 92c50 <_calloc_r+0x40>
   92c2c:	f85f8002 	ldur	x2, [x0, #-8]
   92c30:	927ef442 	and	x2, x2, #0xfffffffffffffffc
   92c34:	d1002042 	sub	x2, x2, #0x8
   92c38:	f101205f 	cmp	x2, #0x48
   92c3c:	54000288 	b.hi	92c8c <_calloc_r+0x7c>  // b.pmore
   92c40:	f1009c5f 	cmp	x2, #0x27
   92c44:	540000e8 	b.hi	92c60 <_calloc_r+0x50>  // b.pmore
   92c48:	a9007c1f 	stp	xzr, xzr, [x0]
   92c4c:	f900081f 	str	xzr, [x0, #16]
   92c50:	aa1303e0 	mov	x0, x19
   92c54:	f9400bf3 	ldr	x19, [sp, #16]
   92c58:	a8c27bfd 	ldp	x29, x30, [sp], #32
   92c5c:	d65f03c0 	ret
   92c60:	a9007e7f 	stp	xzr, xzr, [x19]
   92c64:	91004000 	add	x0, x0, #0x10
   92c68:	f100dc5f 	cmp	x2, #0x37
   92c6c:	54fffee9 	b.ls	92c48 <_calloc_r+0x38>  // b.plast
   92c70:	a9017e7f 	stp	xzr, xzr, [x19, #16]
   92c74:	91008260 	add	x0, x19, #0x20
   92c78:	f101205f 	cmp	x2, #0x48
   92c7c:	54fffe61 	b.ne	92c48 <_calloc_r+0x38>  // b.any
   92c80:	9100c260 	add	x0, x19, #0x30
   92c84:	a9027e7f 	stp	xzr, xzr, [x19, #32]
   92c88:	17fffff0 	b	92c48 <_calloc_r+0x38>
   92c8c:	52800001 	mov	w1, #0x0                   	// #0
   92c90:	97fff3fc 	bl	8fc80 <memset>
   92c94:	aa1303e0 	mov	x0, x19
   92c98:	f9400bf3 	ldr	x19, [sp, #16]
   92c9c:	a8c27bfd 	ldp	x29, x30, [sp], #32
   92ca0:	d65f03c0 	ret
   92ca4:	00000000 	.inst	0x00000000 ; undefined

0000000000092ca8 <__errno>:
   92ca8:	f0000000 	adrp	x0, 95000 <BitFont+0xb40>
   92cac:	f9469000 	ldr	x0, [x0, #3360]
   92cb0:	d65f03c0 	ret
   92cb4:	00000000 	.inst	0x00000000 ; undefined

0000000000092cb8 <_malloc_r>:
   92cb8:	a9ba7bfd 	stp	x29, x30, [sp, #-96]!
   92cbc:	910003fd 	mov	x29, sp
   92cc0:	a90153f3 	stp	x19, x20, [sp, #16]
   92cc4:	91005c33 	add	x19, x1, #0x17
   92cc8:	f100ba7f 	cmp	x19, #0x2e
   92ccc:	a9025bf5 	stp	x21, x22, [sp, #32]
   92cd0:	aa0003f5 	mov	x21, x0
   92cd4:	a90363f7 	stp	x23, x24, [sp, #48]
   92cd8:	54000c48 	b.hi	92e60 <_malloc_r+0x1a8>  // b.pmore
   92cdc:	f100803f 	cmp	x1, #0x20
   92ce0:	54000ae8 	b.hi	92e3c <_malloc_r+0x184>  // b.pmore
   92ce4:	940001f1 	bl	934a8 <__malloc_lock>
   92ce8:	d2800413 	mov	x19, #0x20                  	// #32
   92cec:	52800084 	mov	w4, #0x4                   	// #4
   92cf0:	d2800a00 	mov	x0, #0x50                  	// #80
   92cf4:	90000034 	adrp	x20, 96000 <impure_data+0x2d8>
   92cf8:	9111c294 	add	x20, x20, #0x470
   92cfc:	8b000280 	add	x0, x20, x0
   92d00:	11000884 	add	w4, w4, #0x2
   92d04:	d1004000 	sub	x0, x0, #0x10
   92d08:	f9400c01 	ldr	x1, [x0, #24]
   92d0c:	eb00003f 	cmp	x1, x0
   92d10:	54002001 	b.ne	93110 <_malloc_r+0x458>  // b.any
   92d14:	f9401283 	ldr	x3, [x20, #32]
   92d18:	91004282 	add	x2, x20, #0x10
   92d1c:	eb02007f 	cmp	x3, x2
   92d20:	54000ee0 	b.eq	92efc <_malloc_r+0x244>  // b.none
   92d24:	f9400461 	ldr	x1, [x3, #8]
   92d28:	927ef421 	and	x1, x1, #0xfffffffffffffffc
   92d2c:	cb130025 	sub	x5, x1, x19
   92d30:	f1007cbf 	cmp	x5, #0x1f
   92d34:	54002d6c 	b.gt	932e0 <_malloc_r+0x628>
   92d38:	a9020a82 	stp	x2, x2, [x20, #32]
   92d3c:	b6f81da5 	tbz	x5, #63, 930f0 <_malloc_r+0x438>
   92d40:	f107fc3f 	cmp	x1, #0x1ff
   92d44:	540022a8 	b.hi	93198 <_malloc_r+0x4e0>  // b.pmore
   92d48:	d343fc22 	lsr	x2, x1, #3
   92d4c:	d2800021 	mov	x1, #0x1                   	// #1
   92d50:	11000440 	add	w0, w2, #0x1
   92d54:	13027c42 	asr	w2, w2, #2
   92d58:	531f7800 	lsl	w0, w0, #1
   92d5c:	f9400685 	ldr	x5, [x20, #8]
   92d60:	8b20ce80 	add	x0, x20, w0, sxtw #3
   92d64:	9ac22021 	lsl	x1, x1, x2
   92d68:	aa050021 	orr	x1, x1, x5
   92d6c:	f85f0402 	ldr	x2, [x0], #-16
   92d70:	f9000681 	str	x1, [x20, #8]
   92d74:	a9010062 	stp	x2, x0, [x3, #16]
   92d78:	f9000803 	str	x3, [x0, #16]
   92d7c:	f9000c43 	str	x3, [x2, #24]
   92d80:	13027c82 	asr	w2, w4, #2
   92d84:	d2800020 	mov	x0, #0x1                   	// #1
   92d88:	9ac22000 	lsl	x0, x0, x2
   92d8c:	eb01001f 	cmp	x0, x1
   92d90:	54000c28 	b.hi	92f14 <_malloc_r+0x25c>  // b.pmore
   92d94:	ea01001f 	tst	x0, x1
   92d98:	540000c1 	b.ne	92db0 <_malloc_r+0xf8>  // b.any
   92d9c:	121e7484 	and	w4, w4, #0xfffffffc
   92da0:	d37ff800 	lsl	x0, x0, #1
   92da4:	11001084 	add	w4, w4, #0x4
   92da8:	ea01001f 	tst	x0, x1
   92dac:	54ffffa0 	b.eq	92da0 <_malloc_r+0xe8>  // b.none
   92db0:	11000486 	add	w6, w4, #0x1
   92db4:	2a0403e7 	mov	w7, w4
   92db8:	531f78c6 	lsl	w6, w6, #1
   92dbc:	8b26ce86 	add	x6, x20, w6, sxtw #3
   92dc0:	d10040c6 	sub	x6, x6, #0x10
   92dc4:	aa0603e5 	mov	x5, x6
   92dc8:	f9400ca1 	ldr	x1, [x5, #24]
   92dcc:	eb0100bf 	cmp	x5, x1
   92dd0:	540000c1 	b.ne	92de8 <_malloc_r+0x130>  // b.any
   92dd4:	14000116 	b	9322c <_malloc_r+0x574>
   92dd8:	b6f82623 	tbz	x3, #63, 9329c <_malloc_r+0x5e4>
   92ddc:	f9400c21 	ldr	x1, [x1, #24]
   92de0:	eb0100bf 	cmp	x5, x1
   92de4:	54002240 	b.eq	9322c <_malloc_r+0x574>  // b.none
   92de8:	f9400422 	ldr	x2, [x1, #8]
   92dec:	927ef442 	and	x2, x2, #0xfffffffffffffffc
   92df0:	cb130043 	sub	x3, x2, x19
   92df4:	f1007c7f 	cmp	x3, #0x1f
   92df8:	54ffff0d 	b.le	92dd8 <_malloc_r+0x120>
   92dfc:	a9410025 	ldp	x5, x0, [x1, #16]
   92e00:	b2400264 	orr	x4, x19, #0x1
   92e04:	f9000424 	str	x4, [x1, #8]
   92e08:	8b130033 	add	x19, x1, x19
   92e0c:	f9000ca0 	str	x0, [x5, #24]
   92e10:	91004284 	add	x4, x20, #0x10
   92e14:	b2400066 	orr	x6, x3, #0x1
   92e18:	91004037 	add	x23, x1, #0x10
   92e1c:	f9000805 	str	x5, [x0, #16]
   92e20:	aa1503e0 	mov	x0, x21
   92e24:	a9024e93 	stp	x19, x19, [x20, #32]
   92e28:	a9009266 	stp	x6, x4, [x19, #8]
   92e2c:	f9000e64 	str	x4, [x19, #24]
   92e30:	f8226823 	str	x3, [x1, x2]
   92e34:	9400019f 	bl	934b0 <__malloc_unlock>
   92e38:	14000004 	b	92e48 <_malloc_r+0x190>
   92e3c:	52800180 	mov	w0, #0xc                   	// #12
   92e40:	d2800017 	mov	x23, #0x0                   	// #0
   92e44:	b90002a0 	str	w0, [x21]
   92e48:	aa1703e0 	mov	x0, x23
   92e4c:	a94153f3 	ldp	x19, x20, [sp, #16]
   92e50:	a9425bf5 	ldp	x21, x22, [sp, #32]
   92e54:	a94363f7 	ldp	x23, x24, [sp, #48]
   92e58:	a8c67bfd 	ldp	x29, x30, [sp], #96
   92e5c:	d65f03c0 	ret
   92e60:	927cee73 	and	x19, x19, #0xfffffffffffffff0
   92e64:	b2407be2 	mov	x2, #0x7fffffff            	// #2147483647
   92e68:	eb02027f 	cmp	x19, x2
   92e6c:	fa539022 	ccmp	x1, x19, #0x2, ls  // ls = plast
   92e70:	54fffe68 	b.hi	92e3c <_malloc_r+0x184>  // b.pmore
   92e74:	9400018d 	bl	934a8 <__malloc_lock>
   92e78:	f107de7f 	cmp	x19, #0x1f7
   92e7c:	54002289 	b.ls	932cc <_malloc_r+0x614>  // b.plast
   92e80:	d349fe60 	lsr	x0, x19, #9
   92e84:	b40012e0 	cbz	x0, 930e0 <_malloc_r+0x428>
   92e88:	f100101f 	cmp	x0, #0x4
   92e8c:	54001bc8 	b.hi	93204 <_malloc_r+0x54c>  // b.pmore
   92e90:	d346fe60 	lsr	x0, x19, #6
   92e94:	1100e404 	add	w4, w0, #0x39
   92e98:	1100e005 	add	w5, w0, #0x38
   92e9c:	531f7883 	lsl	w3, w4, #1
   92ea0:	937d7c63 	sbfiz	x3, x3, #3, #32
   92ea4:	90000034 	adrp	x20, 96000 <impure_data+0x2d8>
   92ea8:	9111c294 	add	x20, x20, #0x470
   92eac:	8b030283 	add	x3, x20, x3
   92eb0:	d1004063 	sub	x3, x3, #0x10
   92eb4:	f9400c61 	ldr	x1, [x3, #24]
   92eb8:	eb01007f 	cmp	x3, x1
   92ebc:	540000c1 	b.ne	92ed4 <_malloc_r+0x21c>  // b.any
   92ec0:	17ffff95 	b	92d14 <_malloc_r+0x5c>
   92ec4:	b6f814a2 	tbz	x2, #63, 93158 <_malloc_r+0x4a0>
   92ec8:	f9400c21 	ldr	x1, [x1, #24]
   92ecc:	eb01007f 	cmp	x3, x1
   92ed0:	54fff220 	b.eq	92d14 <_malloc_r+0x5c>  // b.none
   92ed4:	f9400420 	ldr	x0, [x1, #8]
   92ed8:	927ef400 	and	x0, x0, #0xfffffffffffffffc
   92edc:	cb130002 	sub	x2, x0, x19
   92ee0:	f1007c5f 	cmp	x2, #0x1f
   92ee4:	54ffff0d 	b.le	92ec4 <_malloc_r+0x20c>
   92ee8:	f9401283 	ldr	x3, [x20, #32]
   92eec:	91004282 	add	x2, x20, #0x10
   92ef0:	2a0503e4 	mov	w4, w5
   92ef4:	eb02007f 	cmp	x3, x2
   92ef8:	54fff161 	b.ne	92d24 <_malloc_r+0x6c>  // b.any
   92efc:	f9400681 	ldr	x1, [x20, #8]
   92f00:	13027c82 	asr	w2, w4, #2
   92f04:	d2800020 	mov	x0, #0x1                   	// #1
   92f08:	9ac22000 	lsl	x0, x0, x2
   92f0c:	eb01001f 	cmp	x0, x1
   92f10:	54fff429 	b.ls	92d94 <_malloc_r+0xdc>  // b.plast
   92f14:	f9400a97 	ldr	x23, [x20, #16]
   92f18:	f94006e1 	ldr	x1, [x23, #8]
   92f1c:	927ef438 	and	x24, x1, #0xfffffffffffffffc
   92f20:	eb130301 	subs	x1, x24, x19
   92f24:	fa5f2824 	ccmp	x1, #0x1f, #0x4, cs  // cs = hs, nlast
   92f28:	54000bec 	b.gt	930a4 <_malloc_r+0x3ec>
   92f2c:	b0000061 	adrp	x1, 9f000 <console>
   92f30:	a90573fb 	stp	x27, x28, [sp, #80]
   92f34:	9000003c 	adrp	x28, 96000 <impure_data+0x2d8>
   92f38:	f9405c21 	ldr	x1, [x1, #184]
   92f3c:	d28203e3 	mov	x3, #0x101f                	// #4127
   92f40:	f9464382 	ldr	x2, [x28, #3200]
   92f44:	8b010261 	add	x1, x19, x1
   92f48:	8b030036 	add	x22, x1, x3
   92f4c:	91008021 	add	x1, x1, #0x20
   92f50:	b100045f 	cmn	x2, #0x1
   92f54:	9274ced6 	and	x22, x22, #0xfffffffffffff000
   92f58:	9a8112d6 	csel	x22, x22, x1, ne  // ne = any
   92f5c:	aa1503e0 	mov	x0, x21
   92f60:	aa1603e1 	mov	x1, x22
   92f64:	a9046bf9 	stp	x25, x26, [sp, #64]
   92f68:	94000154 	bl	934b8 <_sbrk_r>
   92f6c:	8b1802fa 	add	x26, x23, x24
   92f70:	aa0003f9 	mov	x25, x0
   92f74:	b100041f 	cmn	x0, #0x1
   92f78:	54001fa0 	b.eq	9336c <_malloc_r+0x6b4>  // b.none
   92f7c:	eb00035f 	cmp	x26, x0
   92f80:	fa5482e4 	ccmp	x23, x20, #0x4, hi  // hi = pmore
   92f84:	54001f41 	b.ne	9336c <_malloc_r+0x6b4>  // b.any
   92f88:	b000007b 	adrp	x27, 9f000 <console>
   92f8c:	eb00035f 	cmp	x26, x0
   92f90:	b9408360 	ldr	w0, [x27, #128]
   92f94:	0b160000 	add	w0, w0, w22
   92f98:	b9008360 	str	w0, [x27, #128]
   92f9c:	54001d60 	b.eq	93348 <_malloc_r+0x690>  // b.none
   92fa0:	f9464381 	ldr	x1, [x28, #3200]
   92fa4:	b100043f 	cmn	x1, #0x1
   92fa8:	54001de0 	b.eq	93364 <_malloc_r+0x6ac>  // b.none
   92fac:	cb1a033a 	sub	x26, x25, x26
   92fb0:	0b1a0000 	add	w0, w0, w26
   92fb4:	b9008360 	str	w0, [x27, #128]
   92fb8:	d2820002 	mov	x2, #0x1000                	// #4096
   92fbc:	f2400f20 	ands	x0, x25, #0xf
   92fc0:	540000a0 	b.eq	92fd4 <_malloc_r+0x31c>  // b.none
   92fc4:	cb000339 	sub	x25, x25, x0
   92fc8:	d2820202 	mov	x2, #0x1010                	// #4112
   92fcc:	91004339 	add	x25, x25, #0x10
   92fd0:	cb000042 	sub	x2, x2, x0
   92fd4:	8b160321 	add	x1, x25, x22
   92fd8:	aa1503e0 	mov	x0, x21
   92fdc:	92402c21 	and	x1, x1, #0xfff
   92fe0:	cb010056 	sub	x22, x2, x1
   92fe4:	aa1603e1 	mov	x1, x22
   92fe8:	94000134 	bl	934b8 <_sbrk_r>
   92fec:	b100041f 	cmn	x0, #0x1
   92ff0:	54002060 	b.eq	933fc <_malloc_r+0x744>  // b.none
   92ff4:	cb190001 	sub	x1, x0, x25
   92ff8:	2a1603e0 	mov	w0, w22
   92ffc:	8b160021 	add	x1, x1, x22
   93000:	b2400021 	orr	x1, x1, #0x1
   93004:	b9408362 	ldr	w2, [x27, #128]
   93008:	eb1402ff 	cmp	x23, x20
   9300c:	f9000a99 	str	x25, [x20, #16]
   93010:	0b020000 	add	w0, w0, w2
   93014:	b9008360 	str	w0, [x27, #128]
   93018:	f9000721 	str	x1, [x25, #8]
   9301c:	54001ec0 	b.eq	933f4 <_malloc_r+0x73c>  // b.none
   93020:	f1007f1f 	cmp	x24, #0x1f
   93024:	54001b89 	b.ls	93394 <_malloc_r+0x6dc>  // b.plast
   93028:	d1006301 	sub	x1, x24, #0x18
   9302c:	d2800124 	mov	x4, #0x9                   	// #9
   93030:	f94006e2 	ldr	x2, [x23, #8]
   93034:	927cec21 	and	x1, x1, #0xfffffffffffffff0
   93038:	8b0102e3 	add	x3, x23, x1
   9303c:	f1007c3f 	cmp	x1, #0x1f
   93040:	92400042 	and	x2, x2, #0x1
   93044:	aa010041 	orr	x1, x2, x1
   93048:	f90006e1 	str	x1, [x23, #8]
   9304c:	f8008c64 	str	x4, [x3, #8]!
   93050:	f9000464 	str	x4, [x3, #8]
   93054:	54001fa8 	b.hi	93448 <_malloc_r+0x790>  // b.pmore
   93058:	f9400721 	ldr	x1, [x25, #8]
   9305c:	aa1903f7 	mov	x23, x25
   93060:	90000062 	adrp	x2, 9f000 <console>
   93064:	93407c00 	sxtw	x0, w0
   93068:	f9405443 	ldr	x3, [x2, #168]
   9306c:	eb03001f 	cmp	x0, x3
   93070:	54000049 	b.ls	93078 <_malloc_r+0x3c0>  // b.plast
   93074:	f9005440 	str	x0, [x2, #168]
   93078:	90000062 	adrp	x2, 9f000 <console>
   9307c:	f9405843 	ldr	x3, [x2, #176]
   93080:	eb03001f 	cmp	x0, x3
   93084:	54000049 	b.ls	9308c <_malloc_r+0x3d4>  // b.plast
   93088:	f9005840 	str	x0, [x2, #176]
   9308c:	927ef421 	and	x1, x1, #0xfffffffffffffffc
   93090:	eb130021 	subs	x1, x1, x19
   93094:	fa5f2824 	ccmp	x1, #0x1f, #0x4, cs  // cs = hs, nlast
   93098:	5400182d 	b.le	9339c <_malloc_r+0x6e4>
   9309c:	a9446bf9 	ldp	x25, x26, [sp, #64]
   930a0:	a94573fb 	ldp	x27, x28, [sp, #80]
   930a4:	8b1302e0 	add	x0, x23, x19
   930a8:	b2400273 	orr	x19, x19, #0x1
   930ac:	f90006f3 	str	x19, [x23, #8]
   930b0:	b2400021 	orr	x1, x1, #0x1
   930b4:	f9000a80 	str	x0, [x20, #16]
   930b8:	f9000401 	str	x1, [x0, #8]
   930bc:	910042f7 	add	x23, x23, #0x10
   930c0:	aa1503e0 	mov	x0, x21
   930c4:	940000fb 	bl	934b0 <__malloc_unlock>
   930c8:	aa1703e0 	mov	x0, x23
   930cc:	a94153f3 	ldp	x19, x20, [sp, #16]
   930d0:	a9425bf5 	ldp	x21, x22, [sp, #32]
   930d4:	a94363f7 	ldp	x23, x24, [sp, #48]
   930d8:	a8c67bfd 	ldp	x29, x30, [sp], #96
   930dc:	d65f03c0 	ret
   930e0:	d2808003 	mov	x3, #0x400                 	// #1024
   930e4:	52800804 	mov	w4, #0x40                  	// #64
   930e8:	528007e5 	mov	w5, #0x3f                  	// #63
   930ec:	17ffff6e 	b	92ea4 <_malloc_r+0x1ec>
   930f0:	8b010061 	add	x1, x3, x1
   930f4:	aa1503e0 	mov	x0, x21
   930f8:	91004077 	add	x23, x3, #0x10
   930fc:	f9400422 	ldr	x2, [x1, #8]
   93100:	b2400042 	orr	x2, x2, #0x1
   93104:	f9000422 	str	x2, [x1, #8]
   93108:	940000ea 	bl	934b0 <__malloc_unlock>
   9310c:	17ffff4f 	b	92e48 <_malloc_r+0x190>
   93110:	a9409022 	ldp	x2, x4, [x1, #8]
   93114:	91004037 	add	x23, x1, #0x10
   93118:	f9400c23 	ldr	x3, [x1, #24]
   9311c:	aa1503e0 	mov	x0, x21
   93120:	927ef442 	and	x2, x2, #0xfffffffffffffffc
   93124:	8b020022 	add	x2, x1, x2
   93128:	f9400441 	ldr	x1, [x2, #8]
   9312c:	f9000c83 	str	x3, [x4, #24]
   93130:	f9000864 	str	x4, [x3, #16]
   93134:	b2400021 	orr	x1, x1, #0x1
   93138:	f9000441 	str	x1, [x2, #8]
   9313c:	940000dd 	bl	934b0 <__malloc_unlock>
   93140:	aa1703e0 	mov	x0, x23
   93144:	a94153f3 	ldp	x19, x20, [sp, #16]
   93148:	a9425bf5 	ldp	x21, x22, [sp, #32]
   9314c:	a94363f7 	ldp	x23, x24, [sp, #48]
   93150:	a8c67bfd 	ldp	x29, x30, [sp], #96
   93154:	d65f03c0 	ret
   93158:	8b000022 	add	x2, x1, x0
   9315c:	91004037 	add	x23, x1, #0x10
   93160:	a9410c24 	ldp	x4, x3, [x1, #16]
   93164:	aa1503e0 	mov	x0, x21
   93168:	f9400441 	ldr	x1, [x2, #8]
   9316c:	f9000c83 	str	x3, [x4, #24]
   93170:	b2400021 	orr	x1, x1, #0x1
   93174:	f9000864 	str	x4, [x3, #16]
   93178:	f9000441 	str	x1, [x2, #8]
   9317c:	940000cd 	bl	934b0 <__malloc_unlock>
   93180:	aa1703e0 	mov	x0, x23
   93184:	a94153f3 	ldp	x19, x20, [sp, #16]
   93188:	a9425bf5 	ldp	x21, x22, [sp, #32]
   9318c:	a94363f7 	ldp	x23, x24, [sp, #48]
   93190:	a8c67bfd 	ldp	x29, x30, [sp], #96
   93194:	d65f03c0 	ret
   93198:	d349fc20 	lsr	x0, x1, #9
   9319c:	f100101f 	cmp	x0, #0x4
   931a0:	54000b89 	b.ls	93310 <_malloc_r+0x658>  // b.plast
   931a4:	f100501f 	cmp	x0, #0x14
   931a8:	54001068 	b.hi	933b4 <_malloc_r+0x6fc>  // b.pmore
   931ac:	11017005 	add	w5, w0, #0x5c
   931b0:	11016c02 	add	w2, w0, #0x5b
   931b4:	531f78a5 	lsl	w5, w5, #1
   931b8:	937d7ca5 	sbfiz	x5, x5, #3, #32
   931bc:	8b050285 	add	x5, x20, x5
   931c0:	f85f04a0 	ldr	x0, [x5], #-16
   931c4:	eb0000bf 	cmp	x5, x0
   931c8:	54000d80 	b.eq	93378 <_malloc_r+0x6c0>  // b.none
   931cc:	d503201f 	nop
   931d0:	f9400402 	ldr	x2, [x0, #8]
   931d4:	927ef442 	and	x2, x2, #0xfffffffffffffffc
   931d8:	eb01005f 	cmp	x2, x1
   931dc:	54000089 	b.ls	931ec <_malloc_r+0x534>  // b.plast
   931e0:	f9400800 	ldr	x0, [x0, #16]
   931e4:	eb0000bf 	cmp	x5, x0
   931e8:	54ffff41 	b.ne	931d0 <_malloc_r+0x518>  // b.any
   931ec:	f9400681 	ldr	x1, [x20, #8]
   931f0:	f9400c05 	ldr	x5, [x0, #24]
   931f4:	a9011460 	stp	x0, x5, [x3, #16]
   931f8:	f90008a3 	str	x3, [x5, #16]
   931fc:	f9000c03 	str	x3, [x0, #24]
   93200:	17fffee0 	b	92d80 <_malloc_r+0xc8>
   93204:	f100501f 	cmp	x0, #0x14
   93208:	54000909 	b.ls	93328 <_malloc_r+0x670>  // b.plast
   9320c:	f101501f 	cmp	x0, #0x54
   93210:	54000e28 	b.hi	933d4 <_malloc_r+0x71c>  // b.pmore
   93214:	d34cfe60 	lsr	x0, x19, #12
   93218:	1101bc04 	add	w4, w0, #0x6f
   9321c:	1101b805 	add	w5, w0, #0x6e
   93220:	531f7883 	lsl	w3, w4, #1
   93224:	937d7c63 	sbfiz	x3, x3, #3, #32
   93228:	17ffff1f 	b	92ea4 <_malloc_r+0x1ec>
   9322c:	7100f8ff 	cmp	w7, #0x3e
   93230:	110004e1 	add	w1, w7, #0x1
   93234:	5400084d 	b.le	9333c <_malloc_r+0x684>
   93238:	910040a5 	add	x5, x5, #0x10
   9323c:	2a0103e7 	mov	w7, w1
   93240:	f24004ff 	tst	x7, #0x3
   93244:	54ffdc21 	b.ne	92dc8 <_malloc_r+0x110>  // b.any
   93248:	14000005 	b	9325c <_malloc_r+0x5a4>
   9324c:	f85f04c1 	ldr	x1, [x6], #-16
   93250:	51000484 	sub	w4, w4, #0x1
   93254:	eb06003f 	cmp	x1, x6
   93258:	54001241 	b.ne	934a0 <_malloc_r+0x7e8>  // b.any
   9325c:	f240049f 	tst	x4, #0x3
   93260:	54ffff61 	b.ne	9324c <_malloc_r+0x594>  // b.any
   93264:	f9400681 	ldr	x1, [x20, #8]
   93268:	8a200021 	bic	x1, x1, x0
   9326c:	f9000681 	str	x1, [x20, #8]
   93270:	d37ff800 	lsl	x0, x0, #1
   93274:	f100001f 	cmp	x0, #0x0
   93278:	fa411002 	ccmp	x0, x1, #0x2, ne  // ne = any
   9327c:	54000089 	b.ls	9328c <_malloc_r+0x5d4>  // b.plast
   93280:	17ffff25 	b	92f14 <_malloc_r+0x25c>
   93284:	d37ff800 	lsl	x0, x0, #1
   93288:	110010e7 	add	w7, w7, #0x4
   9328c:	ea01001f 	tst	x0, x1
   93290:	54ffffa0 	b.eq	93284 <_malloc_r+0x5cc>  // b.none
   93294:	2a0703e4 	mov	w4, w7
   93298:	17fffec6 	b	92db0 <_malloc_r+0xf8>
   9329c:	8b020022 	add	x2, x1, x2
   932a0:	aa0103f7 	mov	x23, x1
   932a4:	f9400c23 	ldr	x3, [x1, #24]
   932a8:	aa1503e0 	mov	x0, x21
   932ac:	f9400441 	ldr	x1, [x2, #8]
   932b0:	f8410ee4 	ldr	x4, [x23, #16]!
   932b4:	b2400021 	orr	x1, x1, #0x1
   932b8:	f9000441 	str	x1, [x2, #8]
   932bc:	f9000c83 	str	x3, [x4, #24]
   932c0:	f9000864 	str	x4, [x3, #16]
   932c4:	9400007b 	bl	934b0 <__malloc_unlock>
   932c8:	17fffee0 	b	92e48 <_malloc_r+0x190>
   932cc:	d343fe64 	lsr	x4, x19, #3
   932d0:	11000480 	add	w0, w4, #0x1
   932d4:	531f7800 	lsl	w0, w0, #1
   932d8:	937d7c00 	sbfiz	x0, x0, #3, #32
   932dc:	17fffe86 	b	92cf4 <_malloc_r+0x3c>
   932e0:	8b130064 	add	x4, x3, x19
   932e4:	b2400273 	orr	x19, x19, #0x1
   932e8:	f9000473 	str	x19, [x3, #8]
   932ec:	b24000a6 	orr	x6, x5, #0x1
   932f0:	a9021284 	stp	x4, x4, [x20, #32]
   932f4:	aa1503e0 	mov	x0, x21
   932f8:	91004077 	add	x23, x3, #0x10
   932fc:	a9008886 	stp	x6, x2, [x4, #8]
   93300:	f9000c82 	str	x2, [x4, #24]
   93304:	f8216865 	str	x5, [x3, x1]
   93308:	9400006a 	bl	934b0 <__malloc_unlock>
   9330c:	17fffecf 	b	92e48 <_malloc_r+0x190>
   93310:	d346fc20 	lsr	x0, x1, #6
   93314:	1100e405 	add	w5, w0, #0x39
   93318:	1100e002 	add	w2, w0, #0x38
   9331c:	531f78a5 	lsl	w5, w5, #1
   93320:	937d7ca5 	sbfiz	x5, x5, #3, #32
   93324:	17ffffa6 	b	931bc <_malloc_r+0x504>
   93328:	11017004 	add	w4, w0, #0x5c
   9332c:	11016c05 	add	w5, w0, #0x5b
   93330:	531f7883 	lsl	w3, w4, #1
   93334:	937d7c63 	sbfiz	x3, x3, #3, #32
   93338:	17fffedb 	b	92ea4 <_malloc_r+0x1ec>
   9333c:	910080a5 	add	x5, x5, #0x20
   93340:	110008e7 	add	w7, w7, #0x2
   93344:	17ffffbf 	b	93240 <_malloc_r+0x588>
   93348:	f2402f5f 	tst	x26, #0xfff
   9334c:	54ffe2a1 	b.ne	92fa0 <_malloc_r+0x2e8>  // b.any
   93350:	f9400a97 	ldr	x23, [x20, #16]
   93354:	8b160301 	add	x1, x24, x22
   93358:	b2400021 	orr	x1, x1, #0x1
   9335c:	f90006e1 	str	x1, [x23, #8]
   93360:	17ffff40 	b	93060 <_malloc_r+0x3a8>
   93364:	f9064399 	str	x25, [x28, #3200]
   93368:	17ffff14 	b	92fb8 <_malloc_r+0x300>
   9336c:	f9400a97 	ldr	x23, [x20, #16]
   93370:	f94006e1 	ldr	x1, [x23, #8]
   93374:	17ffff46 	b	9308c <_malloc_r+0x3d4>
   93378:	f9400686 	ldr	x6, [x20, #8]
   9337c:	13027c42 	asr	w2, w2, #2
   93380:	d2800021 	mov	x1, #0x1                   	// #1
   93384:	9ac22021 	lsl	x1, x1, x2
   93388:	aa060021 	orr	x1, x1, x6
   9338c:	f9000681 	str	x1, [x20, #8]
   93390:	17ffff99 	b	931f4 <_malloc_r+0x53c>
   93394:	d2800020 	mov	x0, #0x1                   	// #1
   93398:	f9000720 	str	x0, [x25, #8]
   9339c:	aa1503e0 	mov	x0, x21
   933a0:	d2800017 	mov	x23, #0x0                   	// #0
   933a4:	94000043 	bl	934b0 <__malloc_unlock>
   933a8:	a9446bf9 	ldp	x25, x26, [sp, #64]
   933ac:	a94573fb 	ldp	x27, x28, [sp, #80]
   933b0:	17fffea6 	b	92e48 <_malloc_r+0x190>
   933b4:	f101501f 	cmp	x0, #0x54
   933b8:	54000288 	b.hi	93408 <_malloc_r+0x750>  // b.pmore
   933bc:	d34cfc20 	lsr	x0, x1, #12
   933c0:	1101bc05 	add	w5, w0, #0x6f
   933c4:	1101b802 	add	w2, w0, #0x6e
   933c8:	531f78a5 	lsl	w5, w5, #1
   933cc:	937d7ca5 	sbfiz	x5, x5, #3, #32
   933d0:	17ffff7b 	b	931bc <_malloc_r+0x504>
   933d4:	f105501f 	cmp	x0, #0x154
   933d8:	54000288 	b.hi	93428 <_malloc_r+0x770>  // b.pmore
   933dc:	d34ffe60 	lsr	x0, x19, #15
   933e0:	1101e004 	add	w4, w0, #0x78
   933e4:	1101dc05 	add	w5, w0, #0x77
   933e8:	531f7883 	lsl	w3, w4, #1
   933ec:	937d7c63 	sbfiz	x3, x3, #3, #32
   933f0:	17fffead 	b	92ea4 <_malloc_r+0x1ec>
   933f4:	aa1903f7 	mov	x23, x25
   933f8:	17ffff1a 	b	93060 <_malloc_r+0x3a8>
   933fc:	d2800021 	mov	x1, #0x1                   	// #1
   93400:	52800000 	mov	w0, #0x0                   	// #0
   93404:	17ffff00 	b	93004 <_malloc_r+0x34c>
   93408:	f105501f 	cmp	x0, #0x154
   9340c:	540002c8 	b.hi	93464 <_malloc_r+0x7ac>  // b.pmore
   93410:	d34ffc20 	lsr	x0, x1, #15
   93414:	1101e005 	add	w5, w0, #0x78
   93418:	1101dc02 	add	w2, w0, #0x77
   9341c:	531f78a5 	lsl	w5, w5, #1
   93420:	937d7ca5 	sbfiz	x5, x5, #3, #32
   93424:	17ffff66 	b	931bc <_malloc_r+0x504>
   93428:	f115501f 	cmp	x0, #0x554
   9342c:	540002c8 	b.hi	93484 <_malloc_r+0x7cc>  // b.pmore
   93430:	d352fe60 	lsr	x0, x19, #18
   93434:	1101f404 	add	w4, w0, #0x7d
   93438:	1101f005 	add	w5, w0, #0x7c
   9343c:	531f7883 	lsl	w3, w4, #1
   93440:	937d7c63 	sbfiz	x3, x3, #3, #32
   93444:	17fffe98 	b	92ea4 <_malloc_r+0x1ec>
   93448:	910042e1 	add	x1, x23, #0x10
   9344c:	aa1503e0 	mov	x0, x21
   93450:	94000072 	bl	93618 <_free_r>
   93454:	f9400a97 	ldr	x23, [x20, #16]
   93458:	b9408360 	ldr	w0, [x27, #128]
   9345c:	f94006e1 	ldr	x1, [x23, #8]
   93460:	17ffff00 	b	93060 <_malloc_r+0x3a8>
   93464:	f115501f 	cmp	x0, #0x554
   93468:	54000168 	b.hi	93494 <_malloc_r+0x7dc>  // b.pmore
   9346c:	d352fc20 	lsr	x0, x1, #18
   93470:	1101f405 	add	w5, w0, #0x7d
   93474:	1101f002 	add	w2, w0, #0x7c
   93478:	531f78a5 	lsl	w5, w5, #1
   9347c:	937d7ca5 	sbfiz	x5, x5, #3, #32
   93480:	17ffff4f 	b	931bc <_malloc_r+0x504>
   93484:	d280fe03 	mov	x3, #0x7f0                 	// #2032
   93488:	52800fe4 	mov	w4, #0x7f                  	// #127
   9348c:	52800fc5 	mov	w5, #0x7e                  	// #126
   93490:	17fffe85 	b	92ea4 <_malloc_r+0x1ec>
   93494:	d280fe05 	mov	x5, #0x7f0                 	// #2032
   93498:	52800fc2 	mov	w2, #0x7e                  	// #126
   9349c:	17ffff48 	b	931bc <_malloc_r+0x504>
   934a0:	f9400681 	ldr	x1, [x20, #8]
   934a4:	17ffff73 	b	93270 <_malloc_r+0x5b8>

00000000000934a8 <__malloc_lock>:
   934a8:	d65f03c0 	ret
   934ac:	00000000 	.inst	0x00000000 ; undefined

00000000000934b0 <__malloc_unlock>:
   934b0:	d65f03c0 	ret
   934b4:	00000000 	.inst	0x00000000 ; undefined

00000000000934b8 <_sbrk_r>:
   934b8:	a9be7bfd 	stp	x29, x30, [sp, #-32]!
   934bc:	910003fd 	mov	x29, sp
   934c0:	a90153f3 	stp	x19, x20, [sp, #16]
   934c4:	90000073 	adrp	x19, 9f000 <console>
   934c8:	aa0003f4 	mov	x20, x0
   934cc:	b900c27f 	str	wzr, [x19, #192]
   934d0:	aa0103e0 	mov	x0, x1
   934d4:	97ffe522 	bl	8c95c <_sbrk>
   934d8:	b100041f 	cmn	x0, #0x1
   934dc:	54000080 	b.eq	934ec <_sbrk_r+0x34>  // b.none
   934e0:	a94153f3 	ldp	x19, x20, [sp, #16]
   934e4:	a8c27bfd 	ldp	x29, x30, [sp], #32
   934e8:	d65f03c0 	ret
   934ec:	b940c261 	ldr	w1, [x19, #192]
   934f0:	34ffff81 	cbz	w1, 934e0 <_sbrk_r+0x28>
   934f4:	b9000281 	str	w1, [x20]
   934f8:	a94153f3 	ldp	x19, x20, [sp, #16]
   934fc:	a8c27bfd 	ldp	x29, x30, [sp], #32
   93500:	d65f03c0 	ret
   93504:	00000000 	.inst	0x00000000 ; undefined

0000000000093508 <_malloc_trim_r>:
   93508:	a9bd7bfd 	stp	x29, x30, [sp, #-48]!
   9350c:	910003fd 	mov	x29, sp
   93510:	a9025bf5 	stp	x21, x22, [sp, #32]
   93514:	f0000015 	adrp	x21, 96000 <impure_data+0x2d8>
   93518:	9111c2b5 	add	x21, x21, #0x470
   9351c:	aa0003f6 	mov	x22, x0
   93520:	a90153f3 	stp	x19, x20, [sp, #16]
   93524:	aa0103f3 	mov	x19, x1
   93528:	97ffffe0 	bl	934a8 <__malloc_lock>
   9352c:	f9400aa0 	ldr	x0, [x21, #16]
   93530:	f9400414 	ldr	x20, [x0, #8]
   93534:	927ef694 	and	x20, x20, #0xfffffffffffffffc
   93538:	cb130293 	sub	x19, x20, x19
   9353c:	913f7e73 	add	x19, x19, #0xfdf
   93540:	9274ce73 	and	x19, x19, #0xfffffffffffff000
   93544:	d1400673 	sub	x19, x19, #0x1, lsl #12
   93548:	f13ffe7f 	cmp	x19, #0xfff
   9354c:	5400010d 	b.le	9356c <_malloc_trim_r+0x64>
   93550:	d2800001 	mov	x1, #0x0                   	// #0
   93554:	aa1603e0 	mov	x0, x22
   93558:	97ffffd8 	bl	934b8 <_sbrk_r>
   9355c:	f9400aa1 	ldr	x1, [x21, #16]
   93560:	8b140021 	add	x1, x1, x20
   93564:	eb01001f 	cmp	x0, x1
   93568:	54000100 	b.eq	93588 <_malloc_trim_r+0x80>  // b.none
   9356c:	aa1603e0 	mov	x0, x22
   93570:	97ffffd0 	bl	934b0 <__malloc_unlock>
   93574:	52800000 	mov	w0, #0x0                   	// #0
   93578:	a94153f3 	ldp	x19, x20, [sp, #16]
   9357c:	a9425bf5 	ldp	x21, x22, [sp, #32]
   93580:	a8c37bfd 	ldp	x29, x30, [sp], #48
   93584:	d65f03c0 	ret
   93588:	cb1303e1 	neg	x1, x19
   9358c:	aa1603e0 	mov	x0, x22
   93590:	97ffffca 	bl	934b8 <_sbrk_r>
   93594:	b100041f 	cmn	x0, #0x1
   93598:	54000200 	b.eq	935d8 <_malloc_trim_r+0xd0>  // b.none
   9359c:	90000062 	adrp	x2, 9f000 <console>
   935a0:	cb130294 	sub	x20, x20, x19
   935a4:	f9400aa3 	ldr	x3, [x21, #16]
   935a8:	b2400294 	orr	x20, x20, #0x1
   935ac:	b9408041 	ldr	w1, [x2, #128]
   935b0:	aa1603e0 	mov	x0, x22
   935b4:	f9000474 	str	x20, [x3, #8]
   935b8:	4b130033 	sub	w19, w1, w19
   935bc:	b9008053 	str	w19, [x2, #128]
   935c0:	97ffffbc 	bl	934b0 <__malloc_unlock>
   935c4:	52800020 	mov	w0, #0x1                   	// #1
   935c8:	a94153f3 	ldp	x19, x20, [sp, #16]
   935cc:	a9425bf5 	ldp	x21, x22, [sp, #32]
   935d0:	a8c37bfd 	ldp	x29, x30, [sp], #48
   935d4:	d65f03c0 	ret
   935d8:	d2800001 	mov	x1, #0x0                   	// #0
   935dc:	aa1603e0 	mov	x0, x22
   935e0:	97ffffb6 	bl	934b8 <_sbrk_r>
   935e4:	f9400aa2 	ldr	x2, [x21, #16]
   935e8:	cb020001 	sub	x1, x0, x2
   935ec:	f1007c3f 	cmp	x1, #0x1f
   935f0:	54fffbed 	b.le	9356c <_malloc_trim_r+0x64>
   935f4:	f0000004 	adrp	x4, 96000 <impure_data+0x2d8>
   935f8:	b2400021 	orr	x1, x1, #0x1
   935fc:	f9000441 	str	x1, [x2, #8]
   93600:	90000063 	adrp	x3, 9f000 <console>
   93604:	f9464081 	ldr	x1, [x4, #3200]
   93608:	cb010000 	sub	x0, x0, x1
   9360c:	b9008060 	str	w0, [x3, #128]
   93610:	17ffffd7 	b	9356c <_malloc_trim_r+0x64>
   93614:	00000000 	.inst	0x00000000 ; undefined

0000000000093618 <_free_r>:
   93618:	b4000921 	cbz	x1, 9373c <_free_r+0x124>
   9361c:	a9be7bfd 	stp	x29, x30, [sp, #-32]!
   93620:	910003fd 	mov	x29, sp
   93624:	a90153f3 	stp	x19, x20, [sp, #16]
   93628:	aa0103f3 	mov	x19, x1
   9362c:	aa0003f4 	mov	x20, x0
   93630:	97ffff9e 	bl	934a8 <__malloc_lock>
   93634:	f85f8265 	ldur	x5, [x19, #-8]
   93638:	d1004261 	sub	x1, x19, #0x10
   9363c:	f0000004 	adrp	x4, 96000 <impure_data+0x2d8>
   93640:	9111c084 	add	x4, x4, #0x470
   93644:	927ff8a2 	and	x2, x5, #0xfffffffffffffffe
   93648:	8b020020 	add	x0, x1, x2
   9364c:	f9400886 	ldr	x6, [x4, #16]
   93650:	f9400403 	ldr	x3, [x0, #8]
   93654:	eb0000df 	cmp	x6, x0
   93658:	927ef463 	and	x3, x3, #0xfffffffffffffffc
   9365c:	54000c60 	b.eq	937e8 <_free_r+0x1d0>  // b.none
   93660:	f9000403 	str	x3, [x0, #8]
   93664:	8b030006 	add	x6, x0, x3
   93668:	370004c5 	tbnz	w5, #0, 93700 <_free_r+0xe8>
   9366c:	f85f0267 	ldur	x7, [x19, #-16]
   93670:	f0000005 	adrp	x5, 96000 <impure_data+0x2d8>
   93674:	f94004c6 	ldr	x6, [x6, #8]
   93678:	cb070021 	sub	x1, x1, x7
   9367c:	8b070042 	add	x2, x2, x7
   93680:	911200a5 	add	x5, x5, #0x480
   93684:	924000c6 	and	x6, x6, #0x1
   93688:	f9400827 	ldr	x7, [x1, #16]
   9368c:	eb0500ff 	cmp	x7, x5
   93690:	540009a0 	b.eq	937c4 <_free_r+0x1ac>  // b.none
   93694:	f9400c28 	ldr	x8, [x1, #24]
   93698:	f9000ce8 	str	x8, [x7, #24]
   9369c:	f9000907 	str	x7, [x8, #16]
   936a0:	b4000e06 	cbz	x6, 93860 <_free_r+0x248>
   936a4:	b2400043 	orr	x3, x2, #0x1
   936a8:	f9000423 	str	x3, [x1, #8]
   936ac:	f9000002 	str	x2, [x0]
   936b0:	f107fc5f 	cmp	x2, #0x1ff
   936b4:	54000508 	b.hi	93754 <_free_r+0x13c>  // b.pmore
   936b8:	d343fc42 	lsr	x2, x2, #3
   936bc:	d2800023 	mov	x3, #0x1                   	// #1
   936c0:	11000440 	add	w0, w2, #0x1
   936c4:	f9400485 	ldr	x5, [x4, #8]
   936c8:	531f7800 	lsl	w0, w0, #1
   936cc:	13027c42 	asr	w2, w2, #2
   936d0:	8b20cc80 	add	x0, x4, w0, sxtw #3
   936d4:	9ac22062 	lsl	x2, x3, x2
   936d8:	aa050042 	orr	x2, x2, x5
   936dc:	f9000482 	str	x2, [x4, #8]
   936e0:	f85f0402 	ldr	x2, [x0], #-16
   936e4:	a9010022 	stp	x2, x0, [x1, #16]
   936e8:	f9000801 	str	x1, [x0, #16]
   936ec:	f9000c41 	str	x1, [x2, #24]
   936f0:	aa1403e0 	mov	x0, x20
   936f4:	a94153f3 	ldp	x19, x20, [sp, #16]
   936f8:	a8c27bfd 	ldp	x29, x30, [sp], #32
   936fc:	17ffff6d 	b	934b0 <__malloc_unlock>
   93700:	f94004c5 	ldr	x5, [x6, #8]
   93704:	370001e5 	tbnz	w5, #0, 93740 <_free_r+0x128>
   93708:	f0000005 	adrp	x5, 96000 <impure_data+0x2d8>
   9370c:	8b030042 	add	x2, x2, x3
   93710:	911200a5 	add	x5, x5, #0x480
   93714:	f9400803 	ldr	x3, [x0, #16]
   93718:	b2400046 	orr	x6, x2, #0x1
   9371c:	eb05007f 	cmp	x3, x5
   93720:	54000ae0 	b.eq	9387c <_free_r+0x264>  // b.none
   93724:	f9400c00 	ldr	x0, [x0, #24]
   93728:	f9000c60 	str	x0, [x3, #24]
   9372c:	f9000803 	str	x3, [x0, #16]
   93730:	f9000426 	str	x6, [x1, #8]
   93734:	f8226822 	str	x2, [x1, x2]
   93738:	17ffffde 	b	936b0 <_free_r+0x98>
   9373c:	d65f03c0 	ret
   93740:	b2400043 	orr	x3, x2, #0x1
   93744:	f81f8263 	stur	x3, [x19, #-8]
   93748:	f9000002 	str	x2, [x0]
   9374c:	f107fc5f 	cmp	x2, #0x1ff
   93750:	54fffb49 	b.ls	936b8 <_free_r+0xa0>  // b.plast
   93754:	d349fc40 	lsr	x0, x2, #9
   93758:	f100101f 	cmp	x0, #0x4
   9375c:	540006e8 	b.hi	93838 <_free_r+0x220>  // b.pmore
   93760:	d346fc40 	lsr	x0, x2, #6
   93764:	1100e405 	add	w5, w0, #0x39
   93768:	1100e000 	add	w0, w0, #0x38
   9376c:	531f78a5 	lsl	w5, w5, #1
   93770:	937d7ca5 	sbfiz	x5, x5, #3, #32
   93774:	8b050085 	add	x5, x4, x5
   93778:	f85f04a3 	ldr	x3, [x5], #-16
   9377c:	eb0300bf 	cmp	x5, x3
   93780:	54000880 	b.eq	93890 <_free_r+0x278>  // b.none
   93784:	d503201f 	nop
   93788:	f9400460 	ldr	x0, [x3, #8]
   9378c:	927ef400 	and	x0, x0, #0xfffffffffffffffc
   93790:	eb02001f 	cmp	x0, x2
   93794:	54000089 	b.ls	937a4 <_free_r+0x18c>  // b.plast
   93798:	f9400863 	ldr	x3, [x3, #16]
   9379c:	eb0300bf 	cmp	x5, x3
   937a0:	54ffff41 	b.ne	93788 <_free_r+0x170>  // b.any
   937a4:	f9400c65 	ldr	x5, [x3, #24]
   937a8:	a9011423 	stp	x3, x5, [x1, #16]
   937ac:	aa1403e0 	mov	x0, x20
   937b0:	f90008a1 	str	x1, [x5, #16]
   937b4:	f9000c61 	str	x1, [x3, #24]
   937b8:	a94153f3 	ldp	x19, x20, [sp, #16]
   937bc:	a8c27bfd 	ldp	x29, x30, [sp], #32
   937c0:	17ffff3c 	b	934b0 <__malloc_unlock>
   937c4:	b50009a6 	cbnz	x6, 938f8 <_free_r+0x2e0>
   937c8:	a9410004 	ldp	x4, x0, [x0, #16]
   937cc:	8b020062 	add	x2, x3, x2
   937d0:	f9000c80 	str	x0, [x4, #24]
   937d4:	b2400043 	orr	x3, x2, #0x1
   937d8:	f9000804 	str	x4, [x0, #16]
   937dc:	f9000423 	str	x3, [x1, #8]
   937e0:	f8226822 	str	x2, [x1, x2]
   937e4:	17ffffc3 	b	936f0 <_free_r+0xd8>
   937e8:	8b030042 	add	x2, x2, x3
   937ec:	370000e5 	tbnz	w5, #0, 93808 <_free_r+0x1f0>
   937f0:	f85f0260 	ldur	x0, [x19, #-16]
   937f4:	cb000021 	sub	x1, x1, x0
   937f8:	8b000042 	add	x2, x2, x0
   937fc:	a9410023 	ldp	x3, x0, [x1, #16]
   93800:	f9000c60 	str	x0, [x3, #24]
   93804:	f9000803 	str	x3, [x0, #16]
   93808:	f0000000 	adrp	x0, 96000 <impure_data+0x2d8>
   9380c:	b2400043 	orr	x3, x2, #0x1
   93810:	f9000423 	str	x3, [x1, #8]
   93814:	f9464400 	ldr	x0, [x0, #3208]
   93818:	f9000881 	str	x1, [x4, #16]
   9381c:	eb02001f 	cmp	x0, x2
   93820:	54fff688 	b.hi	936f0 <_free_r+0xd8>  // b.pmore
   93824:	90000061 	adrp	x1, 9f000 <console>
   93828:	aa1403e0 	mov	x0, x20
   9382c:	f9405c21 	ldr	x1, [x1, #184]
   93830:	97ffff36 	bl	93508 <_malloc_trim_r>
   93834:	17ffffaf 	b	936f0 <_free_r+0xd8>
   93838:	f100501f 	cmp	x0, #0x14
   9383c:	54000169 	b.ls	93868 <_free_r+0x250>  // b.plast
   93840:	f101501f 	cmp	x0, #0x54
   93844:	54000348 	b.hi	938ac <_free_r+0x294>  // b.pmore
   93848:	d34cfc40 	lsr	x0, x2, #12
   9384c:	1101bc05 	add	w5, w0, #0x6f
   93850:	1101b800 	add	w0, w0, #0x6e
   93854:	531f78a5 	lsl	w5, w5, #1
   93858:	937d7ca5 	sbfiz	x5, x5, #3, #32
   9385c:	17ffffc6 	b	93774 <_free_r+0x15c>
   93860:	8b030042 	add	x2, x2, x3
   93864:	17ffffac 	b	93714 <_free_r+0xfc>
   93868:	11017005 	add	w5, w0, #0x5c
   9386c:	11016c00 	add	w0, w0, #0x5b
   93870:	531f78a5 	lsl	w5, w5, #1
   93874:	937d7ca5 	sbfiz	x5, x5, #3, #32
   93878:	17ffffbf 	b	93774 <_free_r+0x15c>
   9387c:	a9020481 	stp	x1, x1, [x4, #32]
   93880:	a9009426 	stp	x6, x5, [x1, #8]
   93884:	f9000c25 	str	x5, [x1, #24]
   93888:	f8226822 	str	x2, [x1, x2]
   9388c:	17ffff99 	b	936f0 <_free_r+0xd8>
   93890:	f9400486 	ldr	x6, [x4, #8]
   93894:	13027c00 	asr	w0, w0, #2
   93898:	d2800022 	mov	x2, #0x1                   	// #1
   9389c:	9ac02040 	lsl	x0, x2, x0
   938a0:	aa060000 	orr	x0, x0, x6
   938a4:	f9000480 	str	x0, [x4, #8]
   938a8:	17ffffc0 	b	937a8 <_free_r+0x190>
   938ac:	f105501f 	cmp	x0, #0x154
   938b0:	540000e8 	b.hi	938cc <_free_r+0x2b4>  // b.pmore
   938b4:	d34ffc40 	lsr	x0, x2, #15
   938b8:	1101e005 	add	w5, w0, #0x78
   938bc:	1101dc00 	add	w0, w0, #0x77
   938c0:	531f78a5 	lsl	w5, w5, #1
   938c4:	937d7ca5 	sbfiz	x5, x5, #3, #32
   938c8:	17ffffab 	b	93774 <_free_r+0x15c>
   938cc:	f115501f 	cmp	x0, #0x554
   938d0:	540000e8 	b.hi	938ec <_free_r+0x2d4>  // b.pmore
   938d4:	d352fc40 	lsr	x0, x2, #18
   938d8:	1101f405 	add	w5, w0, #0x7d
   938dc:	1101f000 	add	w0, w0, #0x7c
   938e0:	531f78a5 	lsl	w5, w5, #1
   938e4:	937d7ca5 	sbfiz	x5, x5, #3, #32
   938e8:	17ffffa3 	b	93774 <_free_r+0x15c>
   938ec:	d280fe05 	mov	x5, #0x7f0                 	// #2032
   938f0:	52800fc0 	mov	w0, #0x7e                  	// #126
   938f4:	17ffffa0 	b	93774 <_free_r+0x15c>
   938f8:	b2400043 	orr	x3, x2, #0x1
   938fc:	f9000423 	str	x3, [x1, #8]
   93900:	f9000002 	str	x2, [x0]
   93904:	17ffff7b 	b	936f0 <_free_r+0xd8>

0000000000093908 <__floatsitf>:
   93908:	7100001f 	cmp	w0, #0x0
   9390c:	54000260 	b.eq	93958 <__floatsitf+0x50>  // b.none
   93910:	5a80a404 	cneg	w4, w0, lt  // lt = tstop
   93914:	528807c1 	mov	w1, #0x403e                	// #16446
   93918:	dac01083 	clz	x3, x4
   9391c:	528805e2 	mov	w2, #0x402f                	// #16431
   93920:	4b030021 	sub	w1, w1, w3
   93924:	d2800003 	mov	x3, #0x0                   	// #0
   93928:	4b010042 	sub	w2, w2, w1
   9392c:	12003821 	and	w1, w1, #0x7fff
   93930:	531f7c00 	lsr	w0, w0, #31
   93934:	9ac22084 	lsl	x4, x4, x2
   93938:	9240bc84 	and	x4, x4, #0xffffffffffff
   9393c:	d2800002 	mov	x2, #0x0                   	// #0
   93940:	9e670040 	fmov	d0, x2
   93944:	b340bc83 	bfxil	x3, x4, #0, #48
   93948:	b3503823 	bfi	x3, x1, #48, #15
   9394c:	b3410003 	bfi	x3, x0, #63, #1
   93950:	9eaf0060 	fmov	v0.d[1], x3
   93954:	d65f03c0 	ret
   93958:	d2800004 	mov	x4, #0x0                   	// #0
   9395c:	d2800003 	mov	x3, #0x0                   	// #0
   93960:	b340bc83 	bfxil	x3, x4, #0, #48
   93964:	52800001 	mov	w1, #0x0                   	// #0
   93968:	d2800002 	mov	x2, #0x0                   	// #0
   9396c:	9e670040 	fmov	d0, x2
   93970:	b3503823 	bfi	x3, x1, #48, #15
   93974:	52800000 	mov	w0, #0x0                   	// #0
   93978:	b3410003 	bfi	x3, x0, #63, #1
   9397c:	9eaf0060 	fmov	v0.d[1], x3
   93980:	d65f03c0 	ret
   93984:	00000000 	.inst	0x00000000 ; undefined

0000000000093988 <__trunctfdf2>:
   93988:	9e660000 	fmov	x0, d0
   9398c:	9eae0001 	fmov	x1, v0.d[1]
   93990:	aa0003e3 	mov	x3, x0
   93994:	aa0103e0 	mov	x0, x1
   93998:	d53b4406 	mrs	x6, fpcr
   9399c:	d370f821 	ubfx	x1, x1, #48, #15
   939a0:	d37ffc04 	lsr	x4, x0, #63
   939a4:	91000422 	add	x2, x1, #0x1
   939a8:	d37dbc00 	ubfiz	x0, x0, #3, #48
   939ac:	f27f345f 	tst	x2, #0x7ffe
   939b0:	12001c84 	and	w4, w4, #0xff
   939b4:	aa43f400 	orr	x0, x0, x3, lsr #61
   939b8:	d37df065 	lsl	x5, x3, #3
   939bc:	54000580 	b.eq	93a6c <__trunctfdf2+0xe4>  // b.none
   939c0:	92877fe2 	mov	x2, #0xffffffffffffc400    	// #-15360
   939c4:	8b020021 	add	x1, x1, x2
   939c8:	f11ff83f 	cmp	x1, #0x7fe
   939cc:	5400018d 	b.le	939fc <__trunctfdf2+0x74>
   939d0:	f26a04c3 	ands	x3, x6, #0xc00000
   939d4:	54000740 	b.eq	93abc <__trunctfdf2+0x134>  // b.none
   939d8:	f150007f 	cmp	x3, #0x400, lsl #12
   939dc:	540014c0 	b.eq	93c74 <__trunctfdf2+0x2ec>  // b.none
   939e0:	f160007f 	cmp	x3, #0x800, lsl #12
   939e4:	1a9f0087 	csel	w7, w4, wzr, eq  // eq = none
   939e8:	350006a7 	cbnz	w7, 93abc <__trunctfdf2+0x134>
   939ec:	52800280 	mov	w0, #0x14                  	// #20
   939f0:	92800002 	mov	x2, #0xffffffffffffffff    	// #-1
   939f4:	d280ffc1 	mov	x1, #0x7fe                 	// #2046
   939f8:	1400000d 	b	93a2c <__trunctfdf2+0xa4>
   939fc:	f100003f 	cmp	x1, #0x0
   93a00:	540009ad 	b.le	93b34 <__trunctfdf2+0x1ac>
   93a04:	eb031fff 	negs	xzr, x3, lsl #7
   93a08:	52800007 	mov	w7, #0x0                   	// #0
   93a0c:	9a9f07e2 	cset	x2, ne  // ne = any
   93a10:	aa45f042 	orr	x2, x2, x5, lsr #60
   93a14:	aa001042 	orr	x2, x2, x0, lsl #4
   93a18:	52800000 	mov	w0, #0x0                   	// #0
   93a1c:	f240085f 	tst	x2, #0x7
   93a20:	54000840 	b.eq	93b28 <__trunctfdf2+0x1a0>  // b.none
   93a24:	926a04c3 	and	x3, x6, #0xc00000
   93a28:	52800200 	mov	w0, #0x10                  	// #16
   93a2c:	f150007f 	cmp	x3, #0x400, lsl #12
   93a30:	540006e0 	b.eq	93b0c <__trunctfdf2+0x184>  // b.none
   93a34:	f160007f 	cmp	x3, #0x800, lsl #12
   93a38:	54000d60 	b.eq	93be4 <__trunctfdf2+0x25c>  // b.none
   93a3c:	b4000c03 	cbz	x3, 93bbc <__trunctfdf2+0x234>
   93a40:	92490043 	and	x3, x2, #0x80000000000000
   93a44:	350006e7 	cbnz	w7, 93b20 <__trunctfdf2+0x198>
   93a48:	b4000703 	cbz	x3, 93b28 <__trunctfdf2+0x1a0>
   93a4c:	d503201f 	nop
   93a50:	91000421 	add	x1, x1, #0x1
   93a54:	f11ffc3f 	cmp	x1, #0x7ff
   93a58:	540007e0 	b.eq	93b54 <__trunctfdf2+0x1cc>  // b.none
   93a5c:	92fc0203 	mov	x3, #0x1fefffffffffffff    	// #2301339409586323455
   93a60:	12002821 	and	w1, w1, #0x7ff
   93a64:	8a420c62 	and	x2, x3, x2, lsr #3
   93a68:	1400000b 	b	93a94 <__trunctfdf2+0x10c>
   93a6c:	aa050002 	orr	x2, x0, x5
   93a70:	b5000201 	cbnz	x1, 93ab0 <__trunctfdf2+0x128>
   93a74:	b5000402 	cbnz	x2, 93af4 <__trunctfdf2+0x16c>
   93a78:	52800000 	mov	w0, #0x0                   	// #0
   93a7c:	d343fc42 	lsr	x2, x2, #3
   93a80:	f11ffc3f 	cmp	x1, #0x7ff
   93a84:	fa400844 	ccmp	x2, #0x0, #0x4, eq  // eq = none
   93a88:	b24d0043 	orr	x3, x2, #0x8000000000000
   93a8c:	12002821 	and	w1, w1, #0x7ff
   93a90:	9a821062 	csel	x2, x3, x2, ne  // ne = any
   93a94:	d2800003 	mov	x3, #0x0                   	// #0
   93a98:	b340cc43 	bfxil	x3, x2, #0, #52
   93a9c:	b34c2823 	bfi	x3, x1, #52, #11
   93aa0:	b3410083 	bfi	x3, x4, #63, #1
   93aa4:	9e670060 	fmov	d0, x3
   93aa8:	350007c0 	cbnz	w0, 93ba0 <__trunctfdf2+0x218>
   93aac:	d65f03c0 	ret
   93ab0:	b50000e2 	cbnz	x2, 93acc <__trunctfdf2+0x144>
   93ab4:	d280ffe1 	mov	x1, #0x7ff                 	// #2047
   93ab8:	17fffff0 	b	93a78 <__trunctfdf2+0xf0>
   93abc:	d2800002 	mov	x2, #0x0                   	// #0
   93ac0:	d280ffe1 	mov	x1, #0x7ff                 	// #2047
   93ac4:	52800280 	mov	w0, #0x14                  	// #20
   93ac8:	17ffffed 	b	93a7c <__trunctfdf2+0xf4>
   93acc:	d28fffe3 	mov	x3, #0x7fff                	// #32767
   93ad0:	93c5f002 	extr	x2, x0, x5, #60
   93ad4:	d372fc00 	lsr	x0, x0, #50
   93ad8:	eb03003f 	cmp	x1, x3
   93adc:	927df042 	and	x2, x2, #0xfffffffffffffff8
   93ae0:	52000000 	eor	w0, w0, #0x1
   93ae4:	b24a0042 	orr	x2, x2, #0x40000000000000
   93ae8:	1a9f0000 	csel	w0, w0, wzr, eq  // eq = none
   93aec:	d280ffe1 	mov	x1, #0x7ff                 	// #2047
   93af0:	17ffffe3 	b	93a7c <__trunctfdf2+0xf4>
   93af4:	926a04c3 	and	x3, x6, #0xc00000
   93af8:	52800200 	mov	w0, #0x10                  	// #16
   93afc:	52800027 	mov	w7, #0x1                   	// #1
   93b00:	d2800022 	mov	x2, #0x1                   	// #1
   93b04:	f150007f 	cmp	x3, #0x400, lsl #12
   93b08:	54fff961 	b.ne	93a34 <__trunctfdf2+0xac>  // b.any
   93b0c:	91002043 	add	x3, x2, #0x8
   93b10:	7100009f 	cmp	w4, #0x0
   93b14:	9a820062 	csel	x2, x3, x2, eq  // eq = none
   93b18:	92490043 	and	x3, x2, #0x80000000000000
   93b1c:	340005c7 	cbz	w7, 93bd4 <__trunctfdf2+0x24c>
   93b20:	321d0000 	orr	w0, w0, #0x8
   93b24:	b5fff963 	cbnz	x3, 93a50 <__trunctfdf2+0xc8>
   93b28:	d343fc42 	lsr	x2, x2, #3
   93b2c:	12002821 	and	w1, w1, #0x7ff
   93b30:	17ffffd9 	b	93a94 <__trunctfdf2+0x10c>
   93b34:	b100d03f 	cmn	x1, #0x34
   93b38:	540005ea 	b.ge	93bf4 <__trunctfdf2+0x26c>  // b.tcont
   93b3c:	926a04c3 	and	x3, x6, #0xc00000
   93b40:	52800200 	mov	w0, #0x10                  	// #16
   93b44:	52800027 	mov	w7, #0x1                   	// #1
   93b48:	d2800022 	mov	x2, #0x1                   	// #1
   93b4c:	d2800001 	mov	x1, #0x0                   	// #0
   93b50:	17ffffb7 	b	93a2c <__trunctfdf2+0xa4>
   93b54:	f26a04c6 	ands	x6, x6, #0xc00000
   93b58:	d2800002 	mov	x2, #0x0                   	// #0
   93b5c:	54000140 	b.eq	93b84 <__trunctfdf2+0x1fc>  // b.none
   93b60:	f15000df 	cmp	x6, #0x400, lsl #12
   93b64:	54000940 	b.eq	93c8c <__trunctfdf2+0x304>  // b.none
   93b68:	f16000df 	cmp	x6, #0x800, lsl #12
   93b6c:	5280ffc5 	mov	w5, #0x7fe                 	// #2046
   93b70:	1a9f0083 	csel	w3, w4, wzr, eq  // eq = none
   93b74:	92fc0002 	mov	x2, #0x1fffffffffffffff    	// #2305843009213693951
   93b78:	7100007f 	cmp	w3, #0x0
   93b7c:	1a851021 	csel	w1, w1, w5, ne  // ne = any
   93b80:	9a8213e2 	csel	x2, xzr, x2, ne  // ne = any
   93b84:	52800283 	mov	w3, #0x14                  	// #20
   93b88:	2a030000 	orr	w0, w0, w3
   93b8c:	d2800003 	mov	x3, #0x0                   	// #0
   93b90:	b340cc43 	bfxil	x3, x2, #0, #52
   93b94:	b34c2823 	bfi	x3, x1, #52, #11
   93b98:	b3410083 	bfi	x3, x4, #63, #1
   93b9c:	9e670060 	fmov	d0, x3
   93ba0:	a9be7bfd 	stp	x29, x30, [sp, #-32]!
   93ba4:	910003fd 	mov	x29, sp
   93ba8:	fd000fe0 	str	d0, [sp, #24]
   93bac:	9400004b 	bl	93cd8 <__sfp_handle_exceptions>
   93bb0:	fd400fe0 	ldr	d0, [sp, #24]
   93bb4:	a8c27bfd 	ldp	x29, x30, [sp], #32
   93bb8:	d65f03c0 	ret
   93bbc:	92400c45 	and	x5, x2, #0xf
   93bc0:	91001043 	add	x3, x2, #0x4
   93bc4:	f10010bf 	cmp	x5, #0x4
   93bc8:	9a821062 	csel	x2, x3, x2, ne  // ne = any
   93bcc:	92490043 	and	x3, x2, #0x80000000000000
   93bd0:	35fffa87 	cbnz	w7, 93b20 <__trunctfdf2+0x198>
   93bd4:	b5fff3e3 	cbnz	x3, 93a50 <__trunctfdf2+0xc8>
   93bd8:	d343fc42 	lsr	x2, x2, #3
   93bdc:	12002821 	and	w1, w1, #0x7ff
   93be0:	17ffffeb 	b	93b8c <__trunctfdf2+0x204>
   93be4:	7100009f 	cmp	w4, #0x0
   93be8:	91002043 	add	x3, x2, #0x8
   93bec:	9a821062 	csel	x2, x3, x2, ne  // ne = any
   93bf0:	17fffff7 	b	93bcc <__trunctfdf2+0x244>
   93bf4:	d28007a3 	mov	x3, #0x3d                  	// #61
   93bf8:	cb010067 	sub	x7, x3, x1
   93bfc:	b24d0000 	orr	x0, x0, #0x8000000000000
   93c00:	f100fcff 	cmp	x7, #0x3f
   93c04:	5400024d 	b.le	93c4c <__trunctfdf2+0x2c4>
   93c08:	11010c22 	add	w2, w1, #0x43
   93c0c:	f10100ff 	cmp	x7, #0x40
   93c10:	12800043 	mov	w3, #0xfffffffd            	// #-3
   93c14:	4b010063 	sub	w3, w3, w1
   93c18:	9ac22001 	lsl	x1, x0, x2
   93c1c:	aa0100a1 	orr	x1, x5, x1
   93c20:	9a851025 	csel	x5, x1, x5, ne  // ne = any
   93c24:	9ac32400 	lsr	x0, x0, x3
   93c28:	f10000bf 	cmp	x5, #0x0
   93c2c:	9a9f07e2 	cset	x2, ne  // ne = any
   93c30:	aa000042 	orr	x2, x2, x0
   93c34:	f100005f 	cmp	x2, #0x0
   93c38:	1a9f07e7 	cset	w7, ne  // ne = any
   93c3c:	f240085f 	tst	x2, #0x7
   93c40:	54000320 	b.eq	93ca4 <__trunctfdf2+0x31c>  // b.none
   93c44:	d2800001 	mov	x1, #0x0                   	// #0
   93c48:	17ffff77 	b	93a24 <__trunctfdf2+0x9c>
   93c4c:	11000c27 	add	w7, w1, #0x3
   93c50:	4b010062 	sub	w2, w3, w1
   93c54:	9ac720a1 	lsl	x1, x5, x7
   93c58:	f100003f 	cmp	x1, #0x0
   93c5c:	9a9f07e1 	cset	x1, ne  // ne = any
   93c60:	9ac224a2 	lsr	x2, x5, x2
   93c64:	aa010042 	orr	x2, x2, x1
   93c68:	9ac72000 	lsl	x0, x0, x7
   93c6c:	aa020002 	orr	x2, x0, x2
   93c70:	17fffff1 	b	93c34 <__trunctfdf2+0x2ac>
   93c74:	34fff244 	cbz	w4, 93abc <__trunctfdf2+0x134>
   93c78:	d280ffc1 	mov	x1, #0x7fe                 	// #2046
   93c7c:	52800007 	mov	w7, #0x0                   	// #0
   93c80:	52800280 	mov	w0, #0x14                  	// #20
   93c84:	92800002 	mov	x2, #0xffffffffffffffff    	// #-1
   93c88:	17ffffd1 	b	93bcc <__trunctfdf2+0x244>
   93c8c:	7100009f 	cmp	w4, #0x0
   93c90:	5280ffc2 	mov	w2, #0x7fe                 	// #2046
   93c94:	1a820021 	csel	w1, w1, w2, eq  // eq = none
   93c98:	92fc0002 	mov	x2, #0x1fffffffffffffff    	// #2305843009213693951
   93c9c:	9a8203e2 	csel	x2, xzr, x2, eq  // eq = none
   93ca0:	17ffffb9 	b	93b84 <__trunctfdf2+0x1fc>
   93ca4:	92490043 	and	x3, x2, #0x80000000000000
   93ca8:	b50000e2 	cbnz	x2, 93cc4 <__trunctfdf2+0x33c>
   93cac:	d503201f 	nop
   93cb0:	52800000 	mov	w0, #0x0                   	// #0
   93cb4:	d2800021 	mov	x1, #0x1                   	// #1
   93cb8:	b5ffed23 	cbnz	x3, 93a5c <__trunctfdf2+0xd4>
   93cbc:	d2800001 	mov	x1, #0x0                   	// #0
   93cc0:	17ffff9a 	b	93b28 <__trunctfdf2+0x1a0>
   93cc4:	365fff66 	tbz	w6, #11, 93cb0 <__trunctfdf2+0x328>
   93cc8:	52800000 	mov	w0, #0x0                   	// #0
   93ccc:	d2800001 	mov	x1, #0x0                   	// #0
   93cd0:	321d0000 	orr	w0, w0, #0x8
   93cd4:	17ffff94 	b	93b24 <__trunctfdf2+0x19c>

0000000000093cd8 <__sfp_handle_exceptions>:
   93cd8:	36000080 	tbz	w0, #0, 93ce8 <__sfp_handle_exceptions+0x10>
   93cdc:	0f000401 	movi	v1.2s, #0x0
   93ce0:	1e211820 	fdiv	s0, s1, s1
   93ce4:	d53b4421 	mrs	x1, fpsr
   93ce8:	360800a0 	tbz	w0, #1, 93cfc <__sfp_handle_exceptions+0x24>
   93cec:	1e2e1001 	fmov	s1, #1.000000000000000000e+00
   93cf0:	0f000402 	movi	v2.2s, #0x0
   93cf4:	1e221820 	fdiv	s0, s1, s2
   93cf8:	d53b4421 	mrs	x1, fpsr
   93cfc:	36100100 	tbz	w0, #2, 93d1c <__sfp_handle_exceptions+0x44>
   93d00:	5298b5c2 	mov	w2, #0xc5ae                	// #50606
   93d04:	12b01001 	mov	w1, #0x7f7fffff            	// #2139095039
   93d08:	72ae93a2 	movk	w2, #0x749d, lsl #16
   93d0c:	1e270021 	fmov	s1, w1
   93d10:	1e270042 	fmov	s2, w2
   93d14:	1e222820 	fadd	s0, s1, s2
   93d18:	d53b4421 	mrs	x1, fpsr
   93d1c:	36180080 	tbz	w0, #3, 93d2c <__sfp_handle_exceptions+0x54>
   93d20:	0f044401 	movi	v1.2s, #0x80, lsl #16
   93d24:	1e210820 	fmul	s0, s1, s1
   93d28:	d53b4421 	mrs	x1, fpsr
   93d2c:	362000c0 	tbz	w0, #4, 93d44 <__sfp_handle_exceptions+0x6c>
   93d30:	12b01000 	mov	w0, #0x7f7fffff            	// #2139095039
   93d34:	1e2e1002 	fmov	s2, #1.000000000000000000e+00
   93d38:	1e270001 	fmov	s1, w0
   93d3c:	1e223820 	fsub	s0, s1, s2
   93d40:	d53b4420 	mrs	x0, fpsr
   93d44:	d65f03c0 	ret
