
kernel.elf:     file format elf64-littleaarch64


Disassembly of section .init:

0000000000080000 <_start>:
   80000:	1000000c 	adr	x12, 80000 <_start>
   80004:	58000fe1 	ldr	x1, 80200 <StartSecondarySpin+0x38>
   80008:	b900002c 	str	w12, [x1]
   8000c:	58000fe0 	ldr	x0, 80208 <StartSecondarySpin+0x40>
   80010:	58001001 	ldr	x1, 80210 <StartSecondarySpin+0x48>
   80014:	b9000020 	str	w0, [x1]
   80018:	d2800020 	mov	x0, #0x1                   	// #1
   8001c:	58000fe1 	ldr	x1, 80218 <StartSecondarySpin+0x50>
   80020:	b9000020 	str	w0, [x1]
   80024:	d2801300 	mov	x0, #0x98                  	// #152
   80028:	58000fc1 	ldr	x1, 80220 <StartSecondarySpin+0x58>
   8002c:	b9000020 	str	w0, [x1]
   80030:	d5380000 	mrs	x0, midr_el1
   80034:	58000fa1 	ldr	x1, 80228 <StartSecondarySpin+0x60>
   80038:	b9000020 	str	w0, [x1]
   8003c:	d53ce100 	mrs	x0, cnthctl_el2
   80040:	b2400400 	orr	x0, x0, #0x3
   80044:	d51ce100 	msr	cnthctl_el2, x0
   80048:	d51ce07f 	msr	cntvoff_el2, xzr
   8004c:	d538e100 	mrs	x0, cntkctl_el1
   80050:	b2400400 	orr	x0, x0, #0x3
   80054:	d518e100 	msr	cntkctl_el1, x0
   80058:	d28001a0 	mov	x0, #0xd                   	// #13
   8005c:	d51b9e00 	msr	pmuserenr_el0, x0
   80060:	d2b00000 	mov	x0, #0x80000000            	// #2147483648
   80064:	d51b9c20 	msr	pmcntenset_el0, x0
   80068:	d2800020 	mov	x0, #0x1                   	// #1
   8006c:	d51b9c00 	msr	pmcr_el0, x0

0000000000080070 <multicore_start>:
   80070:	58000e02 	ldr	x2, 80230 <StartSecondarySpin+0x68>
   80074:	58000e23 	ldr	x3, 80238 <StartSecondarySpin+0x70>
   80078:	58000e44 	ldr	x4, 80240 <StartSecondarySpin+0x78>
   8007c:	d53800a6 	mrs	x6, mpidr_el1
   80080:	f24004c6 	ands	x6, x6, #0x3
   80084:	540001c0 	b.eq	800bc <set_stacks>  // b.none
   80088:	58000e02 	ldr	x2, 80248 <StartSecondarySpin+0x80>
   8008c:	58000e23 	ldr	x3, 80250 <StartSecondarySpin+0x88>
   80090:	58000e44 	ldr	x4, 80258 <StartSecondarySpin+0x90>
   80094:	f10004df 	cmp	x6, #0x1
   80098:	54000120 	b.eq	800bc <set_stacks>  // b.none
   8009c:	58000e22 	ldr	x2, 80260 <StartSecondarySpin+0x98>
   800a0:	58000e43 	ldr	x3, 80268 <StartSecondarySpin+0xa0>
   800a4:	58000e64 	ldr	x4, 80270 <StartSecondarySpin+0xa8>
   800a8:	f10008df 	cmp	x6, #0x2
   800ac:	54000080 	b.eq	800bc <set_stacks>  // b.none
   800b0:	58000e42 	ldr	x2, 80278 <StartSecondarySpin+0xb0>
   800b4:	58000e63 	ldr	x3, 80280 <StartSecondarySpin+0xb8>
   800b8:	58000e84 	ldr	x4, 80288 <StartSecondarySpin+0xc0>

00000000000800bc <set_stacks>:
   800bc:	9100005f 	mov	sp, x2
   800c0:	d51c4103 	msr	sp_el1, x3
   800c4:	d5184104 	msr	sp_el0, x4
   800c8:	d5380000 	mrs	x0, midr_el1
   800cc:	d53800a1 	mrs	x1, mpidr_el1
   800d0:	d51c0000 	msr	vpidr_el2, x0
   800d4:	d51c00a1 	msr	vmpidr_el2, x1
   800d8:	d2867fe0 	mov	x0, #0x33ff                	// #13311
   800dc:	d51c1140 	msr	cptr_el2, x0
   800e0:	d51c117f 	msr	hstr_el2, xzr
   800e4:	d2a00600 	mov	x0, #0x300000              	// #3145728
   800e8:	d5181040 	msr	cpacr_el1, x0
   800ec:	d2b00000 	mov	x0, #0x80000000            	// #2147483648
   800f0:	d51c1100 	msr	hcr_el2, x0
   800f4:	d2810000 	mov	x0, #0x800                 	// #2048
   800f8:	f2a61a00 	movk	x0, #0x30d0, lsl #16
   800fc:	b27e0000 	orr	x0, x0, #0x4
   80100:	b2740000 	orr	x0, x0, #0x1000
   80104:	d5181000 	msr	sctlr_el1, x0
   80108:	d28078a0 	mov	x0, #0x3c5                 	// #965
   8010c:	d51c4000 	msr	spsr_el2, x0
   80110:	10000060 	adr	x0, 8011c <exit_el1>
   80114:	d51c4020 	msr	elr_el2, x0
   80118:	d69f03e0 	eret

000000000008011c <exit_el1>:
   8011c:	d53800a6 	mrs	x6, mpidr_el1
   80120:	924004c6 	and	x6, x6, #0x3
   80124:	b40000c6 	cbz	x6, 8013c <cpu0_exit_multicore_park>
   80128:	58000781 	ldr	x1, 80218 <StartSecondarySpin+0x50>
   8012c:	b9400020 	ldr	w0, [x1]
   80130:	11000400 	add	w0, w0, #0x1
   80134:	b9000020 	str	w0, [x1]
   80138:	14000024 	b	801c8 <StartSecondarySpin>

000000000008013c <cpu0_exit_multicore_park>:
   8013c:	58000aa0 	ldr	x0, 80290 <StartSecondarySpin+0xc8>
   80140:	d518c000 	msr	vbar_el1, x0
   80144:	58000aa3 	ldr	x3, 80298 <StartSecondarySpin+0xd0>
   80148:	58000ac0 	ldr	x0, 802a0 <StartSecondarySpin+0xd8>
   8014c:	eb03001f 	cmp	x0, x3
   80150:	54000082 	b.cs	80160 <.bss_cleared>  // b.hs, b.nlast

0000000000080154 <.bss_zero_loop>:
   80154:	b800441f 	str	wzr, [x0], #4
   80158:	eb00007f 	cmp	x3, x0
   8015c:	54ffffc8 	b.hi	80154 <.bss_zero_loop>  // b.pmore

0000000000080160 <.bss_cleared>:
   80160:	d2801c01 	mov	x1, #0xe0                  	// #224
   80164:	58000a22 	ldr	x2, 802a8 <StartSecondarySpin+0xe0>
   80168:	f9000022 	str	x2, [x1]
   8016c:	d503209f 	sev
   80170:	58000543 	ldr	x3, 80218 <StartSecondarySpin+0x50>

0000000000080174 <.WaitCore1ACK>:
   80174:	b9400061 	ldr	w1, [x3]
   80178:	7100083f 	cmp	w1, #0x2
   8017c:	54ffffc1 	b.ne	80174 <.WaitCore1ACK>  // b.any
   80180:	d2801d01 	mov	x1, #0xe8                  	// #232
   80184:	58000922 	ldr	x2, 802a8 <StartSecondarySpin+0xe0>
   80188:	f9000022 	str	x2, [x1]
   8018c:	d503209f 	sev
   80190:	58000443 	ldr	x3, 80218 <StartSecondarySpin+0x50>

0000000000080194 <.WaitCore2ACK>:
   80194:	b9400061 	ldr	w1, [x3]
   80198:	71000c3f 	cmp	w1, #0x3
   8019c:	54ffffc1 	b.ne	80194 <.WaitCore2ACK>  // b.any
   801a0:	d2801e01 	mov	x1, #0xf0                  	// #240
   801a4:	58000822 	ldr	x2, 802a8 <StartSecondarySpin+0xe0>
   801a8:	f9000022 	str	x2, [x1]
   801ac:	d503209f 	sev
   801b0:	58000343 	ldr	x3, 80218 <StartSecondarySpin+0x50>

00000000000801b4 <.WaitCore3ACK>:
   801b4:	b9400061 	ldr	w1, [x3]
   801b8:	7100103f 	cmp	w1, #0x4
   801bc:	54ffffc1 	b.ne	801b4 <.WaitCore3ACK>  // b.any
   801c0:	14000802 	b	821c8 <main>

00000000000801c4 <hang>:
   801c4:	14000000 	b	801c4 <hang>

00000000000801c8 <StartSecondarySpin>:
   801c8:	d503205f 	wfe
   801cc:	d2801982 	mov	x2, #0xcc                  	// #204
   801d0:	f2a80002 	movk	x2, #0x4000, lsl #16
   801d4:	d53800a0 	mrs	x0, mpidr_el1
   801d8:	d37c0c00 	ubfiz	x0, x0, #4, #4
   801dc:	b8626801 	ldr	w1, [x0, x2]
   801e0:	34ffff41 	cbz	w1, 801c8 <StartSecondarySpin>
   801e4:	b8226801 	str	w1, [x0, x2]
   801e8:	2a0103e1 	mov	w1, w1
   801ec:	d5033fbf 	dmb	sy
   801f0:	d63f0020 	blr	x1
   801f4:	d5033fbf 	dmb	sy
   801f8:	17fffff4 	b	801c8 <StartSecondarySpin>
   801fc:	00000000 	.inst	0x00000000 ; undefined
   80200:	00095c7c 	.word	0x00095c7c
   80204:	00000000 	.word	0x00000000
   80208:	3f000000 	.word	0x3f000000
   8020c:	00000000 	.word	0x00000000
   80210:	00095c78 	.word	0x00095c78
   80214:	00000000 	.word	0x00000000
   80218:	00095c80 	.word	0x00095c80
   8021c:	00000000 	.word	0x00000000
   80220:	00095c8c 	.word	0x00095c8c
   80224:	00000000 	.word	0x00000000
   80228:	00095c88 	.word	0x00095c88
   8022c:	00000000 	.word	0x00000000
   80230:	000a42d0 	.word	0x000a42d0
   80234:	00000000 	.word	0x00000000
   80238:	000a32d0 	.word	0x000a32d0
   8023c:	00000000 	.word	0x00000000
   80240:	0009f2d0 	.word	0x0009f2d0
   80244:	00000000 	.word	0x00000000
   80248:	000a56d0 	.word	0x000a56d0
   8024c:	00000000 	.word	0x00000000
   80250:	000a46d0 	.word	0x000a46d0
   80254:	00000000 	.word	0x00000000
   80258:	000a44d0 	.word	0x000a44d0
   8025c:	00000000 	.word	0x00000000
   80260:	000a6ad0 	.word	0x000a6ad0
   80264:	00000000 	.word	0x00000000
   80268:	000a5ad0 	.word	0x000a5ad0
   8026c:	00000000 	.word	0x00000000
   80270:	000a58d0 	.word	0x000a58d0
   80274:	00000000 	.word	0x00000000
   80278:	000a7ed0 	.word	0x000a7ed0
   8027c:	00000000 	.word	0x00000000
   80280:	000a6ed0 	.word	0x000a6ed0
   80284:	00000000 	.word	0x00000000
   80288:	000a6cd0 	.word	0x000a6cd0
   8028c:	00000000 	.word	0x00000000
   80290:	00081800 	.word	0x00081800
   80294:	00000000 	.word	0x00000000
   80298:	0009f0c4 	.word	0x0009f0c4
   8029c:	00000000 	.word	0x00000000
   802a0:	00097000 	.word	0x00097000
   802a4:	00000000 	.word	0x00000000
   802a8:	00080070 	.word	0x00080070
   802ac:	00000000 	.word	0x00000000

Disassembly of section .text:

0000000000080800 <setTimerIrqAddress>:
   80800:	d50342df 	msr	daifset, #0x2
   80804:	580000a1 	ldr	x1, 80818 <setTimerIrqAddress+0x18>
   80808:	f9400022 	ldr	x2, [x1]
   8080c:	f9000020 	str	x0, [x1]
   80810:	aa0203e0 	mov	x0, x2
   80814:	d65f03c0 	ret
   80818:	00095c90 	.word	0x00095c90
   8081c:	00000000 	.word	0x00000000

0000000000080820 <ARMaddrToGPUaddr>:
   80820:	d2b80001 	mov	x1, #0xc0000000            	// #3221225472
   80824:	aa010000 	orr	x0, x0, x1
   80828:	d65f03c0 	ret

000000000008082c <GPUaddrToARMaddr>:
   8082c:	d2b80001 	mov	x1, #0xc0000000            	// #3221225472
   80830:	8a210000 	bic	x0, x0, x1
   80834:	d65f03c0 	ret

0000000000080838 <PUT32>:
   80838:	b9000001 	str	w1, [x0]
   8083c:	d65f03c0 	ret

0000000000080840 <GetCoreID>:
   80840:	d53800a0 	mrs	x0, mpidr_el1
   80844:	92400400 	and	x0, x0, #0x3
   80848:	d65f03c0 	ret

000000000008084c <CoreExecute>:
   8084c:	d5033fbf 	dmb	sy
   80850:	b00000a2 	adrp	x2, 95000 <BitFont+0x934>
   80854:	b94c8042 	ldr	w2, [x2, #3200]
   80858:	12001c00 	and	w0, w0, #0xff
   8085c:	6b02001f 	cmp	w0, w2
   80860:	54000122 	b.cs	80884 <CoreExecuteFail>  // b.hs, b.nlast
   80864:	d37e1c00 	ubfiz	x0, x0, #2, #8
   80868:	d2801182 	mov	x2, #0x8c                  	// #140
   8086c:	f2a80002 	movk	x2, #0x4000, lsl #16
   80870:	b8207841 	str	w1, [x2, x0, lsl #2]
   80874:	d503209f 	sev
   80878:	d5033fbf 	dmb	sy
   8087c:	52800020 	mov	w0, #0x1                   	// #1
   80880:	d65f03c0 	ret

0000000000080884 <CoreExecuteFail>:
   80884:	d5033fbf 	dmb	sy
   80888:	d2800000 	mov	x0, #0x0                   	// #0
   8088c:	d65f03c0 	ret

0000000000080890 <semaphore_inc>:
   80890:	52800022 	mov	w2, #0x1                   	// #1

0000000000080894 <.lockloop>:
   80894:	885ffc01 	ldaxr	w1, [x0]
   80898:	88037c02 	stxr	w3, w2, [x0]
   8089c:	35ffffc3 	cbnz	w3, 80894 <.lockloop>
   808a0:	35ffffa1 	cbnz	w1, 80894 <.lockloop>
   808a4:	d5033bbf 	dmb	ish
   808a8:	d65f03c0 	ret
	...

0000000000081000 <semaphore_dec>:
   81000:	089ffc1f 	stlrb	wzr, [x0]
   81004:	d5033bbf 	dmb	ish
   81008:	d65f03c0 	ret

000000000008100c <irq_handler>:
   8100c:	a9bf7bfd 	stp	x29, x30, [sp, #-16]!
   81010:	a9bf73fb 	stp	x27, x28, [sp, #-16]!
   81014:	a9bf6bf9 	stp	x25, x26, [sp, #-16]!
   81018:	a9bf63f7 	stp	x23, x24, [sp, #-16]!
   8101c:	a9bf5bf5 	stp	x21, x22, [sp, #-16]!
   81020:	a9bf53f3 	stp	x19, x20, [sp, #-16]!
   81024:	a9bf4bf1 	stp	x17, x18, [sp, #-16]!
   81028:	a9bf43ef 	stp	x15, x16, [sp, #-16]!
   8102c:	a9bf3bed 	stp	x13, x14, [sp, #-16]!
   81030:	a9bf33eb 	stp	x11, x12, [sp, #-16]!
   81034:	a9bf2be9 	stp	x9, x10, [sp, #-16]!
   81038:	a9bf23e7 	stp	x7, x8, [sp, #-16]!
   8103c:	a9bf1be5 	stp	x5, x6, [sp, #-16]!
   81040:	a9bf13e3 	stp	x3, x4, [sp, #-16]!
   81044:	a9bf0be1 	stp	x1, x2, [sp, #-16]!
   81048:	f81f0fe0 	str	x0, [sp, #-16]!
   8104c:	d5384001 	mrs	x1, spsr_el1
   81050:	d5384022 	mrs	x2, elr_el1
   81054:	a9bf0be1 	stp	x1, x2, [sp, #-16]!
   81058:	58007980 	ldr	x0, 81f88 <VectorTable+0x788>
   8105c:	b9400000 	ldr	w0, [x0]
   81060:	52964003 	mov	w3, #0xb200                	// #45568
   81064:	0b030001 	add	w1, w0, w3
   81068:	b9400022 	ldr	w2, [x1]
   8106c:	360000e2 	tbz	w2, #0, 81088 <.TimerIrqNotPending>
   81070:	52968002 	mov	w2, #0xb400                	// #46080
   81074:	0b020000 	add	w0, w0, w2
   81078:	b9000c02 	str	w2, [x0, #12]
   8107c:	b9400420 	ldr	w0, [x1, #4]
   81080:	121f7800 	and	w0, w0, #0xfffffffe
   81084:	b9000420 	str	w0, [x1, #4]

0000000000081088 <.TimerIrqNotPending>:
   81088:	d50342ff 	msr	daifclr, #0x2
   8108c:	58007820 	ldr	x0, 81f90 <VectorTable+0x790>
   81090:	f9400000 	ldr	x0, [x0]
   81094:	b4000060 	cbz	x0, 810a0 <no_irqset>
   81098:	d63f0000 	blr	x0
   8109c:	d50342df 	msr	daifset, #0x2

00000000000810a0 <no_irqset>:
   810a0:	a8c10be1 	ldp	x1, x2, [sp], #16
   810a4:	d5184022 	msr	elr_el1, x2
   810a8:	d5184001 	msr	spsr_el1, x1
   810ac:	f84107e0 	ldr	x0, [sp], #16
   810b0:	a8c10be1 	ldp	x1, x2, [sp], #16
   810b4:	a8c113e3 	ldp	x3, x4, [sp], #16
   810b8:	a8c11be5 	ldp	x5, x6, [sp], #16
   810bc:	a8c123e7 	ldp	x7, x8, [sp], #16
   810c0:	a8c12be9 	ldp	x9, x10, [sp], #16
   810c4:	a8c133eb 	ldp	x11, x12, [sp], #16
   810c8:	a8c13bed 	ldp	x13, x14, [sp], #16
   810cc:	a8c143ef 	ldp	x15, x16, [sp], #16
   810d0:	a8c14bf1 	ldp	x17, x18, [sp], #16
   810d4:	a8c153f3 	ldp	x19, x20, [sp], #16
   810d8:	a8c15bf5 	ldp	x21, x22, [sp], #16
   810dc:	a8c163f7 	ldp	x23, x24, [sp], #16
   810e0:	a8c16bf9 	ldp	x25, x26, [sp], #16
   810e4:	a8c173fb 	ldp	x27, x28, [sp], #16
   810e8:	a8c17bfd 	ldp	x29, x30, [sp], #16
   810ec:	d69f03e0 	eret
   810f0:	d503201f 	nop
   810f4:	d503201f 	nop
   810f8:	d503201f 	nop
   810fc:	d503201f 	nop
   81100:	d503201f 	nop
   81104:	d503201f 	nop
   81108:	d503201f 	nop
   8110c:	d503201f 	nop
   81110:	d503201f 	nop
   81114:	d503201f 	nop
   81118:	d503201f 	nop
   8111c:	d503201f 	nop
   81120:	d503201f 	nop
   81124:	d503201f 	nop
   81128:	d503201f 	nop
   8112c:	d503201f 	nop
   81130:	d503201f 	nop
   81134:	d503201f 	nop
   81138:	d503201f 	nop
   8113c:	d503201f 	nop
   81140:	d503201f 	nop
   81144:	d503201f 	nop
   81148:	d503201f 	nop
   8114c:	d503201f 	nop
   81150:	d503201f 	nop
   81154:	d503201f 	nop
   81158:	d503201f 	nop
   8115c:	d503201f 	nop
   81160:	d503201f 	nop
   81164:	d503201f 	nop
   81168:	d503201f 	nop
   8116c:	d503201f 	nop
   81170:	d503201f 	nop
   81174:	d503201f 	nop
   81178:	d503201f 	nop
   8117c:	d503201f 	nop
   81180:	d503201f 	nop
   81184:	d503201f 	nop
   81188:	d503201f 	nop
   8118c:	d503201f 	nop
   81190:	d503201f 	nop
   81194:	d503201f 	nop
   81198:	d503201f 	nop
   8119c:	d503201f 	nop
   811a0:	d503201f 	nop
   811a4:	d503201f 	nop
   811a8:	d503201f 	nop
   811ac:	d503201f 	nop
   811b0:	d503201f 	nop
   811b4:	d503201f 	nop
   811b8:	d503201f 	nop
   811bc:	d503201f 	nop
   811c0:	d503201f 	nop
   811c4:	d503201f 	nop
   811c8:	d503201f 	nop
   811cc:	d503201f 	nop
   811d0:	d503201f 	nop
   811d4:	d503201f 	nop
   811d8:	d503201f 	nop
   811dc:	d503201f 	nop
   811e0:	d503201f 	nop
   811e4:	d503201f 	nop
   811e8:	d503201f 	nop
   811ec:	d503201f 	nop
   811f0:	d503201f 	nop
   811f4:	d503201f 	nop
   811f8:	d503201f 	nop
   811fc:	d503201f 	nop
   81200:	d503201f 	nop
   81204:	d503201f 	nop
   81208:	d503201f 	nop
   8120c:	d503201f 	nop
   81210:	d503201f 	nop
   81214:	d503201f 	nop
   81218:	d503201f 	nop
   8121c:	d503201f 	nop
   81220:	d503201f 	nop
   81224:	d503201f 	nop
   81228:	d503201f 	nop
   8122c:	d503201f 	nop
   81230:	d503201f 	nop
   81234:	d503201f 	nop
   81238:	d503201f 	nop
   8123c:	d503201f 	nop
   81240:	d503201f 	nop
   81244:	d503201f 	nop
   81248:	d503201f 	nop
   8124c:	d503201f 	nop
   81250:	d503201f 	nop
   81254:	d503201f 	nop
   81258:	d503201f 	nop
   8125c:	d503201f 	nop
   81260:	d503201f 	nop
   81264:	d503201f 	nop
   81268:	d503201f 	nop
   8126c:	d503201f 	nop
   81270:	d503201f 	nop
   81274:	d503201f 	nop
   81278:	d503201f 	nop
   8127c:	d503201f 	nop
   81280:	d503201f 	nop
   81284:	d503201f 	nop
   81288:	d503201f 	nop
   8128c:	d503201f 	nop
   81290:	d503201f 	nop
   81294:	d503201f 	nop
   81298:	d503201f 	nop
   8129c:	d503201f 	nop
   812a0:	d503201f 	nop
   812a4:	d503201f 	nop
   812a8:	d503201f 	nop
   812ac:	d503201f 	nop
   812b0:	d503201f 	nop
   812b4:	d503201f 	nop
   812b8:	d503201f 	nop
   812bc:	d503201f 	nop
   812c0:	d503201f 	nop
   812c4:	d503201f 	nop
   812c8:	d503201f 	nop
   812cc:	d503201f 	nop
   812d0:	d503201f 	nop
   812d4:	d503201f 	nop
   812d8:	d503201f 	nop
   812dc:	d503201f 	nop
   812e0:	d503201f 	nop
   812e4:	d503201f 	nop
   812e8:	d503201f 	nop
   812ec:	d503201f 	nop
   812f0:	d503201f 	nop
   812f4:	d503201f 	nop
   812f8:	d503201f 	nop
   812fc:	d503201f 	nop
   81300:	d503201f 	nop
   81304:	d503201f 	nop
   81308:	d503201f 	nop
   8130c:	d503201f 	nop
   81310:	d503201f 	nop
   81314:	d503201f 	nop
   81318:	d503201f 	nop
   8131c:	d503201f 	nop
   81320:	d503201f 	nop
   81324:	d503201f 	nop
   81328:	d503201f 	nop
   8132c:	d503201f 	nop
   81330:	d503201f 	nop
   81334:	d503201f 	nop
   81338:	d503201f 	nop
   8133c:	d503201f 	nop
   81340:	d503201f 	nop
   81344:	d503201f 	nop
   81348:	d503201f 	nop
   8134c:	d503201f 	nop
   81350:	d503201f 	nop
   81354:	d503201f 	nop
   81358:	d503201f 	nop
   8135c:	d503201f 	nop
   81360:	d503201f 	nop
   81364:	d503201f 	nop
   81368:	d503201f 	nop
   8136c:	d503201f 	nop
   81370:	d503201f 	nop
   81374:	d503201f 	nop
   81378:	d503201f 	nop
   8137c:	d503201f 	nop
   81380:	d503201f 	nop
   81384:	d503201f 	nop
   81388:	d503201f 	nop
   8138c:	d503201f 	nop
   81390:	d503201f 	nop
   81394:	d503201f 	nop
   81398:	d503201f 	nop
   8139c:	d503201f 	nop
   813a0:	d503201f 	nop
   813a4:	d503201f 	nop
   813a8:	d503201f 	nop
   813ac:	d503201f 	nop
   813b0:	d503201f 	nop
   813b4:	d503201f 	nop
   813b8:	d503201f 	nop
   813bc:	d503201f 	nop
   813c0:	d503201f 	nop
   813c4:	d503201f 	nop
   813c8:	d503201f 	nop
   813cc:	d503201f 	nop
   813d0:	d503201f 	nop
   813d4:	d503201f 	nop
   813d8:	d503201f 	nop
   813dc:	d503201f 	nop
   813e0:	d503201f 	nop
   813e4:	d503201f 	nop
   813e8:	d503201f 	nop
   813ec:	d503201f 	nop
   813f0:	d503201f 	nop
   813f4:	d503201f 	nop
   813f8:	d503201f 	nop
   813fc:	d503201f 	nop
   81400:	d503201f 	nop
   81404:	d503201f 	nop
   81408:	d503201f 	nop
   8140c:	d503201f 	nop
   81410:	d503201f 	nop
   81414:	d503201f 	nop
   81418:	d503201f 	nop
   8141c:	d503201f 	nop
   81420:	d503201f 	nop
   81424:	d503201f 	nop
   81428:	d503201f 	nop
   8142c:	d503201f 	nop
   81430:	d503201f 	nop
   81434:	d503201f 	nop
   81438:	d503201f 	nop
   8143c:	d503201f 	nop
   81440:	d503201f 	nop
   81444:	d503201f 	nop
   81448:	d503201f 	nop
   8144c:	d503201f 	nop
   81450:	d503201f 	nop
   81454:	d503201f 	nop
   81458:	d503201f 	nop
   8145c:	d503201f 	nop
   81460:	d503201f 	nop
   81464:	d503201f 	nop
   81468:	d503201f 	nop
   8146c:	d503201f 	nop
   81470:	d503201f 	nop
   81474:	d503201f 	nop
   81478:	d503201f 	nop
   8147c:	d503201f 	nop
   81480:	d503201f 	nop
   81484:	d503201f 	nop
   81488:	d503201f 	nop
   8148c:	d503201f 	nop
   81490:	d503201f 	nop
   81494:	d503201f 	nop
   81498:	d503201f 	nop
   8149c:	d503201f 	nop
   814a0:	d503201f 	nop
   814a4:	d503201f 	nop
   814a8:	d503201f 	nop
   814ac:	d503201f 	nop
   814b0:	d503201f 	nop
   814b4:	d503201f 	nop
   814b8:	d503201f 	nop
   814bc:	d503201f 	nop
   814c0:	d503201f 	nop
   814c4:	d503201f 	nop
   814c8:	d503201f 	nop
   814cc:	d503201f 	nop
   814d0:	d503201f 	nop
   814d4:	d503201f 	nop
   814d8:	d503201f 	nop
   814dc:	d503201f 	nop
   814e0:	d503201f 	nop
   814e4:	d503201f 	nop
   814e8:	d503201f 	nop
   814ec:	d503201f 	nop
   814f0:	d503201f 	nop
   814f4:	d503201f 	nop
   814f8:	d503201f 	nop
   814fc:	d503201f 	nop
   81500:	d503201f 	nop
   81504:	d503201f 	nop
   81508:	d503201f 	nop
   8150c:	d503201f 	nop
   81510:	d503201f 	nop
   81514:	d503201f 	nop
   81518:	d503201f 	nop
   8151c:	d503201f 	nop
   81520:	d503201f 	nop
   81524:	d503201f 	nop
   81528:	d503201f 	nop
   8152c:	d503201f 	nop
   81530:	d503201f 	nop
   81534:	d503201f 	nop
   81538:	d503201f 	nop
   8153c:	d503201f 	nop
   81540:	d503201f 	nop
   81544:	d503201f 	nop
   81548:	d503201f 	nop
   8154c:	d503201f 	nop
   81550:	d503201f 	nop
   81554:	d503201f 	nop
   81558:	d503201f 	nop
   8155c:	d503201f 	nop
   81560:	d503201f 	nop
   81564:	d503201f 	nop
   81568:	d503201f 	nop
   8156c:	d503201f 	nop
   81570:	d503201f 	nop
   81574:	d503201f 	nop
   81578:	d503201f 	nop
   8157c:	d503201f 	nop
   81580:	d503201f 	nop
   81584:	d503201f 	nop
   81588:	d503201f 	nop
   8158c:	d503201f 	nop
   81590:	d503201f 	nop
   81594:	d503201f 	nop
   81598:	d503201f 	nop
   8159c:	d503201f 	nop
   815a0:	d503201f 	nop
   815a4:	d503201f 	nop
   815a8:	d503201f 	nop
   815ac:	d503201f 	nop
   815b0:	d503201f 	nop
   815b4:	d503201f 	nop
   815b8:	d503201f 	nop
   815bc:	d503201f 	nop
   815c0:	d503201f 	nop
   815c4:	d503201f 	nop
   815c8:	d503201f 	nop
   815cc:	d503201f 	nop
   815d0:	d503201f 	nop
   815d4:	d503201f 	nop
   815d8:	d503201f 	nop
   815dc:	d503201f 	nop
   815e0:	d503201f 	nop
   815e4:	d503201f 	nop
   815e8:	d503201f 	nop
   815ec:	d503201f 	nop
   815f0:	d503201f 	nop
   815f4:	d503201f 	nop
   815f8:	d503201f 	nop
   815fc:	d503201f 	nop
   81600:	d503201f 	nop
   81604:	d503201f 	nop
   81608:	d503201f 	nop
   8160c:	d503201f 	nop
   81610:	d503201f 	nop
   81614:	d503201f 	nop
   81618:	d503201f 	nop
   8161c:	d503201f 	nop
   81620:	d503201f 	nop
   81624:	d503201f 	nop
   81628:	d503201f 	nop
   8162c:	d503201f 	nop
   81630:	d503201f 	nop
   81634:	d503201f 	nop
   81638:	d503201f 	nop
   8163c:	d503201f 	nop
   81640:	d503201f 	nop
   81644:	d503201f 	nop
   81648:	d503201f 	nop
   8164c:	d503201f 	nop
   81650:	d503201f 	nop
   81654:	d503201f 	nop
   81658:	d503201f 	nop
   8165c:	d503201f 	nop
   81660:	d503201f 	nop
   81664:	d503201f 	nop
   81668:	d503201f 	nop
   8166c:	d503201f 	nop
   81670:	d503201f 	nop
   81674:	d503201f 	nop
   81678:	d503201f 	nop
   8167c:	d503201f 	nop
   81680:	d503201f 	nop
   81684:	d503201f 	nop
   81688:	d503201f 	nop
   8168c:	d503201f 	nop
   81690:	d503201f 	nop
   81694:	d503201f 	nop
   81698:	d503201f 	nop
   8169c:	d503201f 	nop
   816a0:	d503201f 	nop
   816a4:	d503201f 	nop
   816a8:	d503201f 	nop
   816ac:	d503201f 	nop
   816b0:	d503201f 	nop
   816b4:	d503201f 	nop
   816b8:	d503201f 	nop
   816bc:	d503201f 	nop
   816c0:	d503201f 	nop
   816c4:	d503201f 	nop
   816c8:	d503201f 	nop
   816cc:	d503201f 	nop
   816d0:	d503201f 	nop
   816d4:	d503201f 	nop
   816d8:	d503201f 	nop
   816dc:	d503201f 	nop
   816e0:	d503201f 	nop
   816e4:	d503201f 	nop
   816e8:	d503201f 	nop
   816ec:	d503201f 	nop
   816f0:	d503201f 	nop
   816f4:	d503201f 	nop
   816f8:	d503201f 	nop
   816fc:	d503201f 	nop
   81700:	d503201f 	nop
   81704:	d503201f 	nop
   81708:	d503201f 	nop
   8170c:	d503201f 	nop
   81710:	d503201f 	nop
   81714:	d503201f 	nop
   81718:	d503201f 	nop
   8171c:	d503201f 	nop
   81720:	d503201f 	nop
   81724:	d503201f 	nop
   81728:	d503201f 	nop
   8172c:	d503201f 	nop
   81730:	d503201f 	nop
   81734:	d503201f 	nop
   81738:	d503201f 	nop
   8173c:	d503201f 	nop
   81740:	d503201f 	nop
   81744:	d503201f 	nop
   81748:	d503201f 	nop
   8174c:	d503201f 	nop
   81750:	d503201f 	nop
   81754:	d503201f 	nop
   81758:	d503201f 	nop
   8175c:	d503201f 	nop
   81760:	d503201f 	nop
   81764:	d503201f 	nop
   81768:	d503201f 	nop
   8176c:	d503201f 	nop
   81770:	d503201f 	nop
   81774:	d503201f 	nop
   81778:	d503201f 	nop
   8177c:	d503201f 	nop
   81780:	d503201f 	nop
   81784:	d503201f 	nop
   81788:	d503201f 	nop
   8178c:	d503201f 	nop
   81790:	d503201f 	nop
   81794:	d503201f 	nop
   81798:	d503201f 	nop
   8179c:	d503201f 	nop
   817a0:	d503201f 	nop
   817a4:	d503201f 	nop
   817a8:	d503201f 	nop
   817ac:	d503201f 	nop
   817b0:	d503201f 	nop
   817b4:	d503201f 	nop
   817b8:	d503201f 	nop
   817bc:	d503201f 	nop
   817c0:	d503201f 	nop
   817c4:	d503201f 	nop
   817c8:	d503201f 	nop
   817cc:	d503201f 	nop
   817d0:	d503201f 	nop
   817d4:	d503201f 	nop
   817d8:	d503201f 	nop
   817dc:	d503201f 	nop
   817e0:	d503201f 	nop
   817e4:	d503201f 	nop
   817e8:	d503201f 	nop
   817ec:	d503201f 	nop
   817f0:	d503201f 	nop
   817f4:	d503201f 	nop
   817f8:	d503201f 	nop
   817fc:	d503201f 	nop

0000000000081800 <VectorTable>:
   81800:	17fffa00 	b	80000 <_start>
   81804:	d503201f 	nop
   81808:	d503201f 	nop
   8180c:	d503201f 	nop
   81810:	d503201f 	nop
   81814:	d503201f 	nop
   81818:	d503201f 	nop
   8181c:	d503201f 	nop
   81820:	d503201f 	nop
   81824:	d503201f 	nop
   81828:	d503201f 	nop
   8182c:	d503201f 	nop
   81830:	d503201f 	nop
   81834:	d503201f 	nop
   81838:	d503201f 	nop
   8183c:	d503201f 	nop
   81840:	d503201f 	nop
   81844:	d503201f 	nop
   81848:	d503201f 	nop
   8184c:	d503201f 	nop
   81850:	d503201f 	nop
   81854:	d503201f 	nop
   81858:	d503201f 	nop
   8185c:	d503201f 	nop
   81860:	d503201f 	nop
   81864:	d503201f 	nop
   81868:	d503201f 	nop
   8186c:	d503201f 	nop
   81870:	d503201f 	nop
   81874:	d503201f 	nop
   81878:	d503201f 	nop
   8187c:	d503201f 	nop
   81880:	17fffa51 	b	801c4 <hang>
   81884:	d503201f 	nop
   81888:	d503201f 	nop
   8188c:	d503201f 	nop
   81890:	d503201f 	nop
   81894:	d503201f 	nop
   81898:	d503201f 	nop
   8189c:	d503201f 	nop
   818a0:	d503201f 	nop
   818a4:	d503201f 	nop
   818a8:	d503201f 	nop
   818ac:	d503201f 	nop
   818b0:	d503201f 	nop
   818b4:	d503201f 	nop
   818b8:	d503201f 	nop
   818bc:	d503201f 	nop
   818c0:	d503201f 	nop
   818c4:	d503201f 	nop
   818c8:	d503201f 	nop
   818cc:	d503201f 	nop
   818d0:	d503201f 	nop
   818d4:	d503201f 	nop
   818d8:	d503201f 	nop
   818dc:	d503201f 	nop
   818e0:	d503201f 	nop
   818e4:	d503201f 	nop
   818e8:	d503201f 	nop
   818ec:	d503201f 	nop
   818f0:	d503201f 	nop
   818f4:	d503201f 	nop
   818f8:	d503201f 	nop
   818fc:	d503201f 	nop
   81900:	17fffa31 	b	801c4 <hang>
   81904:	d503201f 	nop
   81908:	d503201f 	nop
   8190c:	d503201f 	nop
   81910:	d503201f 	nop
   81914:	d503201f 	nop
   81918:	d503201f 	nop
   8191c:	d503201f 	nop
   81920:	d503201f 	nop
   81924:	d503201f 	nop
   81928:	d503201f 	nop
   8192c:	d503201f 	nop
   81930:	d503201f 	nop
   81934:	d503201f 	nop
   81938:	d503201f 	nop
   8193c:	d503201f 	nop
   81940:	d503201f 	nop
   81944:	d503201f 	nop
   81948:	d503201f 	nop
   8194c:	d503201f 	nop
   81950:	d503201f 	nop
   81954:	d503201f 	nop
   81958:	d503201f 	nop
   8195c:	d503201f 	nop
   81960:	d503201f 	nop
   81964:	d503201f 	nop
   81968:	d503201f 	nop
   8196c:	d503201f 	nop
   81970:	d503201f 	nop
   81974:	d503201f 	nop
   81978:	d503201f 	nop
   8197c:	d503201f 	nop
   81980:	17fffa11 	b	801c4 <hang>
   81984:	d503201f 	nop
   81988:	d503201f 	nop
   8198c:	d503201f 	nop
   81990:	d503201f 	nop
   81994:	d503201f 	nop
   81998:	d503201f 	nop
   8199c:	d503201f 	nop
   819a0:	d503201f 	nop
   819a4:	d503201f 	nop
   819a8:	d503201f 	nop
   819ac:	d503201f 	nop
   819b0:	d503201f 	nop
   819b4:	d503201f 	nop
   819b8:	d503201f 	nop
   819bc:	d503201f 	nop
   819c0:	d503201f 	nop
   819c4:	d503201f 	nop
   819c8:	d503201f 	nop
   819cc:	d503201f 	nop
   819d0:	d503201f 	nop
   819d4:	d503201f 	nop
   819d8:	d503201f 	nop
   819dc:	d503201f 	nop
   819e0:	d503201f 	nop
   819e4:	d503201f 	nop
   819e8:	d503201f 	nop
   819ec:	d503201f 	nop
   819f0:	d503201f 	nop
   819f4:	d503201f 	nop
   819f8:	d503201f 	nop
   819fc:	d503201f 	nop
   81a00:	17fff9f1 	b	801c4 <hang>
   81a04:	d503201f 	nop
   81a08:	d503201f 	nop
   81a0c:	d503201f 	nop
   81a10:	d503201f 	nop
   81a14:	d503201f 	nop
   81a18:	d503201f 	nop
   81a1c:	d503201f 	nop
   81a20:	d503201f 	nop
   81a24:	d503201f 	nop
   81a28:	d503201f 	nop
   81a2c:	d503201f 	nop
   81a30:	d503201f 	nop
   81a34:	d503201f 	nop
   81a38:	d503201f 	nop
   81a3c:	d503201f 	nop
   81a40:	d503201f 	nop
   81a44:	d503201f 	nop
   81a48:	d503201f 	nop
   81a4c:	d503201f 	nop
   81a50:	d503201f 	nop
   81a54:	d503201f 	nop
   81a58:	d503201f 	nop
   81a5c:	d503201f 	nop
   81a60:	d503201f 	nop
   81a64:	d503201f 	nop
   81a68:	d503201f 	nop
   81a6c:	d503201f 	nop
   81a70:	d503201f 	nop
   81a74:	d503201f 	nop
   81a78:	d503201f 	nop
   81a7c:	d503201f 	nop
   81a80:	17fffd63 	b	8100c <irq_handler>
   81a84:	d503201f 	nop
   81a88:	d503201f 	nop
   81a8c:	d503201f 	nop
   81a90:	d503201f 	nop
   81a94:	d503201f 	nop
   81a98:	d503201f 	nop
   81a9c:	d503201f 	nop
   81aa0:	d503201f 	nop
   81aa4:	d503201f 	nop
   81aa8:	d503201f 	nop
   81aac:	d503201f 	nop
   81ab0:	d503201f 	nop
   81ab4:	d503201f 	nop
   81ab8:	d503201f 	nop
   81abc:	d503201f 	nop
   81ac0:	d503201f 	nop
   81ac4:	d503201f 	nop
   81ac8:	d503201f 	nop
   81acc:	d503201f 	nop
   81ad0:	d503201f 	nop
   81ad4:	d503201f 	nop
   81ad8:	d503201f 	nop
   81adc:	d503201f 	nop
   81ae0:	d503201f 	nop
   81ae4:	d503201f 	nop
   81ae8:	d503201f 	nop
   81aec:	d503201f 	nop
   81af0:	d503201f 	nop
   81af4:	d503201f 	nop
   81af8:	d503201f 	nop
   81afc:	d503201f 	nop
   81b00:	17fff9b1 	b	801c4 <hang>
   81b04:	d503201f 	nop
   81b08:	d503201f 	nop
   81b0c:	d503201f 	nop
   81b10:	d503201f 	nop
   81b14:	d503201f 	nop
   81b18:	d503201f 	nop
   81b1c:	d503201f 	nop
   81b20:	d503201f 	nop
   81b24:	d503201f 	nop
   81b28:	d503201f 	nop
   81b2c:	d503201f 	nop
   81b30:	d503201f 	nop
   81b34:	d503201f 	nop
   81b38:	d503201f 	nop
   81b3c:	d503201f 	nop
   81b40:	d503201f 	nop
   81b44:	d503201f 	nop
   81b48:	d503201f 	nop
   81b4c:	d503201f 	nop
   81b50:	d503201f 	nop
   81b54:	d503201f 	nop
   81b58:	d503201f 	nop
   81b5c:	d503201f 	nop
   81b60:	d503201f 	nop
   81b64:	d503201f 	nop
   81b68:	d503201f 	nop
   81b6c:	d503201f 	nop
   81b70:	d503201f 	nop
   81b74:	d503201f 	nop
   81b78:	d503201f 	nop
   81b7c:	d503201f 	nop
   81b80:	17fff991 	b	801c4 <hang>
   81b84:	d503201f 	nop
   81b88:	d503201f 	nop
   81b8c:	d503201f 	nop
   81b90:	d503201f 	nop
   81b94:	d503201f 	nop
   81b98:	d503201f 	nop
   81b9c:	d503201f 	nop
   81ba0:	d503201f 	nop
   81ba4:	d503201f 	nop
   81ba8:	d503201f 	nop
   81bac:	d503201f 	nop
   81bb0:	d503201f 	nop
   81bb4:	d503201f 	nop
   81bb8:	d503201f 	nop
   81bbc:	d503201f 	nop
   81bc0:	d503201f 	nop
   81bc4:	d503201f 	nop
   81bc8:	d503201f 	nop
   81bcc:	d503201f 	nop
   81bd0:	d503201f 	nop
   81bd4:	d503201f 	nop
   81bd8:	d503201f 	nop
   81bdc:	d503201f 	nop
   81be0:	d503201f 	nop
   81be4:	d503201f 	nop
   81be8:	d503201f 	nop
   81bec:	d503201f 	nop
   81bf0:	d503201f 	nop
   81bf4:	d503201f 	nop
   81bf8:	d503201f 	nop
   81bfc:	d503201f 	nop
   81c00:	17fff971 	b	801c4 <hang>
   81c04:	d503201f 	nop
   81c08:	d503201f 	nop
   81c0c:	d503201f 	nop
   81c10:	d503201f 	nop
   81c14:	d503201f 	nop
   81c18:	d503201f 	nop
   81c1c:	d503201f 	nop
   81c20:	d503201f 	nop
   81c24:	d503201f 	nop
   81c28:	d503201f 	nop
   81c2c:	d503201f 	nop
   81c30:	d503201f 	nop
   81c34:	d503201f 	nop
   81c38:	d503201f 	nop
   81c3c:	d503201f 	nop
   81c40:	d503201f 	nop
   81c44:	d503201f 	nop
   81c48:	d503201f 	nop
   81c4c:	d503201f 	nop
   81c50:	d503201f 	nop
   81c54:	d503201f 	nop
   81c58:	d503201f 	nop
   81c5c:	d503201f 	nop
   81c60:	d503201f 	nop
   81c64:	d503201f 	nop
   81c68:	d503201f 	nop
   81c6c:	d503201f 	nop
   81c70:	d503201f 	nop
   81c74:	d503201f 	nop
   81c78:	d503201f 	nop
   81c7c:	d503201f 	nop
   81c80:	17fff951 	b	801c4 <hang>
   81c84:	d503201f 	nop
   81c88:	d503201f 	nop
   81c8c:	d503201f 	nop
   81c90:	d503201f 	nop
   81c94:	d503201f 	nop
   81c98:	d503201f 	nop
   81c9c:	d503201f 	nop
   81ca0:	d503201f 	nop
   81ca4:	d503201f 	nop
   81ca8:	d503201f 	nop
   81cac:	d503201f 	nop
   81cb0:	d503201f 	nop
   81cb4:	d503201f 	nop
   81cb8:	d503201f 	nop
   81cbc:	d503201f 	nop
   81cc0:	d503201f 	nop
   81cc4:	d503201f 	nop
   81cc8:	d503201f 	nop
   81ccc:	d503201f 	nop
   81cd0:	d503201f 	nop
   81cd4:	d503201f 	nop
   81cd8:	d503201f 	nop
   81cdc:	d503201f 	nop
   81ce0:	d503201f 	nop
   81ce4:	d503201f 	nop
   81ce8:	d503201f 	nop
   81cec:	d503201f 	nop
   81cf0:	d503201f 	nop
   81cf4:	d503201f 	nop
   81cf8:	d503201f 	nop
   81cfc:	d503201f 	nop
   81d00:	17fff931 	b	801c4 <hang>
   81d04:	d503201f 	nop
   81d08:	d503201f 	nop
   81d0c:	d503201f 	nop
   81d10:	d503201f 	nop
   81d14:	d503201f 	nop
   81d18:	d503201f 	nop
   81d1c:	d503201f 	nop
   81d20:	d503201f 	nop
   81d24:	d503201f 	nop
   81d28:	d503201f 	nop
   81d2c:	d503201f 	nop
   81d30:	d503201f 	nop
   81d34:	d503201f 	nop
   81d38:	d503201f 	nop
   81d3c:	d503201f 	nop
   81d40:	d503201f 	nop
   81d44:	d503201f 	nop
   81d48:	d503201f 	nop
   81d4c:	d503201f 	nop
   81d50:	d503201f 	nop
   81d54:	d503201f 	nop
   81d58:	d503201f 	nop
   81d5c:	d503201f 	nop
   81d60:	d503201f 	nop
   81d64:	d503201f 	nop
   81d68:	d503201f 	nop
   81d6c:	d503201f 	nop
   81d70:	d503201f 	nop
   81d74:	d503201f 	nop
   81d78:	d503201f 	nop
   81d7c:	d503201f 	nop
   81d80:	17fff911 	b	801c4 <hang>
   81d84:	d503201f 	nop
   81d88:	d503201f 	nop
   81d8c:	d503201f 	nop
   81d90:	d503201f 	nop
   81d94:	d503201f 	nop
   81d98:	d503201f 	nop
   81d9c:	d503201f 	nop
   81da0:	d503201f 	nop
   81da4:	d503201f 	nop
   81da8:	d503201f 	nop
   81dac:	d503201f 	nop
   81db0:	d503201f 	nop
   81db4:	d503201f 	nop
   81db8:	d503201f 	nop
   81dbc:	d503201f 	nop
   81dc0:	d503201f 	nop
   81dc4:	d503201f 	nop
   81dc8:	d503201f 	nop
   81dcc:	d503201f 	nop
   81dd0:	d503201f 	nop
   81dd4:	d503201f 	nop
   81dd8:	d503201f 	nop
   81ddc:	d503201f 	nop
   81de0:	d503201f 	nop
   81de4:	d503201f 	nop
   81de8:	d503201f 	nop
   81dec:	d503201f 	nop
   81df0:	d503201f 	nop
   81df4:	d503201f 	nop
   81df8:	d503201f 	nop
   81dfc:	d503201f 	nop
   81e00:	17fff8f1 	b	801c4 <hang>
   81e04:	d503201f 	nop
   81e08:	d503201f 	nop
   81e0c:	d503201f 	nop
   81e10:	d503201f 	nop
   81e14:	d503201f 	nop
   81e18:	d503201f 	nop
   81e1c:	d503201f 	nop
   81e20:	d503201f 	nop
   81e24:	d503201f 	nop
   81e28:	d503201f 	nop
   81e2c:	d503201f 	nop
   81e30:	d503201f 	nop
   81e34:	d503201f 	nop
   81e38:	d503201f 	nop
   81e3c:	d503201f 	nop
   81e40:	d503201f 	nop
   81e44:	d503201f 	nop
   81e48:	d503201f 	nop
   81e4c:	d503201f 	nop
   81e50:	d503201f 	nop
   81e54:	d503201f 	nop
   81e58:	d503201f 	nop
   81e5c:	d503201f 	nop
   81e60:	d503201f 	nop
   81e64:	d503201f 	nop
   81e68:	d503201f 	nop
   81e6c:	d503201f 	nop
   81e70:	d503201f 	nop
   81e74:	d503201f 	nop
   81e78:	d503201f 	nop
   81e7c:	d503201f 	nop
   81e80:	17fff8d1 	b	801c4 <hang>
   81e84:	d503201f 	nop
   81e88:	d503201f 	nop
   81e8c:	d503201f 	nop
   81e90:	d503201f 	nop
   81e94:	d503201f 	nop
   81e98:	d503201f 	nop
   81e9c:	d503201f 	nop
   81ea0:	d503201f 	nop
   81ea4:	d503201f 	nop
   81ea8:	d503201f 	nop
   81eac:	d503201f 	nop
   81eb0:	d503201f 	nop
   81eb4:	d503201f 	nop
   81eb8:	d503201f 	nop
   81ebc:	d503201f 	nop
   81ec0:	d503201f 	nop
   81ec4:	d503201f 	nop
   81ec8:	d503201f 	nop
   81ecc:	d503201f 	nop
   81ed0:	d503201f 	nop
   81ed4:	d503201f 	nop
   81ed8:	d503201f 	nop
   81edc:	d503201f 	nop
   81ee0:	d503201f 	nop
   81ee4:	d503201f 	nop
   81ee8:	d503201f 	nop
   81eec:	d503201f 	nop
   81ef0:	d503201f 	nop
   81ef4:	d503201f 	nop
   81ef8:	d503201f 	nop
   81efc:	d503201f 	nop
   81f00:	17fff8b1 	b	801c4 <hang>
   81f04:	d503201f 	nop
   81f08:	d503201f 	nop
   81f0c:	d503201f 	nop
   81f10:	d503201f 	nop
   81f14:	d503201f 	nop
   81f18:	d503201f 	nop
   81f1c:	d503201f 	nop
   81f20:	d503201f 	nop
   81f24:	d503201f 	nop
   81f28:	d503201f 	nop
   81f2c:	d503201f 	nop
   81f30:	d503201f 	nop
   81f34:	d503201f 	nop
   81f38:	d503201f 	nop
   81f3c:	d503201f 	nop
   81f40:	d503201f 	nop
   81f44:	d503201f 	nop
   81f48:	d503201f 	nop
   81f4c:	d503201f 	nop
   81f50:	d503201f 	nop
   81f54:	d503201f 	nop
   81f58:	d503201f 	nop
   81f5c:	d503201f 	nop
   81f60:	d503201f 	nop
   81f64:	d503201f 	nop
   81f68:	d503201f 	nop
   81f6c:	d503201f 	nop
   81f70:	d503201f 	nop
   81f74:	d503201f 	nop
   81f78:	d503201f 	nop
   81f7c:	d503201f 	nop
   81f80:	17fff891 	b	801c4 <hang>
   81f84:	00000000 	.inst	0x00000000 ; undefined
   81f88:	00095c78 	.word	0x00095c78
   81f8c:	00000000 	.word	0x00000000
   81f90:	00095c90 	.word	0x00095c90
   81f94:	00000000 	.word	0x00000000

0000000000081f98 <Check_Semaphore>:
   81f98:	f81f0ffe 	str	x30, [sp, #-16]!
   81f9c:	97fffa29 	bl	80840 <GetCoreID>
   81fa0:	12001c01 	and	w1, w0, #0xff
   81fa4:	f00000a2 	adrp	x2, 98000 <table_loaded>
   81fa8:	f0000080 	adrp	x0, 94000 <__trunctfdf2+0x1f8>
   81fac:	91072000 	add	x0, x0, #0x1c8
   81fb0:	b9400042 	ldr	w2, [x2]
   81fb4:	94001cd9 	bl	89318 <printf>
   81fb8:	f84107fe 	ldr	x30, [sp], #16
   81fbc:	d00000a0 	adrp	x0, 97000 <__bss_start__>
   81fc0:	91000000 	add	x0, x0, #0x0
   81fc4:	17fffc0f 	b	81000 <semaphore_dec>

0000000000081fc8 <Core_SayHello>:
   81fc8:	a9be53f3 	stp	x19, x20, [sp, #-32]!
   81fcc:	d00000b3 	adrp	x19, 97000 <__bss_start__>
   81fd0:	91000273 	add	x19, x19, #0x0
   81fd4:	91001274 	add	x20, x19, #0x4
   81fd8:	f9000bfe 	str	x30, [sp, #16]
   81fdc:	aa1403e0 	mov	x0, x20
   81fe0:	97fffa2c 	bl	80890 <semaphore_inc>
   81fe4:	97fffa17 	bl	80840 <GetCoreID>
   81fe8:	12001c01 	and	w1, w0, #0xff
   81fec:	f0000082 	adrp	x2, 94000 <__trunctfdf2+0x1f8>
   81ff0:	9107e040 	add	x0, x2, #0x1f8
   81ff4:	94001cc9 	bl	89318 <printf>
   81ff8:	b9400a61 	ldr	w1, [x19, #8]
   81ffc:	aa1403e0 	mov	x0, x20
   82000:	f9400bfe 	ldr	x30, [sp, #16]
   82004:	11000421 	add	w1, w1, #0x1
   82008:	b9000a61 	str	w1, [x19, #8]
   8200c:	a8c253f3 	ldp	x19, x20, [sp], #32
   82010:	17fffbfc 	b	81000 <semaphore_dec>
   82014:	d503201f 	nop

0000000000082018 <benchmark>:
   82018:	d2875c10 	mov	x16, #0x3ae0                	// #15072
   8201c:	cb3063ff 	sub	sp, sp, x16
   82020:	d0000080 	adrp	x0, 94000 <__trunctfdf2+0x1f8>
   82024:	91084000 	add	x0, x0, #0x210
   82028:	a90053f3 	stp	x19, x20, [sp]
   8202c:	d0000093 	adrp	x19, 94000 <__trunctfdf2+0x1f8>
   82030:	d0000094 	adrp	x20, 94000 <__trunctfdf2+0x1f8>
   82034:	a9015bf5 	stp	x21, x22, [sp, #16]
   82038:	9108e273 	add	x19, x19, #0x238
   8203c:	d0000095 	adrp	x21, 94000 <__trunctfdf2+0x1f8>
   82040:	a90263f7 	stp	x23, x24, [sp, #32]
   82044:	9108a2b5 	add	x21, x21, #0x228
   82048:	91090294 	add	x20, x20, #0x240
   8204c:	a9037bf9 	stp	x25, x30, [sp, #48]
   82050:	94001cb2 	bl	89318 <printf>
   82054:	d2875c0a 	mov	x10, #0x3ae0                	// #15072
   82058:	8b2a63f8 	add	x24, sp, x10
   8205c:	52827117 	mov	w23, #0x1388                	// #5000
   82060:	d28270f6 	mov	x22, #0x1387                	// #4999
   82064:	d503201f 	nop
   82068:	d2800020 	mov	x0, #0x1                   	// #1
   8206c:	52800001 	mov	w1, #0x0                   	// #0
   82070:	910123e2 	add	x2, sp, #0x48
   82074:	d2827a08 	mov	x8, #0x13d0                	// #5072
   82078:	8b000043 	add	x3, x2, x0
   8207c:	8b2863e2 	add	x2, sp, x8
   82080:	8b000045 	add	x5, x2, x0
   82084:	d284eb09 	mov	x9, #0x2758                	// #10072
   82088:	8b2963e2 	add	x2, sp, x9
   8208c:	12001c24 	and	w4, w1, #0xff
   82090:	8b000042 	add	x2, x2, x0
   82094:	381ff064 	sturb	w4, [x3, #-1]
   82098:	531f1886 	ubfiz	w6, w4, #1, #7
   8209c:	381ff0a6 	sturb	w6, [x5, #-1]
   820a0:	11000421 	add	w1, w1, #0x1
   820a4:	91000400 	add	x0, x0, #0x1
   820a8:	381ff05f 	sturb	wzr, [x2, #-1]
   820ac:	6b17003f 	cmp	w1, w23
   820b0:	54fffe01 	b.ne	82070 <benchmark+0x58>  // b.any
   820b4:	d53b9c00 	mrs	x0, pmcr_el0
   820b8:	d51b9c00 	msr	pmcr_el0, x0
   820bc:	d53b9d01 	mrs	x1, pmccntr_el0
   820c0:	91400be0 	add	x0, sp, #0x2, lsl #12
   820c4:	395d6002 	ldrb	w2, [x0, #1880]
   820c8:	d2800000 	mov	x0, #0x0                   	// #0
   820cc:	d503201f 	nop
   820d0:	910123e3 	add	x3, sp, #0x48
   820d4:	d2827a06 	mov	x6, #0x13d0                	// #5072
   820d8:	8b2663e4 	add	x4, sp, x6
   820dc:	8b000063 	add	x3, x3, x0
   820e0:	8b000085 	add	x5, x4, x0
   820e4:	d284eb07 	mov	x7, #0x2758                	// #10072
   820e8:	8b2763e4 	add	x4, sp, x7
   820ec:	39400463 	ldrb	w3, [x3, #1]
   820f0:	8b000084 	add	x4, x4, x0
   820f4:	394004a5 	ldrb	w5, [x5, #1]
   820f8:	91000400 	add	x0, x0, #0x1
   820fc:	eb16001f 	cmp	x0, x22
   82100:	0b050063 	add	w3, w3, w5
   82104:	0b030042 	add	w2, w2, w3
   82108:	12001c42 	and	w2, w2, #0xff
   8210c:	39000482 	strb	w2, [x4, #1]
   82110:	54fffe01 	b.ne	820d0 <benchmark+0xb8>  // b.any
   82114:	d53b9d00 	mrs	x0, pmccntr_el0
   82118:	cb010001 	sub	x1, x0, x1
   8211c:	aa1503e0 	mov	x0, x21
   82120:	94001c7e 	bl	89318 <printf>
   82124:	91400fe0 	add	x0, sp, #0x3, lsl #12
   82128:	396b7c01 	ldrb	w1, [x0, #2783]
   8212c:	aa1303e0 	mov	x0, x19
   82130:	94001c7a 	bl	89318 <printf>
   82134:	d284eb05 	mov	x5, #0x2758                	// #10072
   82138:	8b2563e0 	add	x0, sp, x5
   8213c:	d503201f 	nop
   82140:	3800141f 	strb	wzr, [x0], #1
   82144:	eb00031f 	cmp	x24, x0
   82148:	54ffffc1 	b.ne	82140 <benchmark+0x128>  // b.any
   8214c:	940025af 	bl	8b808 <timer_getTickCount64>
   82150:	aa0003f9 	mov	x25, x0
   82154:	91400be0 	add	x0, sp, #0x2, lsl #12
   82158:	395d6002 	ldrb	w2, [x0, #1880]
   8215c:	d2800000 	mov	x0, #0x0                   	// #0
   82160:	910123e1 	add	x1, sp, #0x48
   82164:	d284eb04 	mov	x4, #0x2758                	// #10072
   82168:	8b000023 	add	x3, x1, x0
   8216c:	d2827a01 	mov	x1, #0x13d0                	// #5072
   82170:	8b2163e1 	add	x1, sp, x1
   82174:	8b000025 	add	x5, x1, x0
   82178:	8b2463e1 	add	x1, sp, x4
   8217c:	39400463 	ldrb	w3, [x3, #1]
   82180:	8b000024 	add	x4, x1, x0
   82184:	91000400 	add	x0, x0, #0x1
   82188:	394004a5 	ldrb	w5, [x5, #1]
   8218c:	eb16001f 	cmp	x0, x22
   82190:	0b050063 	add	w3, w3, w5
   82194:	0b030042 	add	w2, w2, w3
   82198:	12001c42 	and	w2, w2, #0xff
   8219c:	39000482 	strb	w2, [x4, #1]
   821a0:	54fffe01 	b.ne	82160 <benchmark+0x148>  // b.any
   821a4:	94002599 	bl	8b808 <timer_getTickCount64>
   821a8:	cb190001 	sub	x1, x0, x25
   821ac:	aa1403e0 	mov	x0, x20
   821b0:	94001c5a 	bl	89318 <printf>
   821b4:	91400fe0 	add	x0, sp, #0x3, lsl #12
   821b8:	396b7c01 	ldrb	w1, [x0, #2783]
   821bc:	aa1303e0 	mov	x0, x19
   821c0:	94001c56 	bl	89318 <printf>
   821c4:	17ffffa9 	b	82068 <benchmark+0x50>

00000000000821c8 <main>:
   821c8:	a9bd53f3 	stp	x19, x20, [sp, #-48]!
   821cc:	52984000 	mov	w0, #0xc200                	// #49664
   821d0:	72a00020 	movk	w0, #0x1, lsl #16
   821d4:	a9015bf5 	stp	x21, x22, [sp, #16]
   821d8:	f0000033 	adrp	x19, 89000 <vsscanf+0xb40>
   821dc:	910c6273 	add	x19, x19, #0x318
   821e0:	a9027bf7 	stp	x23, x30, [sp, #32]
   821e4:	940027b5 	bl	8c0b8 <pl011_uart_init>
   821e8:	d0000040 	adrp	x0, 8c000 <miniuart_init+0x128>
   821ec:	9107e000 	add	x0, x0, #0x1f8
   821f0:	94001c44 	bl	89300 <Init_EmbStdio>
   821f4:	aa1303e0 	mov	x0, x19
   821f8:	94002704 	bl	8be08 <displaySmartStart>
   821fc:	aa1303e0 	mov	x0, x19
   82200:	940026dc 	bl	8bd70 <ARM_setmaxspeed>
   82204:	94001f3d 	bl	89ef8 <init_page_table>
   82208:	52800036 	mov	w22, #0x1                   	// #1
   8220c:	d00000a0 	adrp	x0, 98000 <table_loaded>
   82210:	91000014 	add	x20, x0, #0x0
   82214:	90000053 	adrp	x19, 8a000 <init_page_table+0x108>
   82218:	9102c273 	add	x19, x19, #0xb0
   8221c:	b9000016 	str	w22, [x0]
   82220:	94001fa4 	bl	8a0b0 <mmu_init>
   82224:	aa1403e0 	mov	x0, x20
   82228:	97fff99a 	bl	80890 <semaphore_inc>
   8222c:	d0000080 	adrp	x0, 94000 <__trunctfdf2+0x1f8>
   82230:	91094000 	add	x0, x0, #0x250
   82234:	94001c39 	bl	89318 <printf>
   82238:	f0fffff5 	adrp	x21, 81000 <semaphore_dec>
   8223c:	aa1303e1 	mov	x1, x19
   82240:	2a1603e0 	mov	w0, w22
   82244:	97fff982 	bl	8084c <CoreExecute>
   82248:	913e62b5 	add	x21, x21, #0xf98
   8224c:	aa1403e0 	mov	x0, x20
   82250:	97fff990 	bl	80890 <semaphore_inc>
   82254:	d0000080 	adrp	x0, 94000 <__trunctfdf2+0x1f8>
   82258:	9109c000 	add	x0, x0, #0x270
   8225c:	94001c2f 	bl	89318 <printf>
   82260:	aa1303e1 	mov	x1, x19
   82264:	52800040 	mov	w0, #0x2                   	// #2
   82268:	97fff979 	bl	8084c <CoreExecute>
   8226c:	aa1403e0 	mov	x0, x20
   82270:	97fff988 	bl	80890 <semaphore_inc>
   82274:	d0000080 	adrp	x0, 94000 <__trunctfdf2+0x1f8>
   82278:	910a4000 	add	x0, x0, #0x290
   8227c:	94001c27 	bl	89318 <printf>
   82280:	aa1303e1 	mov	x1, x19
   82284:	52800060 	mov	w0, #0x3                   	// #3
   82288:	97fff971 	bl	8084c <CoreExecute>
   8228c:	b00000b3 	adrp	x19, 97000 <__bss_start__>
   82290:	aa1403e0 	mov	x0, x20
   82294:	91000273 	add	x19, x19, #0x0
   82298:	97fff97e 	bl	80890 <semaphore_inc>
   8229c:	91001277 	add	x23, x19, #0x4
   822a0:	d0000080 	adrp	x0, 94000 <__trunctfdf2+0x1f8>
   822a4:	910ac000 	add	x0, x0, #0x2b0
   822a8:	94001c1c 	bl	89318 <printf>
   822ac:	aa1403e0 	mov	x0, x20
   822b0:	97fffb54 	bl	81000 <semaphore_dec>
   822b4:	aa1403e0 	mov	x0, x20
   822b8:	97fff976 	bl	80890 <semaphore_inc>
   822bc:	d0000080 	adrp	x0, 94000 <__trunctfdf2+0x1f8>
   822c0:	910b6000 	add	x0, x0, #0x2d8
   822c4:	94001c15 	bl	89318 <printf>
   822c8:	2a1403e2 	mov	w2, w20
   822cc:	d360fe81 	lsr	x1, x20, #32
   822d0:	d0000080 	adrp	x0, 94000 <__trunctfdf2+0x1f8>
   822d4:	910c6000 	add	x0, x0, #0x318
   822d8:	94001c10 	bl	89318 <printf>
   822dc:	aa1303e0 	mov	x0, x19
   822e0:	97fff96c 	bl	80890 <semaphore_inc>
   822e4:	aa1503e1 	mov	x1, x21
   822e8:	2a1603e0 	mov	w0, w22
   822ec:	97fff958 	bl	8084c <CoreExecute>
   822f0:	aa1303e0 	mov	x0, x19
   822f4:	97fff967 	bl	80890 <semaphore_inc>
   822f8:	aa1503e1 	mov	x1, x21
   822fc:	52800040 	mov	w0, #0x2                   	// #2
   82300:	97fff953 	bl	8084c <CoreExecute>
   82304:	aa1303e0 	mov	x0, x19
   82308:	97fff962 	bl	80890 <semaphore_inc>
   8230c:	aa1503e1 	mov	x1, x21
   82310:	52800060 	mov	w0, #0x3                   	// #3
   82314:	97fff94e 	bl	8084c <CoreExecute>
   82318:	aa1303e0 	mov	x0, x19
   8231c:	97fff95d 	bl	80890 <semaphore_inc>
   82320:	aa1403e0 	mov	x0, x20
   82324:	97fffb37 	bl	81000 <semaphore_dec>
   82328:	d0000080 	adrp	x0, 94000 <__trunctfdf2+0x1f8>
   8232c:	910d0000 	add	x0, x0, #0x340
   82330:	94001bfa 	bl	89318 <printf>
   82334:	f0fffff4 	adrp	x20, 81000 <semaphore_dec>
   82338:	aa1303e0 	mov	x0, x19
   8233c:	97fffb31 	bl	81000 <semaphore_dec>
   82340:	aa1303e0 	mov	x0, x19
   82344:	97fff953 	bl	80890 <semaphore_inc>
   82348:	aa1503e1 	mov	x1, x21
   8234c:	2a1603e0 	mov	w0, w22
   82350:	97fff93f 	bl	8084c <CoreExecute>
   82354:	913f2294 	add	x20, x20, #0xfc8
   82358:	aa1303e0 	mov	x0, x19
   8235c:	97fff94d 	bl	80890 <semaphore_inc>
   82360:	aa1503e1 	mov	x1, x21
   82364:	52800040 	mov	w0, #0x2                   	// #2
   82368:	97fff939 	bl	8084c <CoreExecute>
   8236c:	aa1303e0 	mov	x0, x19
   82370:	97fff948 	bl	80890 <semaphore_inc>
   82374:	aa1503e1 	mov	x1, x21
   82378:	52800060 	mov	w0, #0x3                   	// #3
   8237c:	97fff934 	bl	8084c <CoreExecute>
   82380:	aa1303e0 	mov	x0, x19
   82384:	97fff943 	bl	80890 <semaphore_inc>
   82388:	aa1303e0 	mov	x0, x19
   8238c:	97fffb1d 	bl	81000 <semaphore_dec>
   82390:	d0000080 	adrp	x0, 94000 <__trunctfdf2+0x1f8>
   82394:	910dc000 	add	x0, x0, #0x370
   82398:	94001be0 	bl	89318 <printf>
   8239c:	aa1703e0 	mov	x0, x23
   823a0:	97fff93c 	bl	80890 <semaphore_inc>
   823a4:	aa1403e1 	mov	x1, x20
   823a8:	2a1603e0 	mov	w0, w22
   823ac:	97fff928 	bl	8084c <CoreExecute>
   823b0:	aa1403e1 	mov	x1, x20
   823b4:	52800040 	mov	w0, #0x2                   	// #2
   823b8:	97fff925 	bl	8084c <CoreExecute>
   823bc:	aa1403e1 	mov	x1, x20
   823c0:	52800060 	mov	w0, #0x3                   	// #3
   823c4:	97fff922 	bl	8084c <CoreExecute>
   823c8:	d0000080 	adrp	x0, 94000 <__trunctfdf2+0x1f8>
   823cc:	910e6000 	add	x0, x0, #0x398
   823d0:	94001bd2 	bl	89318 <printf>
   823d4:	aa1703e0 	mov	x0, x23
   823d8:	97fffb0a 	bl	81000 <semaphore_dec>
   823dc:	d503201f 	nop
   823e0:	b9400a60 	ldr	w0, [x19, #8]
   823e4:	71000c1f 	cmp	w0, #0x3
   823e8:	54ffffc1 	b.ne	823e0 <main+0x218>  // b.any
   823ec:	d0000080 	adrp	x0, 94000 <__trunctfdf2+0x1f8>
   823f0:	910ec000 	add	x0, x0, #0x3b0
   823f4:	94001bc9 	bl	89318 <printf>
   823f8:	97ffff08 	bl	82018 <benchmark>
   823fc:	00000000 	.inst	0x00000000 ; undefined

0000000000082400 <cvt_int>:
   82400:	a9b553f3 	stp	x19, x20, [sp, #-176]!
   82404:	f27c005f 	tst	x2, #0x10
   82408:	d3483043 	ubfx	x3, x2, #8, #5
   8240c:	a9015bf5 	stp	x21, x22, [sp, #16]
   82410:	12000056 	and	w22, w2, #0x1
   82414:	1a9f02c6 	csel	w6, w22, wzr, eq  // eq = none
   82418:	52801ee5 	mov	w5, #0xf7                  	// #247
   8241c:	51002067 	sub	w7, w3, #0x8
   82420:	a90473fb 	stp	x27, x28, [sp, #64]
   82424:	93587c5c 	sbfx	x28, x2, #24, #8
   82428:	330000c2 	bfxil	w2, w6, #0, #1
   8242c:	6a0500ff 	tst	w7, w5
   82430:	12001c45 	and	w5, w2, #0xff
   82434:	aa0003f3 	mov	x19, x0
   82438:	aa0503e0 	mov	x0, x5
   8243c:	7a421864 	ccmp	w3, #0x2, #0x4, ne  // ne = any
   82440:	52800144 	mov	w4, #0xa                   	// #10
   82444:	a9036bf9 	stp	x25, x26, [sp, #48]
   82448:	1a84007a 	csel	w26, w3, w4, eq  // eq = none
   8244c:	f240001f 	tst	x0, #0x1
   82450:	52800400 	mov	w0, #0x20                  	// #32
   82454:	0a0000a3 	and	w3, w5, w0
   82458:	a90263f7 	stp	x23, x24, [sp, #32]
   8245c:	52800615 	mov	w21, #0x30                  	// #48
   82460:	2a0503e4 	mov	w4, w5
   82464:	f9002bfe 	str	x30, [sp, #80]
   82468:	1a8012b5 	csel	w21, w21, w0, ne  // ne = any
   8246c:	b9006be3 	str	w3, [sp, #104]
   82470:	93505c43 	sbfx	x3, x2, #16, #8
   82474:	b90073e5 	str	w5, [sp, #112]
   82478:	36080ca4 	tbz	w4, #1, 8260c <cvt_int+0x20c>
   8247c:	37f811c1 	tbnz	w1, #31, 826b4 <cvt_int+0x2b4>
   82480:	f9403be4 	ldr	x4, [sp, #112]
   82484:	37101324 	tbnz	w4, #2, 826e8 <cvt_int+0x2e8>
   82488:	b9007fff 	str	wzr, [sp, #124]
   8248c:	36180064 	tbz	w4, #3, 82498 <cvt_int+0x98>
   82490:	51000463 	sub	w3, w3, #0x1
   82494:	b9007fe0 	str	w0, [sp, #124]
   82498:	35000be1 	cbnz	w1, 82614 <cvt_int+0x214>
   8249c:	52800600 	mov	w0, #0x30                  	// #48
   824a0:	52800019 	mov	w25, #0x0                   	// #0
   824a4:	52800614 	mov	w20, #0x30                  	// #48
   824a8:	52800038 	mov	w24, #0x1                   	// #1
   824ac:	390223e0 	strb	w0, [sp, #136]
   824b0:	b9007bfc 	str	w28, [sp, #120]
   824b4:	6b18039f 	cmp	w28, w24
   824b8:	5400006a 	b.ge	824c4 <cvt_int+0xc4>  // b.tcont
   824bc:	13001f1c 	sxtb	w28, w24
   824c0:	b9007bf8 	str	w24, [sp, #120]
   824c4:	b9407be0 	ldr	w0, [sp, #120]
   824c8:	d3441042 	ubfx	x2, x2, #4, #1
   824cc:	2b060056 	adds	w22, w2, w6
   824d0:	4b000060 	sub	w0, w3, w0
   824d4:	b9006fe0 	str	w0, [sp, #108]
   824d8:	51000417 	sub	w23, w0, #0x1
   824dc:	54000bc1 	b.ne	82654 <cvt_int+0x254>  // b.any
   824e0:	7100001f 	cmp	w0, #0x0
   824e4:	5400118d 	b.le	82714 <cvt_int+0x314>
   824e8:	510006f7 	sub	w23, w23, #0x1
   824ec:	52800400 	mov	w0, #0x20                  	// #32
   824f0:	d63f0260 	blr	x19
   824f4:	310006ff 	cmn	w23, #0x1
   824f8:	54ffff81 	b.ne	824e8 <cvt_int+0xe8>  // b.any
   824fc:	12800000 	mov	w0, #0xffffffff            	// #-1
   82500:	b9406ff6 	ldr	w22, [sp, #108]
   82504:	b94073e1 	ldr	w1, [sp, #112]
   82508:	12800037 	mov	w23, #0xfffffffe            	// #-2
   8250c:	b9006fe0 	str	w0, [sp, #108]
   82510:	52800220 	mov	w0, #0x11                  	// #17
   82514:	6a00003f 	tst	w1, w0
   82518:	54000a80 	b.eq	82668 <cvt_int+0x268>  // b.none
   8251c:	b9407be0 	ldr	w0, [sp, #120]
   82520:	5100079b 	sub	w27, w28, #0x1
   82524:	12001f7b 	and	w27, w27, #0xff
   82528:	2a1603f5 	mov	w21, w22
   8252c:	6b00031f 	cmp	w24, w0
   82530:	5400014a 	b.ge	82558 <cvt_int+0x158>  // b.tcont
   82534:	d503201f 	nop
   82538:	4b1502c1 	sub	w1, w22, w21
   8253c:	52800600 	mov	w0, #0x30                  	// #48
   82540:	0b010361 	add	w1, w27, w1
   82544:	110006b5 	add	w21, w21, #0x1
   82548:	13001c3c 	sxtb	w28, w1
   8254c:	d63f0260 	blr	x19
   82550:	6b18039f 	cmp	w28, w24
   82554:	54ffff2c 	b.gt	82538 <cvt_int+0x138>
   82558:	b9407fe0 	ldr	w0, [sp, #124]
   8255c:	34000060 	cbz	w0, 82568 <cvt_int+0x168>
   82560:	110006b5 	add	w21, w21, #0x1
   82564:	d63f0260 	blr	x19
   82568:	f9403be0 	ldr	x0, [sp, #112]
   8256c:	363000e0 	tbz	w0, #6, 82588 <cvt_int+0x188>
   82570:	7100235f 	cmp	w26, #0x8
   82574:	54000c20 	b.eq	826f8 <cvt_int+0x2f8>  // b.none
   82578:	7100435f 	cmp	w26, #0x10
   8257c:	54000d40 	b.eq	82724 <cvt_int+0x324>  // b.none
   82580:	71000b5f 	cmp	w26, #0x2
   82584:	54000a20 	b.eq	826c8 <cvt_int+0x2c8>  // b.none
   82588:	93407f36 	sxtw	x22, w25
   8258c:	14000002 	b	82594 <cvt_int+0x194>
   82590:	385ff014 	ldurb	w20, [x0, #-1]
   82594:	2a1403e0 	mov	w0, w20
   82598:	d63f0260 	blr	x19
   8259c:	910223e0 	add	x0, sp, #0x88
   825a0:	710002df 	cmp	w22, #0x0
   825a4:	8b0002c0 	add	x0, x22, x0
   825a8:	d10006d6 	sub	x22, x22, #0x1
   825ac:	54ffff2c 	b.gt	82590 <cvt_int+0x190>
   825b0:	b9406fe0 	ldr	w0, [sp, #108]
   825b4:	110006b5 	add	w21, w21, #0x1
   825b8:	0b150335 	add	w21, w25, w21
   825bc:	7100001f 	cmp	w0, #0x0
   825c0:	5400016d 	b.le	825ec <cvt_int+0x1ec>
   825c4:	2a1703f4 	mov	w20, w23
   825c8:	52800400 	mov	w0, #0x20                  	// #32
   825cc:	d63f0260 	blr	x19
   825d0:	7100029f 	cmp	w20, #0x0
   825d4:	51000694 	sub	w20, w20, #0x1
   825d8:	54ffff8c 	b.gt	825c8 <cvt_int+0x1c8>
   825dc:	710002ff 	cmp	w23, #0x0
   825e0:	110006b5 	add	w21, w21, #0x1
   825e4:	1a9fa2f7 	csel	w23, w23, wzr, ge  // ge = tcont
   825e8:	0b1502f5 	add	w21, w23, w21
   825ec:	2a1503e0 	mov	w0, w21
   825f0:	a9415bf5 	ldp	x21, x22, [sp, #16]
   825f4:	a94263f7 	ldp	x23, x24, [sp, #32]
   825f8:	a9436bf9 	ldp	x25, x26, [sp, #48]
   825fc:	a94473fb 	ldp	x27, x28, [sp, #64]
   82600:	f9402bfe 	ldr	x30, [sp, #80]
   82604:	a8cb53f3 	ldp	x19, x20, [sp], #176
   82608:	d65f03c0 	ret
   8260c:	b9007fff 	str	wzr, [sp, #124]
   82610:	34fff461 	cbz	w1, 8249c <cvt_int+0x9c>
   82614:	d0000087 	adrp	x7, 94000 <__trunctfdf2+0x1f8>
   82618:	910223e4 	add	x4, sp, #0x88
   8261c:	911360e7 	add	x7, x7, #0x4d8
   82620:	52800019 	mov	w25, #0x0                   	// #0
   82624:	14000002 	b	8262c <cvt_int+0x22c>
   82628:	2a1803f9 	mov	w25, w24
   8262c:	1ada0c20 	sdiv	w0, w1, w26
   82630:	11000738 	add	w24, w25, #0x1
   82634:	1b1a8405 	msub	w5, w0, w26, w1
   82638:	2a0003e1 	mov	w1, w0
   8263c:	b9406be0 	ldr	w0, [sp, #104]
   82640:	3865c8f4 	ldrb	w20, [x7, w5, sxtw]
   82644:	2a000294 	orr	w20, w20, w0
   82648:	38001494 	strb	w20, [x4], #1
   8264c:	35fffee1 	cbnz	w1, 82628 <cvt_int+0x228>
   82650:	17ffff98 	b	824b0 <cvt_int+0xb0>
   82654:	52800016 	mov	w22, #0x0                   	// #0
   82658:	b94073e1 	ldr	w1, [sp, #112]
   8265c:	52800220 	mov	w0, #0x11                  	// #17
   82660:	6a00003f 	tst	w1, w0
   82664:	54fff5c1 	b.ne	8251c <cvt_int+0x11c>  // b.any
   82668:	b9406fe0 	ldr	w0, [sp, #108]
   8266c:	2a1703fb 	mov	w27, w23
   82670:	7100001f 	cmp	w0, #0x0
   82674:	540004ad 	b.le	82708 <cvt_int+0x308>
   82678:	2a1503e0 	mov	w0, w21
   8267c:	d63f0260 	blr	x19
   82680:	51000761 	sub	w1, w27, #0x1
   82684:	7100037f 	cmp	w27, #0x0
   82688:	2a0103fb 	mov	w27, w1
   8268c:	54ffff6c 	b.gt	82678 <cvt_int+0x278>
   82690:	710002ff 	cmp	w23, #0x0
   82694:	510006e0 	sub	w0, w23, #0x1
   82698:	1a9fa2f7 	csel	w23, w23, wzr, ge  // ge = tcont
   8269c:	110006d6 	add	w22, w22, #0x1
   826a0:	4b170000 	sub	w0, w0, w23
   826a4:	0b1702d6 	add	w22, w22, w23
   826a8:	51000417 	sub	w23, w0, #0x1
   826ac:	b9006fe0 	str	w0, [sp, #108]
   826b0:	17ffff9b 	b	8251c <cvt_int+0x11c>
   826b4:	528005a0 	mov	w0, #0x2d                  	// #45
   826b8:	51000463 	sub	w3, w3, #0x1
   826bc:	4b0103e1 	neg	w1, w1
   826c0:	b9007fe0 	str	w0, [sp, #124]
   826c4:	17ffffd4 	b	82614 <cvt_int+0x214>
   826c8:	52800600 	mov	w0, #0x30                  	// #48
   826cc:	d63f0260 	blr	x19
   826d0:	b9406be1 	ldr	w1, [sp, #104]
   826d4:	11000ab5 	add	w21, w21, #0x2
   826d8:	52800840 	mov	w0, #0x42                  	// #66
   826dc:	2a000020 	orr	w0, w1, w0
   826e0:	d63f0260 	blr	x19
   826e4:	17ffffa9 	b	82588 <cvt_int+0x188>
   826e8:	52800560 	mov	w0, #0x2b                  	// #43
   826ec:	51000463 	sub	w3, w3, #0x1
   826f0:	b9007fe0 	str	w0, [sp, #124]
   826f4:	17ffff69 	b	82498 <cvt_int+0x98>
   826f8:	110006b5 	add	w21, w21, #0x1
   826fc:	52800600 	mov	w0, #0x30                  	// #48
   82700:	d63f0260 	blr	x19
   82704:	17ffffa1 	b	82588 <cvt_int+0x188>
   82708:	b9006ff7 	str	w23, [sp, #108]
   8270c:	510006f7 	sub	w23, w23, #0x1
   82710:	17ffff83 	b	8251c <cvt_int+0x11c>
   82714:	51000800 	sub	w0, w0, #0x2
   82718:	b9006ff7 	str	w23, [sp, #108]
   8271c:	2a0003f7 	mov	w23, w0
   82720:	17ffffce 	b	82658 <cvt_int+0x258>
   82724:	52800600 	mov	w0, #0x30                  	// #48
   82728:	d63f0260 	blr	x19
   8272c:	b9406be1 	ldr	w1, [sp, #104]
   82730:	11000ab5 	add	w21, w21, #0x2
   82734:	52800b00 	mov	w0, #0x58                  	// #88
   82738:	2a000020 	orr	w0, w1, w0
   8273c:	d63f0260 	blr	x19
   82740:	17ffff92 	b	82588 <cvt_int+0x188>
   82744:	d503201f 	nop

0000000000082748 <number>:
   82748:	a9b153f3 	stp	x19, x20, [sp, #-240]!
   8274c:	f27c005f 	tst	x2, #0x10
   82750:	d3483043 	ubfx	x3, x2, #8, #5
   82754:	a9015bf5 	stp	x21, x22, [sp, #16]
   82758:	12000056 	and	w22, w2, #0x1
   8275c:	1a9f02d6 	csel	w22, w22, wzr, eq  // eq = none
   82760:	51002067 	sub	w7, w3, #0x8
   82764:	93587c55 	sbfx	x21, x2, #24, #8
   82768:	330002c2 	bfxil	w2, w22, #0, #1
   8276c:	52801ee6 	mov	w6, #0xf7                  	// #247
   82770:	6a0600ff 	tst	w7, w6
   82774:	a90473fb 	stp	x27, x28, [sp, #64]
   82778:	12001c5c 	and	w28, w2, #0xff
   8277c:	7a421864 	ccmp	w3, #0x2, #0x4, ne  // ne = any
   82780:	52800144 	mov	w4, #0xa                   	// #10
   82784:	1a840063 	csel	w3, w3, w4, eq  // eq = none
   82788:	f240039f 	tst	x28, #0x1
   8278c:	aa0003f3 	mov	x19, x0
   82790:	52800400 	mov	w0, #0x20                  	// #32
   82794:	a90263f7 	stp	x23, x24, [sp, #32]
   82798:	93505c5b 	sbfx	x27, x2, #16, #8
   8279c:	a9036bf9 	stp	x25, x26, [sp, #48]
   827a0:	5280061a 	mov	w26, #0x30                  	// #48
   827a4:	1a80135a 	csel	w26, w26, w0, ne  // ne = any
   827a8:	f9002bfe 	str	x30, [sp, #80]
   827ac:	b9006fe3 	str	w3, [sp, #108]
   827b0:	0a000383 	and	w3, w28, w0
   827b4:	b90063e3 	str	w3, [sp, #96]
   827b8:	36080dbc 	tbz	w28, #1, 8296c <number+0x224>
   827bc:	b7f81021 	tbnz	x1, #63, 829c0 <number+0x278>
   827c0:	371011bc 	tbnz	w28, #2, 829f4 <number+0x2ac>
   827c4:	b9006bff 	str	wzr, [sp, #104]
   827c8:	3618007c 	tbz	w28, #3, 827d4 <number+0x8c>
   827cc:	5100077b 	sub	w27, w27, #0x1
   827d0:	b9006be0 	str	w0, [sp, #104]
   827d4:	b5000d01 	cbnz	x1, 82974 <number+0x22c>
   827d8:	52800600 	mov	w0, #0x30                  	// #48
   827dc:	52800614 	mov	w20, #0x30                  	// #48
   827e0:	52800019 	mov	w25, #0x0                   	// #0
   827e4:	52800038 	mov	w24, #0x1                   	// #1
   827e8:	3901c3e0 	strb	w0, [sp, #112]
   827ec:	6b1802bf 	cmp	w21, w24
   827f0:	13001f00 	sxtb	w0, w24
   827f4:	1a95b015 	csel	w21, w0, w21, lt  // lt = tstop
   827f8:	d3441042 	ubfx	x2, x2, #4, #1
   827fc:	4b150360 	sub	w0, w27, w21
   82800:	b90067e0 	str	w0, [sp, #100]
   82804:	2b160056 	adds	w22, w2, w22
   82808:	51000417 	sub	w23, w0, #0x1
   8280c:	54000d61 	b.ne	829b8 <number+0x270>  // b.any
   82810:	7100001f 	cmp	w0, #0x0
   82814:	5400106d 	b.le	82a20 <number+0x2d8>
   82818:	510006f7 	sub	w23, w23, #0x1
   8281c:	52800400 	mov	w0, #0x20                  	// #32
   82820:	d63f0260 	blr	x19
   82824:	310006ff 	cmn	w23, #0x1
   82828:	54ffff81 	b.ne	82818 <number+0xd0>  // b.any
   8282c:	12800000 	mov	w0, #0xffffffff            	// #-1
   82830:	b94067f6 	ldr	w22, [sp, #100]
   82834:	12800037 	mov	w23, #0xfffffffe            	// #-2
   82838:	b90067e0 	str	w0, [sp, #100]
   8283c:	3720025c 	tbnz	w28, #4, 82884 <number+0x13c>
   82840:	b94067e0 	ldr	w0, [sp, #100]
   82844:	2a1703fb 	mov	w27, w23
   82848:	7100001f 	cmp	w0, #0x0
   8284c:	54000e4d 	b.le	82a14 <number+0x2cc>
   82850:	2a1a03e0 	mov	w0, w26
   82854:	d63f0260 	blr	x19
   82858:	7100037f 	cmp	w27, #0x0
   8285c:	5100077b 	sub	w27, w27, #0x1
   82860:	54ffff8c 	b.gt	82850 <number+0x108>
   82864:	710002ff 	cmp	w23, #0x0
   82868:	510006fb 	sub	w27, w23, #0x1
   8286c:	1a9fa2f7 	csel	w23, w23, wzr, ge  // ge = tcont
   82870:	110006d6 	add	w22, w22, #0x1
   82874:	4b170360 	sub	w0, w27, w23
   82878:	0b1702d6 	add	w22, w22, w23
   8287c:	51000417 	sub	w23, w0, #0x1
   82880:	b90067e0 	str	w0, [sp, #100]
   82884:	510006ba 	sub	w26, w21, #0x1
   82888:	6b15031f 	cmp	w24, w21
   8288c:	12001f5a 	and	w26, w26, #0xff
   82890:	2a1603f5 	mov	w21, w22
   82894:	5400012a 	b.ge	828b8 <number+0x170>  // b.tcont
   82898:	4b1502c1 	sub	w1, w22, w21
   8289c:	52800600 	mov	w0, #0x30                  	// #48
   828a0:	0b010341 	add	w1, w26, w1
   828a4:	110006b5 	add	w21, w21, #0x1
   828a8:	13001c3b 	sxtb	w27, w1
   828ac:	d63f0260 	blr	x19
   828b0:	6b18037f 	cmp	w27, w24
   828b4:	54ffff2c 	b.gt	82898 <number+0x150>
   828b8:	b9406be0 	ldr	w0, [sp, #104]
   828bc:	34000060 	cbz	w0, 828c8 <number+0x180>
   828c0:	110006b5 	add	w21, w21, #0x1
   828c4:	d63f0260 	blr	x19
   828c8:	3630011c 	tbz	w28, #6, 828e8 <number+0x1a0>
   828cc:	b9406fe0 	ldr	w0, [sp, #108]
   828d0:	7100201f 	cmp	w0, #0x8
   828d4:	54000980 	b.eq	82a04 <number+0x2bc>  // b.none
   828d8:	7100401f 	cmp	w0, #0x10
   828dc:	54000aa0 	b.eq	82a30 <number+0x2e8>  // b.none
   828e0:	7100081f 	cmp	w0, #0x2
   828e4:	54000780 	b.eq	829d4 <number+0x28c>  // b.none
   828e8:	93407f36 	sxtw	x22, w25
   828ec:	14000002 	b	828f4 <number+0x1ac>
   828f0:	385ff014 	ldurb	w20, [x0, #-1]
   828f4:	2a1403e0 	mov	w0, w20
   828f8:	d63f0260 	blr	x19
   828fc:	9101c3e0 	add	x0, sp, #0x70
   82900:	710002df 	cmp	w22, #0x0
   82904:	8b0002c0 	add	x0, x22, x0
   82908:	d10006d6 	sub	x22, x22, #0x1
   8290c:	54ffff2c 	b.gt	828f0 <number+0x1a8>
   82910:	b94067e0 	ldr	w0, [sp, #100]
   82914:	110006b5 	add	w21, w21, #0x1
   82918:	0b150335 	add	w21, w25, w21
   8291c:	7100001f 	cmp	w0, #0x0
   82920:	5400016d 	b.le	8294c <number+0x204>
   82924:	2a1703f4 	mov	w20, w23
   82928:	52800400 	mov	w0, #0x20                  	// #32
   8292c:	d63f0260 	blr	x19
   82930:	7100029f 	cmp	w20, #0x0
   82934:	51000694 	sub	w20, w20, #0x1
   82938:	54ffff8c 	b.gt	82928 <number+0x1e0>
   8293c:	710002ff 	cmp	w23, #0x0
   82940:	110006b5 	add	w21, w21, #0x1
   82944:	1a9fa2f7 	csel	w23, w23, wzr, ge  // ge = tcont
   82948:	0b1502f5 	add	w21, w23, w21
   8294c:	2a1503e0 	mov	w0, w21
   82950:	a9415bf5 	ldp	x21, x22, [sp, #16]
   82954:	a94263f7 	ldp	x23, x24, [sp, #32]
   82958:	a9436bf9 	ldp	x25, x26, [sp, #48]
   8295c:	a94473fb 	ldp	x27, x28, [sp, #64]
   82960:	f9402bfe 	ldr	x30, [sp, #80]
   82964:	a8cf53f3 	ldp	x19, x20, [sp], #240
   82968:	d65f03c0 	ret
   8296c:	b9006bff 	str	wzr, [sp, #104]
   82970:	b4fff341 	cbz	x1, 827d8 <number+0x90>
   82974:	d0000086 	adrp	x6, 94000 <__trunctfdf2+0x1f8>
   82978:	3941b3e4 	ldrb	w4, [sp, #108]
   8297c:	911360c6 	add	x6, x6, #0x4d8
   82980:	9101c3e3 	add	x3, sp, #0x70
   82984:	52800019 	mov	w25, #0x0                   	// #0
   82988:	14000002 	b	82990 <number+0x248>
   8298c:	2a1803f9 	mov	w25, w24
   82990:	9ac40c20 	sdiv	x0, x1, x4
   82994:	11000738 	add	w24, w25, #0x1
   82998:	9b048405 	msub	x5, x0, x4, x1
   8299c:	aa0003e1 	mov	x1, x0
   829a0:	b94063e0 	ldr	w0, [sp, #96]
   829a4:	3865c8d4 	ldrb	w20, [x6, w5, sxtw]
   829a8:	2a000294 	orr	w20, w20, w0
   829ac:	38001474 	strb	w20, [x3], #1
   829b0:	b5fffee1 	cbnz	x1, 8298c <number+0x244>
   829b4:	17ffff8e 	b	827ec <number+0xa4>
   829b8:	52800016 	mov	w22, #0x0                   	// #0
   829bc:	17ffffa0 	b	8283c <number+0xf4>
   829c0:	528005a0 	mov	w0, #0x2d                  	// #45
   829c4:	5100077b 	sub	w27, w27, #0x1
   829c8:	cb0103e1 	neg	x1, x1
   829cc:	b9006be0 	str	w0, [sp, #104]
   829d0:	17ffffe9 	b	82974 <number+0x22c>
   829d4:	52800600 	mov	w0, #0x30                  	// #48
   829d8:	d63f0260 	blr	x19
   829dc:	b94063e1 	ldr	w1, [sp, #96]
   829e0:	11000ab5 	add	w21, w21, #0x2
   829e4:	52800840 	mov	w0, #0x42                  	// #66
   829e8:	2a000020 	orr	w0, w1, w0
   829ec:	d63f0260 	blr	x19
   829f0:	17ffffbe 	b	828e8 <number+0x1a0>
   829f4:	52800560 	mov	w0, #0x2b                  	// #43
   829f8:	5100077b 	sub	w27, w27, #0x1
   829fc:	b9006be0 	str	w0, [sp, #104]
   82a00:	17ffff75 	b	827d4 <number+0x8c>
   82a04:	110006b5 	add	w21, w21, #0x1
   82a08:	52800600 	mov	w0, #0x30                  	// #48
   82a0c:	d63f0260 	blr	x19
   82a10:	17ffffb6 	b	828e8 <number+0x1a0>
   82a14:	b90067f7 	str	w23, [sp, #100]
   82a18:	510006f7 	sub	w23, w23, #0x1
   82a1c:	17ffff9a 	b	82884 <number+0x13c>
   82a20:	51000800 	sub	w0, w0, #0x2
   82a24:	b90067f7 	str	w23, [sp, #100]
   82a28:	2a0003f7 	mov	w23, w0
   82a2c:	17ffff84 	b	8283c <number+0xf4>
   82a30:	52800600 	mov	w0, #0x30                  	// #48
   82a34:	d63f0260 	blr	x19
   82a38:	b94063e1 	ldr	w1, [sp, #96]
   82a3c:	11000ab5 	add	w21, w21, #0x2
   82a40:	52800b00 	mov	w0, #0x58                  	// #88
   82a44:	2a000020 	orr	w0, w1, w0
   82a48:	d63f0260 	blr	x19
   82a4c:	17ffffa7 	b	828e8 <number+0x1a0>

0000000000082a50 <NumStr>:
   82a50:	b4001940 	cbz	x0, 82d78 <NumStr+0x328>
   82a54:	a9a853f3 	stp	x19, x20, [sp, #-384]!
   82a58:	1e602018 	fcmpe	d0, #0.0
   82a5c:	aa0003f4 	mov	x20, x0
   82a60:	a9015bf5 	stp	x21, x22, [sp, #16]
   82a64:	52800016 	mov	w22, #0x0                   	// #0
   82a68:	a90263f7 	stp	x23, x24, [sp, #32]
   82a6c:	a9036bf9 	stp	x25, x26, [sp, #48]
   82a70:	a90473fb 	stp	x27, x28, [sp, #64]
   82a74:	5280001c 	mov	w28, #0x0                   	// #0
   82a78:	f9002bfe 	str	x30, [sp, #80]
   82a7c:	fd002fea 	str	d10, [sp, #88]
   82a80:	6d0627e8 	stp	d8, d9, [sp, #96]
   82a84:	54001684 	b.mi	82d54 <NumStr+0x304>  // b.first
   82a88:	9101c3e0 	add	x0, sp, #0x70
   82a8c:	94002967 	bl	8d028 <modf>
   82a90:	fd403be2 	ldr	d2, [sp, #112]
   82a94:	1e604008 	fmov	d8, d0
   82a98:	1e602048 	fcmp	d2, #0.0
   82a9c:	54000c60 	b.eq	82c28 <NumStr+0x1d8>  // b.none
   82aa0:	d0000080 	adrp	x0, 94000 <__trunctfdf2+0x1f8>
   82aa4:	910203f5 	add	x21, sp, #0x80
   82aa8:	910202b9 	add	x25, x21, #0x80
   82aac:	52800017 	mov	w23, #0x0                   	// #0
   82ab0:	fd42740a 	ldr	d10, [x0, #1256]
   82ab4:	1e649009 	fmov	d9, #1.000000000000000000e+01
   82ab8:	1e691840 	fdiv	d0, d2, d9
   82abc:	9101c3e0 	add	x0, sp, #0x70
   82ac0:	110006f7 	add	w23, w23, #0x1
   82ac4:	12001af8 	and	w24, w23, #0x7f
   82ac8:	12001f1b 	and	w27, w24, #0xff
   82acc:	94002957 	bl	8d028 <modf>
   82ad0:	1e6a2801 	fadd	d1, d0, d10
   82ad4:	fd403be2 	ldr	d2, [sp, #112]
   82ad8:	fd003fe0 	str	d0, [sp, #120]
   82adc:	1e690821 	fmul	d1, d1, d9
   82ae0:	1e602048 	fcmp	d2, #0.0
   82ae4:	1e780020 	fcvtzs	w0, d1
   82ae8:	1100c000 	add	w0, w0, #0x30
   82aec:	12001c00 	and	w0, w0, #0xff
   82af0:	381fff20 	strb	w0, [x25, #-1]!
   82af4:	54fffe21 	b.ne	82ab8 <NumStr+0x68>  // b.any
   82af8:	910202a3 	add	x3, x21, #0x80
   82afc:	eb03033f 	cmp	x25, x3
   82b00:	54001542 	b.cs	82da8 <NumStr+0x358>  // b.hs, b.nlast
   82b04:	cb190063 	sub	x3, x3, x25
   82b08:	d2800021 	mov	x1, #0x1                   	// #1
   82b0c:	14000003 	b	82b18 <NumStr+0xc8>
   82b10:	38616b20 	ldrb	w0, [x25, x1]
   82b14:	91000421 	add	x1, x1, #0x1
   82b18:	8b0102a2 	add	x2, x21, x1
   82b1c:	eb01007f 	cmp	x3, x1
   82b20:	381ff040 	sturb	w0, [x2, #-1]
   82b24:	54ffff61 	b.ne	82b10 <NumStr+0xc0>  // b.any
   82b28:	910202b3 	add	x19, x21, #0x80
   82b2c:	cb190273 	sub	x19, x19, x25
   82b30:	8b1302b3 	add	x19, x21, x19
   82b34:	5280001c 	mov	w28, #0x0                   	// #0
   82b38:	12001f18 	and	w24, w24, #0xff
   82b3c:	331202dc 	bfi	w28, w22, #14, #1
   82b40:	37780b5c 	tbnz	w28, #15, 82ca8 <NumStr+0x258>
   82b44:	9101faa0 	add	x0, x21, #0x7e
   82b48:	8b37c017 	add	x23, x0, w23, sxtw
   82b4c:	eb1502ff 	cmp	x23, x21
   82b50:	54001182 	b.cs	82d80 <NumStr+0x330>  // b.hs, b.nlast
   82b54:	390203ff 	strb	wzr, [sp, #128]
   82b58:	2a1b03fa 	mov	w26, w27
   82b5c:	33191b1c 	bfi	w28, w24, #7, #7
   82b60:	36700edc 	tbz	w28, #14, 82d38 <NumStr+0x2e8>
   82b64:	528005a0 	mov	w0, #0x2d                  	// #45
   82b68:	d63f0280 	blr	x20
   82b6c:	52800056 	mov	w22, #0x2                   	// #2
   82b70:	52800037 	mov	w23, #0x1                   	// #1
   82b74:	72191b9f 	tst	w28, #0x3f80
   82b78:	54000e80 	b.eq	82d48 <NumStr+0x2f8>  // b.none
   82b7c:	340001b8 	cbz	w24, 82bb0 <NumStr+0x160>
   82b80:	51000716 	sub	w22, w24, #0x1
   82b84:	910006b3 	add	x19, x21, #0x1
   82b88:	8b1302d6 	add	x22, x22, x19
   82b8c:	aa1503e0 	mov	x0, x21
   82b90:	14000002 	b	82b98 <NumStr+0x148>
   82b94:	91000673 	add	x19, x19, #0x1
   82b98:	39400000 	ldrb	w0, [x0]
   82b9c:	d63f0280 	blr	x20
   82ba0:	aa1303e0 	mov	x0, x19
   82ba4:	eb16027f 	cmp	x19, x22
   82ba8:	54ffff61 	b.ne	82b94 <NumStr+0x144>  // b.any
   82bac:	0b1802f7 	add	w23, w23, w24
   82bb0:	528005c0 	mov	w0, #0x2e                  	// #46
   82bb4:	d63f0280 	blr	x20
   82bb8:	110006f6 	add	w22, w23, #0x1
   82bbc:	6b1a031f 	cmp	w24, w26
   82bc0:	540001c2 	b.cs	82bf8 <NumStr+0x1a8>  // b.hs, b.nlast
   82bc4:	51000753 	sub	w19, w26, #0x1
   82bc8:	92401f01 	and	x1, x24, #0xff
   82bcc:	4b180273 	sub	w19, w19, w24
   82bd0:	910006a0 	add	x0, x21, #0x1
   82bd4:	8b010273 	add	x19, x19, x1
   82bd8:	8b0102b5 	add	x21, x21, x1
   82bdc:	8b000273 	add	x19, x19, x0
   82be0:	384016a0 	ldrb	w0, [x21], #1
   82be4:	d63f0280 	blr	x20
   82be8:	eb15027f 	cmp	x19, x21
   82bec:	54ffffa1 	b.ne	82be0 <NumStr+0x190>  // b.any
   82bf0:	4b180340 	sub	w0, w26, w24
   82bf4:	0b0002d6 	add	w22, w22, w0
   82bf8:	52800000 	mov	w0, #0x0                   	// #0
   82bfc:	d63f0280 	blr	x20
   82c00:	2a1603e0 	mov	w0, w22
   82c04:	fd402fea 	ldr	d10, [sp, #88]
   82c08:	a9415bf5 	ldp	x21, x22, [sp, #16]
   82c0c:	a94263f7 	ldp	x23, x24, [sp, #32]
   82c10:	a9436bf9 	ldp	x25, x26, [sp, #48]
   82c14:	a94473fb 	ldp	x27, x28, [sp, #64]
   82c18:	f9402bfe 	ldr	x30, [sp, #80]
   82c1c:	6d4627e8 	ldp	d8, d9, [sp, #96]
   82c20:	a8d853f3 	ldp	x19, x20, [sp], #384
   82c24:	d65f03c0 	ret
   82c28:	1e602018 	fcmpe	d0, #0.0
   82c2c:	5400012d 	b.le	82c50 <NumStr+0x200>
   82c30:	1e649003 	fmov	d3, #1.000000000000000000e+01
   82c34:	1e6e1002 	fmov	d2, #1.000000000000000000e+00
   82c38:	52800017 	mov	w23, #0x0                   	// #0
   82c3c:	1e630801 	fmul	d1, d0, d3
   82c40:	1e622030 	fcmpe	d1, d2
   82c44:	fd003fe1 	str	d1, [sp, #120]
   82c48:	54000144 	b.mi	82c70 <NumStr+0x220>  // b.first
   82c4c:	d503201f 	nop
   82c50:	910203f5 	add	x21, sp, #0x80
   82c54:	331202dc 	bfi	w28, w22, #14, #1
   82c58:	aa1503f3 	mov	x19, x21
   82c5c:	9101fab7 	add	x23, x21, #0x7e
   82c60:	5280001b 	mov	w27, #0x0                   	// #0
   82c64:	52800018 	mov	w24, #0x0                   	// #0
   82c68:	14000019 	b	82ccc <NumStr+0x27c>
   82c6c:	1e604001 	fmov	d1, d0
   82c70:	1e630820 	fmul	d0, d1, d3
   82c74:	510006f7 	sub	w23, w23, #0x1
   82c78:	1e622010 	fcmpe	d0, d2
   82c7c:	54ffff84 	b.mi	82c6c <NumStr+0x21c>  // b.first
   82c80:	910203f5 	add	x21, sp, #0x80
   82c84:	12001af8 	and	w24, w23, #0x7f
   82c88:	5280001c 	mov	w28, #0x0                   	// #0
   82c8c:	fd003fe0 	str	d0, [sp, #120]
   82c90:	1e604028 	fmov	d8, d1
   82c94:	aa1503f3 	mov	x19, x21
   82c98:	5280001b 	mov	w27, #0x0                   	// #0
   82c9c:	12001f18 	and	w24, w24, #0xff
   82ca0:	331202dc 	bfi	w28, w22, #14, #1
   82ca4:	367ff51c 	tbz	w28, #15, 82b44 <NumStr+0xf4>
   82ca8:	910202a0 	add	x0, x21, #0x80
   82cac:	9101faa1 	add	x1, x21, #0x7e
   82cb0:	eb00027f 	cmp	x19, x0
   82cb4:	aa0103f7 	mov	x23, x1
   82cb8:	1a9f27e0 	cset	w0, cc  // cc = lo, ul, last
   82cbc:	eb01027f 	cmp	x19, x1
   82cc0:	1a9f87e1 	cset	w1, ls  // ls = plast
   82cc4:	0a010000 	and	w0, w0, w1
   82cc8:	340006a0 	cbz	w0, 82d9c <NumStr+0x34c>
   82ccc:	d2e79600 	mov	x0, #0x3cb0000000000000    	// #4372995238176751616
   82cd0:	9e670009 	fmov	d9, x0
   82cd4:	12001a79 	and	w25, w19, #0x7f
   82cd8:	910202b6 	add	x22, x21, #0x80
   82cdc:	1e692110 	fcmpe	d8, d9
   82ce0:	1e64900a 	fmov	d10, #1.000000000000000000e+01
   82ce4:	5400008c 	b.gt	82cf4 <NumStr+0x2a4>
   82ce8:	1400002d 	b	82d9c <NumStr+0x34c>
   82cec:	1e692110 	fcmpe	d8, d9
   82cf0:	540001ed 	b.le	82d2c <NumStr+0x2dc>
   82cf4:	1e6a0900 	fmul	d0, d8, d10
   82cf8:	9101e3e0 	add	x0, sp, #0x78
   82cfc:	940028cb 	bl	8d028 <modf>
   82d00:	1e604008 	fmov	d8, d0
   82d04:	fd403fe0 	ldr	d0, [sp, #120]
   82d08:	1e780000 	fcvtzs	w0, d0
   82d0c:	1100c000 	add	w0, w0, #0x30
   82d10:	38001660 	strb	w0, [x19], #1
   82d14:	0b130360 	add	w0, w27, w19
   82d18:	eb17027f 	cmp	x19, x23
   82d1c:	4b190000 	sub	w0, w0, w25
   82d20:	fa5392c0 	ccmp	x22, x19, #0x0, ls  // ls = plast
   82d24:	1200181a 	and	w26, w0, #0x7f
   82d28:	54fffe28 	b.hi	82cec <NumStr+0x29c>  // b.pmore
   82d2c:	3900027f 	strb	wzr, [x19]
   82d30:	33191b1c 	bfi	w28, w24, #7, #7
   82d34:	3777f19c 	tbnz	w28, #14, 82b64 <NumStr+0x114>
   82d38:	52800036 	mov	w22, #0x1                   	// #1
   82d3c:	52800017 	mov	w23, #0x0                   	// #0
   82d40:	72191b9f 	tst	w28, #0x3f80
   82d44:	54fff1c1 	b.ne	82b7c <NumStr+0x12c>  // b.any
   82d48:	52800600 	mov	w0, #0x30                  	// #48
   82d4c:	d63f0280 	blr	x20
   82d50:	17ffffaa 	b	82bf8 <NumStr+0x1a8>
   82d54:	1e614000 	fneg	d0, d0
   82d58:	9101c3e0 	add	x0, sp, #0x70
   82d5c:	52800036 	mov	w22, #0x1                   	// #1
   82d60:	940028b2 	bl	8d028 <modf>
   82d64:	1e604008 	fmov	d8, d0
   82d68:	fd403be2 	ldr	d2, [sp, #112]
   82d6c:	1e602048 	fcmp	d2, #0.0
   82d70:	54fff5c0 	b.eq	82c28 <NumStr+0x1d8>  // b.none
   82d74:	17ffff4b 	b	82aa0 <NumStr+0x50>
   82d78:	52800000 	mov	w0, #0x0                   	// #0
   82d7c:	d65f03c0 	ret
   82d80:	eb1302ff 	cmp	x23, x19
   82d84:	910202a1 	add	x1, x21, #0x80
   82d88:	1a9f37e0 	cset	w0, cs  // cs = hs, nlast
   82d8c:	eb01027f 	cmp	x19, x1
   82d90:	1a9f27e1 	cset	w1, cc  // cc = lo, ul, last
   82d94:	0a010000 	and	w0, w0, w1
   82d98:	17ffffcc 	b	82cc8 <NumStr+0x278>
   82d9c:	2a1b03fa 	mov	w26, w27
   82da0:	3900027f 	strb	wzr, [x19]
   82da4:	17ffffe3 	b	82d30 <NumStr+0x2e0>
   82da8:	aa1503f3 	mov	x19, x21
   82dac:	17ffff62 	b	82b34 <NumStr+0xe4>

0000000000082db0 <Process_Out>:
   82db0:	f100003f 	cmp	x1, #0x0
   82db4:	fa401844 	ccmp	x2, #0x0, #0x4, ne  // ne = any
   82db8:	fa401804 	ccmp	x0, #0x0, #0x4, ne  // ne = any
   82dbc:	54000061 	b.ne	82dc8 <Process_Out+0x18>  // b.any
   82dc0:	d2800000 	mov	x0, #0x0                   	// #0
   82dc4:	d65f03c0 	ret
   82dc8:	a9b653f3 	stp	x19, x20, [sp, #-160]!
   82dcc:	a9015bf5 	stp	x21, x22, [sp, #16]
   82dd0:	aa0003f6 	mov	x22, x0
   82dd4:	f9002bfe 	str	x30, [sp, #80]
   82dd8:	39400020 	ldrb	w0, [x1]
   82ddc:	34004be0 	cbz	w0, 83758 <Process_Out+0x9a8>
   82de0:	aa0103f3 	mov	x19, x1
   82de4:	aa0203f4 	mov	x20, x2
   82de8:	f9400061 	ldr	x1, [x3]
   82dec:	f9003be1 	str	x1, [sp, #112]
   82df0:	d1000441 	sub	x1, x2, #0x1
   82df4:	f90043e1 	str	x1, [sp, #128]
   82df8:	f9400461 	ldr	x1, [x3, #8]
   82dfc:	f90047e1 	str	x1, [sp, #136]
   82e00:	f9400861 	ldr	x1, [x3, #16]
   82e04:	f9004fe1 	str	x1, [sp, #152]
   82e08:	b9401861 	ldr	w1, [x3, #24]
   82e0c:	52800015 	mov	w21, #0x0                   	// #0
   82e10:	b9007be1 	str	w1, [sp, #120]
   82e14:	b9401c61 	ldr	w1, [x3, #28]
   82e18:	a90263f7 	stp	x23, x24, [sp, #32]
   82e1c:	a9036bf9 	stp	x25, x26, [sp, #48]
   82e20:	a90473fb 	stp	x27, x28, [sp, #64]
   82e24:	d280001c 	mov	x28, #0x0                   	// #0
   82e28:	b90097e1 	str	w1, [sp, #148]
   82e2c:	1400000a 	b	82e54 <Process_Out+0xa4>
   82e30:	110006b5 	add	w21, w21, #0x1
   82e34:	aa1b03fc 	mov	x28, x27
   82e38:	d63f02c0 	blr	x22
   82e3c:	387c6a60 	ldrb	w0, [x19, x28]
   82e40:	eb1c029f 	cmp	x20, x28
   82e44:	1a9f97e1 	cset	w1, hi  // hi = pmore
   82e48:	7100001f 	cmp	w0, #0x0
   82e4c:	1a9f1021 	csel	w1, w1, wzr, ne  // ne = any
   82e50:	34000361 	cbz	w1, 82ebc <Process_Out+0x10c>
   82e54:	7100941f 	cmp	w0, #0x25
   82e58:	9100079b 	add	x27, x28, #0x1
   82e5c:	54fffea1 	b.ne	82e30 <Process_Out+0x80>  // b.any
   82e60:	b90063ff 	str	wzr, [sp, #96]
   82e64:	5280001a 	mov	w26, #0x0                   	// #0
   82e68:	b9006bff 	str	wzr, [sp, #104]
   82e6c:	52800018 	mov	w24, #0x0                   	// #0
   82e70:	b9007fff 	str	wzr, [sp, #124]
   82e74:	52800017 	mov	w23, #0x0                   	// #0
   82e78:	eb1b029f 	cmp	x20, x27
   82e7c:	aa1b03f9 	mov	x25, x27
   82e80:	540001e9 	b.ls	82ebc <Process_Out+0x10c>  // b.plast
   82e84:	387b6a60 	ldrb	w0, [x19, x27]
   82e88:	7100ac1f 	cmp	w0, #0x2b
   82e8c:	54000400 	b.eq	82f0c <Process_Out+0x15c>  // b.none
   82e90:	54000268 	b.hi	82edc <Process_Out+0x12c>  // b.pmore
   82e94:	7100801f 	cmp	w0, #0x20
   82e98:	540002e0 	b.eq	82ef4 <Process_Out+0x144>  // b.none
   82e9c:	71008c1f 	cmp	w0, #0x23
   82ea0:	540003c1 	b.ne	82f18 <Process_Out+0x168>  // b.any
   82ea4:	52800038 	mov	w24, #0x1                   	// #1
   82ea8:	aa1b03fc 	mov	x28, x27
   82eac:	9100077b 	add	x27, x27, #0x1
   82eb0:	eb1b029f 	cmp	x20, x27
   82eb4:	aa1b03f9 	mov	x25, x27
   82eb8:	54fffe68 	b.hi	82e84 <Process_Out+0xd4>  // b.pmore
   82ebc:	a94263f7 	ldp	x23, x24, [sp, #32]
   82ec0:	93407ea0 	sxtw	x0, w21
   82ec4:	a9436bf9 	ldp	x25, x26, [sp, #48]
   82ec8:	a94473fb 	ldp	x27, x28, [sp, #64]
   82ecc:	a9415bf5 	ldp	x21, x22, [sp, #16]
   82ed0:	f9402bfe 	ldr	x30, [sp, #80]
   82ed4:	a8ca53f3 	ldp	x19, x20, [sp], #160
   82ed8:	d65f03c0 	ret
   82edc:	7100b41f 	cmp	w0, #0x2d
   82ee0:	54000100 	b.eq	82f00 <Process_Out+0x150>  // b.none
   82ee4:	7100c01f 	cmp	w0, #0x30
   82ee8:	54000181 	b.ne	82f18 <Process_Out+0x168>  // b.any
   82eec:	52800037 	mov	w23, #0x1                   	// #1
   82ef0:	17ffffee 	b	82ea8 <Process_Out+0xf8>
   82ef4:	52800020 	mov	w0, #0x1                   	// #1
   82ef8:	b9006be0 	str	w0, [sp, #104]
   82efc:	17ffffeb 	b	82ea8 <Process_Out+0xf8>
   82f00:	52800020 	mov	w0, #0x1                   	// #1
   82f04:	b90063e0 	str	w0, [sp, #96]
   82f08:	17ffffe8 	b	82ea8 <Process_Out+0xf8>
   82f0c:	52800020 	mov	w0, #0x1                   	// #1
   82f10:	b9007fe0 	str	w0, [sp, #124]
   82f14:	17ffffe5 	b	82ea8 <Process_Out+0xf8>
   82f18:	1280001b 	mov	w27, #0xffffffff            	// #-1
   82f1c:	7100a81f 	cmp	w0, #0x2a
   82f20:	540009a1 	b.ne	83054 <Process_Out+0x2a4>  // b.any
   82f24:	91000b99 	add	x25, x28, #0x2
   82f28:	eb19029f 	cmp	x20, x25
   82f2c:	54fffc89 	b.ls	82ebc <Process_Out+0x10c>  // b.plast
   82f30:	b9407be0 	ldr	w0, [sp, #120]
   82f34:	37f80a20 	tbnz	w0, #31, 83078 <Process_Out+0x2c8>
   82f38:	f9403be0 	ldr	x0, [sp, #112]
   82f3c:	91002c08 	add	x8, x0, #0xb
   82f40:	927df108 	and	x8, x8, #0xfffffffffffffff8
   82f44:	b9400000 	ldr	w0, [x0]
   82f48:	91000f9c 	add	x28, x28, #0x3
   82f4c:	38796a61 	ldrb	w1, [x19, x25]
   82f50:	13001c1b 	sxtb	w27, w0
   82f54:	36f800bb 	tbz	w27, #31, 82f68 <Process_Out+0x1b8>
   82f58:	4b0003e0 	neg	w0, w0
   82f5c:	52800022 	mov	w2, #0x1                   	// #1
   82f60:	b90063e2 	str	w2, [sp, #96]
   82f64:	13001c1b 	sxtb	w27, w0
   82f68:	7100b83f 	cmp	w1, #0x2e
   82f6c:	12800006 	mov	w6, #0xffffffff            	// #-1
   82f70:	540019c0 	b.eq	832a8 <Process_Out+0x4f8>  // b.none
   82f74:	121d7820 	and	w0, w1, #0xfffffffb
   82f78:	7101a01f 	cmp	w0, #0x68
   82f7c:	54000ec1 	b.ne	83154 <Process_Out+0x3a4>  // b.any
   82f80:	f94043e0 	ldr	x0, [sp, #128]
   82f84:	52800009 	mov	w9, #0x0                   	// #0
   82f88:	eb19001f 	cmp	x0, x25
   82f8c:	2a0103f9 	mov	w25, w1
   82f90:	540000c9 	b.ls	82fa8 <Process_Out+0x1f8>  // b.plast
   82f94:	387c6a60 	ldrb	w0, [x19, x28]
   82f98:	52800009 	mov	w9, #0x0                   	// #0
   82f9c:	6b01001f 	cmp	w0, w1
   82fa0:	54001f60 	b.eq	8338c <Process_Out+0x5dc>  // b.none
   82fa4:	d503201f 	nop
   82fa8:	eb14039f 	cmp	x28, x20
   82fac:	54fff882 	b.cs	82ebc <Process_Out+0x10c>  // b.hs, b.nlast
   82fb0:	387c6a60 	ldrb	w0, [x19, x28]
   82fb4:	9100079c 	add	x28, x28, #0x1
   82fb8:	7101901f 	cmp	w0, #0x64
   82fbc:	54003e40 	b.eq	83784 <Process_Out+0x9d4>  // b.none
   82fc0:	54000709 	b.ls	830a0 <Process_Out+0x2f0>  // b.plast
   82fc4:	7101b81f 	cmp	w0, #0x6e
   82fc8:	540038c0 	b.eq	836e0 <Process_Out+0x930>  // b.none
   82fcc:	54000849 	b.ls	830d4 <Process_Out+0x324>  // b.plast
   82fd0:	7101c01f 	cmp	w0, #0x70
   82fd4:	540030c0 	b.eq	835ec <Process_Out+0x83c>  // b.none
   82fd8:	54001c03 	b.cc	83358 <Process_Out+0x5a8>  // b.lo, b.ul, b.last
   82fdc:	7101cc1f 	cmp	w0, #0x73
   82fe0:	54002ac0 	b.eq	83538 <Process_Out+0x788>  // b.none
   82fe4:	7101e01f 	cmp	w0, #0x78
   82fe8:	52800207 	mov	w7, #0x10                  	// #16
   82fec:	1a9f17ea 	cset	w10, eq  // eq = none
   82ff0:	52800145 	mov	w5, #0xa                   	// #10
   82ff4:	1a8500e5 	csel	w5, w7, w5, eq  // eq = none
   82ff8:	52800007 	mov	w7, #0x0                   	// #0
   82ffc:	7101b03f 	cmp	w1, #0x6c
   83000:	54003480 	b.eq	83690 <Process_Out+0x8e0>  // b.none
   83004:	5400110c 	b.gt	83224 <Process_Out+0x474>
   83008:	7101a03f 	cmp	w1, #0x68
   8300c:	54003180 	b.eq	8363c <Process_Out+0x88c>  // b.none
   83010:	7101a83f 	cmp	w1, #0x6a
   83014:	54000d61 	b.ne	831c0 <Process_Out+0x410>  // b.any
   83018:	b9407be0 	ldr	w0, [sp, #120]
   8301c:	37f81d40 	tbnz	w0, #31, 833c4 <Process_Out+0x614>
   83020:	91003d19 	add	x25, x8, #0xf
   83024:	927df320 	and	x0, x25, #0xfffffffffffffff8
   83028:	f9003be0 	str	x0, [sp, #112]
   8302c:	1400006a 	b	831d4 <Process_Out+0x424>
   83030:	7100037f 	cmp	w27, #0x0
   83034:	aa1c03f9 	mov	x25, x28
   83038:	1a9fa360 	csel	w0, w27, wzr, ge  // ge = tcont
   8303c:	eb1c029f 	cmp	x20, x28
   83040:	531e1403 	ubfiz	w3, w0, #2, #6
   83044:	0b000063 	add	w3, w3, w0
   83048:	0b0304c3 	add	w3, w6, w3, lsl #1
   8304c:	13001c7b 	sxtb	w27, w3
   83050:	54fff369 	b.ls	82ebc <Process_Out+0x10c>  // b.plast
   83054:	9400278d 	bl	8ce88 <__locale_ctype_ptr>
   83058:	9100073c 	add	x28, x25, #0x1
   8305c:	38796a61 	ldrb	w1, [x19, x25]
   83060:	5100c026 	sub	w6, w1, #0x30
   83064:	8b210000 	add	x0, x0, w1, uxtb
   83068:	39400400 	ldrb	w0, [x0, #1]
   8306c:	3717fe20 	tbnz	w0, #2, 83030 <Process_Out+0x280>
   83070:	f9403be8 	ldr	x8, [sp, #112]
   83074:	17ffffbd 	b	82f68 <Process_Out+0x1b8>
   83078:	b9407be0 	ldr	w0, [sp, #120]
   8307c:	11002000 	add	w0, w0, #0x8
   83080:	7100001f 	cmp	w0, #0x0
   83084:	54001cad 	b.le	83418 <Process_Out+0x668>
   83088:	f9403be1 	ldr	x1, [sp, #112]
   8308c:	b9007be0 	str	w0, [sp, #120]
   83090:	91002c28 	add	x8, x1, #0xb
   83094:	aa0103e0 	mov	x0, x1
   83098:	927df108 	and	x8, x8, #0xfffffffffffffff8
   8309c:	17ffffaa 	b	82f44 <Process_Out+0x194>
   830a0:	71011c1f 	cmp	w0, #0x47
   830a4:	54000269 	b.ls	830f0 <Process_Out+0x340>  // b.plast
   830a8:	7101841f 	cmp	w0, #0x61
   830ac:	54000380 	b.eq	8311c <Process_Out+0x36c>  // b.none
   830b0:	71018c1f 	cmp	w0, #0x63
   830b4:	54002020 	b.eq	834b8 <Process_Out+0x708>  // b.none
   830b8:	7101601f 	cmp	w0, #0x58
   830bc:	52800205 	mov	w5, #0x10                  	// #16
   830c0:	52800140 	mov	w0, #0xa                   	// #10
   830c4:	5280000a 	mov	w10, #0x0                   	// #0
   830c8:	1a8000a5 	csel	w5, w5, w0, eq  // eq = none
   830cc:	52800007 	mov	w7, #0x0                   	// #0
   830d0:	17ffffcb 	b	82ffc <Process_Out+0x24c>
   830d4:	71019c1f 	cmp	w0, #0x67
   830d8:	54000229 	b.ls	8311c <Process_Out+0x36c>  // b.plast
   830dc:	7101a41f 	cmp	w0, #0x69
   830e0:	52800145 	mov	w5, #0xa                   	// #10
   830e4:	1a9f17e7 	cset	w7, eq  // eq = none
   830e8:	5280000a 	mov	w10, #0x0                   	// #0
   830ec:	17ffffc4 	b	82ffc <Process_Out+0x24c>
   830f0:	7101141f 	cmp	w0, #0x45
   830f4:	54000142 	b.cs	8311c <Process_Out+0x36c>  // b.hs, b.nlast
   830f8:	7100941f 	cmp	w0, #0x25
   830fc:	540000c1 	b.ne	83114 <Process_Out+0x364>  // b.any
   83100:	f9003be8 	str	x8, [sp, #112]
   83104:	110006b5 	add	w21, w21, #0x1
   83108:	528004a0 	mov	w0, #0x25                  	// #37
   8310c:	d63f02c0 	blr	x22
   83110:	17ffff4b 	b	82e3c <Process_Out+0x8c>
   83114:	7101041f 	cmp	w0, #0x41
   83118:	54000c01 	b.ne	83298 <Process_Out+0x4e8>  // b.any
   8311c:	7101303f 	cmp	w1, #0x4c
   83120:	54001640 	b.eq	833e8 <Process_Out+0x638>  // b.none
   83124:	b94097e0 	ldr	w0, [sp, #148]
   83128:	37f83fc0 	tbnz	w0, #31, 83920 <Process_Out+0xb70>
   8312c:	91003d19 	add	x25, x8, #0xf
   83130:	927df320 	and	x0, x25, #0xfffffffffffffff8
   83134:	f9003be0 	str	x0, [sp, #112]
   83138:	fd400100 	ldr	d0, [x8]
   8313c:	aa1603e0 	mov	x0, x22
   83140:	1e624000 	fcvt	s0, d0
   83144:	1e22c000 	fcvt	d0, s0
   83148:	97fffe42 	bl	82a50 <NumStr>
   8314c:	0b0002b5 	add	w21, w21, w0
   83150:	17ffff3b 	b	82e3c <Process_Out+0x8c>
   83154:	7101d03f 	cmp	w1, #0x74
   83158:	52800985 	mov	w5, #0x4c                  	// #76
   8315c:	121b7820 	and	w0, w1, #0xffffffef
   83160:	7a451024 	ccmp	w1, w5, #0x4, ne  // ne = any
   83164:	2a0103f9 	mov	w25, w1
   83168:	52800d45 	mov	w5, #0x6a                  	// #106
   8316c:	52800009 	mov	w9, #0x0                   	// #0
   83170:	7a451004 	ccmp	w0, w5, #0x4, ne  // ne = any
   83174:	54fff1a0 	b.eq	82fa8 <Process_Out+0x1f8>  // b.none
   83178:	7101903f 	cmp	w1, #0x64
   8317c:	540051a0 	b.eq	83bb0 <Process_Out+0xe00>  // b.none
   83180:	540016a9 	b.ls	83454 <Process_Out+0x6a4>  // b.plast
   83184:	7101b83f 	cmp	w1, #0x6e
   83188:	54002be0 	b.eq	83704 <Process_Out+0x954>  // b.none
   8318c:	54001569 	b.ls	83438 <Process_Out+0x688>  // b.plast
   83190:	7101c03f 	cmp	w1, #0x70
   83194:	540022c0 	b.eq	835ec <Process_Out+0x83c>  // b.none
   83198:	54003603 	b.cc	83858 <Process_Out+0xaa8>  // b.lo, b.ul, b.last
   8319c:	7101cc3f 	cmp	w1, #0x73
   831a0:	54001cc0 	b.eq	83538 <Process_Out+0x788>  // b.none
   831a4:	7101e03f 	cmp	w1, #0x78
   831a8:	52800205 	mov	w5, #0x10                  	// #16
   831ac:	52800140 	mov	w0, #0xa                   	// #10
   831b0:	1a9f17ea 	cset	w10, eq  // eq = none
   831b4:	1a8000a5 	csel	w5, w5, w0, eq  // eq = none
   831b8:	52800007 	mov	w7, #0x0                   	// #0
   831bc:	d503201f 	nop
   831c0:	b9407be0 	ldr	w0, [sp, #120]
   831c4:	37f83380 	tbnz	w0, #31, 83834 <Process_Out+0xa84>
   831c8:	91002d19 	add	x25, x8, #0xb
   831cc:	927df320 	and	x0, x25, #0xfffffffffffffff8
   831d0:	f9003be0 	str	x0, [sp, #112]
   831d4:	330002fa 	bfxil	w26, w23, #0, #1
   831d8:	b9407fe2 	ldr	w2, [sp, #124]
   831dc:	b9400101 	ldr	w1, [x8]
   831e0:	aa1603e0 	mov	x0, x22
   831e4:	331f00fa 	bfi	w26, w7, #1, #1
   831e8:	331e005a 	bfi	w26, w2, #2, #1
   831ec:	b9406be2 	ldr	w2, [sp, #104]
   831f0:	331d005a 	bfi	w26, w2, #3, #1
   831f4:	b94063e2 	ldr	w2, [sp, #96]
   831f8:	331c005a 	bfi	w26, w2, #4, #1
   831fc:	331b015a 	bfi	w26, w10, #5, #1
   83200:	331a031a 	bfi	w26, w24, #6, #1
   83204:	3319013a 	bfi	w26, w9, #7, #1
   83208:	331810ba 	bfi	w26, w5, #8, #5
   8320c:	33101f7a 	bfi	w26, w27, #16, #8
   83210:	33081cda 	bfi	w26, w6, #24, #8
   83214:	2a1a03e2 	mov	w2, w26
   83218:	97fffc7a 	bl	82400 <cvt_int>
   8321c:	0b0002b5 	add	w21, w21, w0
   83220:	17ffff07 	b	82e3c <Process_Out+0x8c>
   83224:	7101d03f 	cmp	w1, #0x74
   83228:	54000060 	b.eq	83234 <Process_Out+0x484>  // b.none
   8322c:	7101e83f 	cmp	w1, #0x7a
   83230:	54fffc81 	b.ne	831c0 <Process_Out+0x410>  // b.any
   83234:	b9407be0 	ldr	w0, [sp, #120]
   83238:	37f80b40 	tbnz	w0, #31, 833a0 <Process_Out+0x5f0>
   8323c:	91003d19 	add	x25, x8, #0xf
   83240:	927df320 	and	x0, x25, #0xfffffffffffffff8
   83244:	f9003be0 	str	x0, [sp, #112]
   83248:	330002fa 	bfxil	w26, w23, #0, #1
   8324c:	b9407fe2 	ldr	w2, [sp, #124]
   83250:	f9400101 	ldr	x1, [x8]
   83254:	331f00fa 	bfi	w26, w7, #1, #1
   83258:	aa1603e0 	mov	x0, x22
   8325c:	331e005a 	bfi	w26, w2, #2, #1
   83260:	b9406be2 	ldr	w2, [sp, #104]
   83264:	331d005a 	bfi	w26, w2, #3, #1
   83268:	b94063e2 	ldr	w2, [sp, #96]
   8326c:	331c005a 	bfi	w26, w2, #4, #1
   83270:	331b015a 	bfi	w26, w10, #5, #1
   83274:	331a031a 	bfi	w26, w24, #6, #1
   83278:	3319013a 	bfi	w26, w9, #7, #1
   8327c:	331810ba 	bfi	w26, w5, #8, #5
   83280:	33101f7a 	bfi	w26, w27, #16, #8
   83284:	33081cda 	bfi	w26, w6, #24, #8
   83288:	2a1a03e2 	mov	w2, w26
   8328c:	97fffd2f 	bl	82748 <number>
   83290:	0b0002b5 	add	w21, w21, w0
   83294:	17fffeea 	b	82e3c <Process_Out+0x8c>
   83298:	52800145 	mov	w5, #0xa                   	// #10
   8329c:	5280000a 	mov	w10, #0x0                   	// #0
   832a0:	52800007 	mov	w7, #0x0                   	// #0
   832a4:	17ffff56 	b	82ffc <Process_Out+0x24c>
   832a8:	eb1c029f 	cmp	x20, x28
   832ac:	54ffe089 	b.ls	82ebc <Process_Out+0x10c>  // b.plast
   832b0:	387c6a60 	ldrb	w0, [x19, x28]
   832b4:	7100a81f 	cmp	w0, #0x2a
   832b8:	54000341 	b.ne	83320 <Process_Out+0x570>  // b.any
   832bc:	91000b26 	add	x6, x25, #0x2
   832c0:	eb06029f 	cmp	x20, x6
   832c4:	54ffdfc9 	b.ls	82ebc <Process_Out+0x10c>  // b.plast
   832c8:	b9407be0 	ldr	w0, [sp, #120]
   832cc:	37f804e0 	tbnz	w0, #31, 83368 <Process_Out+0x5b8>
   832d0:	91002d01 	add	x1, x8, #0xb
   832d4:	aa0803e0 	mov	x0, x8
   832d8:	927df028 	and	x8, x1, #0xfffffffffffffff8
   832dc:	b9400000 	ldr	w0, [x0]
   832e0:	91000f3c 	add	x28, x25, #0x3
   832e4:	38666a61 	ldrb	w1, [x19, x6]
   832e8:	aa0603f9 	mov	x25, x6
   832ec:	f279001f 	tst	x0, #0x80
   832f0:	1a9f0000 	csel	w0, w0, wzr, eq  // eq = none
   832f4:	13001c06 	sxtb	w6, w0
   832f8:	17ffff1f 	b	82f74 <Process_Out+0x1c4>
   832fc:	710000df 	cmp	w6, #0x0
   83300:	aa0703fc 	mov	x28, x7
   83304:	1a9fa0c0 	csel	w0, w6, wzr, ge  // ge = tcont
   83308:	eb07029f 	cmp	x20, x7
   8330c:	531e1406 	ubfiz	w6, w0, #2, #6
   83310:	0b0000c6 	add	w6, w6, w0
   83314:	0b0604a6 	add	w6, w5, w6, lsl #1
   83318:	13001cc6 	sxtb	w6, w6
   8331c:	54ffdd00 	b.eq	82ebc <Process_Out+0x10c>  // b.none
   83320:	f9003be8 	str	x8, [sp, #112]
   83324:	b90093e6 	str	w6, [sp, #144]
   83328:	940026d8 	bl	8ce88 <__locale_ctype_ptr>
   8332c:	387c6a61 	ldrb	w1, [x19, x28]
   83330:	91000787 	add	x7, x28, #0x1
   83334:	b94093e6 	ldr	w6, [sp, #144]
   83338:	5100c025 	sub	w5, w1, #0x30
   8333c:	8b210000 	add	x0, x0, w1, uxtb
   83340:	f9403be8 	ldr	x8, [sp, #112]
   83344:	39400400 	ldrb	w0, [x0, #1]
   83348:	3717fda0 	tbnz	w0, #2, 832fc <Process_Out+0x54c>
   8334c:	aa1c03f9 	mov	x25, x28
   83350:	aa0703fc 	mov	x28, x7
   83354:	17ffff08 	b	82f74 <Process_Out+0x1c4>
   83358:	52800105 	mov	w5, #0x8                   	// #8
   8335c:	5280000a 	mov	w10, #0x0                   	// #0
   83360:	52800007 	mov	w7, #0x0                   	// #0
   83364:	17ffff26 	b	82ffc <Process_Out+0x24c>
   83368:	b9407be0 	ldr	w0, [sp, #120]
   8336c:	11002001 	add	w1, w0, #0x8
   83370:	7100003f 	cmp	w1, #0x0
   83374:	5400234d 	b.le	837dc <Process_Out+0xa2c>
   83378:	91002d04 	add	x4, x8, #0xb
   8337c:	aa0803e0 	mov	x0, x8
   83380:	927df088 	and	x8, x4, #0xfffffffffffffff8
   83384:	b9007be1 	str	w1, [sp, #120]
   83388:	17ffffd5 	b	832dc <Process_Out+0x52c>
   8338c:	eb1c029f 	cmp	x20, x28
   83390:	54ffd969 	b.ls	82ebc <Process_Out+0x10c>  // b.plast
   83394:	9100079c 	add	x28, x28, #0x1
   83398:	52800029 	mov	w9, #0x1                   	// #1
   8339c:	17ffff03 	b	82fa8 <Process_Out+0x1f8>
   833a0:	b9407be0 	ldr	w0, [sp, #120]
   833a4:	11002000 	add	w0, w0, #0x8
   833a8:	7100001f 	cmp	w0, #0x0
   833ac:	5400270d 	b.le	8388c <Process_Out+0xadc>
   833b0:	91003d19 	add	x25, x8, #0xf
   833b4:	b9007be0 	str	w0, [sp, #120]
   833b8:	927df320 	and	x0, x25, #0xfffffffffffffff8
   833bc:	f9003be0 	str	x0, [sp, #112]
   833c0:	17ffffa2 	b	83248 <Process_Out+0x498>
   833c4:	b9407be0 	ldr	w0, [sp, #120]
   833c8:	11002000 	add	w0, w0, #0x8
   833cc:	7100001f 	cmp	w0, #0x0
   833d0:	540026cd 	b.le	838a8 <Process_Out+0xaf8>
   833d4:	91003d19 	add	x25, x8, #0xf
   833d8:	b9007be0 	str	w0, [sp, #120]
   833dc:	927df320 	and	x0, x25, #0xfffffffffffffff8
   833e0:	f9003be0 	str	x0, [sp, #112]
   833e4:	17ffff7c 	b	831d4 <Process_Out+0x424>
   833e8:	b94097e0 	ldr	w0, [sp, #148]
   833ec:	37f83600 	tbnz	w0, #31, 83aac <Process_Out+0xcfc>
   833f0:	91003d00 	add	x0, x8, #0xf
   833f4:	927cec00 	and	x0, x0, #0xfffffffffffffff0
   833f8:	91004001 	add	x1, x0, #0x10
   833fc:	f9003be1 	str	x1, [sp, #112]
   83400:	3dc00000 	ldr	q0, [x0]
   83404:	94004281 	bl	93e08 <__trunctfdf2>
   83408:	aa1603e0 	mov	x0, x22
   8340c:	97fffd91 	bl	82a50 <NumStr>
   83410:	0b0002b5 	add	w21, w21, w0
   83414:	17fffe8a 	b	82e3c <Process_Out+0x8c>
   83418:	f94047e2 	ldr	x2, [sp, #136]
   8341c:	b9407be1 	ldr	w1, [sp, #120]
   83420:	b9007be0 	str	w0, [sp, #120]
   83424:	f9403be8 	ldr	x8, [sp, #112]
   83428:	8b21c041 	add	x1, x2, w1, sxtw
   8342c:	aa0103e0 	mov	x0, x1
   83430:	f9003be1 	str	x1, [sp, #112]
   83434:	17fffec4 	b	82f44 <Process_Out+0x194>
   83438:	71019c3f 	cmp	w1, #0x67
   8343c:	54ffe749 	b.ls	83124 <Process_Out+0x374>  // b.plast
   83440:	7101a43f 	cmp	w1, #0x69
   83444:	52800145 	mov	w5, #0xa                   	// #10
   83448:	1a9f17e7 	cset	w7, eq  // eq = none
   8344c:	5280000a 	mov	w10, #0x0                   	// #0
   83450:	17ffff5c 	b	831c0 <Process_Out+0x410>
   83454:	71011c3f 	cmp	w1, #0x47
   83458:	54000189 	b.ls	83488 <Process_Out+0x6d8>  // b.plast
   8345c:	7101843f 	cmp	w1, #0x61
   83460:	54ffe620 	b.eq	83124 <Process_Out+0x374>  // b.none
   83464:	71018c3f 	cmp	w1, #0x63
   83468:	54000240 	b.eq	834b0 <Process_Out+0x700>  // b.none
   8346c:	7101603f 	cmp	w1, #0x58
   83470:	52800205 	mov	w5, #0x10                  	// #16
   83474:	52800140 	mov	w0, #0xa                   	// #10
   83478:	5280000a 	mov	w10, #0x0                   	// #0
   8347c:	1a8000a5 	csel	w5, w5, w0, eq  // eq = none
   83480:	52800007 	mov	w7, #0x0                   	// #0
   83484:	17ffff4f 	b	831c0 <Process_Out+0x410>
   83488:	7101143f 	cmp	w1, #0x45
   8348c:	54ffe4c2 	b.cs	83124 <Process_Out+0x374>  // b.hs, b.nlast
   83490:	7100943f 	cmp	w1, #0x25
   83494:	54ffe360 	b.eq	83100 <Process_Out+0x350>  // b.none
   83498:	7101043f 	cmp	w1, #0x41
   8349c:	54ffe440 	b.eq	83124 <Process_Out+0x374>  // b.none
   834a0:	52800145 	mov	w5, #0xa                   	// #10
   834a4:	5280000a 	mov	w10, #0x0                   	// #0
   834a8:	52800007 	mov	w7, #0x0                   	// #0
   834ac:	17ffff45 	b	831c0 <Process_Out+0x410>
   834b0:	12800019 	mov	w25, #0xffffffff            	// #-1
   834b4:	d503201f 	nop
   834b8:	f94033e0 	ldr	x0, [sp, #96]
   834bc:	f240001f 	tst	x0, #0x1
   834c0:	7a400b64 	ccmp	w27, #0x0, #0x4, eq  // eq = none
   834c4:	5400284c 	b.gt	839cc <Process_Out+0xc1c>
   834c8:	7101b33f 	cmp	w25, #0x6c
   834cc:	b9407be0 	ldr	w0, [sp, #120]
   834d0:	540025e0 	b.eq	8398c <Process_Out+0xbdc>  // b.none
   834d4:	37f81ca0 	tbnz	w0, #31, 83868 <Process_Out+0xab8>
   834d8:	91002d19 	add	x25, x8, #0xb
   834dc:	927df320 	and	x0, x25, #0xfffffffffffffff8
   834e0:	f9003be0 	str	x0, [sp, #112]
   834e4:	39400100 	ldrb	w0, [x8]
   834e8:	110006b5 	add	w21, w21, #0x1
   834ec:	d63f02c0 	blr	x22
   834f0:	7100037f 	cmp	w27, #0x0
   834f4:	54ffca4d 	b.le	82e3c <Process_Out+0x8c>
   834f8:	12001f77 	and	w23, w27, #0xff
   834fc:	510006e0 	sub	w0, w23, #0x1
   83500:	12001c00 	and	w0, w0, #0xff
   83504:	13001c18 	sxtb	w24, w0
   83508:	34ffc9a0 	cbz	w0, 82e3c <Process_Out+0x8c>
   8350c:	d503201f 	nop
   83510:	52800400 	mov	w0, #0x20                  	// #32
   83514:	51000718 	sub	w24, w24, #0x1
   83518:	d63f02c0 	blr	x22
   8351c:	12001f00 	and	w0, w24, #0xff
   83520:	13001c18 	sxtb	w24, w0
   83524:	35ffff60 	cbnz	w0, 83510 <Process_Out+0x760>
   83528:	51000af7 	sub	w23, w23, #0x2
   8352c:	110006b5 	add	w21, w21, #0x1
   83530:	0b3702b5 	add	w21, w21, w23, uxtb
   83534:	17fffe42 	b	82e3c <Process_Out+0x8c>
   83538:	b9407be0 	ldr	w0, [sp, #120]
   8353c:	37f812c0 	tbnz	w0, #31, 83794 <Process_Out+0x9e4>
   83540:	91003d19 	add	x25, x8, #0xf
   83544:	927df320 	and	x0, x25, #0xfffffffffffffff8
   83548:	f9003be0 	str	x0, [sp, #112]
   8354c:	f9400117 	ldr	x23, [x8]
   83550:	93401cc1 	sxtb	x1, w6
   83554:	aa1703e0 	mov	x0, x23
   83558:	94002863 	bl	8d6e4 <strnlen>
   8355c:	2a0003f9 	mov	w25, w0
   83560:	f90037e0 	str	x0, [sp, #104]
   83564:	f94033e0 	ldr	x0, [sp, #96]
   83568:	36001ae0 	tbz	w0, #0, 838c4 <Process_Out+0xb14>
   8356c:	b9406be0 	ldr	w0, [sp, #104]
   83570:	7100001f 	cmp	w0, #0x0
   83574:	54002e8d 	b.le	83b44 <Process_Out+0xd94>
   83578:	110006b5 	add	w21, w21, #0x1
   8357c:	d280001a 	mov	x26, #0x0                   	// #0
   83580:	387a6ae0 	ldrb	w0, [x23, x26]
   83584:	0b1a02b8 	add	w24, w21, w26
   83588:	9100075a 	add	x26, x26, #0x1
   8358c:	d63f02c0 	blr	x22
   83590:	6b1a033f 	cmp	w25, w26
   83594:	54ffff6c 	b.gt	83580 <Process_Out+0x7d0>
   83598:	7100037f 	cmp	w27, #0x0
   8359c:	2a1803f5 	mov	w21, w24
   835a0:	54ffc4ed 	b.le	82e3c <Process_Out+0x8c>
   835a4:	f94037e0 	ldr	x0, [sp, #104]
   835a8:	6b00037f 	cmp	w27, w0
   835ac:	540000ad 	b.le	835c0 <Process_Out+0x810>
   835b0:	4b000377 	sub	w23, w27, w0
   835b4:	13001efb 	sxtb	w27, w23
   835b8:	7100037f 	cmp	w27, #0x0
   835bc:	54ffc40d 	b.le	82e3c <Process_Out+0x8c>
   835c0:	12001f75 	and	w21, w27, #0xff
   835c4:	2a1503f7 	mov	w23, w21
   835c8:	52800400 	mov	w0, #0x20                  	// #32
   835cc:	d63f02c0 	blr	x22
   835d0:	510006e0 	sub	w0, w23, #0x1
   835d4:	72001c17 	ands	w23, w0, #0xff
   835d8:	54ffff81 	b.ne	835c8 <Process_Out+0x818>  // b.any
   835dc:	510006b5 	sub	w21, w21, #0x1
   835e0:	11000718 	add	w24, w24, #0x1
   835e4:	0b358315 	add	w21, w24, w21, sxtb
   835e8:	17fffe15 	b	82e3c <Process_Out+0x8c>
   835ec:	3100077f 	cmn	w27, #0x1
   835f0:	54000061 	b.ne	835fc <Process_Out+0x84c>  // b.any
   835f4:	5280021b 	mov	w27, #0x10                  	// #16
   835f8:	52800037 	mov	w23, #0x1                   	// #1
   835fc:	b9407be0 	ldr	w0, [sp, #120]
   83600:	37f80dc0 	tbnz	w0, #31, 837b8 <Process_Out+0xa08>
   83604:	91003d19 	add	x25, x8, #0xf
   83608:	927df320 	and	x0, x25, #0xfffffffffffffff8
   8360c:	f9003be0 	str	x0, [sp, #112]
   83610:	b9407fe0 	ldr	w0, [sp, #124]
   83614:	330002fa 	bfxil	w26, w23, #0, #1
   83618:	b9406be2 	ldr	w2, [sp, #104]
   8361c:	52800205 	mov	w5, #0x10                  	// #16
   83620:	f9400101 	ldr	x1, [x8]
   83624:	331e001a 	bfi	w26, w0, #2, #1
   83628:	aa1603e0 	mov	x0, x22
   8362c:	331d005a 	bfi	w26, w2, #3, #1
   83630:	b94063e2 	ldr	w2, [sp, #96]
   83634:	331c005a 	bfi	w26, w2, #4, #1
   83638:	17ffff0f 	b	83274 <Process_Out+0x4c4>
   8363c:	330002fa 	bfxil	w26, w23, #0, #1
   83640:	b9407fe0 	ldr	w0, [sp, #124]
   83644:	331f00fa 	bfi	w26, w7, #1, #1
   83648:	331e001a 	bfi	w26, w0, #2, #1
   8364c:	b9406be0 	ldr	w0, [sp, #104]
   83650:	331d001a 	bfi	w26, w0, #3, #1
   83654:	b94063e0 	ldr	w0, [sp, #96]
   83658:	331c001a 	bfi	w26, w0, #4, #1
   8365c:	b9407be0 	ldr	w0, [sp, #120]
   83660:	331b015a 	bfi	w26, w10, #5, #1
   83664:	331a031a 	bfi	w26, w24, #6, #1
   83668:	3319013a 	bfi	w26, w9, #7, #1
   8366c:	37380c3a 	tbnz	w26, #7, 837f0 <Process_Out+0xa40>
   83670:	37f817c0 	tbnz	w0, #31, 83968 <Process_Out+0xbb8>
   83674:	91002d19 	add	x25, x8, #0xb
   83678:	927df320 	and	x0, x25, #0xfffffffffffffff8
   8367c:	f9003be0 	str	x0, [sp, #112]
   83680:	331810ba 	bfi	w26, w5, #8, #5
   83684:	79c00101 	ldrsh	w1, [x8]
   83688:	aa1603e0 	mov	x0, x22
   8368c:	17fffee0 	b	8320c <Process_Out+0x45c>
   83690:	330002fa 	bfxil	w26, w23, #0, #1
   83694:	b9407fe0 	ldr	w0, [sp, #124]
   83698:	331f00fa 	bfi	w26, w7, #1, #1
   8369c:	331e001a 	bfi	w26, w0, #2, #1
   836a0:	b9406be0 	ldr	w0, [sp, #104]
   836a4:	331d001a 	bfi	w26, w0, #3, #1
   836a8:	b94063e0 	ldr	w0, [sp, #96]
   836ac:	331c001a 	bfi	w26, w0, #4, #1
   836b0:	b9407be0 	ldr	w0, [sp, #120]
   836b4:	331b015a 	bfi	w26, w10, #5, #1
   836b8:	331a031a 	bfi	w26, w24, #6, #1
   836bc:	3319013a 	bfi	w26, w9, #7, #1
   836c0:	37f80a80 	tbnz	w0, #31, 83810 <Process_Out+0xa60>
   836c4:	91003d19 	add	x25, x8, #0xf
   836c8:	927df320 	and	x0, x25, #0xfffffffffffffff8
   836cc:	f9003be0 	str	x0, [sp, #112]
   836d0:	331810ba 	bfi	w26, w5, #8, #5
   836d4:	aa1603e0 	mov	x0, x22
   836d8:	f9400101 	ldr	x1, [x8]
   836dc:	17fffee9 	b	83280 <Process_Out+0x4d0>
   836e0:	7101a83f 	cmp	w1, #0x6a
   836e4:	540003e0 	b.eq	83760 <Process_Out+0x9b0>  // b.none
   836e8:	540001ed 	b.le	83724 <Process_Out+0x974>
   836ec:	7101d03f 	cmp	w1, #0x74
   836f0:	54000380 	b.eq	83760 <Process_Out+0x9b0>  // b.none
   836f4:	7101e83f 	cmp	w1, #0x7a
   836f8:	54000340 	b.eq	83760 <Process_Out+0x9b0>  // b.none
   836fc:	7101b03f 	cmp	w1, #0x6c
   83700:	54000300 	b.eq	83760 <Process_Out+0x9b0>  // b.none
   83704:	b9407be0 	ldr	w0, [sp, #120]
   83708:	37f82680 	tbnz	w0, #31, 83bd8 <Process_Out+0xe28>
   8370c:	91003d19 	add	x25, x8, #0xf
   83710:	927df320 	and	x0, x25, #0xfffffffffffffff8
   83714:	f9003be0 	str	x0, [sp, #112]
   83718:	f9400100 	ldr	x0, [x8]
   8371c:	b9000015 	str	w21, [x0]
   83720:	17fffdc7 	b	82e3c <Process_Out+0x8c>
   83724:	7101303f 	cmp	w1, #0x4c
   83728:	54001a40 	b.eq	83a70 <Process_Out+0xcc0>  // b.none
   8372c:	7101a03f 	cmp	w1, #0x68
   83730:	54fffea1 	b.ne	83704 <Process_Out+0x954>  // b.any
   83734:	b9407be0 	ldr	w0, [sp, #120]
   83738:	37002629 	tbnz	w9, #0, 83bfc <Process_Out+0xe4c>
   8373c:	37f826e0 	tbnz	w0, #31, 83c18 <Process_Out+0xe68>
   83740:	91003d19 	add	x25, x8, #0xf
   83744:	927df320 	and	x0, x25, #0xfffffffffffffff8
   83748:	f9003be0 	str	x0, [sp, #112]
   8374c:	f9400100 	ldr	x0, [x8]
   83750:	79000015 	strh	w21, [x0]
   83754:	17fffdba 	b	82e3c <Process_Out+0x8c>
   83758:	d2800000 	mov	x0, #0x0                   	// #0
   8375c:	17fffddc 	b	82ecc <Process_Out+0x11c>
   83760:	b9407be0 	ldr	w0, [sp, #120]
   83764:	37f80f00 	tbnz	w0, #31, 83944 <Process_Out+0xb94>
   83768:	91003d19 	add	x25, x8, #0xf
   8376c:	927df320 	and	x0, x25, #0xfffffffffffffff8
   83770:	f9003be0 	str	x0, [sp, #112]
   83774:	f9400100 	ldr	x0, [x8]
   83778:	93407ea1 	sxtw	x1, w21
   8377c:	f9000001 	str	x1, [x0]
   83780:	17fffdaf 	b	82e3c <Process_Out+0x8c>
   83784:	52800145 	mov	w5, #0xa                   	// #10
   83788:	5280000a 	mov	w10, #0x0                   	// #0
   8378c:	52800027 	mov	w7, #0x1                   	// #1
   83790:	17fffe1b 	b	82ffc <Process_Out+0x24c>
   83794:	b9407be0 	ldr	w0, [sp, #120]
   83798:	11002000 	add	w0, w0, #0x8
   8379c:	7100001f 	cmp	w0, #0x0
   837a0:	5400108d 	b.le	839b0 <Process_Out+0xc00>
   837a4:	91003d19 	add	x25, x8, #0xf
   837a8:	b9007be0 	str	w0, [sp, #120]
   837ac:	927df320 	and	x0, x25, #0xfffffffffffffff8
   837b0:	f9003be0 	str	x0, [sp, #112]
   837b4:	17ffff66 	b	8354c <Process_Out+0x79c>
   837b8:	b9407be0 	ldr	w0, [sp, #120]
   837bc:	11002000 	add	w0, w0, #0x8
   837c0:	7100001f 	cmp	w0, #0x0
   837c4:	5400128d 	b.le	83a14 <Process_Out+0xc64>
   837c8:	91003d19 	add	x25, x8, #0xf
   837cc:	b9007be0 	str	w0, [sp, #120]
   837d0:	927df320 	and	x0, x25, #0xfffffffffffffff8
   837d4:	f9003be0 	str	x0, [sp, #112]
   837d8:	17ffff8e 	b	83610 <Process_Out+0x860>
   837dc:	f94047e2 	ldr	x2, [sp, #136]
   837e0:	b9407be0 	ldr	w0, [sp, #120]
   837e4:	b9007be1 	str	w1, [sp, #120]
   837e8:	8b20c040 	add	x0, x2, w0, sxtw
   837ec:	17fffebc 	b	832dc <Process_Out+0x52c>
   837f0:	37f812e0 	tbnz	w0, #31, 83a4c <Process_Out+0xc9c>
   837f4:	91002d19 	add	x25, x8, #0xb
   837f8:	927df320 	and	x0, x25, #0xfffffffffffffff8
   837fc:	f9003be0 	str	x0, [sp, #112]
   83800:	331810ba 	bfi	w26, w5, #8, #5
   83804:	39c00101 	ldrsb	w1, [x8]
   83808:	aa1603e0 	mov	x0, x22
   8380c:	17fffe80 	b	8320c <Process_Out+0x45c>
   83810:	b9407be0 	ldr	w0, [sp, #120]
   83814:	11002000 	add	w0, w0, #0x8
   83818:	7100001f 	cmp	w0, #0x0
   8381c:	540010ad 	b.le	83a30 <Process_Out+0xc80>
   83820:	91003d19 	add	x25, x8, #0xf
   83824:	b9007be0 	str	w0, [sp, #120]
   83828:	927df320 	and	x0, x25, #0xfffffffffffffff8
   8382c:	f9003be0 	str	x0, [sp, #112]
   83830:	17ffffa8 	b	836d0 <Process_Out+0x920>
   83834:	b9407be0 	ldr	w0, [sp, #120]
   83838:	11002000 	add	w0, w0, #0x8
   8383c:	7100001f 	cmp	w0, #0x0
   83840:	5400034d 	b.le	838a8 <Process_Out+0xaf8>
   83844:	91002d19 	add	x25, x8, #0xb
   83848:	b9007be0 	str	w0, [sp, #120]
   8384c:	927df320 	and	x0, x25, #0xfffffffffffffff8
   83850:	f9003be0 	str	x0, [sp, #112]
   83854:	17fffe60 	b	831d4 <Process_Out+0x424>
   83858:	52800105 	mov	w5, #0x8                   	// #8
   8385c:	5280000a 	mov	w10, #0x0                   	// #0
   83860:	52800007 	mov	w7, #0x0                   	// #0
   83864:	17fffe57 	b	831c0 <Process_Out+0x410>
   83868:	b9407be0 	ldr	w0, [sp, #120]
   8386c:	11002000 	add	w0, w0, #0x8
   83870:	7100001f 	cmp	w0, #0x0
   83874:	5400130d 	b.le	83ad4 <Process_Out+0xd24>
   83878:	91002d19 	add	x25, x8, #0xb
   8387c:	b9007be0 	str	w0, [sp, #120]
   83880:	927df320 	and	x0, x25, #0xfffffffffffffff8
   83884:	f9003be0 	str	x0, [sp, #112]
   83888:	17ffff17 	b	834e4 <Process_Out+0x734>
   8388c:	f94047e2 	ldr	x2, [sp, #136]
   83890:	f9003be8 	str	x8, [sp, #112]
   83894:	b9407be1 	ldr	w1, [sp, #120]
   83898:	b9007be0 	str	w0, [sp, #120]
   8389c:	8b21c041 	add	x1, x2, w1, sxtw
   838a0:	aa0103e8 	mov	x8, x1
   838a4:	17fffe69 	b	83248 <Process_Out+0x498>
   838a8:	f94047e2 	ldr	x2, [sp, #136]
   838ac:	f9003be8 	str	x8, [sp, #112]
   838b0:	b9407be1 	ldr	w1, [sp, #120]
   838b4:	b9007be0 	str	w0, [sp, #120]
   838b8:	8b21c041 	add	x1, x2, w1, sxtw
   838bc:	aa0103e8 	mov	x8, x1
   838c0:	17fffe45 	b	831d4 <Process_Out+0x424>
   838c4:	f94037e0 	ldr	x0, [sp, #104]
   838c8:	6b00037f 	cmp	w27, w0
   838cc:	54000e6d 	b.le	83a98 <Process_Out+0xce8>
   838d0:	4b000363 	sub	w3, w27, w0
   838d4:	13001c7b 	sxtb	w27, w3
   838d8:	7100037f 	cmp	w27, #0x0
   838dc:	540001ad 	b.le	83910 <Process_Out+0xb60>
   838e0:	2a1b03f8 	mov	w24, w27
   838e4:	d503201f 	nop
   838e8:	52800400 	mov	w0, #0x20                  	// #32
   838ec:	51000718 	sub	w24, w24, #0x1
   838f0:	d63f02c0 	blr	x22
   838f4:	12001f00 	and	w0, w24, #0xff
   838f8:	13001c18 	sxtb	w24, w0
   838fc:	35ffff60 	cbnz	w0, 838e8 <Process_Out+0xb38>
   83900:	51000760 	sub	w0, w27, #0x1
   83904:	110006b5 	add	w21, w21, #0x1
   83908:	5280001b 	mov	w27, #0x0                   	// #0
   8390c:	0b2082b5 	add	w21, w21, w0, sxtb
   83910:	b9406be0 	ldr	w0, [sp, #104]
   83914:	7100001f 	cmp	w0, #0x0
   83918:	54ffe30c 	b.gt	83578 <Process_Out+0x7c8>
   8391c:	17fffd48 	b	82e3c <Process_Out+0x8c>
   83920:	b94097e0 	ldr	w0, [sp, #148]
   83924:	11004000 	add	w0, w0, #0x10
   83928:	7100001f 	cmp	w0, #0x0
   8392c:	54000e2d 	b.le	83af0 <Process_Out+0xd40>
   83930:	91003d19 	add	x25, x8, #0xf
   83934:	b90097e0 	str	w0, [sp, #148]
   83938:	927df320 	and	x0, x25, #0xfffffffffffffff8
   8393c:	f9003be0 	str	x0, [sp, #112]
   83940:	17fffdfe 	b	83138 <Process_Out+0x388>
   83944:	b9407be0 	ldr	w0, [sp, #120]
   83948:	11002000 	add	w0, w0, #0x8
   8394c:	7100001f 	cmp	w0, #0x0
   83950:	54000ecd 	b.le	83b28 <Process_Out+0xd78>
   83954:	91003d19 	add	x25, x8, #0xf
   83958:	b9007be0 	str	w0, [sp, #120]
   8395c:	927df320 	and	x0, x25, #0xfffffffffffffff8
   83960:	f9003be0 	str	x0, [sp, #112]
   83964:	17ffff84 	b	83774 <Process_Out+0x9c4>
   83968:	b9407be0 	ldr	w0, [sp, #120]
   8396c:	11002000 	add	w0, w0, #0x8
   83970:	7100001f 	cmp	w0, #0x0
   83974:	54000ccd 	b.le	83b0c <Process_Out+0xd5c>
   83978:	91002d19 	add	x25, x8, #0xb
   8397c:	b9007be0 	str	w0, [sp, #120]
   83980:	927df320 	and	x0, x25, #0xfffffffffffffff8
   83984:	f9003be0 	str	x0, [sp, #112]
   83988:	17ffff3e 	b	83680 <Process_Out+0x8d0>
   8398c:	37f80e00 	tbnz	w0, #31, 83b4c <Process_Out+0xd9c>
   83990:	91002d19 	add	x25, x8, #0xb
   83994:	927df320 	and	x0, x25, #0xfffffffffffffff8
   83998:	f9003be0 	str	x0, [sp, #112]
   8399c:	b9400100 	ldr	w0, [x8]
   839a0:	110006b5 	add	w21, w21, #0x1
   839a4:	94002e67 	bl	8f340 <wctob>
   839a8:	d63f02c0 	blr	x22
   839ac:	17fffed1 	b	834f0 <Process_Out+0x740>
   839b0:	f94047e2 	ldr	x2, [sp, #136]
   839b4:	f9003be8 	str	x8, [sp, #112]
   839b8:	b9407be1 	ldr	w1, [sp, #120]
   839bc:	b9007be0 	str	w0, [sp, #120]
   839c0:	8b21c041 	add	x1, x2, w1, sxtw
   839c4:	aa0103e8 	mov	x8, x1
   839c8:	17fffee1 	b	8354c <Process_Out+0x79c>
   839cc:	12001f77 	and	w23, w27, #0xff
   839d0:	510006e0 	sub	w0, w23, #0x1
   839d4:	12001c00 	and	w0, w0, #0xff
   839d8:	13001c18 	sxtb	w24, w0
   839dc:	340016c0 	cbz	w0, 83cb4 <Process_Out+0xf04>
   839e0:	f90033e8 	str	x8, [sp, #96]
   839e4:	52800400 	mov	w0, #0x20                  	// #32
   839e8:	51000718 	sub	w24, w24, #0x1
   839ec:	d63f02c0 	blr	x22
   839f0:	12001f00 	and	w0, w24, #0xff
   839f4:	f94033e8 	ldr	x8, [sp, #96]
   839f8:	13001c18 	sxtb	w24, w0
   839fc:	35ffff20 	cbnz	w0, 839e0 <Process_Out+0xc30>
   83a00:	51000af7 	sub	w23, w23, #0x2
   83a04:	110006b5 	add	w21, w21, #0x1
   83a08:	5280001b 	mov	w27, #0x0                   	// #0
   83a0c:	0b3702b5 	add	w21, w21, w23, uxtb
   83a10:	17fffeae 	b	834c8 <Process_Out+0x718>
   83a14:	f94047e2 	ldr	x2, [sp, #136]
   83a18:	f9003be8 	str	x8, [sp, #112]
   83a1c:	b9407be1 	ldr	w1, [sp, #120]
   83a20:	b9007be0 	str	w0, [sp, #120]
   83a24:	8b21c041 	add	x1, x2, w1, sxtw
   83a28:	aa0103e8 	mov	x8, x1
   83a2c:	17fffef9 	b	83610 <Process_Out+0x860>
   83a30:	f94047e2 	ldr	x2, [sp, #136]
   83a34:	f9003be8 	str	x8, [sp, #112]
   83a38:	b9407be1 	ldr	w1, [sp, #120]
   83a3c:	b9007be0 	str	w0, [sp, #120]
   83a40:	8b21c041 	add	x1, x2, w1, sxtw
   83a44:	aa0103e8 	mov	x8, x1
   83a48:	17ffff22 	b	836d0 <Process_Out+0x920>
   83a4c:	b9407be0 	ldr	w0, [sp, #120]
   83a50:	11002000 	add	w0, w0, #0x8
   83a54:	7100001f 	cmp	w0, #0x0
   83a58:	540008cd 	b.le	83b70 <Process_Out+0xdc0>
   83a5c:	91002d19 	add	x25, x8, #0xb
   83a60:	b9007be0 	str	w0, [sp, #120]
   83a64:	927df320 	and	x0, x25, #0xfffffffffffffff8
   83a68:	f9003be0 	str	x0, [sp, #112]
   83a6c:	17ffff65 	b	83800 <Process_Out+0xa50>
   83a70:	b9407be0 	ldr	w0, [sp, #120]
   83a74:	37f808c0 	tbnz	w0, #31, 83b8c <Process_Out+0xddc>
   83a78:	91003d19 	add	x25, x8, #0xf
   83a7c:	927df320 	and	x0, x25, #0xfffffffffffffff8
   83a80:	f9003be0 	str	x0, [sp, #112]
   83a84:	f9400117 	ldr	x23, [x8]
   83a88:	2a1503e0 	mov	w0, w21
   83a8c:	940040bf 	bl	93d88 <__floatsitf>
   83a90:	3d8002e0 	str	q0, [x23]
   83a94:	17fffcea 	b	82e3c <Process_Out+0x8c>
   83a98:	b9406be0 	ldr	w0, [sp, #104]
   83a9c:	5280001b 	mov	w27, #0x0                   	// #0
   83aa0:	7100001f 	cmp	w0, #0x0
   83aa4:	54ffd6ac 	b.gt	83578 <Process_Out+0x7c8>
   83aa8:	17fffce5 	b	82e3c <Process_Out+0x8c>
   83aac:	b94097e0 	ldr	w0, [sp, #148]
   83ab0:	11004001 	add	w1, w0, #0x10
   83ab4:	7100003f 	cmp	w1, #0x0
   83ab8:	5400084d 	b.le	83bc0 <Process_Out+0xe10>
   83abc:	91003d00 	add	x0, x8, #0xf
   83ac0:	b90097e1 	str	w1, [sp, #148]
   83ac4:	927cec00 	and	x0, x0, #0xfffffffffffffff0
   83ac8:	91004001 	add	x1, x0, #0x10
   83acc:	f9003be1 	str	x1, [sp, #112]
   83ad0:	17fffe4c 	b	83400 <Process_Out+0x650>
   83ad4:	f94047e2 	ldr	x2, [sp, #136]
   83ad8:	f9003be8 	str	x8, [sp, #112]
   83adc:	b9407be1 	ldr	w1, [sp, #120]
   83ae0:	b9007be0 	str	w0, [sp, #120]
   83ae4:	8b21c041 	add	x1, x2, w1, sxtw
   83ae8:	aa0103e8 	mov	x8, x1
   83aec:	17fffe7e 	b	834e4 <Process_Out+0x734>
   83af0:	f9404fe2 	ldr	x2, [sp, #152]
   83af4:	f9003be8 	str	x8, [sp, #112]
   83af8:	b94097e1 	ldr	w1, [sp, #148]
   83afc:	b90097e0 	str	w0, [sp, #148]
   83b00:	8b21c041 	add	x1, x2, w1, sxtw
   83b04:	aa0103e8 	mov	x8, x1
   83b08:	17fffd8c 	b	83138 <Process_Out+0x388>
   83b0c:	f94047e2 	ldr	x2, [sp, #136]
   83b10:	f9003be8 	str	x8, [sp, #112]
   83b14:	b9407be1 	ldr	w1, [sp, #120]
   83b18:	b9007be0 	str	w0, [sp, #120]
   83b1c:	8b21c041 	add	x1, x2, w1, sxtw
   83b20:	aa0103e8 	mov	x8, x1
   83b24:	17fffed7 	b	83680 <Process_Out+0x8d0>
   83b28:	f94047e2 	ldr	x2, [sp, #136]
   83b2c:	f9003be8 	str	x8, [sp, #112]
   83b30:	b9407be1 	ldr	w1, [sp, #120]
   83b34:	b9007be0 	str	w0, [sp, #120]
   83b38:	8b21c041 	add	x1, x2, w1, sxtw
   83b3c:	aa0103e8 	mov	x8, x1
   83b40:	17ffff0d 	b	83774 <Process_Out+0x9c4>
   83b44:	2a1503f8 	mov	w24, w21
   83b48:	17fffe94 	b	83598 <Process_Out+0x7e8>
   83b4c:	b9407be0 	ldr	w0, [sp, #120]
   83b50:	11002000 	add	w0, w0, #0x8
   83b54:	7100001f 	cmp	w0, #0x0
   83b58:	5400072d 	b.le	83c3c <Process_Out+0xe8c>
   83b5c:	91002d19 	add	x25, x8, #0xb
   83b60:	b9007be0 	str	w0, [sp, #120]
   83b64:	927df320 	and	x0, x25, #0xfffffffffffffff8
   83b68:	f9003be0 	str	x0, [sp, #112]
   83b6c:	17ffff8c 	b	8399c <Process_Out+0xbec>
   83b70:	f94047e2 	ldr	x2, [sp, #136]
   83b74:	f9003be8 	str	x8, [sp, #112]
   83b78:	b9407be1 	ldr	w1, [sp, #120]
   83b7c:	b9007be0 	str	w0, [sp, #120]
   83b80:	8b21c041 	add	x1, x2, w1, sxtw
   83b84:	aa0103e8 	mov	x8, x1
   83b88:	17ffff1e 	b	83800 <Process_Out+0xa50>
   83b8c:	b9407be0 	ldr	w0, [sp, #120]
   83b90:	11002000 	add	w0, w0, #0x8
   83b94:	7100001f 	cmp	w0, #0x0
   83b98:	5400060d 	b.le	83c58 <Process_Out+0xea8>
   83b9c:	91003d19 	add	x25, x8, #0xf
   83ba0:	b9007be0 	str	w0, [sp, #120]
   83ba4:	927df320 	and	x0, x25, #0xfffffffffffffff8
   83ba8:	f9003be0 	str	x0, [sp, #112]
   83bac:	17ffffb6 	b	83a84 <Process_Out+0xcd4>
   83bb0:	52800145 	mov	w5, #0xa                   	// #10
   83bb4:	5280000a 	mov	w10, #0x0                   	// #0
   83bb8:	52800027 	mov	w7, #0x1                   	// #1
   83bbc:	17fffd81 	b	831c0 <Process_Out+0x410>
   83bc0:	f9404fe2 	ldr	x2, [sp, #152]
   83bc4:	f9003be8 	str	x8, [sp, #112]
   83bc8:	b94097e0 	ldr	w0, [sp, #148]
   83bcc:	b90097e1 	str	w1, [sp, #148]
   83bd0:	8b20c040 	add	x0, x2, w0, sxtw
   83bd4:	17fffe0b 	b	83400 <Process_Out+0x650>
   83bd8:	b9407be0 	ldr	w0, [sp, #120]
   83bdc:	11002000 	add	w0, w0, #0x8
   83be0:	7100001f 	cmp	w0, #0x0
   83be4:	540005ad 	b.le	83c98 <Process_Out+0xee8>
   83be8:	91003d19 	add	x25, x8, #0xf
   83bec:	b9007be0 	str	w0, [sp, #120]
   83bf0:	927df320 	and	x0, x25, #0xfffffffffffffff8
   83bf4:	f9003be0 	str	x0, [sp, #112]
   83bf8:	17fffec8 	b	83718 <Process_Out+0x968>
   83bfc:	37f803c0 	tbnz	w0, #31, 83c74 <Process_Out+0xec4>
   83c00:	91003d19 	add	x25, x8, #0xf
   83c04:	927df320 	and	x0, x25, #0xfffffffffffffff8
   83c08:	f9003be0 	str	x0, [sp, #112]
   83c0c:	f9400100 	ldr	x0, [x8]
   83c10:	39000015 	strb	w21, [x0]
   83c14:	17fffc8a 	b	82e3c <Process_Out+0x8c>
   83c18:	b9407be0 	ldr	w0, [sp, #120]
   83c1c:	11002000 	add	w0, w0, #0x8
   83c20:	7100001f 	cmp	w0, #0x0
   83c24:	540004cd 	b.le	83cbc <Process_Out+0xf0c>
   83c28:	91003d19 	add	x25, x8, #0xf
   83c2c:	b9007be0 	str	w0, [sp, #120]
   83c30:	927df320 	and	x0, x25, #0xfffffffffffffff8
   83c34:	f9003be0 	str	x0, [sp, #112]
   83c38:	17fffec5 	b	8374c <Process_Out+0x99c>
   83c3c:	f94047e2 	ldr	x2, [sp, #136]
   83c40:	f9003be8 	str	x8, [sp, #112]
   83c44:	b9407be1 	ldr	w1, [sp, #120]
   83c48:	b9007be0 	str	w0, [sp, #120]
   83c4c:	8b21c041 	add	x1, x2, w1, sxtw
   83c50:	aa0103e8 	mov	x8, x1
   83c54:	17ffff52 	b	8399c <Process_Out+0xbec>
   83c58:	f94047e2 	ldr	x2, [sp, #136]
   83c5c:	f9003be8 	str	x8, [sp, #112]
   83c60:	b9407be1 	ldr	w1, [sp, #120]
   83c64:	b9007be0 	str	w0, [sp, #120]
   83c68:	8b21c041 	add	x1, x2, w1, sxtw
   83c6c:	aa0103e8 	mov	x8, x1
   83c70:	17ffff85 	b	83a84 <Process_Out+0xcd4>
   83c74:	b9407be0 	ldr	w0, [sp, #120]
   83c78:	11002000 	add	w0, w0, #0x8
   83c7c:	7100001f 	cmp	w0, #0x0
   83c80:	540002cd 	b.le	83cd8 <Process_Out+0xf28>
   83c84:	91003d19 	add	x25, x8, #0xf
   83c88:	b9007be0 	str	w0, [sp, #120]
   83c8c:	927df320 	and	x0, x25, #0xfffffffffffffff8
   83c90:	f9003be0 	str	x0, [sp, #112]
   83c94:	17ffffde 	b	83c0c <Process_Out+0xe5c>
   83c98:	f94047e2 	ldr	x2, [sp, #136]
   83c9c:	f9003be8 	str	x8, [sp, #112]
   83ca0:	b9407be1 	ldr	w1, [sp, #120]
   83ca4:	b9007be0 	str	w0, [sp, #120]
   83ca8:	8b21c041 	add	x1, x2, w1, sxtw
   83cac:	aa0103e8 	mov	x8, x1
   83cb0:	17fffe9a 	b	83718 <Process_Out+0x968>
   83cb4:	5280001b 	mov	w27, #0x0                   	// #0
   83cb8:	17fffe04 	b	834c8 <Process_Out+0x718>
   83cbc:	f94047e2 	ldr	x2, [sp, #136]
   83cc0:	f9003be8 	str	x8, [sp, #112]
   83cc4:	b9407be1 	ldr	w1, [sp, #120]
   83cc8:	b9007be0 	str	w0, [sp, #120]
   83ccc:	8b21c041 	add	x1, x2, w1, sxtw
   83cd0:	aa0103e8 	mov	x8, x1
   83cd4:	17fffe9e 	b	8374c <Process_Out+0x99c>
   83cd8:	f94047e2 	ldr	x2, [sp, #136]
   83cdc:	f9003be8 	str	x8, [sp, #112]
   83ce0:	b9407be1 	ldr	w1, [sp, #120]
   83ce4:	b9007be0 	str	w0, [sp, #120]
   83ce8:	8b21c041 	add	x1, x2, w1, sxtw
   83cec:	aa0103e8 	mov	x8, x1
   83cf0:	17ffffc7 	b	83c0c <Process_Out+0xe5c>
   83cf4:	d503201f 	nop

0000000000083cf8 <Buffer_WriteChar>:
   83cf8:	900000a2 	adrp	x2, 97000 <__bss_start__>
   83cfc:	91004041 	add	x1, x2, #0x10
   83d00:	12001c00 	and	w0, w0, #0xff
   83d04:	b9401042 	ldr	w2, [x2, #16]
   83d08:	3100045f 	cmn	w2, #0x1
   83d0c:	54000080 	b.eq	83d1c <Buffer_WriteChar+0x24>  // b.none
   83d10:	b9400423 	ldr	w3, [x1, #4]
   83d14:	6b03005f 	cmp	w2, w3
   83d18:	540000ed 	b.le	83d34 <Buffer_WriteChar+0x3c>
   83d1c:	f9400422 	ldr	x2, [x1, #8]
   83d20:	b40000a2 	cbz	x2, 83d34 <Buffer_WriteChar+0x3c>
   83d24:	b9400423 	ldr	w3, [x1, #4]
   83d28:	11000464 	add	w4, w3, #0x1
   83d2c:	b9000424 	str	w4, [x1, #4]
   83d30:	3823c840 	strb	w0, [x2, w3, sxtw]
   83d34:	d65f03c0 	ret

0000000000083d38 <Process_Out.constprop.2>:
   83d38:	f100003f 	cmp	x1, #0x0
   83d3c:	1a9f17e3 	cset	w3, eq  // eq = none
   83d40:	f100001f 	cmp	x0, #0x0
   83d44:	1a9f1463 	csinc	w3, w3, wzr, ne  // ne = any
   83d48:	34000063 	cbz	w3, 83d54 <Process_Out.constprop.2+0x1c>
   83d4c:	d2800000 	mov	x0, #0x0                   	// #0
   83d50:	d65f03c0 	ret
   83d54:	39400006 	ldrb	w6, [x0]
   83d58:	34ffffa6 	cbz	w6, 83d4c <Process_Out.constprop.2+0x14>
   83d5c:	a9af53f3 	stp	x19, x20, [sp, #-272]!
   83d60:	a90263f7 	stp	x23, x24, [sp, #32]
   83d64:	aa0003f7 	mov	x23, x0
   83d68:	f9400040 	ldr	x0, [x2]
   83d6c:	f90037e0 	str	x0, [sp, #104]
   83d70:	d1000420 	sub	x0, x1, #0x1
   83d74:	f9003be0 	str	x0, [sp, #112]
   83d78:	f9400440 	ldr	x0, [x2, #8]
   83d7c:	f9003fe0 	str	x0, [sp, #120]
   83d80:	f9400840 	ldr	x0, [x2, #16]
   83d84:	f90047e0 	str	x0, [sp, #136]
   83d88:	b9401840 	ldr	w0, [x2, #24]
   83d8c:	b90067e0 	str	w0, [sp, #100]
   83d90:	b9401c40 	ldr	w0, [x2, #28]
   83d94:	a9015bf5 	stp	x21, x22, [sp, #16]
   83d98:	a9036bf9 	stp	x25, x26, [sp, #48]
   83d9c:	aa0103fa 	mov	x26, x1
   83da0:	a90473fb 	stp	x27, x28, [sp, #64]
   83da4:	5280001c 	mov	w28, #0x0                   	// #0
   83da8:	d280001b 	mov	x27, #0x0                   	// #0
   83dac:	2a1c03f9 	mov	w25, w28
   83db0:	f9002bfe 	str	x30, [sp, #80]
   83db4:	b90087e0 	str	w0, [sp, #132]
   83db8:	14000017 	b	83e14 <Process_Out.constprop.2+0xdc>
   83dbc:	900000a2 	adrp	x2, 97000 <__bss_start__>
   83dc0:	91004053 	add	x19, x2, #0x10
   83dc4:	b9401040 	ldr	w0, [x2, #16]
   83dc8:	3100041f 	cmn	w0, #0x1
   83dcc:	54000080 	b.eq	83ddc <Process_Out.constprop.2+0xa4>  // b.none
   83dd0:	b9400661 	ldr	w1, [x19, #4]
   83dd4:	6b01001f 	cmp	w0, w1
   83dd8:	540000ed 	b.le	83df4 <Process_Out.constprop.2+0xbc>
   83ddc:	f9400660 	ldr	x0, [x19, #8]
   83de0:	b40000a0 	cbz	x0, 83df4 <Process_Out.constprop.2+0xbc>
   83de4:	b9400661 	ldr	w1, [x19, #4]
   83de8:	11000422 	add	w2, w1, #0x1
   83dec:	b9000662 	str	w2, [x19, #4]
   83df0:	3821c806 	strb	w6, [x0, w1, sxtw]
   83df4:	11000739 	add	w25, w25, #0x1
   83df8:	9100077b 	add	x27, x27, #0x1
   83dfc:	387b6ae6 	ldrb	w6, [x23, x27]
   83e00:	eb1b035f 	cmp	x26, x27
   83e04:	1a9f97e0 	cset	w0, hi  // hi = pmore
   83e08:	710000df 	cmp	w6, #0x0
   83e0c:	1a9f1000 	csel	w0, w0, wzr, ne  // ne = any
   83e10:	34000320 	cbz	w0, 83e74 <Process_Out.constprop.2+0x13c>
   83e14:	710094df 	cmp	w6, #0x25
   83e18:	54fffd21 	b.ne	83dbc <Process_Out.constprop.2+0x84>  // b.any
   83e1c:	b90063ff 	str	wzr, [sp, #96]
   83e20:	91000773 	add	x19, x27, #0x1
   83e24:	b90083ff 	str	wzr, [sp, #128]
   83e28:	52800018 	mov	w24, #0x0                   	// #0
   83e2c:	52800015 	mov	w21, #0x0                   	// #0
   83e30:	52800016 	mov	w22, #0x0                   	// #0
   83e34:	52800014 	mov	w20, #0x0                   	// #0
   83e38:	eb13035f 	cmp	x26, x19
   83e3c:	540001c9 	b.ls	83e74 <Process_Out.constprop.2+0x13c>  // b.plast
   83e40:	38736ae0 	ldrb	w0, [x23, x19]
   83e44:	7100ac1f 	cmp	w0, #0x2b
   83e48:	54002980 	b.eq	84378 <Process_Out.constprop.2+0x640>  // b.none
   83e4c:	54000248 	b.hi	83e94 <Process_Out.constprop.2+0x15c>  // b.pmore
   83e50:	7100801f 	cmp	w0, #0x20
   83e54:	540002e0 	b.eq	83eb0 <Process_Out.constprop.2+0x178>  // b.none
   83e58:	71008c1f 	cmp	w0, #0x23
   83e5c:	54000381 	b.ne	83ecc <Process_Out.constprop.2+0x194>  // b.any
   83e60:	aa1303fb 	mov	x27, x19
   83e64:	52800035 	mov	w21, #0x1                   	// #1
   83e68:	91000773 	add	x19, x27, #0x1
   83e6c:	eb13035f 	cmp	x26, x19
   83e70:	54fffe88 	b.hi	83e40 <Process_Out.constprop.2+0x108>  // b.pmore
   83e74:	93407f20 	sxtw	x0, w25
   83e78:	a9415bf5 	ldp	x21, x22, [sp, #16]
   83e7c:	a94263f7 	ldp	x23, x24, [sp, #32]
   83e80:	a9436bf9 	ldp	x25, x26, [sp, #48]
   83e84:	a94473fb 	ldp	x27, x28, [sp, #64]
   83e88:	f9402bfe 	ldr	x30, [sp, #80]
   83e8c:	a8d153f3 	ldp	x19, x20, [sp], #272
   83e90:	d65f03c0 	ret
   83e94:	7100b41f 	cmp	w0, #0x2d
   83e98:	54000140 	b.eq	83ec0 <Process_Out.constprop.2+0x188>  // b.none
   83e9c:	7100c01f 	cmp	w0, #0x30
   83ea0:	54000161 	b.ne	83ecc <Process_Out.constprop.2+0x194>  // b.any
   83ea4:	52800034 	mov	w20, #0x1                   	// #1
   83ea8:	aa1303fb 	mov	x27, x19
   83eac:	17ffffef 	b	83e68 <Process_Out.constprop.2+0x130>
   83eb0:	52800020 	mov	w0, #0x1                   	// #1
   83eb4:	aa1303fb 	mov	x27, x19
   83eb8:	b90063e0 	str	w0, [sp, #96]
   83ebc:	17ffffeb 	b	83e68 <Process_Out.constprop.2+0x130>
   83ec0:	52800036 	mov	w22, #0x1                   	// #1
   83ec4:	aa1303fb 	mov	x27, x19
   83ec8:	17ffffe8 	b	83e68 <Process_Out.constprop.2+0x130>
   83ecc:	1280001c 	mov	w28, #0xffffffff            	// #-1
   83ed0:	7100a81f 	cmp	w0, #0x2a
   83ed4:	54002401 	b.ne	84354 <Process_Out.constprop.2+0x61c>  // b.any
   83ed8:	91000b73 	add	x19, x27, #0x2
   83edc:	eb13035f 	cmp	x26, x19
   83ee0:	54fffca9 	b.ls	83e74 <Process_Out.constprop.2+0x13c>  // b.plast
   83ee4:	b94067e0 	ldr	w0, [sp, #100]
   83ee8:	37f82500 	tbnz	w0, #31, 84388 <Process_Out.constprop.2+0x650>
   83eec:	f94037e0 	ldr	x0, [sp, #104]
   83ef0:	91002c08 	add	x8, x0, #0xb
   83ef4:	927df108 	and	x8, x8, #0xfffffffffffffff8
   83ef8:	b9400000 	ldr	w0, [x0]
   83efc:	91000f7b 	add	x27, x27, #0x3
   83f00:	38736ae2 	ldrb	w2, [x23, x19]
   83f04:	13001c1c 	sxtb	w28, w0
   83f08:	36f8009c 	tbz	w28, #31, 83f18 <Process_Out.constprop.2+0x1e0>
   83f0c:	4b0003e0 	neg	w0, w0
   83f10:	52800036 	mov	w22, #0x1                   	// #1
   83f14:	13001c1c 	sxtb	w28, w0
   83f18:	7100b85f 	cmp	w2, #0x2e
   83f1c:	12800001 	mov	w1, #0xffffffff            	// #-1
   83f20:	54006520 	b.eq	84bc4 <Process_Out.constprop.2+0xe8c>  // b.none
   83f24:	121d7840 	and	w0, w2, #0xfffffffb
   83f28:	7101a01f 	cmp	w0, #0x68
   83f2c:	54002b81 	b.ne	8449c <Process_Out.constprop.2+0x764>  // b.any
   83f30:	f9403be0 	ldr	x0, [sp, #112]
   83f34:	2a0203e7 	mov	w7, w2
   83f38:	5280000a 	mov	w10, #0x0                   	// #0
   83f3c:	eb00027f 	cmp	x19, x0
   83f40:	540000c2 	b.cs	83f58 <Process_Out.constprop.2+0x220>  // b.hs, b.nlast
   83f44:	387b6ae0 	ldrb	w0, [x23, x27]
   83f48:	5280000a 	mov	w10, #0x0                   	// #0
   83f4c:	6b02001f 	cmp	w0, w2
   83f50:	540067e0 	b.eq	84c4c <Process_Out.constprop.2+0xf14>  // b.none
   83f54:	d503201f 	nop
   83f58:	eb1b035f 	cmp	x26, x27
   83f5c:	54fff8c9 	b.ls	83e74 <Process_Out.constprop.2+0x13c>  // b.plast
   83f60:	387b6ae0 	ldrb	w0, [x23, x27]
   83f64:	9100077b 	add	x27, x27, #0x1
   83f68:	7101901f 	cmp	w0, #0x64
   83f6c:	54010960 	b.eq	86098 <Process_Out.constprop.2+0x2360>  // b.none
   83f70:	54002209 	b.ls	843b0 <Process_Out.constprop.2+0x678>  // b.plast
   83f74:	7101b81f 	cmp	w0, #0x6e
   83f78:	5400f420 	b.eq	85dfc <Process_Out.constprop.2+0x20c4>  // b.none
   83f7c:	54002349 	b.ls	843e4 <Process_Out.constprop.2+0x6ac>  // b.plast
   83f80:	7101c01f 	cmp	w0, #0x70
   83f84:	54008780 	b.eq	85074 <Process_Out.constprop.2+0x133c>  // b.none
   83f88:	54006483 	b.cc	84c18 <Process_Out.constprop.2+0xee0>  // b.lo, b.ul, b.last
   83f8c:	7101cc1f 	cmp	w0, #0x73
   83f90:	540075c0 	b.eq	84e48 <Process_Out.constprop.2+0x1110>  // b.none
   83f94:	7101e01f 	cmp	w0, #0x78
   83f98:	52800209 	mov	w9, #0x10                  	// #16
   83f9c:	52800147 	mov	w7, #0xa                   	// #10
   83fa0:	1a870127 	csel	w7, w9, w7, eq  // eq = none
   83fa4:	1a9f17e9 	cset	w9, eq  // eq = none
   83fa8:	52800000 	mov	w0, #0x0                   	// #0
   83fac:	7101b05f 	cmp	w2, #0x6c
   83fb0:	5400d760 	b.eq	85a9c <Process_Out.constprop.2+0x1d64>  // b.none
   83fb4:	5400450c 	b.gt	84854 <Process_Out.constprop.2+0xb1c>
   83fb8:	7101a05f 	cmp	w2, #0x68
   83fbc:	5400bac0 	b.eq	85714 <Process_Out.constprop.2+0x19dc>  // b.none
   83fc0:	7101a85f 	cmp	w2, #0x6a
   83fc4:	54002a21 	b.ne	84508 <Process_Out.constprop.2+0x7d0>  // b.any
   83fc8:	b94067e2 	ldr	w2, [sp, #100]
   83fcc:	37f864a2 	tbnz	w2, #31, 84c60 <Process_Out.constprop.2+0xf28>
   83fd0:	91003d02 	add	x2, x8, #0xf
   83fd4:	927df042 	and	x2, x2, #0xfffffffffffffff8
   83fd8:	f90037e2 	str	x2, [sp, #104]
   83fdc:	33000298 	bfxil	w24, w20, #0, #1
   83fe0:	52801eee 	mov	w14, #0xf7                  	// #247
   83fe4:	5280014c 	mov	w12, #0xa                   	// #10
   83fe8:	5280060b 	mov	w11, #0x30                  	// #48
   83fec:	331f0018 	bfi	w24, w0, #1, #1
   83ff0:	b94083e0 	ldr	w0, [sp, #128]
   83ff4:	f9400108 	ldr	x8, [x8]
   83ff8:	2a1c03f1 	mov	w17, w28
   83ffc:	331e0018 	bfi	w24, w0, #2, #1
   84000:	b94063e0 	ldr	w0, [sp, #96]
   84004:	2a0803e2 	mov	w2, w8
   84008:	331d0018 	bfi	w24, w0, #3, #1
   8400c:	52800400 	mov	w0, #0x20                  	// #32
   84010:	331c02d8 	bfi	w24, w22, #4, #1
   84014:	331b0138 	bfi	w24, w9, #5, #1
   84018:	331a02b8 	bfi	w24, w21, #6, #1
   8401c:	33190158 	bfi	w24, w10, #7, #1
   84020:	331810f8 	bfi	w24, w7, #8, #5
   84024:	33101f98 	bfi	w24, w28, #16, #8
   84028:	33081c38 	bfi	w24, w1, #24, #8
   8402c:	121f1b0d 	and	w13, w24, #0xfe
   84030:	f27c031f 	tst	x24, #0x10
   84034:	d3483306 	ubfx	x6, x24, #8, #5
   84038:	1a9f0294 	csel	w20, w20, wzr, eq  // eq = none
   8403c:	510020c9 	sub	w9, w6, #0x8
   84040:	6a0e013f 	tst	w9, w14
   84044:	2a1401ad 	orr	w13, w13, w20
   84048:	7a4218c4 	ccmp	w6, #0x2, #0x4, ne  // ne = any
   8404c:	0a0001ae 	and	w14, w13, w0
   84050:	1a8c00e7 	csel	w7, w7, w12, eq  // eq = none
   84054:	f24001bf 	tst	x13, #0x1
   84058:	1a801169 	csel	w9, w11, w0, ne  // ne = any
   8405c:	3608fc0d 	tbz	w13, #1, 85fdc <Process_Out.constprop.2+0x22a4>
   84060:	37f8fc68 	tbnz	w8, #31, 85fec <Process_Out.constprop.2+0x22b4>
   84064:	36119f6d 	tbz	w13, #2, 87450 <Process_Out.constprop.2+0x3718>
   84068:	51000791 	sub	w17, w28, #0x1
   8406c:	5280056f 	mov	w15, #0x2b                  	// #43
   84070:	3500fc48 	cbnz	w8, 85ff8 <Process_Out.constprop.2+0x22c0>
   84074:	52800600 	mov	w0, #0x30                  	// #48
   84078:	5280000c 	mov	w12, #0x0                   	// #0
   8407c:	52800606 	mov	w6, #0x30                  	// #48
   84080:	52800028 	mov	w8, #0x1                   	// #1
   84084:	390243e0 	strb	w0, [sp, #144]
   84088:	6b08003f 	cmp	w1, w8
   8408c:	2a0103f5 	mov	w21, w1
   84090:	5400006a 	b.ge	8409c <Process_Out.constprop.2+0x364>  // b.tcont
   84094:	13001d01 	sxtb	w1, w8
   84098:	2a0803f5 	mov	w21, w8
   8409c:	f0000082 	adrp	x2, 97000 <__bss_start__>
   840a0:	91004053 	add	x19, x2, #0x10
   840a4:	4b150231 	sub	w17, w17, w21
   840a8:	2b1402d6 	adds	w22, w22, w20
   840ac:	b9401042 	ldr	w2, [x2, #16]
   840b0:	5100062a 	sub	w10, w17, #0x1
   840b4:	b9400670 	ldr	w16, [x19, #4]
   840b8:	f940066b 	ldr	x11, [x19, #8]
   840bc:	5400f941 	b.ne	85fe4 <Process_Out.constprop.2+0x22ac>  // b.any
   840c0:	7100023f 	cmp	w17, #0x0
   840c4:	5401e5ad 	b.le	87d78 <Process_Out.constprop.2+0x4040>
   840c8:	3100045f 	cmn	w2, #0x1
   840cc:	54019380 	b.eq	8733c <Process_Out.constprop.2+0x3604>  // b.none
   840d0:	b40001eb 	cbz	x11, 8410c <Process_Out.constprop.2+0x3d4>
   840d4:	2a1003e0 	mov	w0, w16
   840d8:	52800012 	mov	w18, #0x0                   	// #0
   840dc:	52800414 	mov	w20, #0x20                  	// #32
   840e0:	5100054a 	sub	w10, w10, #0x1
   840e4:	6b02001f 	cmp	w0, w2
   840e8:	5400008a 	b.ge	840f8 <Process_Out.constprop.2+0x3c0>  // b.tcont
   840ec:	3820c974 	strb	w20, [x11, w0, sxtw]
   840f0:	11000400 	add	w0, w0, #0x1
   840f4:	52800032 	mov	w18, #0x1                   	// #1
   840f8:	3100055f 	cmn	w10, #0x1
   840fc:	54ffff21 	b.ne	840e0 <Process_Out.constprop.2+0x3a8>  // b.any
   84100:	34000072 	cbz	w18, 8410c <Process_Out.constprop.2+0x3d4>
   84104:	2a0003f0 	mov	w16, w0
   84108:	b9000660 	str	w0, [x19, #4]
   8410c:	2a1103f6 	mov	w22, w17
   84110:	1280002a 	mov	w10, #0xfffffffe            	// #-2
   84114:	12800011 	mov	w17, #0xffffffff            	// #-1
   84118:	52800220 	mov	w0, #0x11                  	// #17
   8411c:	6a0001bf 	tst	w13, w0
   84120:	54000381 	b.ne	84190 <Process_Out.constprop.2+0x458>  // b.any
   84124:	7100023f 	cmp	w17, #0x0
   84128:	5401e8cd 	b.le	87e40 <Process_Out.constprop.2+0x4108>
   8412c:	3100045f 	cmn	w2, #0x1
   84130:	54018e20 	b.eq	872f4 <Process_Out.constprop.2+0x35bc>  // b.none
   84134:	b401a54b 	cbz	x11, 875dc <Process_Out.constprop.2+0x38a4>
   84138:	2a1003f2 	mov	w18, w16
   8413c:	2a0a03e0 	mov	w0, w10
   84140:	52800014 	mov	w20, #0x0                   	// #0
   84144:	d503201f 	nop
   84148:	6b02025f 	cmp	w18, w2
   8414c:	5400008a 	b.ge	8415c <Process_Out.constprop.2+0x424>  // b.tcont
   84150:	3832c969 	strb	w9, [x11, w18, sxtw]
   84154:	11000652 	add	w18, w18, #0x1
   84158:	52800034 	mov	w20, #0x1                   	// #1
   8415c:	7100001f 	cmp	w0, #0x0
   84160:	51000400 	sub	w0, w0, #0x1
   84164:	54ffff2c 	b.gt	84148 <Process_Out.constprop.2+0x410>
   84168:	7100015f 	cmp	w10, #0x0
   8416c:	110006d6 	add	w22, w22, #0x1
   84170:	1a9fa151 	csel	w17, w10, wzr, ge  // ge = tcont
   84174:	5100054a 	sub	w10, w10, #0x1
   84178:	0b1102d6 	add	w22, w22, w17
   8417c:	4b110151 	sub	w17, w10, w17
   84180:	34000074 	cbz	w20, 8418c <Process_Out.constprop.2+0x454>
   84184:	2a1203f0 	mov	w16, w18
   84188:	b9000672 	str	w18, [x19, #4]
   8418c:	5100062a 	sub	w10, w17, #0x1
   84190:	51000421 	sub	w1, w1, #0x1
   84194:	6b15011f 	cmp	w8, w21
   84198:	12001c32 	and	w18, w1, #0xff
   8419c:	5401c02a 	b.ge	879a0 <Process_Out.constprop.2+0x3c68>  // b.tcont
   841a0:	3100045f 	cmn	w2, #0x1
   841a4:	54013480 	b.eq	86834 <Process_Out.constprop.2+0x2afc>  // b.none
   841a8:	b4005bab 	cbz	x11, 84d1c <Process_Out.constprop.2+0xfe4>
   841ac:	2a1003e9 	mov	w9, w16
   841b0:	2a1603e0 	mov	w0, w22
   841b4:	52800014 	mov	w20, #0x0                   	// #0
   841b8:	52800615 	mov	w21, #0x30                  	// #48
   841bc:	d503201f 	nop
   841c0:	4b0002c1 	sub	w1, w22, w0
   841c4:	6b02013f 	cmp	w9, w2
   841c8:	0b010241 	add	w1, w18, w1
   841cc:	11000400 	add	w0, w0, #0x1
   841d0:	13001c21 	sxtb	w1, w1
   841d4:	5400008a 	b.ge	841e4 <Process_Out.constprop.2+0x4ac>  // b.tcont
   841d8:	3829c975 	strb	w21, [x11, w9, sxtw]
   841dc:	11000529 	add	w9, w9, #0x1
   841e0:	52800034 	mov	w20, #0x1                   	// #1
   841e4:	6b08003f 	cmp	w1, w8
   841e8:	54fffecc 	b.gt	841c0 <Process_Out.constprop.2+0x488>
   841ec:	34005a54 	cbz	w20, 84d34 <Process_Out.constprop.2+0xffc>
   841f0:	b9000669 	str	w9, [x19, #4]
   841f4:	3400014f 	cbz	w15, 8421c <Process_Out.constprop.2+0x4e4>
   841f8:	3100045f 	cmn	w2, #0x1
   841fc:	54000060 	b.eq	84208 <Process_Out.constprop.2+0x4d0>  // b.none
   84200:	6b02013f 	cmp	w9, w2
   84204:	540000aa 	b.ge	84218 <Process_Out.constprop.2+0x4e0>  // b.tcont
   84208:	b400008b 	cbz	x11, 84218 <Process_Out.constprop.2+0x4e0>
   8420c:	3829c96f 	strb	w15, [x11, w9, sxtw]
   84210:	11000529 	add	w9, w9, #0x1
   84214:	b9000669 	str	w9, [x19, #4]
   84218:	11000400 	add	w0, w0, #0x1
   8421c:	363002ed 	tbz	w13, #6, 84278 <Process_Out.constprop.2+0x540>
   84220:	710020ff 	cmp	w7, #0x8
   84224:	5401a8a0 	b.eq	87738 <Process_Out.constprop.2+0x3a00>  // b.none
   84228:	710040ff 	cmp	w7, #0x10
   8422c:	54000261 	b.ne	84278 <Process_Out.constprop.2+0x540>  // b.any
   84230:	3100045f 	cmn	w2, #0x1
   84234:	5401f380 	b.eq	880a4 <Process_Out.constprop.2+0x436c>  // b.none
   84238:	6b02013f 	cmp	w9, w2
   8423c:	540001ca 	b.ge	84274 <Process_Out.constprop.2+0x53c>  // b.tcont
   84240:	52800b01 	mov	w1, #0x58                  	// #88
   84244:	2a0101ce 	orr	w14, w14, w1
   84248:	b402080b 	cbz	x11, 88348 <Process_Out.constprop.2+0x4610>
   8424c:	52800601 	mov	w1, #0x30                  	// #48
   84250:	3829c961 	strb	w1, [x11, w9, sxtw]
   84254:	11000529 	add	w9, w9, #0x1
   84258:	b9000669 	str	w9, [x19, #4]
   8425c:	6b02013f 	cmp	w9, w2
   84260:	540000aa 	b.ge	84274 <Process_Out.constprop.2+0x53c>  // b.tcont
   84264:	b9400661 	ldr	w1, [x19, #4]
   84268:	11000429 	add	w9, w1, #0x1
   8426c:	b9000669 	str	w9, [x19, #4]
   84270:	3821c96e 	strb	w14, [x11, w1, sxtw]
   84274:	11000800 	add	w0, w0, #0x2
   84278:	3100045f 	cmn	w2, #0x1
   8427c:	54012fe0 	b.eq	86878 <Process_Out.constprop.2+0x2b40>  // b.none
   84280:	b400e20b 	cbz	x11, 85ec0 <Process_Out.constprop.2+0x2188>
   84284:	93407d87 	sxtw	x7, w12
   84288:	2a0903e1 	mov	w1, w9
   8428c:	5280000d 	mov	w13, #0x0                   	// #0
   84290:	14000003 	b	8429c <Process_Out.constprop.2+0x564>
   84294:	385ff066 	ldurb	w6, [x3, #-1]
   84298:	d10004e7 	sub	x7, x7, #0x1
   8429c:	910243e3 	add	x3, sp, #0x90
   842a0:	6b02003f 	cmp	w1, w2
   842a4:	8b0300e3 	add	x3, x7, x3
   842a8:	5400008a 	b.ge	842b8 <Process_Out.constprop.2+0x580>  // b.tcont
   842ac:	3821c966 	strb	w6, [x11, w1, sxtw]
   842b0:	11000421 	add	w1, w1, #0x1
   842b4:	5280002d 	mov	w13, #0x1                   	// #1
   842b8:	710000ff 	cmp	w7, #0x0
   842bc:	54fffecc 	b.gt	84294 <Process_Out.constprop.2+0x55c>
   842c0:	11000400 	add	w0, w0, #0x1
   842c4:	0b0c0006 	add	w6, w0, w12
   842c8:	3401fd0d 	cbz	w13, 88268 <Process_Out.constprop.2+0x4530>
   842cc:	b9000661 	str	w1, [x19, #4]
   842d0:	7100023f 	cmp	w17, #0x0
   842d4:	540002ad 	b.le	84328 <Process_Out.constprop.2+0x5f0>
   842d8:	3100045f 	cmn	w2, #0x1
   842dc:	54015800 	b.eq	86ddc <Process_Out.constprop.2+0x30a4>  // b.none
   842e0:	b400dd2b 	cbz	x11, 85e84 <Process_Out.constprop.2+0x214c>
   842e4:	2a0a03e0 	mov	w0, w10
   842e8:	52800007 	mov	w7, #0x0                   	// #0
   842ec:	52800408 	mov	w8, #0x20                  	// #32
   842f0:	6b02003f 	cmp	w1, w2
   842f4:	5400008a 	b.ge	84304 <Process_Out.constprop.2+0x5cc>  // b.tcont
   842f8:	3821c968 	strb	w8, [x11, w1, sxtw]
   842fc:	11000421 	add	w1, w1, #0x1
   84300:	52800027 	mov	w7, #0x1                   	// #1
   84304:	7100001f 	cmp	w0, #0x0
   84308:	51000400 	sub	w0, w0, #0x1
   8430c:	54ffff2c 	b.gt	842f0 <Process_Out.constprop.2+0x5b8>
   84310:	7100015f 	cmp	w10, #0x0
   84314:	110004c6 	add	w6, w6, #0x1
   84318:	1a9fa14a 	csel	w10, w10, wzr, ge  // ge = tcont
   8431c:	0b060146 	add	w6, w10, w6
   84320:	34000047 	cbz	w7, 84328 <Process_Out.constprop.2+0x5f0>
   84324:	b9000661 	str	w1, [x19, #4]
   84328:	0b060339 	add	w25, w25, w6
   8432c:	17fffeb4 	b	83dfc <Process_Out.constprop.2+0xc4>
   84330:	7100039f 	cmp	w28, #0x0
   84334:	aa1b03f3 	mov	x19, x27
   84338:	1a9fa39c 	csel	w28, w28, wzr, ge  // ge = tcont
   8433c:	eb1b035f 	cmp	x26, x27
   84340:	531e1780 	ubfiz	w0, w28, #2, #6
   84344:	0b1c001c 	add	w28, w0, w28
   84348:	0b1c043c 	add	w28, w1, w28, lsl #1
   8434c:	13001f9c 	sxtb	w28, w28
   84350:	54ffd929 	b.ls	83e74 <Process_Out.constprop.2+0x13c>  // b.plast
   84354:	940022cd 	bl	8ce88 <__locale_ctype_ptr>
   84358:	9100067b 	add	x27, x19, #0x1
   8435c:	38736ae2 	ldrb	w2, [x23, x19]
   84360:	5100c041 	sub	w1, w2, #0x30
   84364:	8b220000 	add	x0, x0, w2, uxtb
   84368:	39400400 	ldrb	w0, [x0, #1]
   8436c:	3717fe20 	tbnz	w0, #2, 84330 <Process_Out.constprop.2+0x5f8>
   84370:	f94037e8 	ldr	x8, [sp, #104]
   84374:	17fffee9 	b	83f18 <Process_Out.constprop.2+0x1e0>
   84378:	52800020 	mov	w0, #0x1                   	// #1
   8437c:	aa1303fb 	mov	x27, x19
   84380:	b90083e0 	str	w0, [sp, #128]
   84384:	17fffeb9 	b	83e68 <Process_Out.constprop.2+0x130>
   84388:	b94067e0 	ldr	w0, [sp, #100]
   8438c:	11002000 	add	w0, w0, #0x8
   84390:	7100001f 	cmp	w0, #0x0
   84394:	540050ed 	b.le	84db0 <Process_Out.constprop.2+0x1078>
   84398:	f94037e1 	ldr	x1, [sp, #104]
   8439c:	b90067e0 	str	w0, [sp, #100]
   843a0:	91002c28 	add	x8, x1, #0xb
   843a4:	aa0103e0 	mov	x0, x1
   843a8:	927df108 	and	x8, x8, #0xfffffffffffffff8
   843ac:	17fffed3 	b	83ef8 <Process_Out.constprop.2+0x1c0>
   843b0:	71011c1f 	cmp	w0, #0x47
   843b4:	54000269 	b.ls	84400 <Process_Out.constprop.2+0x6c8>  // b.plast
   843b8:	7101841f 	cmp	w0, #0x61
   843bc:	54000520 	b.eq	84460 <Process_Out.constprop.2+0x728>  // b.none
   843c0:	71018c1f 	cmp	w0, #0x63
   843c4:	54005d60 	b.eq	84f70 <Process_Out.constprop.2+0x1238>  // b.none
   843c8:	7101601f 	cmp	w0, #0x58
   843cc:	52800140 	mov	w0, #0xa                   	// #10
   843d0:	52800207 	mov	w7, #0x10                  	// #16
   843d4:	52800009 	mov	w9, #0x0                   	// #0
   843d8:	1a8000e7 	csel	w7, w7, w0, eq  // eq = none
   843dc:	52800000 	mov	w0, #0x0                   	// #0
   843e0:	17fffef3 	b	83fac <Process_Out.constprop.2+0x274>
   843e4:	71019c1f 	cmp	w0, #0x67
   843e8:	540003c9 	b.ls	84460 <Process_Out.constprop.2+0x728>  // b.plast
   843ec:	7101a41f 	cmp	w0, #0x69
   843f0:	52800147 	mov	w7, #0xa                   	// #10
   843f4:	1a9f17e0 	cset	w0, eq  // eq = none
   843f8:	52800009 	mov	w9, #0x0                   	// #0
   843fc:	17fffeec 	b	83fac <Process_Out.constprop.2+0x274>
   84400:	7101141f 	cmp	w0, #0x45
   84404:	540002e2 	b.cs	84460 <Process_Out.constprop.2+0x728>  // b.hs, b.nlast
   84408:	7100941f 	cmp	w0, #0x25
   8440c:	54000261 	b.ne	84458 <Process_Out.constprop.2+0x720>  // b.any
   84410:	f0000082 	adrp	x2, 97000 <__bss_start__>
   84414:	91004053 	add	x19, x2, #0x10
   84418:	b9401040 	ldr	w0, [x2, #16]
   8441c:	3100041f 	cmn	w0, #0x1
   84420:	54000080 	b.eq	84430 <Process_Out.constprop.2+0x6f8>  // b.none
   84424:	b9400661 	ldr	w1, [x19, #4]
   84428:	6b01001f 	cmp	w0, w1
   8442c:	5400010d 	b.le	8444c <Process_Out.constprop.2+0x714>
   84430:	f9400660 	ldr	x0, [x19, #8]
   84434:	b40000c0 	cbz	x0, 8444c <Process_Out.constprop.2+0x714>
   84438:	b9400661 	ldr	w1, [x19, #4]
   8443c:	528004a2 	mov	w2, #0x25                  	// #37
   84440:	11000426 	add	w6, w1, #0x1
   84444:	b9000666 	str	w6, [x19, #4]
   84448:	3821c802 	strb	w2, [x0, w1, sxtw]
   8444c:	11000739 	add	w25, w25, #0x1
   84450:	f90037e8 	str	x8, [sp, #104]
   84454:	17fffe6a 	b	83dfc <Process_Out.constprop.2+0xc4>
   84458:	7101041f 	cmp	w0, #0x41
   8445c:	54003ac1 	b.ne	84bb4 <Process_Out.constprop.2+0xe7c>  // b.any
   84460:	7101305f 	cmp	w2, #0x4c
   84464:	54004220 	b.eq	84ca8 <Process_Out.constprop.2+0xf70>  // b.none
   84468:	b94087e0 	ldr	w0, [sp, #132]
   8446c:	37f930e0 	tbnz	w0, #31, 86a88 <Process_Out.constprop.2+0x2d50>
   84470:	91003d00 	add	x0, x8, #0xf
   84474:	927df000 	and	x0, x0, #0xfffffffffffffff8
   84478:	f90037e0 	str	x0, [sp, #104]
   8447c:	fd400100 	ldr	d0, [x8]
   84480:	f0ffffe0 	adrp	x0, 83000 <Process_Out+0x250>
   84484:	9133e000 	add	x0, x0, #0xcf8
   84488:	1e624000 	fcvt	s0, d0
   8448c:	1e22c000 	fcvt	d0, s0
   84490:	97fff970 	bl	82a50 <NumStr>
   84494:	0b000339 	add	w25, w25, w0
   84498:	17fffe59 	b	83dfc <Process_Out.constprop.2+0xc4>
   8449c:	52800e87 	mov	w7, #0x74                  	// #116
   844a0:	7101305f 	cmp	w2, #0x4c
   844a4:	7a471044 	ccmp	w2, w7, #0x4, ne  // ne = any
   844a8:	121b7840 	and	w0, w2, #0xffffffef
   844ac:	52800d47 	mov	w7, #0x6a                  	// #106
   844b0:	5280000a 	mov	w10, #0x0                   	// #0
   844b4:	7a471004 	ccmp	w0, w7, #0x4, ne  // ne = any
   844b8:	2a0203e7 	mov	w7, w2
   844bc:	54ffd4e0 	b.eq	83f58 <Process_Out.constprop.2+0x220>  // b.none
   844c0:	7101905f 	cmp	w2, #0x64
   844c4:	5401cfc0 	b.eq	87ebc <Process_Out.constprop.2+0x4184>  // b.none
   844c8:	54004929 	b.ls	84dec <Process_Out.constprop.2+0x10b4>  // b.plast
   844cc:	7101b85f 	cmp	w2, #0x6e
   844d0:	5400ca80 	b.eq	85e20 <Process_Out.constprop.2+0x20e8>  // b.none
   844d4:	540047e9 	b.ls	84dd0 <Process_Out.constprop.2+0x1098>  // b.plast
   844d8:	7101c05f 	cmp	w2, #0x70
   844dc:	54005cc0 	b.eq	85074 <Process_Out.constprop.2+0x133c>  // b.none
   844e0:	54011583 	b.cc	86790 <Process_Out.constprop.2+0x2a58>  // b.lo, b.ul, b.last
   844e4:	7101cc5f 	cmp	w2, #0x73
   844e8:	54004b00 	b.eq	84e48 <Process_Out.constprop.2+0x1110>  // b.none
   844ec:	7101e05f 	cmp	w2, #0x78
   844f0:	52800140 	mov	w0, #0xa                   	// #10
   844f4:	1a9f17e9 	cset	w9, eq  // eq = none
   844f8:	52800207 	mov	w7, #0x10                  	// #16
   844fc:	1a8000e7 	csel	w7, w7, w0, eq  // eq = none
   84500:	52800000 	mov	w0, #0x0                   	// #0
   84504:	d503201f 	nop
   84508:	b94067e2 	ldr	w2, [sp, #100]
   8450c:	37f8dfc2 	tbnz	w2, #31, 86104 <Process_Out.constprop.2+0x23cc>
   84510:	91002d02 	add	x2, x8, #0xb
   84514:	927df042 	and	x2, x2, #0xfffffffffffffff8
   84518:	f90037e2 	str	x2, [sp, #104]
   8451c:	33000298 	bfxil	w24, w20, #0, #1
   84520:	52801eec 	mov	w12, #0xf7                  	// #247
   84524:	5280014b 	mov	w11, #0xa                   	// #10
   84528:	b9400102 	ldr	w2, [x8]
   8452c:	331f0018 	bfi	w24, w0, #1, #1
   84530:	b94083e0 	ldr	w0, [sp, #128]
   84534:	52800608 	mov	w8, #0x30                  	// #48
   84538:	2a1c03f1 	mov	w17, w28
   8453c:	331e0018 	bfi	w24, w0, #2, #1
   84540:	b94063e0 	ldr	w0, [sp, #96]
   84544:	331d0018 	bfi	w24, w0, #3, #1
   84548:	52800400 	mov	w0, #0x20                  	// #32
   8454c:	331c02d8 	bfi	w24, w22, #4, #1
   84550:	331b0138 	bfi	w24, w9, #5, #1
   84554:	331a02b8 	bfi	w24, w21, #6, #1
   84558:	33190158 	bfi	w24, w10, #7, #1
   8455c:	331810f8 	bfi	w24, w7, #8, #5
   84560:	33101f98 	bfi	w24, w28, #16, #8
   84564:	33081c38 	bfi	w24, w1, #24, #8
   84568:	121f1b0d 	and	w13, w24, #0xfe
   8456c:	f27c031f 	tst	x24, #0x10
   84570:	d3483306 	ubfx	x6, x24, #8, #5
   84574:	1a9f0294 	csel	w20, w20, wzr, eq  // eq = none
   84578:	510020c9 	sub	w9, w6, #0x8
   8457c:	2a1401ad 	orr	w13, w13, w20
   84580:	6a0c013f 	tst	w9, w12
   84584:	7a4218c4 	ccmp	w6, #0x2, #0x4, ne  // ne = any
   84588:	0a0001ae 	and	w14, w13, w0
   8458c:	1a8b00e7 	csel	w7, w7, w11, eq  // eq = none
   84590:	f24001bf 	tst	x13, #0x1
   84594:	1a801109 	csel	w9, w8, w0, ne  // ne = any
   84598:	3608cccd 	tbz	w13, #1, 85f30 <Process_Out.constprop.2+0x21f8>
   8459c:	37f8cd22 	tbnz	w2, #31, 85f40 <Process_Out.constprop.2+0x2208>
   845a0:	36116fad 	tbz	w13, #2, 87394 <Process_Out.constprop.2+0x365c>
   845a4:	51000791 	sub	w17, w28, #0x1
   845a8:	5280056f 	mov	w15, #0x2b                  	// #43
   845ac:	3500cd02 	cbnz	w2, 85f4c <Process_Out.constprop.2+0x2214>
   845b0:	52800600 	mov	w0, #0x30                  	// #48
   845b4:	5280000c 	mov	w12, #0x0                   	// #0
   845b8:	52800606 	mov	w6, #0x30                  	// #48
   845bc:	52800028 	mov	w8, #0x1                   	// #1
   845c0:	390243e0 	strb	w0, [sp, #144]
   845c4:	6b08003f 	cmp	w1, w8
   845c8:	2a0103f5 	mov	w21, w1
   845cc:	5400006a 	b.ge	845d8 <Process_Out.constprop.2+0x8a0>  // b.tcont
   845d0:	13001d01 	sxtb	w1, w8
   845d4:	2a0803f5 	mov	w21, w8
   845d8:	f0000082 	adrp	x2, 97000 <__bss_start__>
   845dc:	91004053 	add	x19, x2, #0x10
   845e0:	4b150231 	sub	w17, w17, w21
   845e4:	2b1402d6 	adds	w22, w22, w20
   845e8:	b9401042 	ldr	w2, [x2, #16]
   845ec:	5100062a 	sub	w10, w17, #0x1
   845f0:	b9400670 	ldr	w16, [x19, #4]
   845f4:	f940066b 	ldr	x11, [x19, #8]
   845f8:	5400ca01 	b.ne	85f38 <Process_Out.constprop.2+0x2200>  // b.any
   845fc:	7100023f 	cmp	w17, #0x0
   84600:	5401b64d 	b.le	87cc8 <Process_Out.constprop.2+0x3f90>
   84604:	3100045f 	cmn	w2, #0x1
   84608:	54016d00 	b.eq	873a8 <Process_Out.constprop.2+0x3670>  // b.none
   8460c:	b400020b 	cbz	x11, 8464c <Process_Out.constprop.2+0x914>
   84610:	2a1003e0 	mov	w0, w16
   84614:	52800012 	mov	w18, #0x0                   	// #0
   84618:	52800414 	mov	w20, #0x20                  	// #32
   8461c:	d503201f 	nop
   84620:	5100054a 	sub	w10, w10, #0x1
   84624:	6b02001f 	cmp	w0, w2
   84628:	5400008a 	b.ge	84638 <Process_Out.constprop.2+0x900>  // b.tcont
   8462c:	3820c974 	strb	w20, [x11, w0, sxtw]
   84630:	11000400 	add	w0, w0, #0x1
   84634:	52800032 	mov	w18, #0x1                   	// #1
   84638:	3100055f 	cmn	w10, #0x1
   8463c:	54ffff21 	b.ne	84620 <Process_Out.constprop.2+0x8e8>  // b.any
   84640:	34000072 	cbz	w18, 8464c <Process_Out.constprop.2+0x914>
   84644:	2a0003f0 	mov	w16, w0
   84648:	b9000660 	str	w0, [x19, #4]
   8464c:	2a1103f6 	mov	w22, w17
   84650:	1280002a 	mov	w10, #0xfffffffe            	// #-2
   84654:	12800011 	mov	w17, #0xffffffff            	// #-1
   84658:	52800220 	mov	w0, #0x11                  	// #17
   8465c:	6a0001bf 	tst	w13, w0
   84660:	54000381 	b.ne	846d0 <Process_Out.constprop.2+0x998>  // b.any
   84664:	7100023f 	cmp	w17, #0x0
   84668:	5401c24d 	b.le	87eb0 <Process_Out.constprop.2+0x4178>
   8466c:	3100045f 	cmn	w2, #0x1
   84670:	540171c0 	b.eq	874a8 <Process_Out.constprop.2+0x3770>  // b.none
   84674:	b401828b 	cbz	x11, 876c4 <Process_Out.constprop.2+0x398c>
   84678:	2a1003f2 	mov	w18, w16
   8467c:	2a0a03e0 	mov	w0, w10
   84680:	52800014 	mov	w20, #0x0                   	// #0
   84684:	d503201f 	nop
   84688:	6b02025f 	cmp	w18, w2
   8468c:	5400008a 	b.ge	8469c <Process_Out.constprop.2+0x964>  // b.tcont
   84690:	3832c969 	strb	w9, [x11, w18, sxtw]
   84694:	11000652 	add	w18, w18, #0x1
   84698:	52800034 	mov	w20, #0x1                   	// #1
   8469c:	7100001f 	cmp	w0, #0x0
   846a0:	51000400 	sub	w0, w0, #0x1
   846a4:	54ffff2c 	b.gt	84688 <Process_Out.constprop.2+0x950>
   846a8:	7100015f 	cmp	w10, #0x0
   846ac:	110006d6 	add	w22, w22, #0x1
   846b0:	1a9fa151 	csel	w17, w10, wzr, ge  // ge = tcont
   846b4:	5100054a 	sub	w10, w10, #0x1
   846b8:	0b160236 	add	w22, w17, w22
   846bc:	4b110151 	sub	w17, w10, w17
   846c0:	34000074 	cbz	w20, 846cc <Process_Out.constprop.2+0x994>
   846c4:	2a1203f0 	mov	w16, w18
   846c8:	b9000672 	str	w18, [x19, #4]
   846cc:	5100062a 	sub	w10, w17, #0x1
   846d0:	51000421 	sub	w1, w1, #0x1
   846d4:	6b15011f 	cmp	w8, w21
   846d8:	12001c32 	and	w18, w1, #0xff
   846dc:	54018eea 	b.ge	878b8 <Process_Out.constprop.2+0x3b80>  // b.tcont
   846e0:	3100045f 	cmn	w2, #0x1
   846e4:	54011900 	b.eq	86a04 <Process_Out.constprop.2+0x2ccc>  // b.none
   846e8:	b4002fab 	cbz	x11, 84cdc <Process_Out.constprop.2+0xfa4>
   846ec:	2a1003e9 	mov	w9, w16
   846f0:	2a1603e0 	mov	w0, w22
   846f4:	52800014 	mov	w20, #0x0                   	// #0
   846f8:	52800615 	mov	w21, #0x30                  	// #48
   846fc:	d503201f 	nop
   84700:	4b0002c1 	sub	w1, w22, w0
   84704:	6b02013f 	cmp	w9, w2
   84708:	0b010241 	add	w1, w18, w1
   8470c:	11000400 	add	w0, w0, #0x1
   84710:	13001c21 	sxtb	w1, w1
   84714:	5400008a 	b.ge	84724 <Process_Out.constprop.2+0x9ec>  // b.tcont
   84718:	3829c975 	strb	w21, [x11, w9, sxtw]
   8471c:	11000529 	add	w9, w9, #0x1
   84720:	52800034 	mov	w20, #0x1                   	// #1
   84724:	6b01011f 	cmp	w8, w1
   84728:	54fffecb 	b.lt	84700 <Process_Out.constprop.2+0x9c8>  // b.tstop
   8472c:	34002e54 	cbz	w20, 84cf4 <Process_Out.constprop.2+0xfbc>
   84730:	b9000669 	str	w9, [x19, #4]
   84734:	3400014f 	cbz	w15, 8475c <Process_Out.constprop.2+0xa24>
   84738:	3100045f 	cmn	w2, #0x1
   8473c:	54000060 	b.eq	84748 <Process_Out.constprop.2+0xa10>  // b.none
   84740:	6b02013f 	cmp	w9, w2
   84744:	540000aa 	b.ge	84758 <Process_Out.constprop.2+0xa20>  // b.tcont
   84748:	b400008b 	cbz	x11, 84758 <Process_Out.constprop.2+0xa20>
   8474c:	3829c96f 	strb	w15, [x11, w9, sxtw]
   84750:	11000529 	add	w9, w9, #0x1
   84754:	b9000669 	str	w9, [x19, #4]
   84758:	11000400 	add	w0, w0, #0x1
   8475c:	363002ed 	tbz	w13, #6, 847b8 <Process_Out.constprop.2+0xa80>
   84760:	710020ff 	cmp	w7, #0x8
   84764:	54017d40 	b.eq	8770c <Process_Out.constprop.2+0x39d4>  // b.none
   84768:	710040ff 	cmp	w7, #0x10
   8476c:	54000261 	b.ne	847b8 <Process_Out.constprop.2+0xa80>  // b.any
   84770:	3100045f 	cmn	w2, #0x1
   84774:	5401c1c0 	b.eq	87fac <Process_Out.constprop.2+0x4274>  // b.none
   84778:	6b02013f 	cmp	w9, w2
   8477c:	540001ca 	b.ge	847b4 <Process_Out.constprop.2+0xa7c>  // b.tcont
   84780:	52800b01 	mov	w1, #0x58                  	// #88
   84784:	2a0101ce 	orr	w14, w14, w1
   84788:	b401dd2b 	cbz	x11, 8832c <Process_Out.constprop.2+0x45f4>
   8478c:	52800601 	mov	w1, #0x30                  	// #48
   84790:	3829c961 	strb	w1, [x11, w9, sxtw]
   84794:	11000529 	add	w9, w9, #0x1
   84798:	b9000669 	str	w9, [x19, #4]
   8479c:	6b02013f 	cmp	w9, w2
   847a0:	540000aa 	b.ge	847b4 <Process_Out.constprop.2+0xa7c>  // b.tcont
   847a4:	b9400661 	ldr	w1, [x19, #4]
   847a8:	11000429 	add	w9, w1, #0x1
   847ac:	b9000669 	str	w9, [x19, #4]
   847b0:	3821c96e 	strb	w14, [x11, w1, sxtw]
   847b4:	11000800 	add	w0, w0, #0x2
   847b8:	3100045f 	cmn	w2, #0x1
   847bc:	54011c00 	b.eq	86b3c <Process_Out.constprop.2+0x2e04>  // b.none
   847c0:	b400b80b 	cbz	x11, 85ec0 <Process_Out.constprop.2+0x2188>
   847c4:	93407d87 	sxtw	x7, w12
   847c8:	2a0903e1 	mov	w1, w9
   847cc:	5280000d 	mov	w13, #0x0                   	// #0
   847d0:	14000003 	b	847dc <Process_Out.constprop.2+0xaa4>
   847d4:	385ff066 	ldurb	w6, [x3, #-1]
   847d8:	d10004e7 	sub	x7, x7, #0x1
   847dc:	910243e3 	add	x3, sp, #0x90
   847e0:	6b02003f 	cmp	w1, w2
   847e4:	8b0300e3 	add	x3, x7, x3
   847e8:	5400008a 	b.ge	847f8 <Process_Out.constprop.2+0xac0>  // b.tcont
   847ec:	3821c966 	strb	w6, [x11, w1, sxtw]
   847f0:	11000421 	add	w1, w1, #0x1
   847f4:	5280002d 	mov	w13, #0x1                   	// #1
   847f8:	710000ff 	cmp	w7, #0x0
   847fc:	54fffecc 	b.gt	847d4 <Process_Out.constprop.2+0xa9c>
   84800:	11000400 	add	w0, w0, #0x1
   84804:	0b000186 	add	w6, w12, w0
   84808:	3401d1ed 	cbz	w13, 88244 <Process_Out.constprop.2+0x450c>
   8480c:	b9000661 	str	w1, [x19, #4]
   84810:	7100023f 	cmp	w17, #0x0
   84814:	54ffd8ad 	b.le	84328 <Process_Out.constprop.2+0x5f0>
   84818:	3100045f 	cmn	w2, #0x1
   8481c:	54012f60 	b.eq	86e08 <Process_Out.constprop.2+0x30d0>  // b.none
   84820:	b400b32b 	cbz	x11, 85e84 <Process_Out.constprop.2+0x214c>
   84824:	2a0a03e0 	mov	w0, w10
   84828:	52800007 	mov	w7, #0x0                   	// #0
   8482c:	52800408 	mov	w8, #0x20                  	// #32
   84830:	6b02003f 	cmp	w1, w2
   84834:	5400008a 	b.ge	84844 <Process_Out.constprop.2+0xb0c>  // b.tcont
   84838:	3821c968 	strb	w8, [x11, w1, sxtw]
   8483c:	11000421 	add	w1, w1, #0x1
   84840:	52800027 	mov	w7, #0x1                   	// #1
   84844:	7100001f 	cmp	w0, #0x0
   84848:	51000400 	sub	w0, w0, #0x1
   8484c:	54ffff2c 	b.gt	84830 <Process_Out.constprop.2+0xaf8>
   84850:	17fffeb0 	b	84310 <Process_Out.constprop.2+0x5d8>
   84854:	7101d05f 	cmp	w2, #0x74
   84858:	54005a20 	b.eq	8539c <Process_Out.constprop.2+0x1664>  // b.none
   8485c:	7101e85f 	cmp	w2, #0x7a
   84860:	54ffe541 	b.ne	84508 <Process_Out.constprop.2+0x7d0>  // b.any
   84864:	b94067e2 	ldr	w2, [sp, #100]
   84868:	37f820e2 	tbnz	w2, #31, 84c84 <Process_Out.constprop.2+0xf4c>
   8486c:	91003d02 	add	x2, x8, #0xf
   84870:	927df042 	and	x2, x2, #0xfffffffffffffff8
   84874:	f90037e2 	str	x2, [sp, #104]
   84878:	33000298 	bfxil	w24, w20, #0, #1
   8487c:	52801eec 	mov	w12, #0xf7                  	// #247
   84880:	5280014b 	mov	w11, #0xa                   	// #10
   84884:	2a1c03f2 	mov	w18, w28
   84888:	331f0018 	bfi	w24, w0, #1, #1
   8488c:	b94083e0 	ldr	w0, [sp, #128]
   84890:	f9400102 	ldr	x2, [x8]
   84894:	52800608 	mov	w8, #0x30                  	// #48
   84898:	331e0018 	bfi	w24, w0, #2, #1
   8489c:	b94063e0 	ldr	w0, [sp, #96]
   848a0:	331d0018 	bfi	w24, w0, #3, #1
   848a4:	52800400 	mov	w0, #0x20                  	// #32
   848a8:	331c02d8 	bfi	w24, w22, #4, #1
   848ac:	331b0138 	bfi	w24, w9, #5, #1
   848b0:	331a02b8 	bfi	w24, w21, #6, #1
   848b4:	33190158 	bfi	w24, w10, #7, #1
   848b8:	331810f8 	bfi	w24, w7, #8, #5
   848bc:	33101f98 	bfi	w24, w28, #16, #8
   848c0:	33081c38 	bfi	w24, w1, #24, #8
   848c4:	121f1b0e 	and	w14, w24, #0xfe
   848c8:	f27c031f 	tst	x24, #0x10
   848cc:	d3483306 	ubfx	x6, x24, #8, #5
   848d0:	1a9f0294 	csel	w20, w20, wzr, eq  // eq = none
   848d4:	510020c9 	sub	w9, w6, #0x8
   848d8:	2a1401ce 	orr	w14, w14, w20
   848dc:	6a0c013f 	tst	w9, w12
   848e0:	7a4218c4 	ccmp	w6, #0x2, #0x4, ne  // ne = any
   848e4:	0a0001cf 	and	w15, w14, w0
   848e8:	1a8b00e7 	csel	w7, w7, w11, eq  // eq = none
   848ec:	f24001df 	tst	x14, #0x1
   848f0:	1a801109 	csel	w9, w8, w0, ne  // ne = any
   848f4:	3608ba0e 	tbz	w14, #1, 86034 <Process_Out.constprop.2+0x22fc>
   848f8:	b7f8b4c2 	tbnz	x2, #63, 85f90 <Process_Out.constprop.2+0x2258>
   848fc:	3611542e 	tbz	w14, #2, 87380 <Process_Out.constprop.2+0x3648>
   84900:	51000792 	sub	w18, w28, #0x1
   84904:	52800570 	mov	w16, #0x2b                  	// #43
   84908:	b500b4a2 	cbnz	x2, 85f9c <Process_Out.constprop.2+0x2264>
   8490c:	52800600 	mov	w0, #0x30                  	// #48
   84910:	52800606 	mov	w6, #0x30                  	// #48
   84914:	5280000d 	mov	w13, #0x0                   	// #0
   84918:	52800028 	mov	w8, #0x1                   	// #1
   8491c:	390243e0 	strb	w0, [sp, #144]
   84920:	6b08003f 	cmp	w1, w8
   84924:	f0000082 	adrp	x2, 97000 <__bss_start__>
   84928:	13001d00 	sxtb	w0, w8
   8492c:	91004053 	add	x19, x2, #0x10
   84930:	1a81b001 	csel	w1, w0, w1, lt  // lt = tstop
   84934:	b9401042 	ldr	w2, [x2, #16]
   84938:	4b010252 	sub	w18, w18, w1
   8493c:	2b1402d6 	adds	w22, w22, w20
   84940:	5100064b 	sub	w11, w18, #0x1
   84944:	b940066c 	ldr	w12, [x19, #4]
   84948:	f940066a 	ldr	x10, [x19, #8]
   8494c:	5400b1e1 	b.ne	85f88 <Process_Out.constprop.2+0x2250>  // b.any
   84950:	7100025f 	cmp	w18, #0x0
   84954:	54019c2d 	b.le	87cd8 <Process_Out.constprop.2+0x3fa0>
   84958:	3100045f 	cmn	w2, #0x1
   8495c:	540153e0 	b.eq	873d8 <Process_Out.constprop.2+0x36a0>  // b.none
   84960:	b40001ea 	cbz	x10, 8499c <Process_Out.constprop.2+0xc64>
   84964:	2a0c03e0 	mov	w0, w12
   84968:	52800011 	mov	w17, #0x0                   	// #0
   8496c:	52800414 	mov	w20, #0x20                  	// #32
   84970:	5100056b 	sub	w11, w11, #0x1
   84974:	6b02001f 	cmp	w0, w2
   84978:	5400008a 	b.ge	84988 <Process_Out.constprop.2+0xc50>  // b.tcont
   8497c:	3820c954 	strb	w20, [x10, w0, sxtw]
   84980:	11000400 	add	w0, w0, #0x1
   84984:	52800031 	mov	w17, #0x1                   	// #1
   84988:	3100057f 	cmn	w11, #0x1
   8498c:	54ffff21 	b.ne	84970 <Process_Out.constprop.2+0xc38>  // b.any
   84990:	34000071 	cbz	w17, 8499c <Process_Out.constprop.2+0xc64>
   84994:	2a0003ec 	mov	w12, w0
   84998:	b9000660 	str	w0, [x19, #4]
   8499c:	2a1203f6 	mov	w22, w18
   849a0:	1280002b 	mov	w11, #0xfffffffe            	// #-2
   849a4:	12800012 	mov	w18, #0xffffffff            	// #-1
   849a8:	3720038e 	tbnz	w14, #4, 84a18 <Process_Out.constprop.2+0xce0>
   849ac:	7100025f 	cmp	w18, #0x0
   849b0:	5401ad8d 	b.le	87f60 <Process_Out.constprop.2+0x4228>
   849b4:	3100045f 	cmn	w2, #0x1
   849b8:	54015280 	b.eq	87408 <Process_Out.constprop.2+0x36d0>  // b.none
   849bc:	b40161ea 	cbz	x10, 875f8 <Process_Out.constprop.2+0x38c0>
   849c0:	2a0c03f1 	mov	w17, w12
   849c4:	2a0b03e0 	mov	w0, w11
   849c8:	52800014 	mov	w20, #0x0                   	// #0
   849cc:	d503201f 	nop
   849d0:	6b02023f 	cmp	w17, w2
   849d4:	5400008a 	b.ge	849e4 <Process_Out.constprop.2+0xcac>  // b.tcont
   849d8:	3831c949 	strb	w9, [x10, w17, sxtw]
   849dc:	11000631 	add	w17, w17, #0x1
   849e0:	52800034 	mov	w20, #0x1                   	// #1
   849e4:	7100001f 	cmp	w0, #0x0
   849e8:	51000400 	sub	w0, w0, #0x1
   849ec:	54ffff2c 	b.gt	849d0 <Process_Out.constprop.2+0xc98>
   849f0:	7100017f 	cmp	w11, #0x0
   849f4:	110006d6 	add	w22, w22, #0x1
   849f8:	1a9fa160 	csel	w0, w11, wzr, ge  // ge = tcont
   849fc:	5100056b 	sub	w11, w11, #0x1
   84a00:	0b160016 	add	w22, w0, w22
   84a04:	4b000172 	sub	w18, w11, w0
   84a08:	34000074 	cbz	w20, 84a14 <Process_Out.constprop.2+0xcdc>
   84a0c:	2a1103ec 	mov	w12, w17
   84a10:	b9000671 	str	w17, [x19, #4]
   84a14:	5100064b 	sub	w11, w18, #0x1
   84a18:	51000431 	sub	w17, w1, #0x1
   84a1c:	6b01011f 	cmp	w8, w1
   84a20:	12001e31 	and	w17, w17, #0xff
   84a24:	54017a4a 	b.ge	8796c <Process_Out.constprop.2+0x3c34>  // b.tcont
   84a28:	3100045f 	cmn	w2, #0x1
   84a2c:	540100e0 	b.eq	86a48 <Process_Out.constprop.2+0x2d10>  // b.none
   84a30:	b400166a 	cbz	x10, 84cfc <Process_Out.constprop.2+0xfc4>
   84a34:	2a0c03e9 	mov	w9, w12
   84a38:	2a1603e0 	mov	w0, w22
   84a3c:	52800014 	mov	w20, #0x0                   	// #0
   84a40:	52800615 	mov	w21, #0x30                  	// #48
   84a44:	d503201f 	nop
   84a48:	4b0002c1 	sub	w1, w22, w0
   84a4c:	6b02013f 	cmp	w9, w2
   84a50:	0b010221 	add	w1, w17, w1
   84a54:	11000400 	add	w0, w0, #0x1
   84a58:	13001c21 	sxtb	w1, w1
   84a5c:	5400008a 	b.ge	84a6c <Process_Out.constprop.2+0xd34>  // b.tcont
   84a60:	3829c955 	strb	w21, [x10, w9, sxtw]
   84a64:	11000529 	add	w9, w9, #0x1
   84a68:	52800034 	mov	w20, #0x1                   	// #1
   84a6c:	6b08003f 	cmp	w1, w8
   84a70:	54fffecc 	b.gt	84a48 <Process_Out.constprop.2+0xd10>
   84a74:	34001514 	cbz	w20, 84d14 <Process_Out.constprop.2+0xfdc>
   84a78:	b9000669 	str	w9, [x19, #4]
   84a7c:	34000150 	cbz	w16, 84aa4 <Process_Out.constprop.2+0xd6c>
   84a80:	3100045f 	cmn	w2, #0x1
   84a84:	54000060 	b.eq	84a90 <Process_Out.constprop.2+0xd58>  // b.none
   84a88:	6b02013f 	cmp	w9, w2
   84a8c:	540000aa 	b.ge	84aa0 <Process_Out.constprop.2+0xd68>  // b.tcont
   84a90:	b400008a 	cbz	x10, 84aa0 <Process_Out.constprop.2+0xd68>
   84a94:	3829c950 	strb	w16, [x10, w9, sxtw]
   84a98:	11000529 	add	w9, w9, #0x1
   84a9c:	b9000669 	str	w9, [x19, #4]
   84aa0:	11000400 	add	w0, w0, #0x1
   84aa4:	363002ee 	tbz	w14, #6, 84b00 <Process_Out.constprop.2+0xdc8>
   84aa8:	710020ff 	cmp	w7, #0x8
   84aac:	540161a0 	b.eq	876e0 <Process_Out.constprop.2+0x39a8>  // b.none
   84ab0:	710040ff 	cmp	w7, #0x10
   84ab4:	54000261 	b.ne	84b00 <Process_Out.constprop.2+0xdc8>  // b.any
   84ab8:	3100045f 	cmn	w2, #0x1
   84abc:	5401abc0 	b.eq	88034 <Process_Out.constprop.2+0x42fc>  // b.none
   84ac0:	6b02013f 	cmp	w9, w2
   84ac4:	540001ca 	b.ge	84afc <Process_Out.constprop.2+0xdc4>  // b.tcont
   84ac8:	52800b01 	mov	w1, #0x58                  	// #88
   84acc:	2a0101ef 	orr	w15, w15, w1
   84ad0:	b401c72a 	cbz	x10, 883b4 <Process_Out.constprop.2+0x467c>
   84ad4:	52800601 	mov	w1, #0x30                  	// #48
   84ad8:	3829c941 	strb	w1, [x10, w9, sxtw]
   84adc:	11000529 	add	w9, w9, #0x1
   84ae0:	b9000669 	str	w9, [x19, #4]
   84ae4:	6b02013f 	cmp	w9, w2
   84ae8:	540000aa 	b.ge	84afc <Process_Out.constprop.2+0xdc4>  // b.tcont
   84aec:	b9400661 	ldr	w1, [x19, #4]
   84af0:	11000429 	add	w9, w1, #0x1
   84af4:	b9000669 	str	w9, [x19, #4]
   84af8:	3821c94f 	strb	w15, [x10, w1, sxtw]
   84afc:	11000800 	add	w0, w0, #0x2
   84b00:	3100045f 	cmn	w2, #0x1
   84b04:	540103c0 	b.eq	86b7c <Process_Out.constprop.2+0x2e44>  // b.none
   84b08:	b40108ea 	cbz	x10, 86c24 <Process_Out.constprop.2+0x2eec>
   84b0c:	93407da7 	sxtw	x7, w13
   84b10:	2a0903e1 	mov	w1, w9
   84b14:	5280000c 	mov	w12, #0x0                   	// #0
   84b18:	14000003 	b	84b24 <Process_Out.constprop.2+0xdec>
   84b1c:	385ff066 	ldurb	w6, [x3, #-1]
   84b20:	d10004e7 	sub	x7, x7, #0x1
   84b24:	910243e3 	add	x3, sp, #0x90
   84b28:	6b02003f 	cmp	w1, w2
   84b2c:	8b0300e3 	add	x3, x7, x3
   84b30:	5400008a 	b.ge	84b40 <Process_Out.constprop.2+0xe08>  // b.tcont
   84b34:	3821c946 	strb	w6, [x10, w1, sxtw]
   84b38:	11000421 	add	w1, w1, #0x1
   84b3c:	5280002c 	mov	w12, #0x1                   	// #1
   84b40:	710000ff 	cmp	w7, #0x0
   84b44:	54fffecc 	b.gt	84b1c <Process_Out.constprop.2+0xde4>
   84b48:	11000400 	add	w0, w0, #0x1
   84b4c:	0b0d0006 	add	w6, w0, w13
   84b50:	3401b42c 	cbz	w12, 881d4 <Process_Out.constprop.2+0x449c>
   84b54:	b9000661 	str	w1, [x19, #4]
   84b58:	7100025f 	cmp	w18, #0x0
   84b5c:	54ffbe6d 	b.le	84328 <Process_Out.constprop.2+0x5f0>
   84b60:	3100045f 	cmn	w2, #0x1
   84b64:	54010f40 	b.eq	86d4c <Process_Out.constprop.2+0x3014>  // b.none
   84b68:	b401066a 	cbz	x10, 86c34 <Process_Out.constprop.2+0x2efc>
   84b6c:	2a0b03e0 	mov	w0, w11
   84b70:	52800007 	mov	w7, #0x0                   	// #0
   84b74:	52800408 	mov	w8, #0x20                  	// #32
   84b78:	6b02003f 	cmp	w1, w2
   84b7c:	5400008a 	b.ge	84b8c <Process_Out.constprop.2+0xe54>  // b.tcont
   84b80:	3821c948 	strb	w8, [x10, w1, sxtw]
   84b84:	11000421 	add	w1, w1, #0x1
   84b88:	52800027 	mov	w7, #0x1                   	// #1
   84b8c:	7100001f 	cmp	w0, #0x0
   84b90:	51000400 	sub	w0, w0, #0x1
   84b94:	54ffff2c 	b.gt	84b78 <Process_Out.constprop.2+0xe40>
   84b98:	7100017f 	cmp	w11, #0x0
   84b9c:	110004c6 	add	w6, w6, #0x1
   84ba0:	1a9fa16b 	csel	w11, w11, wzr, ge  // ge = tcont
   84ba4:	0b060166 	add	w6, w11, w6
   84ba8:	34ffbc07 	cbz	w7, 84328 <Process_Out.constprop.2+0x5f0>
   84bac:	b9000661 	str	w1, [x19, #4]
   84bb0:	17fffdde 	b	84328 <Process_Out.constprop.2+0x5f0>
   84bb4:	52800147 	mov	w7, #0xa                   	// #10
   84bb8:	52800009 	mov	w9, #0x0                   	// #0
   84bbc:	52800000 	mov	w0, #0x0                   	// #0
   84bc0:	17fffcfb 	b	83fac <Process_Out.constprop.2+0x274>
   84bc4:	eb1b035f 	cmp	x26, x27
   84bc8:	54ff9569 	b.ls	83e74 <Process_Out.constprop.2+0x13c>  // b.plast
   84bcc:	387b6ae0 	ldrb	w0, [x23, x27]
   84bd0:	7100a81f 	cmp	w0, #0x2a
   84bd4:	54000b41 	b.ne	84d3c <Process_Out.constprop.2+0x1004>  // b.any
   84bd8:	91000a61 	add	x1, x19, #0x2
   84bdc:	eb01035f 	cmp	x26, x1
   84be0:	54ff94a9 	b.ls	83e74 <Process_Out.constprop.2+0x13c>  // b.plast
   84be4:	b94067e0 	ldr	w0, [sp, #100]
   84be8:	37f80200 	tbnz	w0, #31, 84c28 <Process_Out.constprop.2+0xef0>
   84bec:	91002d02 	add	x2, x8, #0xb
   84bf0:	aa0803e0 	mov	x0, x8
   84bf4:	927df048 	and	x8, x2, #0xfffffffffffffff8
   84bf8:	b9400000 	ldr	w0, [x0]
   84bfc:	91000e7b 	add	x27, x19, #0x3
   84c00:	38616ae2 	ldrb	w2, [x23, x1]
   84c04:	aa0103f3 	mov	x19, x1
   84c08:	f279001f 	tst	x0, #0x80
   84c0c:	1a9f0000 	csel	w0, w0, wzr, eq  // eq = none
   84c10:	13001c01 	sxtb	w1, w0
   84c14:	17fffcc4 	b	83f24 <Process_Out.constprop.2+0x1ec>
   84c18:	52800107 	mov	w7, #0x8                   	// #8
   84c1c:	52800009 	mov	w9, #0x0                   	// #0
   84c20:	52800000 	mov	w0, #0x0                   	// #0
   84c24:	17fffce2 	b	83fac <Process_Out.constprop.2+0x274>
   84c28:	b94067e0 	ldr	w0, [sp, #100]
   84c2c:	11002002 	add	w2, w0, #0x8
   84c30:	7100005f 	cmp	w2, #0x0
   84c34:	5400a5ed 	b.le	860f0 <Process_Out.constprop.2+0x23b8>
   84c38:	91002d07 	add	x7, x8, #0xb
   84c3c:	aa0803e0 	mov	x0, x8
   84c40:	927df0e8 	and	x8, x7, #0xfffffffffffffff8
   84c44:	b90067e2 	str	w2, [sp, #100]
   84c48:	17ffffec 	b	84bf8 <Process_Out.constprop.2+0xec0>
   84c4c:	eb1b035f 	cmp	x26, x27
   84c50:	54ff9129 	b.ls	83e74 <Process_Out.constprop.2+0x13c>  // b.plast
   84c54:	9100077b 	add	x27, x27, #0x1
   84c58:	5280002a 	mov	w10, #0x1                   	// #1
   84c5c:	17fffcbf 	b	83f58 <Process_Out.constprop.2+0x220>
   84c60:	b94067e2 	ldr	w2, [sp, #100]
   84c64:	11002042 	add	w2, w2, #0x8
   84c68:	7100005f 	cmp	w2, #0x0
   84c6c:	540132cd 	b.le	872c4 <Process_Out.constprop.2+0x358c>
   84c70:	91003d03 	add	x3, x8, #0xf
   84c74:	b90067e2 	str	w2, [sp, #100]
   84c78:	927df062 	and	x2, x3, #0xfffffffffffffff8
   84c7c:	f90037e2 	str	x2, [sp, #104]
   84c80:	17fffcd7 	b	83fdc <Process_Out.constprop.2+0x2a4>
   84c84:	b94067e2 	ldr	w2, [sp, #100]
   84c88:	11002042 	add	w2, w2, #0x8
   84c8c:	7100005f 	cmp	w2, #0x0
   84c90:	540128cd 	b.le	871a8 <Process_Out.constprop.2+0x3470>
   84c94:	91003d03 	add	x3, x8, #0xf
   84c98:	b90067e2 	str	w2, [sp, #100]
   84c9c:	927df062 	and	x2, x3, #0xfffffffffffffff8
   84ca0:	f90037e2 	str	x2, [sp, #104]
   84ca4:	17fffef5 	b	84878 <Process_Out.constprop.2+0xb40>
   84ca8:	b94087e0 	ldr	w0, [sp, #132]
   84cac:	37f93dc0 	tbnz	w0, #31, 87464 <Process_Out.constprop.2+0x372c>
   84cb0:	91003d00 	add	x0, x8, #0xf
   84cb4:	927cec00 	and	x0, x0, #0xfffffffffffffff0
   84cb8:	91004001 	add	x1, x0, #0x10
   84cbc:	f90037e1 	str	x1, [sp, #104]
   84cc0:	3dc00000 	ldr	q0, [x0]
   84cc4:	94003c51 	bl	93e08 <__trunctfdf2>
   84cc8:	f0ffffe0 	adrp	x0, 83000 <Process_Out+0x250>
   84ccc:	9133e000 	add	x0, x0, #0xcf8
   84cd0:	97fff760 	bl	82a50 <NumStr>
   84cd4:	0b000339 	add	w25, w25, w0
   84cd8:	17fffc49 	b	83dfc <Process_Out.constprop.2+0xc4>
   84cdc:	2a1603e0 	mov	w0, w22
   84ce0:	4b0002c1 	sub	w1, w22, w0
   84ce4:	11000400 	add	w0, w0, #0x1
   84ce8:	0b010241 	add	w1, w18, w1
   84cec:	6b21811f 	cmp	w8, w1, sxtb
   84cf0:	54ffff8b 	b.lt	84ce0 <Process_Out.constprop.2+0xfa8>  // b.tstop
   84cf4:	2a1003e9 	mov	w9, w16
   84cf8:	17fffe8f 	b	84734 <Process_Out.constprop.2+0x9fc>
   84cfc:	2a1603e0 	mov	w0, w22
   84d00:	4b0002c1 	sub	w1, w22, w0
   84d04:	11000400 	add	w0, w0, #0x1
   84d08:	0b010221 	add	w1, w17, w1
   84d0c:	6b21811f 	cmp	w8, w1, sxtb
   84d10:	54ffff8b 	b.lt	84d00 <Process_Out.constprop.2+0xfc8>  // b.tstop
   84d14:	2a0c03e9 	mov	w9, w12
   84d18:	17ffff59 	b	84a7c <Process_Out.constprop.2+0xd44>
   84d1c:	2a1603e0 	mov	w0, w22
   84d20:	4b0002c1 	sub	w1, w22, w0
   84d24:	11000400 	add	w0, w0, #0x1
   84d28:	0b010241 	add	w1, w18, w1
   84d2c:	6b21811f 	cmp	w8, w1, sxtb
   84d30:	54ffff8b 	b.lt	84d20 <Process_Out.constprop.2+0xfe8>  // b.tstop
   84d34:	2a1003e9 	mov	w9, w16
   84d38:	17fffd2f 	b	841f4 <Process_Out.constprop.2+0x4bc>
   84d3c:	2a0103f3 	mov	w19, w1
   84d40:	b9006bf4 	str	w20, [sp, #104]
   84d44:	aa1b03f4 	mov	x20, x27
   84d48:	2a1803fb 	mov	w27, w24
   84d4c:	aa0803f8 	mov	x24, x8
   84d50:	1400000a 	b	84d78 <Process_Out.constprop.2+0x1040>
   84d54:	7100027f 	cmp	w19, #0x0
   84d58:	aa0703f4 	mov	x20, x7
   84d5c:	1a9fa273 	csel	w19, w19, wzr, ge  // ge = tcont
   84d60:	eb07035f 	cmp	x26, x7
   84d64:	531e1660 	ubfiz	w0, w19, #2, #6
   84d68:	0b130013 	add	w19, w0, w19
   84d6c:	0b130473 	add	w19, w3, w19, lsl #1
   84d70:	13001e73 	sxtb	w19, w19
   84d74:	54ff8800 	b.eq	83e74 <Process_Out.constprop.2+0x13c>  // b.none
   84d78:	94002044 	bl	8ce88 <__locale_ctype_ptr>
   84d7c:	38746ae2 	ldrb	w2, [x23, x20]
   84d80:	91000687 	add	x7, x20, #0x1
   84d84:	5100c043 	sub	w3, w2, #0x30
   84d88:	8b220000 	add	x0, x0, w2, uxtb
   84d8c:	39400400 	ldrb	w0, [x0, #1]
   84d90:	3717fe20 	tbnz	w0, #2, 84d54 <Process_Out.constprop.2+0x101c>
   84d94:	2a1303e1 	mov	w1, w19
   84d98:	aa1803e8 	mov	x8, x24
   84d9c:	aa1403f3 	mov	x19, x20
   84da0:	2a1b03f8 	mov	w24, w27
   84da4:	b9406bf4 	ldr	w20, [sp, #104]
   84da8:	aa0703fb 	mov	x27, x7
   84dac:	17fffc5e 	b	83f24 <Process_Out.constprop.2+0x1ec>
   84db0:	f9403fe2 	ldr	x2, [sp, #120]
   84db4:	b94067e1 	ldr	w1, [sp, #100]
   84db8:	b90067e0 	str	w0, [sp, #100]
   84dbc:	f94037e8 	ldr	x8, [sp, #104]
   84dc0:	8b21c041 	add	x1, x2, w1, sxtw
   84dc4:	aa0103e0 	mov	x0, x1
   84dc8:	f90037e1 	str	x1, [sp, #104]
   84dcc:	17fffc4b 	b	83ef8 <Process_Out.constprop.2+0x1c0>
   84dd0:	71019c5f 	cmp	w2, #0x67
   84dd4:	54ffb4a9 	b.ls	84468 <Process_Out.constprop.2+0x730>  // b.plast
   84dd8:	7101a45f 	cmp	w2, #0x69
   84ddc:	52800009 	mov	w9, #0x0                   	// #0
   84de0:	1a9f17e0 	cset	w0, eq  // eq = none
   84de4:	52800147 	mov	w7, #0xa                   	// #10
   84de8:	17fffdc8 	b	84508 <Process_Out.constprop.2+0x7d0>
   84dec:	71011c5f 	cmp	w2, #0x47
   84df0:	54000189 	b.ls	84e20 <Process_Out.constprop.2+0x10e8>  // b.plast
   84df4:	7101845f 	cmp	w2, #0x61
   84df8:	54ffb380 	b.eq	84468 <Process_Out.constprop.2+0x730>  // b.none
   84dfc:	71018c5f 	cmp	w2, #0x63
   84e00:	54000b40 	b.eq	84f68 <Process_Out.constprop.2+0x1230>  // b.none
   84e04:	52800140 	mov	w0, #0xa                   	// #10
   84e08:	7101605f 	cmp	w2, #0x58
   84e0c:	52800207 	mov	w7, #0x10                  	// #16
   84e10:	52800009 	mov	w9, #0x0                   	// #0
   84e14:	1a8000e7 	csel	w7, w7, w0, eq  // eq = none
   84e18:	52800000 	mov	w0, #0x0                   	// #0
   84e1c:	17fffdbb 	b	84508 <Process_Out.constprop.2+0x7d0>
   84e20:	7101145f 	cmp	w2, #0x45
   84e24:	54ffb222 	b.cs	84468 <Process_Out.constprop.2+0x730>  // b.hs, b.nlast
   84e28:	7100945f 	cmp	w2, #0x25
   84e2c:	54ffaf20 	b.eq	84410 <Process_Out.constprop.2+0x6d8>  // b.none
   84e30:	7101045f 	cmp	w2, #0x41
   84e34:	54ffb1a0 	b.eq	84468 <Process_Out.constprop.2+0x730>  // b.none
   84e38:	52800009 	mov	w9, #0x0                   	// #0
   84e3c:	52800147 	mov	w7, #0xa                   	// #10
   84e40:	52800000 	mov	w0, #0x0                   	// #0
   84e44:	17fffdb1 	b	84508 <Process_Out.constprop.2+0x7d0>
   84e48:	b94067e0 	ldr	w0, [sp, #100]
   84e4c:	37f89400 	tbnz	w0, #31, 860cc <Process_Out.constprop.2+0x2394>
   84e50:	91003d00 	add	x0, x8, #0xf
   84e54:	927df000 	and	x0, x0, #0xfffffffffffffff8
   84e58:	f90037e0 	str	x0, [sp, #104]
   84e5c:	f9400114 	ldr	x20, [x8]
   84e60:	93401c21 	sxtb	x1, w1
   84e64:	aa1403e0 	mov	x0, x20
   84e68:	9400221f 	bl	8d6e4 <strnlen>
   84e6c:	2a0003e7 	mov	w7, w0
   84e70:	3600e1f6 	tbz	w22, #0, 86aac <Process_Out.constprop.2+0x2d74>
   84e74:	7100001f 	cmp	w0, #0x0
   84e78:	5400032d 	b.le	84edc <Process_Out.constprop.2+0x11a4>
   84e7c:	f0000082 	adrp	x2, 97000 <__bss_start__>
   84e80:	91004053 	add	x19, x2, #0x10
   84e84:	11000728 	add	w8, w25, #0x1
   84e88:	b9401049 	ldr	w9, [x2, #16]
   84e8c:	b9400662 	ldr	w2, [x19, #4]
   84e90:	3100053f 	cmn	w9, #0x1
   84e94:	f9400666 	ldr	x6, [x19, #8]
   84e98:	5400c840 	b.eq	867a0 <Process_Out.constprop.2+0x2a68>  // b.none
   84e9c:	5280000b 	mov	w11, #0x0                   	// #0
   84ea0:	d2800001 	mov	x1, #0x0                   	// #0
   84ea4:	b40106a6 	cbz	x6, 86f78 <Process_Out.constprop.2+0x3240>
   84ea8:	0b010105 	add	w5, w8, w1
   84eac:	6b02013f 	cmp	w9, w2
   84eb0:	540000ad 	b.le	84ec4 <Process_Out.constprop.2+0x118c>
   84eb4:	38616a83 	ldrb	w3, [x20, x1]
   84eb8:	5280002b 	mov	w11, #0x1                   	// #1
   84ebc:	3822c8c3 	strb	w3, [x6, w2, sxtw]
   84ec0:	0b0b0042 	add	w2, w2, w11
   84ec4:	91000421 	add	x1, x1, #0x1
   84ec8:	6b0100ff 	cmp	w7, w1
   84ecc:	54fffeec 	b.gt	84ea8 <Process_Out.constprop.2+0x1170>
   84ed0:	3400caeb 	cbz	w11, 8682c <Process_Out.constprop.2+0x2af4>
   84ed4:	2a0503f9 	mov	w25, w5
   84ed8:	b9000662 	str	w2, [x19, #4]
   84edc:	7100039f 	cmp	w28, #0x0
   84ee0:	54ff78ed 	b.le	83dfc <Process_Out.constprop.2+0xc4>
   84ee4:	6b1c001f 	cmp	w0, w28
   84ee8:	540000aa 	b.ge	84efc <Process_Out.constprop.2+0x11c4>  // b.tcont
   84eec:	4b00039c 	sub	w28, w28, w0
   84ef0:	13001f9c 	sxtb	w28, w28
   84ef4:	7100039f 	cmp	w28, #0x0
   84ef8:	54ff782d 	b.le	83dfc <Process_Out.constprop.2+0xc4>
   84efc:	f0000082 	adrp	x2, 97000 <__bss_start__>
   84f00:	91004053 	add	x19, x2, #0x10
   84f04:	b9401046 	ldr	w6, [x2, #16]
   84f08:	b9400661 	ldr	w1, [x19, #4]
   84f0c:	310004df 	cmn	w6, #0x1
   84f10:	f9400662 	ldr	x2, [x19, #8]
   84f14:	5400fb40 	b.eq	86e7c <Process_Out.constprop.2+0x3144>  // b.none
   84f18:	b4010402 	cbz	x2, 86f98 <Process_Out.constprop.2+0x3260>
   84f1c:	12001f9c 	and	w28, w28, #0xff
   84f20:	52800007 	mov	w7, #0x0                   	// #0
   84f24:	2a1c03e0 	mov	w0, w28
   84f28:	52800408 	mov	w8, #0x20                  	// #32
   84f2c:	d503201f 	nop
   84f30:	51000400 	sub	w0, w0, #0x1
   84f34:	6b0100df 	cmp	w6, w1
   84f38:	5400008d 	b.le	84f48 <Process_Out.constprop.2+0x1210>
   84f3c:	3821c848 	strb	w8, [x2, w1, sxtw]
   84f40:	11000421 	add	w1, w1, #0x1
   84f44:	52800027 	mov	w7, #0x1                   	// #1
   84f48:	72001c00 	ands	w0, w0, #0xff
   84f4c:	54ffff21 	b.ne	84f30 <Process_Out.constprop.2+0x11f8>  // b.any
   84f50:	5100079c 	sub	w28, w28, #0x1
   84f54:	11000725 	add	w5, w25, #0x1
   84f58:	0b3c80b9 	add	w25, w5, w28, sxtb
   84f5c:	34ff7507 	cbz	w7, 83dfc <Process_Out.constprop.2+0xc4>
   84f60:	b9000661 	str	w1, [x19, #4]
   84f64:	17fffba6 	b	83dfc <Process_Out.constprop.2+0xc4>
   84f68:	12800007 	mov	w7, #0xffffffff            	// #-1
   84f6c:	d503201f 	nop
   84f70:	b94083e1 	ldr	w1, [sp, #128]
   84f74:	33000298 	bfxil	w24, w20, #0, #1
   84f78:	7100039f 	cmp	w28, #0x0
   84f7c:	f0000082 	adrp	x2, 97000 <__bss_start__>
   84f80:	1a9fd7e0 	cset	w0, gt
   84f84:	91004053 	add	x19, x2, #0x10
   84f88:	331e0038 	bfi	w24, w1, #2, #1
   84f8c:	b94063e1 	ldr	w1, [sp, #96]
   84f90:	331d0038 	bfi	w24, w1, #3, #1
   84f94:	331c02d8 	bfi	w24, w22, #4, #1
   84f98:	331a02b8 	bfi	w24, w21, #6, #1
   84f9c:	33190158 	bfi	w24, w10, #7, #1
   84fa0:	d27c0306 	eor	x6, x24, #0x10
   84fa4:	6a461006 	ands	w6, w0, w6, lsr #4
   84fa8:	54010081 	b.ne	86fb8 <Process_Out.constprop.2+0x3280>  // b.any
   84fac:	7101b0ff 	cmp	w7, #0x6c
   84fb0:	b94067e0 	ldr	w0, [sp, #100]
   84fb4:	5400ea60 	b.eq	86d00 <Process_Out.constprop.2+0x2fc8>  // b.none
   84fb8:	37f8bda0 	tbnz	w0, #31, 8676c <Process_Out.constprop.2+0x2a34>
   84fbc:	91002d00 	add	x0, x8, #0xb
   84fc0:	927df000 	and	x0, x0, #0xfffffffffffffff8
   84fc4:	f90037e0 	str	x0, [sp, #104]
   84fc8:	b9400267 	ldr	w7, [x19]
   84fcc:	310004ff 	cmn	w7, #0x1
   84fd0:	54000080 	b.eq	84fe0 <Process_Out.constprop.2+0x12a8>  // b.none
   84fd4:	b9400660 	ldr	w0, [x19, #4]
   84fd8:	6b0000ff 	cmp	w7, w0
   84fdc:	5400010d 	b.le	84ffc <Process_Out.constprop.2+0x12c4>
   84fe0:	f9400660 	ldr	x0, [x19, #8]
   84fe4:	b40000c0 	cbz	x0, 84ffc <Process_Out.constprop.2+0x12c4>
   84fe8:	b9400661 	ldr	w1, [x19, #4]
   84fec:	b9400102 	ldr	w2, [x8]
   84ff0:	11000426 	add	w6, w1, #0x1
   84ff4:	b9000666 	str	w6, [x19, #4]
   84ff8:	3821c802 	strb	w2, [x0, w1, sxtw]
   84ffc:	11000739 	add	w25, w25, #0x1
   85000:	7100039f 	cmp	w28, #0x0
   85004:	54ff6fcd 	b.le	83dfc <Process_Out.constprop.2+0xc4>
   85008:	12001f9c 	and	w28, w28, #0xff
   8500c:	51000780 	sub	w0, w28, #0x1
   85010:	12001c00 	and	w0, w0, #0xff
   85014:	13001c01 	sxtb	w1, w0
   85018:	34ff6f20 	cbz	w0, 83dfc <Process_Out.constprop.2+0xc4>
   8501c:	310004ff 	cmn	w7, #0x1
   85020:	b9400662 	ldr	w2, [x19, #4]
   85024:	f9400666 	ldr	x6, [x19, #8]
   85028:	5400f080 	b.eq	86e38 <Process_Out.constprop.2+0x3100>  // b.none
   8502c:	b400fbe6 	cbz	x6, 86fa8 <Process_Out.constprop.2+0x3270>
   85030:	52800008 	mov	w8, #0x0                   	// #0
   85034:	52800409 	mov	w9, #0x20                  	// #32
   85038:	51000421 	sub	w1, w1, #0x1
   8503c:	6b07005f 	cmp	w2, w7
   85040:	12001c20 	and	w0, w1, #0xff
   85044:	5400008a 	b.ge	85054 <Process_Out.constprop.2+0x131c>  // b.tcont
   85048:	3822c8c9 	strb	w9, [x6, w2, sxtw]
   8504c:	11000442 	add	w2, w2, #0x1
   85050:	52800028 	mov	w8, #0x1                   	// #1
   85054:	13001c01 	sxtb	w1, w0
   85058:	35ffff00 	cbnz	w0, 85038 <Process_Out.constprop.2+0x1300>
   8505c:	51000b9c 	sub	w28, w28, #0x2
   85060:	11000725 	add	w5, w25, #0x1
   85064:	0b3c00b9 	add	w25, w5, w28, uxtb
   85068:	34ff6ca8 	cbz	w8, 83dfc <Process_Out.constprop.2+0xc4>
   8506c:	b9000662 	str	w2, [x19, #4]
   85070:	17fffb63 	b	83dfc <Process_Out.constprop.2+0xc4>
   85074:	2a1c03e9 	mov	w9, w28
   85078:	3100079f 	cmn	w28, #0x1
   8507c:	54000081 	b.ne	8508c <Process_Out.constprop.2+0x1354>  // b.any
   85080:	5280021c 	mov	w28, #0x10                  	// #16
   85084:	2a1c03e9 	mov	w9, w28
   85088:	52800034 	mov	w20, #0x1                   	// #1
   8508c:	b94067e0 	ldr	w0, [sp, #100]
   85090:	37f880c0 	tbnz	w0, #31, 860a8 <Process_Out.constprop.2+0x2370>
   85094:	91003d00 	add	x0, x8, #0xf
   85098:	927df000 	and	x0, x0, #0xfffffffffffffff8
   8509c:	f90037e0 	str	x0, [sp, #104]
   850a0:	b94083e3 	ldr	w3, [sp, #128]
   850a4:	33000298 	bfxil	w24, w20, #0, #1
   850a8:	52800200 	mov	w0, #0x10                  	// #16
   850ac:	52801eeb 	mov	w11, #0xf7                  	// #247
   850b0:	f9400102 	ldr	x2, [x8]
   850b4:	331e0078 	bfi	w24, w3, #2, #1
   850b8:	b94063e3 	ldr	w3, [sp, #96]
   850bc:	52800148 	mov	w8, #0xa                   	// #10
   850c0:	52800407 	mov	w7, #0x20                  	// #32
   850c4:	52800611 	mov	w17, #0x30                  	// #48
   850c8:	aa0203f0 	mov	x16, x2
   850cc:	331d0078 	bfi	w24, w3, #3, #1
   850d0:	331c02d8 	bfi	w24, w22, #4, #1
   850d4:	331a02b8 	bfi	w24, w21, #6, #1
   850d8:	33190158 	bfi	w24, w10, #7, #1
   850dc:	33181018 	bfi	w24, w0, #8, #5
   850e0:	33101f98 	bfi	w24, w28, #16, #8
   850e4:	33081c38 	bfi	w24, w1, #24, #8
   850e8:	121f1b0c 	and	w12, w24, #0xfe
   850ec:	f27c031f 	tst	x24, #0x10
   850f0:	d3483306 	ubfx	x6, x24, #8, #5
   850f4:	1a9f0294 	csel	w20, w20, wzr, eq  // eq = none
   850f8:	510020ca 	sub	w10, w6, #0x8
   850fc:	2a14018c 	orr	w12, w12, w20
   85100:	6a0b015f 	tst	w10, w11
   85104:	7a4218c4 	ccmp	w6, #0x2, #0x4, ne  // ne = any
   85108:	0a07018d 	and	w13, w12, w7
   8510c:	1a9f17ef 	cset	w15, eq  // eq = none
   85110:	1a880000 	csel	w0, w0, w8, eq  // eq = none
   85114:	f240019f 	tst	x12, #0x1
   85118:	1a871231 	csel	w17, w17, w7, ne  // ne = any
   8511c:	3608706c 	tbz	w12, #1, 85f28 <Process_Out.constprop.2+0x21f0>
   85120:	b7f86de2 	tbnz	x2, #63, 85edc <Process_Out.constprop.2+0x21a4>
   85124:	36110dec 	tbz	w12, #2, 872e0 <Process_Out.constprop.2+0x35a8>
   85128:	51000529 	sub	w9, w9, #0x1
   8512c:	5280056e 	mov	w14, #0x2b                  	// #43
   85130:	b5006dd0 	cbnz	x16, 85ee8 <Process_Out.constprop.2+0x21b0>
   85134:	52800600 	mov	w0, #0x30                  	// #48
   85138:	52800606 	mov	w6, #0x30                  	// #48
   8513c:	5280000b 	mov	w11, #0x0                   	// #0
   85140:	52800027 	mov	w7, #0x1                   	// #1
   85144:	390243e0 	strb	w0, [sp, #144]
   85148:	6b07003f 	cmp	w1, w7
   8514c:	d0000082 	adrp	x2, 97000 <__bss_start__>
   85150:	13001ce0 	sxtb	w0, w7
   85154:	91004053 	add	x19, x2, #0x10
   85158:	1a81b001 	csel	w1, w0, w1, lt  // lt = tstop
   8515c:	b9401042 	ldr	w2, [x2, #16]
   85160:	4b010132 	sub	w18, w9, w1
   85164:	2b1402d6 	adds	w22, w22, w20
   85168:	5100064a 	sub	w10, w18, #0x1
   8516c:	b9400670 	ldr	w16, [x19, #4]
   85170:	f9400669 	ldr	x9, [x19, #8]
   85174:	54006b01 	b.ne	85ed4 <Process_Out.constprop.2+0x219c>  // b.any
   85178:	7100025f 	cmp	w18, #0x0
   8517c:	5401672d 	b.le	87e60 <Process_Out.constprop.2+0x4128>
   85180:	3100045f 	cmn	w2, #0x1
   85184:	54010740 	b.eq	8726c <Process_Out.constprop.2+0x3534>  // b.none
   85188:	b40001e9 	cbz	x9, 851c4 <Process_Out.constprop.2+0x148c>
   8518c:	2a1003e0 	mov	w0, w16
   85190:	52800008 	mov	w8, #0x0                   	// #0
   85194:	52800414 	mov	w20, #0x20                  	// #32
   85198:	5100054a 	sub	w10, w10, #0x1
   8519c:	6b00005f 	cmp	w2, w0
   851a0:	5400008d 	b.le	851b0 <Process_Out.constprop.2+0x1478>
   851a4:	3820c934 	strb	w20, [x9, w0, sxtw]
   851a8:	11000400 	add	w0, w0, #0x1
   851ac:	52800028 	mov	w8, #0x1                   	// #1
   851b0:	3100055f 	cmn	w10, #0x1
   851b4:	54ffff21 	b.ne	85198 <Process_Out.constprop.2+0x1460>  // b.any
   851b8:	34000068 	cbz	w8, 851c4 <Process_Out.constprop.2+0x148c>
   851bc:	2a0003f0 	mov	w16, w0
   851c0:	b9000660 	str	w0, [x19, #4]
   851c4:	2a1203f6 	mov	w22, w18
   851c8:	1280002a 	mov	w10, #0xfffffffe            	// #-2
   851cc:	12800012 	mov	w18, #0xffffffff            	// #-1
   851d0:	3720038c 	tbnz	w12, #4, 85240 <Process_Out.constprop.2+0x1508>
   851d4:	7100025f 	cmp	w18, #0x0
   851d8:	54015e8d 	b.le	87da8 <Process_Out.constprop.2+0x4070>
   851dc:	3100045f 	cmn	w2, #0x1
   851e0:	5400fc00 	b.eq	87160 <Process_Out.constprop.2+0x3428>  // b.none
   851e4:	b4011869 	cbz	x9, 874f0 <Process_Out.constprop.2+0x37b8>
   851e8:	2a1003e8 	mov	w8, w16
   851ec:	2a0a03e0 	mov	w0, w10
   851f0:	52800014 	mov	w20, #0x0                   	// #0
   851f4:	d503201f 	nop
   851f8:	6b08005f 	cmp	w2, w8
   851fc:	5400008d 	b.le	8520c <Process_Out.constprop.2+0x14d4>
   85200:	3828c931 	strb	w17, [x9, w8, sxtw]
   85204:	11000508 	add	w8, w8, #0x1
   85208:	52800034 	mov	w20, #0x1                   	// #1
   8520c:	7100001f 	cmp	w0, #0x0
   85210:	51000400 	sub	w0, w0, #0x1
   85214:	54ffff2c 	b.gt	851f8 <Process_Out.constprop.2+0x14c0>
   85218:	7100015f 	cmp	w10, #0x0
   8521c:	110006d6 	add	w22, w22, #0x1
   85220:	1a9fa140 	csel	w0, w10, wzr, ge  // ge = tcont
   85224:	5100054a 	sub	w10, w10, #0x1
   85228:	0b0002d6 	add	w22, w22, w0
   8522c:	4b000152 	sub	w18, w10, w0
   85230:	34000074 	cbz	w20, 8523c <Process_Out.constprop.2+0x1504>
   85234:	2a0803f0 	mov	w16, w8
   85238:	b9000668 	str	w8, [x19, #4]
   8523c:	5100064a 	sub	w10, w18, #0x1
   85240:	51000431 	sub	w17, w1, #0x1
   85244:	6b0100ff 	cmp	w7, w1
   85248:	12001e31 	and	w17, w17, #0xff
   8524c:	540129aa 	b.ge	87780 <Process_Out.constprop.2+0x3a48>  // b.tcont
   85250:	3100045f 	cmn	w2, #0x1
   85254:	5400ac00 	b.eq	867d4 <Process_Out.constprop.2+0x2a9c>  // b.none
   85258:	b4000909 	cbz	x9, 85378 <Process_Out.constprop.2+0x1640>
   8525c:	2a1003e8 	mov	w8, w16
   85260:	2a1603e0 	mov	w0, w22
   85264:	52800014 	mov	w20, #0x0                   	// #0
   85268:	52800615 	mov	w21, #0x30                  	// #48
   8526c:	d503201f 	nop
   85270:	4b0002c1 	sub	w1, w22, w0
   85274:	6b02011f 	cmp	w8, w2
   85278:	0b010221 	add	w1, w17, w1
   8527c:	11000400 	add	w0, w0, #0x1
   85280:	13001c21 	sxtb	w1, w1
   85284:	5400008a 	b.ge	85294 <Process_Out.constprop.2+0x155c>  // b.tcont
   85288:	3828c935 	strb	w21, [x9, w8, sxtw]
   8528c:	11000508 	add	w8, w8, #0x1
   85290:	52800034 	mov	w20, #0x1                   	// #1
   85294:	6b0100ff 	cmp	w7, w1
   85298:	54fffecb 	b.lt	85270 <Process_Out.constprop.2+0x1538>  // b.tstop
   8529c:	340007d4 	cbz	w20, 85394 <Process_Out.constprop.2+0x165c>
   852a0:	b9000668 	str	w8, [x19, #4]
   852a4:	340000ce 	cbz	w14, 852bc <Process_Out.constprop.2+0x1584>
   852a8:	3100045f 	cmn	w2, #0x1
   852ac:	540005c0 	b.eq	85364 <Process_Out.constprop.2+0x162c>  // b.none
   852b0:	6b02011f 	cmp	w8, w2
   852b4:	5400058b 	b.lt	85364 <Process_Out.constprop.2+0x162c>  // b.tstop
   852b8:	11000400 	add	w0, w0, #0x1
   852bc:	f27a019f 	tst	x12, #0x40
   852c0:	7a4019e4 	ccmp	w15, #0x0, #0x4, ne  // ne = any
   852c4:	54011a81 	b.ne	87614 <Process_Out.constprop.2+0x38dc>  // b.any
   852c8:	3100045f 	cmn	w2, #0x1
   852cc:	5400c780 	b.eq	86bbc <Process_Out.constprop.2+0x2e84>  // b.none
   852d0:	b400b909 	cbz	x9, 869f0 <Process_Out.constprop.2+0x2cb8>
   852d4:	93407d67 	sxtw	x7, w11
   852d8:	2a0803e1 	mov	w1, w8
   852dc:	5280000d 	mov	w13, #0x0                   	// #0
   852e0:	14000003 	b	852ec <Process_Out.constprop.2+0x15b4>
   852e4:	385ff066 	ldurb	w6, [x3, #-1]
   852e8:	d10004e7 	sub	x7, x7, #0x1
   852ec:	910243e3 	add	x3, sp, #0x90
   852f0:	6b02003f 	cmp	w1, w2
   852f4:	8b0300e3 	add	x3, x7, x3
   852f8:	5400008a 	b.ge	85308 <Process_Out.constprop.2+0x15d0>  // b.tcont
   852fc:	3821c926 	strb	w6, [x9, w1, sxtw]
   85300:	11000421 	add	w1, w1, #0x1
   85304:	5280002d 	mov	w13, #0x1                   	// #1
   85308:	710000ff 	cmp	w7, #0x0
   8530c:	54fffecc 	b.gt	852e4 <Process_Out.constprop.2+0x15ac>
   85310:	11000400 	add	w0, w0, #0x1
   85314:	0b000166 	add	w6, w11, w0
   85318:	3401748d 	cbz	w13, 881a8 <Process_Out.constprop.2+0x4470>
   8531c:	b9000661 	str	w1, [x19, #4]
   85320:	7100025f 	cmp	w18, #0x0
   85324:	54ff802d 	b.le	84328 <Process_Out.constprop.2+0x5f0>
   85328:	3100045f 	cmn	w2, #0x1
   8532c:	5400cb40 	b.eq	86c94 <Process_Out.constprop.2+0x2f5c>  // b.none
   85330:	b4005aa9 	cbz	x9, 85e84 <Process_Out.constprop.2+0x214c>
   85334:	2a0a03e0 	mov	w0, w10
   85338:	52800007 	mov	w7, #0x0                   	// #0
   8533c:	52800408 	mov	w8, #0x20                  	// #32
   85340:	6b02003f 	cmp	w1, w2
   85344:	5400008a 	b.ge	85354 <Process_Out.constprop.2+0x161c>  // b.tcont
   85348:	3821c928 	strb	w8, [x9, w1, sxtw]
   8534c:	11000421 	add	w1, w1, #0x1
   85350:	52800027 	mov	w7, #0x1                   	// #1
   85354:	7100001f 	cmp	w0, #0x0
   85358:	51000400 	sub	w0, w0, #0x1
   8535c:	54ffff2c 	b.gt	85340 <Process_Out.constprop.2+0x1608>
   85360:	17fffbec 	b	84310 <Process_Out.constprop.2+0x5d8>
   85364:	b4fffaa9 	cbz	x9, 852b8 <Process_Out.constprop.2+0x1580>
   85368:	3828c92e 	strb	w14, [x9, w8, sxtw]
   8536c:	11000508 	add	w8, w8, #0x1
   85370:	b9000668 	str	w8, [x19, #4]
   85374:	17ffffd1 	b	852b8 <Process_Out.constprop.2+0x1580>
   85378:	2a1603e0 	mov	w0, w22
   8537c:	d503201f 	nop
   85380:	4b0002c1 	sub	w1, w22, w0
   85384:	11000400 	add	w0, w0, #0x1
   85388:	0b010221 	add	w1, w17, w1
   8538c:	6b2180ff 	cmp	w7, w1, sxtb
   85390:	54ffff8b 	b.lt	85380 <Process_Out.constprop.2+0x1648>  // b.tstop
   85394:	2a1003e8 	mov	w8, w16
   85398:	17ffffc3 	b	852a4 <Process_Out.constprop.2+0x156c>
   8539c:	b94067e2 	ldr	w2, [sp, #100]
   853a0:	37f89d42 	tbnz	w2, #31, 86748 <Process_Out.constprop.2+0x2a10>
   853a4:	91003d02 	add	x2, x8, #0xf
   853a8:	927df042 	and	x2, x2, #0xfffffffffffffff8
   853ac:	f90037e2 	str	x2, [sp, #104]
   853b0:	33000298 	bfxil	w24, w20, #0, #1
   853b4:	52801eec 	mov	w12, #0xf7                  	// #247
   853b8:	5280014b 	mov	w11, #0xa                   	// #10
   853bc:	2a1c03f2 	mov	w18, w28
   853c0:	331f0018 	bfi	w24, w0, #1, #1
   853c4:	b94083e0 	ldr	w0, [sp, #128]
   853c8:	f9400102 	ldr	x2, [x8]
   853cc:	52800608 	mov	w8, #0x30                  	// #48
   853d0:	331e0018 	bfi	w24, w0, #2, #1
   853d4:	b94063e0 	ldr	w0, [sp, #96]
   853d8:	331d0018 	bfi	w24, w0, #3, #1
   853dc:	52800400 	mov	w0, #0x20                  	// #32
   853e0:	331c02d8 	bfi	w24, w22, #4, #1
   853e4:	331b0138 	bfi	w24, w9, #5, #1
   853e8:	331a02b8 	bfi	w24, w21, #6, #1
   853ec:	33190158 	bfi	w24, w10, #7, #1
   853f0:	331810f8 	bfi	w24, w7, #8, #5
   853f4:	33101f98 	bfi	w24, w28, #16, #8
   853f8:	33081c38 	bfi	w24, w1, #24, #8
   853fc:	121f1b0e 	and	w14, w24, #0xfe
   85400:	f27c031f 	tst	x24, #0x10
   85404:	d3483306 	ubfx	x6, x24, #8, #5
   85408:	1a9f0294 	csel	w20, w20, wzr, eq  // eq = none
   8540c:	510020c9 	sub	w9, w6, #0x8
   85410:	2a1401ce 	orr	w14, w14, w20
   85414:	6a0c013f 	tst	w9, w12
   85418:	7a4218c4 	ccmp	w6, #0x2, #0x4, ne  // ne = any
   8541c:	0a0001cf 	and	w15, w14, w0
   85420:	1a8b00e7 	csel	w7, w7, w11, eq  // eq = none
   85424:	f24001df 	tst	x14, #0x1
   85428:	1a801109 	csel	w9, w8, w0, ne  // ne = any
   8542c:	3608632e 	tbz	w14, #1, 86090 <Process_Out.constprop.2+0x2358>
   85430:	b7f860a2 	tbnz	x2, #63, 86044 <Process_Out.constprop.2+0x230c>
   85434:	3610f9ce 	tbz	w14, #2, 8736c <Process_Out.constprop.2+0x3634>
   85438:	51000792 	sub	w18, w28, #0x1
   8543c:	52800570 	mov	w16, #0x2b                  	// #43
   85440:	b5006082 	cbnz	x2, 86050 <Process_Out.constprop.2+0x2318>
   85444:	52800600 	mov	w0, #0x30                  	// #48
   85448:	52800606 	mov	w6, #0x30                  	// #48
   8544c:	5280000d 	mov	w13, #0x0                   	// #0
   85450:	52800028 	mov	w8, #0x1                   	// #1
   85454:	390243e0 	strb	w0, [sp, #144]
   85458:	6b08003f 	cmp	w1, w8
   8545c:	d0000082 	adrp	x2, 97000 <__bss_start__>
   85460:	13001d00 	sxtb	w0, w8
   85464:	91004053 	add	x19, x2, #0x10
   85468:	1a81b001 	csel	w1, w0, w1, lt  // lt = tstop
   8546c:	b9401042 	ldr	w2, [x2, #16]
   85470:	4b010252 	sub	w18, w18, w1
   85474:	2b1402d6 	adds	w22, w22, w20
   85478:	5100064b 	sub	w11, w18, #0x1
   8547c:	b940066c 	ldr	w12, [x19, #4]
   85480:	f940066a 	ldr	x10, [x19, #8]
   85484:	54005dc1 	b.ne	8603c <Process_Out.constprop.2+0x2304>  // b.any
   85488:	7100025f 	cmp	w18, #0x0
   8548c:	54014c6d 	b.le	87e18 <Process_Out.constprop.2+0x40e0>
   85490:	3100045f 	cmn	w2, #0x1
   85494:	54010600 	b.eq	87554 <Process_Out.constprop.2+0x381c>  // b.none
   85498:	b40001ea 	cbz	x10, 854d4 <Process_Out.constprop.2+0x179c>
   8549c:	2a0c03e0 	mov	w0, w12
   854a0:	52800011 	mov	w17, #0x0                   	// #0
   854a4:	52800414 	mov	w20, #0x20                  	// #32
   854a8:	5100056b 	sub	w11, w11, #0x1
   854ac:	6b02001f 	cmp	w0, w2
   854b0:	5400008a 	b.ge	854c0 <Process_Out.constprop.2+0x1788>  // b.tcont
   854b4:	3820c954 	strb	w20, [x10, w0, sxtw]
   854b8:	11000400 	add	w0, w0, #0x1
   854bc:	52800031 	mov	w17, #0x1                   	// #1
   854c0:	3100057f 	cmn	w11, #0x1
   854c4:	54ffff21 	b.ne	854a8 <Process_Out.constprop.2+0x1770>  // b.any
   854c8:	34000071 	cbz	w17, 854d4 <Process_Out.constprop.2+0x179c>
   854cc:	2a0003ec 	mov	w12, w0
   854d0:	b9000660 	str	w0, [x19, #4]
   854d4:	2a1203f6 	mov	w22, w18
   854d8:	1280002b 	mov	w11, #0xfffffffe            	// #-2
   854dc:	12800012 	mov	w18, #0xffffffff            	// #-1
   854e0:	3720038e 	tbnz	w14, #4, 85550 <Process_Out.constprop.2+0x1818>
   854e4:	7100025f 	cmp	w18, #0x0
   854e8:	5401442d 	b.le	87d6c <Process_Out.constprop.2+0x4034>
   854ec:	3100045f 	cmn	w2, #0x1
   854f0:	540100e0 	b.eq	8750c <Process_Out.constprop.2+0x37d4>  // b.none
   854f4:	b4010daa 	cbz	x10, 876a8 <Process_Out.constprop.2+0x3970>
   854f8:	2a0c03f1 	mov	w17, w12
   854fc:	2a0b03e0 	mov	w0, w11
   85500:	52800014 	mov	w20, #0x0                   	// #0
   85504:	d503201f 	nop
   85508:	6b02023f 	cmp	w17, w2
   8550c:	5400008a 	b.ge	8551c <Process_Out.constprop.2+0x17e4>  // b.tcont
   85510:	3831c949 	strb	w9, [x10, w17, sxtw]
   85514:	11000631 	add	w17, w17, #0x1
   85518:	52800034 	mov	w20, #0x1                   	// #1
   8551c:	7100001f 	cmp	w0, #0x0
   85520:	51000400 	sub	w0, w0, #0x1
   85524:	54ffff2c 	b.gt	85508 <Process_Out.constprop.2+0x17d0>
   85528:	7100017f 	cmp	w11, #0x0
   8552c:	110006d6 	add	w22, w22, #0x1
   85530:	1a9fa160 	csel	w0, w11, wzr, ge  // ge = tcont
   85534:	5100056b 	sub	w11, w11, #0x1
   85538:	0b0002d6 	add	w22, w22, w0
   8553c:	4b000172 	sub	w18, w11, w0
   85540:	34000074 	cbz	w20, 8554c <Process_Out.constprop.2+0x1814>
   85544:	2a1103ec 	mov	w12, w17
   85548:	b9000671 	str	w17, [x19, #4]
   8554c:	5100064b 	sub	w11, w18, #0x1
   85550:	51000431 	sub	w17, w1, #0x1
   85554:	6b01011f 	cmp	w8, w1
   85558:	12001e31 	and	w17, w17, #0xff
   8555c:	540120ea 	b.ge	87978 <Process_Out.constprop.2+0x3c40>  // b.tcont
   85560:	3100045f 	cmn	w2, #0x1
   85564:	5400a240 	b.eq	869ac <Process_Out.constprop.2+0x2c74>  // b.none
   85568:	b4000c4a 	cbz	x10, 856f0 <Process_Out.constprop.2+0x19b8>
   8556c:	2a0c03e9 	mov	w9, w12
   85570:	2a1603e0 	mov	w0, w22
   85574:	52800014 	mov	w20, #0x0                   	// #0
   85578:	52800615 	mov	w21, #0x30                  	// #48
   8557c:	d503201f 	nop
   85580:	4b0002c1 	sub	w1, w22, w0
   85584:	6b02013f 	cmp	w9, w2
   85588:	0b010221 	add	w1, w17, w1
   8558c:	11000400 	add	w0, w0, #0x1
   85590:	13001c21 	sxtb	w1, w1
   85594:	5400008a 	b.ge	855a4 <Process_Out.constprop.2+0x186c>  // b.tcont
   85598:	3829c955 	strb	w21, [x10, w9, sxtw]
   8559c:	11000529 	add	w9, w9, #0x1
   855a0:	52800034 	mov	w20, #0x1                   	// #1
   855a4:	6b01011f 	cmp	w8, w1
   855a8:	54fffecb 	b.lt	85580 <Process_Out.constprop.2+0x1848>  // b.tstop
   855ac:	34000b14 	cbz	w20, 8570c <Process_Out.constprop.2+0x19d4>
   855b0:	b9000669 	str	w9, [x19, #4]
   855b4:	34000150 	cbz	w16, 855dc <Process_Out.constprop.2+0x18a4>
   855b8:	3100045f 	cmn	w2, #0x1
   855bc:	54000060 	b.eq	855c8 <Process_Out.constprop.2+0x1890>  // b.none
   855c0:	6b02013f 	cmp	w9, w2
   855c4:	540000aa 	b.ge	855d8 <Process_Out.constprop.2+0x18a0>  // b.tcont
   855c8:	b400008a 	cbz	x10, 855d8 <Process_Out.constprop.2+0x18a0>
   855cc:	3829c950 	strb	w16, [x10, w9, sxtw]
   855d0:	11000529 	add	w9, w9, #0x1
   855d4:	b9000669 	str	w9, [x19, #4]
   855d8:	11000400 	add	w0, w0, #0x1
   855dc:	363002ee 	tbz	w14, #6, 85638 <Process_Out.constprop.2+0x1900>
   855e0:	710020ff 	cmp	w7, #0x8
   855e4:	54010d40 	b.eq	8778c <Process_Out.constprop.2+0x3a54>  // b.none
   855e8:	710040ff 	cmp	w7, #0x10
   855ec:	54000261 	b.ne	85638 <Process_Out.constprop.2+0x1900>  // b.any
   855f0:	3100045f 	cmn	w2, #0x1
   855f4:	54015420 	b.eq	88078 <Process_Out.constprop.2+0x4340>  // b.none
   855f8:	6b02013f 	cmp	w9, w2
   855fc:	540001ca 	b.ge	85634 <Process_Out.constprop.2+0x18fc>  // b.tcont
   85600:	52800b01 	mov	w1, #0x58                  	// #88
   85604:	2a0101ef 	orr	w15, w15, w1
   85608:	b401696a 	cbz	x10, 88334 <Process_Out.constprop.2+0x45fc>
   8560c:	52800601 	mov	w1, #0x30                  	// #48
   85610:	3829c941 	strb	w1, [x10, w9, sxtw]
   85614:	11000529 	add	w9, w9, #0x1
   85618:	b9000669 	str	w9, [x19, #4]
   8561c:	6b02013f 	cmp	w9, w2
   85620:	540000aa 	b.ge	85634 <Process_Out.constprop.2+0x18fc>  // b.tcont
   85624:	b9400661 	ldr	w1, [x19, #4]
   85628:	11000429 	add	w9, w1, #0x1
   8562c:	b9000669 	str	w9, [x19, #4]
   85630:	3821c94f 	strb	w15, [x10, w1, sxtw]
   85634:	11000800 	add	w0, w0, #0x2
   85638:	3100045f 	cmn	w2, #0x1
   8563c:	54009980 	b.eq	8696c <Process_Out.constprop.2+0x2c34>  // b.none
   85640:	b400adea 	cbz	x10, 86bfc <Process_Out.constprop.2+0x2ec4>
   85644:	93407da7 	sxtw	x7, w13
   85648:	2a0903e1 	mov	w1, w9
   8564c:	5280000c 	mov	w12, #0x0                   	// #0
   85650:	14000003 	b	8565c <Process_Out.constprop.2+0x1924>
   85654:	385ff066 	ldurb	w6, [x3, #-1]
   85658:	d10004e7 	sub	x7, x7, #0x1
   8565c:	910243e3 	add	x3, sp, #0x90
   85660:	6b02003f 	cmp	w1, w2
   85664:	8b0300e3 	add	x3, x7, x3
   85668:	5400008a 	b.ge	85678 <Process_Out.constprop.2+0x1940>  // b.tcont
   8566c:	3821c946 	strb	w6, [x10, w1, sxtw]
   85670:	11000421 	add	w1, w1, #0x1
   85674:	5280002c 	mov	w12, #0x1                   	// #1
   85678:	710000ff 	cmp	w7, #0x0
   8567c:	54fffecc 	b.gt	85654 <Process_Out.constprop.2+0x191c>
   85680:	11000400 	add	w0, w0, #0x1
   85684:	0b0d000d 	add	w13, w0, w13
   85688:	3401578c 	cbz	w12, 88178 <Process_Out.constprop.2+0x4440>
   8568c:	b9000661 	str	w1, [x19, #4]
   85690:	7100025f 	cmp	w18, #0x0
   85694:	540002ad 	b.le	856e8 <Process_Out.constprop.2+0x19b0>
   85698:	3100045f 	cmn	w2, #0x1
   8569c:	5400b7c0 	b.eq	86d94 <Process_Out.constprop.2+0x305c>  // b.none
   856a0:	b400ab6a 	cbz	x10, 86c0c <Process_Out.constprop.2+0x2ed4>
   856a4:	2a0b03e0 	mov	w0, w11
   856a8:	52800006 	mov	w6, #0x0                   	// #0
   856ac:	52800407 	mov	w7, #0x20                  	// #32
   856b0:	6b02003f 	cmp	w1, w2
   856b4:	5400008a 	b.ge	856c4 <Process_Out.constprop.2+0x198c>  // b.tcont
   856b8:	3821c947 	strb	w7, [x10, w1, sxtw]
   856bc:	11000421 	add	w1, w1, #0x1
   856c0:	52800026 	mov	w6, #0x1                   	// #1
   856c4:	7100001f 	cmp	w0, #0x0
   856c8:	51000400 	sub	w0, w0, #0x1
   856cc:	54ffff2c 	b.gt	856b0 <Process_Out.constprop.2+0x1978>
   856d0:	7100017f 	cmp	w11, #0x0
   856d4:	110005ad 	add	w13, w13, #0x1
   856d8:	1a9fa16b 	csel	w11, w11, wzr, ge  // ge = tcont
   856dc:	0b0d016d 	add	w13, w11, w13
   856e0:	34000046 	cbz	w6, 856e8 <Process_Out.constprop.2+0x19b0>
   856e4:	b9000661 	str	w1, [x19, #4]
   856e8:	0b0d0339 	add	w25, w25, w13
   856ec:	17fff9c4 	b	83dfc <Process_Out.constprop.2+0xc4>
   856f0:	2a1603e0 	mov	w0, w22
   856f4:	d503201f 	nop
   856f8:	4b0002c1 	sub	w1, w22, w0
   856fc:	11000400 	add	w0, w0, #0x1
   85700:	0b010221 	add	w1, w17, w1
   85704:	6b21811f 	cmp	w8, w1, sxtb
   85708:	54ffff8b 	b.lt	856f8 <Process_Out.constprop.2+0x19c0>  // b.tstop
   8570c:	2a0c03e9 	mov	w9, w12
   85710:	17ffffa9 	b	855b4 <Process_Out.constprop.2+0x187c>
   85714:	33000298 	bfxil	w24, w20, #0, #1
   85718:	b94067e2 	ldr	w2, [sp, #100]
   8571c:	331f0018 	bfi	w24, w0, #1, #1
   85720:	b94083e0 	ldr	w0, [sp, #128]
   85724:	331e0018 	bfi	w24, w0, #2, #1
   85728:	b94063e0 	ldr	w0, [sp, #96]
   8572c:	331d0018 	bfi	w24, w0, #3, #1
   85730:	331c02d8 	bfi	w24, w22, #4, #1
   85734:	331b0138 	bfi	w24, w9, #5, #1
   85738:	331a02b8 	bfi	w24, w21, #6, #1
   8573c:	33190158 	bfi	w24, w10, #7, #1
   85740:	12001f00 	and	w0, w24, #0xff
   85744:	37384f20 	tbnz	w0, #7, 86128 <Process_Out.constprop.2+0x23f0>
   85748:	37f8a942 	tbnz	w2, #31, 86c70 <Process_Out.constprop.2+0x2f38>
   8574c:	91002d02 	add	x2, x8, #0xb
   85750:	927df042 	and	x2, x2, #0xfffffffffffffff8
   85754:	f90037e2 	str	x2, [sp, #104]
   85758:	331810f8 	bfi	w24, w7, #8, #5
   8575c:	f27c001f 	tst	x0, #0x10
   85760:	1a9f0294 	csel	w20, w20, wzr, eq  // eq = none
   85764:	52801ee0 	mov	w0, #0xf7                  	// #247
   85768:	33101f98 	bfi	w24, w28, #16, #8
   8576c:	79c00102 	ldrsh	w2, [x8]
   85770:	52800148 	mov	w8, #0xa                   	// #10
   85774:	33081c38 	bfi	w24, w1, #24, #8
   85778:	121f1b0e 	and	w14, w24, #0xfe
   8577c:	d3483306 	ubfx	x6, x24, #8, #5
   85780:	2a1401ce 	orr	w14, w14, w20
   85784:	510020c9 	sub	w9, w6, #0x8
   85788:	6a00013f 	tst	w9, w0
   8578c:	52800400 	mov	w0, #0x20                  	// #32
   85790:	7a4218c4 	ccmp	w6, #0x2, #0x4, ne  // ne = any
   85794:	52800609 	mov	w9, #0x30                  	// #48
   85798:	1a8800e7 	csel	w7, w7, w8, eq  // eq = none
   8579c:	f24001df 	tst	x14, #0x1
   857a0:	1a801129 	csel	w9, w9, w0, ne  // ne = any
   857a4:	0a0001cf 	and	w15, w14, w0
   857a8:	36088dee 	tbz	w14, #1, 86964 <Process_Out.constprop.2+0x2c2c>
   857ac:	37f88b82 	tbnz	w2, #31, 8691c <Process_Out.constprop.2+0x2be4>
   857b0:	36111f2e 	tbz	w14, #2, 87b94 <Process_Out.constprop.2+0x3e5c>
   857b4:	5100079c 	sub	w28, w28, #0x1
   857b8:	52800570 	mov	w16, #0x2b                  	// #43
   857bc:	35008b62 	cbnz	w2, 86928 <Process_Out.constprop.2+0x2bf0>
   857c0:	52800600 	mov	w0, #0x30                  	// #48
   857c4:	5280000d 	mov	w13, #0x0                   	// #0
   857c8:	52800606 	mov	w6, #0x30                  	// #48
   857cc:	5280002a 	mov	w10, #0x1                   	// #1
   857d0:	390243e0 	strb	w0, [sp, #144]
   857d4:	6b0a003f 	cmp	w1, w10
   857d8:	2a0103f5 	mov	w21, w1
   857dc:	5400006a 	b.ge	857e8 <Process_Out.constprop.2+0x1ab0>  // b.tcont
   857e0:	13001d41 	sxtb	w1, w10
   857e4:	2a0a03f5 	mov	w21, w10
   857e8:	d0000082 	adrp	x2, 97000 <__bss_start__>
   857ec:	91004053 	add	x19, x2, #0x10
   857f0:	4b15038c 	sub	w12, w28, w21
   857f4:	2b1402d6 	adds	w22, w22, w20
   857f8:	b9401042 	ldr	w2, [x2, #16]
   857fc:	51000588 	sub	w8, w12, #0x1
   85800:	b9400671 	ldr	w17, [x19, #4]
   85804:	f940066b 	ldr	x11, [x19, #8]
   85808:	54008861 	b.ne	86914 <Process_Out.constprop.2+0x2bdc>  // b.any
   8580c:	7100019f 	cmp	w12, #0x0
   85810:	5401524d 	b.le	88258 <Process_Out.constprop.2+0x4520>
   85814:	3100045f 	cmn	w2, #0x1
   85818:	54011c80 	b.eq	87ba8 <Process_Out.constprop.2+0x3e70>  // b.none
   8581c:	b40001eb 	cbz	x11, 85858 <Process_Out.constprop.2+0x1b20>
   85820:	2a1103e0 	mov	w0, w17
   85824:	52800012 	mov	w18, #0x0                   	// #0
   85828:	52800414 	mov	w20, #0x20                  	// #32
   8582c:	51000508 	sub	w8, w8, #0x1
   85830:	6b02001f 	cmp	w0, w2
   85834:	5400008a 	b.ge	85844 <Process_Out.constprop.2+0x1b0c>  // b.tcont
   85838:	3820c974 	strb	w20, [x11, w0, sxtw]
   8583c:	11000400 	add	w0, w0, #0x1
   85840:	52800032 	mov	w18, #0x1                   	// #1
   85844:	3100051f 	cmn	w8, #0x1
   85848:	54ffff21 	b.ne	8582c <Process_Out.constprop.2+0x1af4>  // b.any
   8584c:	34000072 	cbz	w18, 85858 <Process_Out.constprop.2+0x1b20>
   85850:	2a0003f1 	mov	w17, w0
   85854:	b9000660 	str	w0, [x19, #4]
   85858:	2a0c03f6 	mov	w22, w12
   8585c:	12800028 	mov	w8, #0xfffffffe            	// #-2
   85860:	1280000c 	mov	w12, #0xffffffff            	// #-1
   85864:	52800220 	mov	w0, #0x11                  	// #17
   85868:	6a0001df 	tst	w14, w0
   8586c:	54000361 	b.ne	858d8 <Process_Out.constprop.2+0x1ba0>  // b.any
   85870:	7100019f 	cmp	w12, #0x0
   85874:	54014a4d 	b.le	881bc <Process_Out.constprop.2+0x4484>
   85878:	3100045f 	cmn	w2, #0x1
   8587c:	540112e0 	b.eq	87ad8 <Process_Out.constprop.2+0x3da0>  // b.none
   85880:	b401216b 	cbz	x11, 87cac <Process_Out.constprop.2+0x3f74>
   85884:	2a1103f2 	mov	w18, w17
   85888:	2a0803e0 	mov	w0, w8
   8588c:	52800014 	mov	w20, #0x0                   	// #0
   85890:	6b02025f 	cmp	w18, w2
   85894:	5400008a 	b.ge	858a4 <Process_Out.constprop.2+0x1b6c>  // b.tcont
   85898:	3832c969 	strb	w9, [x11, w18, sxtw]
   8589c:	11000652 	add	w18, w18, #0x1
   858a0:	52800034 	mov	w20, #0x1                   	// #1
   858a4:	7100001f 	cmp	w0, #0x0
   858a8:	51000400 	sub	w0, w0, #0x1
   858ac:	54ffff2c 	b.gt	85890 <Process_Out.constprop.2+0x1b58>
   858b0:	7100011f 	cmp	w8, #0x0
   858b4:	110006d6 	add	w22, w22, #0x1
   858b8:	1a9fa10c 	csel	w12, w8, wzr, ge  // ge = tcont
   858bc:	51000508 	sub	w8, w8, #0x1
   858c0:	0b0c02d6 	add	w22, w22, w12
   858c4:	4b0c010c 	sub	w12, w8, w12
   858c8:	34000074 	cbz	w20, 858d4 <Process_Out.constprop.2+0x1b9c>
   858cc:	2a1203f1 	mov	w17, w18
   858d0:	b9000672 	str	w18, [x19, #4]
   858d4:	51000588 	sub	w8, w12, #0x1
   858d8:	51000421 	sub	w1, w1, #0x1
   858dc:	6b15015f 	cmp	w10, w21
   858e0:	12001c32 	and	w18, w1, #0xff
   858e4:	5401212a 	b.ge	87d08 <Process_Out.constprop.2+0x3fd0>  // b.tcont
   858e8:	3100045f 	cmn	w2, #0x1
   858ec:	5400c1a0 	b.eq	87120 <Process_Out.constprop.2+0x33e8>  // b.none
   858f0:	b4000c6b 	cbz	x11, 85a7c <Process_Out.constprop.2+0x1d44>
   858f4:	2a1103e9 	mov	w9, w17
   858f8:	2a1603e0 	mov	w0, w22
   858fc:	52800014 	mov	w20, #0x0                   	// #0
   85900:	52800615 	mov	w21, #0x30                  	// #48
   85904:	d503201f 	nop
   85908:	4b0002c1 	sub	w1, w22, w0
   8590c:	6b02013f 	cmp	w9, w2
   85910:	0b010241 	add	w1, w18, w1
   85914:	11000400 	add	w0, w0, #0x1
   85918:	13001c21 	sxtb	w1, w1
   8591c:	5400008a 	b.ge	8592c <Process_Out.constprop.2+0x1bf4>  // b.tcont
   85920:	3829c975 	strb	w21, [x11, w9, sxtw]
   85924:	11000529 	add	w9, w9, #0x1
   85928:	52800034 	mov	w20, #0x1                   	// #1
   8592c:	6b01015f 	cmp	w10, w1
   85930:	54fffecb 	b.lt	85908 <Process_Out.constprop.2+0x1bd0>  // b.tstop
   85934:	34000b14 	cbz	w20, 85a94 <Process_Out.constprop.2+0x1d5c>
   85938:	b9000669 	str	w9, [x19, #4]
   8593c:	34000150 	cbz	w16, 85964 <Process_Out.constprop.2+0x1c2c>
   85940:	3100045f 	cmn	w2, #0x1
   85944:	54000060 	b.eq	85950 <Process_Out.constprop.2+0x1c18>  // b.none
   85948:	6b02013f 	cmp	w9, w2
   8594c:	540000aa 	b.ge	85960 <Process_Out.constprop.2+0x1c28>  // b.tcont
   85950:	b400008b 	cbz	x11, 85960 <Process_Out.constprop.2+0x1c28>
   85954:	3829c970 	strb	w16, [x11, w9, sxtw]
   85958:	11000529 	add	w9, w9, #0x1
   8595c:	b9000669 	str	w9, [x19, #4]
   85960:	11000400 	add	w0, w0, #0x1
   85964:	3630030e 	tbz	w14, #6, 859c4 <Process_Out.constprop.2+0x1c8c>
   85968:	710020ff 	cmp	w7, #0x8
   8596c:	54011460 	b.eq	87bf8 <Process_Out.constprop.2+0x3ec0>  // b.none
   85970:	710040ff 	cmp	w7, #0x10
   85974:	54000281 	b.ne	859c4 <Process_Out.constprop.2+0x1c8c>  // b.any
   85978:	3100045f 	cmn	w2, #0x1
   8597c:	54014800 	b.eq	8827c <Process_Out.constprop.2+0x4544>  // b.none
   85980:	6b02013f 	cmp	w9, w2
   85984:	540001ca 	b.ge	859bc <Process_Out.constprop.2+0x1c84>  // b.tcont
   85988:	52800b01 	mov	w1, #0x58                  	// #88
   8598c:	2a0101ef 	orr	w15, w15, w1
   85990:	b400016b 	cbz	x11, 859bc <Process_Out.constprop.2+0x1c84>
   85994:	52800601 	mov	w1, #0x30                  	// #48
   85998:	3829c961 	strb	w1, [x11, w9, sxtw]
   8599c:	11000529 	add	w9, w9, #0x1
   859a0:	b9000669 	str	w9, [x19, #4]
   859a4:	6b02013f 	cmp	w9, w2
   859a8:	540000aa 	b.ge	859bc <Process_Out.constprop.2+0x1c84>  // b.tcont
   859ac:	b9400661 	ldr	w1, [x19, #4]
   859b0:	11000427 	add	w7, w1, #0x1
   859b4:	b9000667 	str	w7, [x19, #4]
   859b8:	3821c96f 	strb	w15, [x11, w1, sxtw]
   859bc:	b9400669 	ldr	w9, [x19, #4]
   859c0:	11000800 	add	w0, w0, #0x2
   859c4:	3100045f 	cmn	w2, #0x1
   859c8:	5400b8c0 	b.eq	870e0 <Process_Out.constprop.2+0x33a8>  // b.none
   859cc:	b400bfcb 	cbz	x11, 871c4 <Process_Out.constprop.2+0x348c>
   859d0:	93407da7 	sxtw	x7, w13
   859d4:	2a0903e1 	mov	w1, w9
   859d8:	5280000e 	mov	w14, #0x0                   	// #0
   859dc:	14000003 	b	859e8 <Process_Out.constprop.2+0x1cb0>
   859e0:	385ff066 	ldurb	w6, [x3, #-1]
   859e4:	d10004e7 	sub	x7, x7, #0x1
   859e8:	910243e3 	add	x3, sp, #0x90
   859ec:	6b02003f 	cmp	w1, w2
   859f0:	8b0300e3 	add	x3, x7, x3
   859f4:	5400008a 	b.ge	85a04 <Process_Out.constprop.2+0x1ccc>  // b.tcont
   859f8:	3821c966 	strb	w6, [x11, w1, sxtw]
   859fc:	11000421 	add	w1, w1, #0x1
   85a00:	5280002e 	mov	w14, #0x1                   	// #1
   85a04:	710000ff 	cmp	w7, #0x0
   85a08:	54fffecc 	b.gt	859e0 <Process_Out.constprop.2+0x1ca8>
   85a0c:	11000400 	add	w0, w0, #0x1
   85a10:	0b0d0006 	add	w6, w0, w13
   85a14:	340149ee 	cbz	w14, 88350 <Process_Out.constprop.2+0x4618>
   85a18:	b9000661 	str	w1, [x19, #4]
   85a1c:	7100019f 	cmp	w12, #0x0
   85a20:	54ff484d 	b.le	84328 <Process_Out.constprop.2+0x5f0>
   85a24:	3100045f 	cmn	w2, #0x1
   85a28:	5400e1c0 	b.eq	87660 <Process_Out.constprop.2+0x3928>  // b.none
   85a2c:	b400bd4b 	cbz	x11, 871d4 <Process_Out.constprop.2+0x349c>
   85a30:	2a0803e0 	mov	w0, w8
   85a34:	52800007 	mov	w7, #0x0                   	// #0
   85a38:	52800409 	mov	w9, #0x20                  	// #32
   85a3c:	d503201f 	nop
   85a40:	6b02003f 	cmp	w1, w2
   85a44:	5400008a 	b.ge	85a54 <Process_Out.constprop.2+0x1d1c>  // b.tcont
   85a48:	3821c969 	strb	w9, [x11, w1, sxtw]
   85a4c:	11000421 	add	w1, w1, #0x1
   85a50:	52800027 	mov	w7, #0x1                   	// #1
   85a54:	7100001f 	cmp	w0, #0x0
   85a58:	51000400 	sub	w0, w0, #0x1
   85a5c:	54ffff2c 	b.gt	85a40 <Process_Out.constprop.2+0x1d08>
   85a60:	7100011f 	cmp	w8, #0x0
   85a64:	110004c6 	add	w6, w6, #0x1
   85a68:	1a9fa108 	csel	w8, w8, wzr, ge  // ge = tcont
   85a6c:	0b060106 	add	w6, w8, w6
   85a70:	34ff45c7 	cbz	w7, 84328 <Process_Out.constprop.2+0x5f0>
   85a74:	b9000661 	str	w1, [x19, #4]
   85a78:	17fffa2c 	b	84328 <Process_Out.constprop.2+0x5f0>
   85a7c:	2a1603e0 	mov	w0, w22
   85a80:	4b0002c1 	sub	w1, w22, w0
   85a84:	11000400 	add	w0, w0, #0x1
   85a88:	0b010241 	add	w1, w18, w1
   85a8c:	6b21815f 	cmp	w10, w1, sxtb
   85a90:	54ffff8b 	b.lt	85a80 <Process_Out.constprop.2+0x1d48>  // b.tstop
   85a94:	2a1103e9 	mov	w9, w17
   85a98:	17ffffa9 	b	8593c <Process_Out.constprop.2+0x1c04>
   85a9c:	33000298 	bfxil	w24, w20, #0, #1
   85aa0:	b94067e2 	ldr	w2, [sp, #100]
   85aa4:	331f0018 	bfi	w24, w0, #1, #1
   85aa8:	b94083e0 	ldr	w0, [sp, #128]
   85aac:	331e0018 	bfi	w24, w0, #2, #1
   85ab0:	b94063e0 	ldr	w0, [sp, #96]
   85ab4:	331d0018 	bfi	w24, w0, #3, #1
   85ab8:	331c02d8 	bfi	w24, w22, #4, #1
   85abc:	331b0138 	bfi	w24, w9, #5, #1
   85ac0:	331a02b8 	bfi	w24, w21, #6, #1
   85ac4:	33190158 	bfi	w24, w10, #7, #1
   85ac8:	12001f00 	and	w0, w24, #0xff
   85acc:	37384da0 	tbnz	w0, #7, 86480 <Process_Out.constprop.2+0x2748>
   85ad0:	37f89062 	tbnz	w2, #31, 86cdc <Process_Out.constprop.2+0x2fa4>
   85ad4:	91003d02 	add	x2, x8, #0xf
   85ad8:	927df042 	and	x2, x2, #0xfffffffffffffff8
   85adc:	f90037e2 	str	x2, [sp, #104]
   85ae0:	331810f8 	bfi	w24, w7, #8, #5
   85ae4:	f27c001f 	tst	x0, #0x10
   85ae8:	1a9f0294 	csel	w20, w20, wzr, eq  // eq = none
   85aec:	52801ee0 	mov	w0, #0xf7                  	// #247
   85af0:	33101f98 	bfi	w24, w28, #16, #8
   85af4:	52800149 	mov	w9, #0xa                   	// #10
   85af8:	f9400102 	ldr	x2, [x8]
   85afc:	33081c38 	bfi	w24, w1, #24, #8
   85b00:	121f1b0e 	and	w14, w24, #0xfe
   85b04:	d3483306 	ubfx	x6, x24, #8, #5
   85b08:	2a1401ce 	orr	w14, w14, w20
   85b0c:	510020c8 	sub	w8, w6, #0x8
   85b10:	6a00011f 	tst	w8, w0
   85b14:	52800400 	mov	w0, #0x20                  	// #32
   85b18:	7a4218c4 	ccmp	w6, #0x2, #0x4, ne  // ne = any
   85b1c:	52800608 	mov	w8, #0x30                  	// #48
   85b20:	1a8900e7 	csel	w7, w7, w9, eq  // eq = none
   85b24:	f24001df 	tst	x14, #0x1
   85b28:	1a801108 	csel	w8, w8, w0, ne  // ne = any
   85b2c:	0a0001cf 	and	w15, w14, w0
   85b30:	36086c4e 	tbz	w14, #1, 868b8 <Process_Out.constprop.2+0x2b80>
   85b34:	b7f86ca2 	tbnz	x2, #63, 868c8 <Process_Out.constprop.2+0x2b90>
   85b38:	3611004e 	tbz	w14, #2, 87b40 <Process_Out.constprop.2+0x3e08>
   85b3c:	5100079c 	sub	w28, w28, #0x1
   85b40:	52800570 	mov	w16, #0x2b                  	// #43
   85b44:	b5006c82 	cbnz	x2, 868d4 <Process_Out.constprop.2+0x2b9c>
   85b48:	52800600 	mov	w0, #0x30                  	// #48
   85b4c:	52800606 	mov	w6, #0x30                  	// #48
   85b50:	5280000d 	mov	w13, #0x0                   	// #0
   85b54:	52800029 	mov	w9, #0x1                   	// #1
   85b58:	390243e0 	strb	w0, [sp, #144]
   85b5c:	6b09003f 	cmp	w1, w9
   85b60:	d0000082 	adrp	x2, 97000 <__bss_start__>
   85b64:	13001d20 	sxtb	w0, w9
   85b68:	91004053 	add	x19, x2, #0x10
   85b6c:	1a81b001 	csel	w1, w0, w1, lt  // lt = tstop
   85b70:	b9401042 	ldr	w2, [x2, #16]
   85b74:	4b01038c 	sub	w12, w28, w1
   85b78:	2b1402d6 	adds	w22, w22, w20
   85b7c:	5100058a 	sub	w10, w12, #0x1
   85b80:	b9400671 	ldr	w17, [x19, #4]
   85b84:	f940066b 	ldr	x11, [x19, #8]
   85b88:	540069c1 	b.ne	868c0 <Process_Out.constprop.2+0x2b88>  // b.any
   85b8c:	7100019f 	cmp	w12, #0x0
   85b90:	54012fed 	b.le	8818c <Process_Out.constprop.2+0x4454>
   85b94:	3100045f 	cmn	w2, #0x1
   85b98:	5400f2e0 	b.eq	879f4 <Process_Out.constprop.2+0x3cbc>  // b.none
   85b9c:	b40001eb 	cbz	x11, 85bd8 <Process_Out.constprop.2+0x1ea0>
   85ba0:	2a1103e0 	mov	w0, w17
   85ba4:	52800012 	mov	w18, #0x0                   	// #0
   85ba8:	52800414 	mov	w20, #0x20                  	// #32
   85bac:	5100054a 	sub	w10, w10, #0x1
   85bb0:	6b02001f 	cmp	w0, w2
   85bb4:	5400008a 	b.ge	85bc4 <Process_Out.constprop.2+0x1e8c>  // b.tcont
   85bb8:	3820c974 	strb	w20, [x11, w0, sxtw]
   85bbc:	11000400 	add	w0, w0, #0x1
   85bc0:	52800032 	mov	w18, #0x1                   	// #1
   85bc4:	3100055f 	cmn	w10, #0x1
   85bc8:	54ffff21 	b.ne	85bac <Process_Out.constprop.2+0x1e74>  // b.any
   85bcc:	34000072 	cbz	w18, 85bd8 <Process_Out.constprop.2+0x1ea0>
   85bd0:	2a0003f1 	mov	w17, w0
   85bd4:	b9000660 	str	w0, [x19, #4]
   85bd8:	2a0c03f6 	mov	w22, w12
   85bdc:	1280002a 	mov	w10, #0xfffffffe            	// #-2
   85be0:	1280000c 	mov	w12, #0xffffffff            	// #-1
   85be4:	3720036e 	tbnz	w14, #4, 85c50 <Process_Out.constprop.2+0x1f18>
   85be8:	7100019f 	cmp	w12, #0x0
   85bec:	54012eed 	b.le	881c8 <Process_Out.constprop.2+0x4490>
   85bf0:	3100045f 	cmn	w2, #0x1
   85bf4:	5400f180 	b.eq	87a24 <Process_Out.constprop.2+0x3cec>  // b.none
   85bf8:	b40104cb 	cbz	x11, 87c90 <Process_Out.constprop.2+0x3f58>
   85bfc:	2a1103f2 	mov	w18, w17
   85c00:	2a0a03e0 	mov	w0, w10
   85c04:	52800014 	mov	w20, #0x0                   	// #0
   85c08:	6b02025f 	cmp	w18, w2
   85c0c:	5400008a 	b.ge	85c1c <Process_Out.constprop.2+0x1ee4>  // b.tcont
   85c10:	3832c968 	strb	w8, [x11, w18, sxtw]
   85c14:	11000652 	add	w18, w18, #0x1
   85c18:	52800034 	mov	w20, #0x1                   	// #1
   85c1c:	7100001f 	cmp	w0, #0x0
   85c20:	51000400 	sub	w0, w0, #0x1
   85c24:	54ffff2c 	b.gt	85c08 <Process_Out.constprop.2+0x1ed0>
   85c28:	7100015f 	cmp	w10, #0x0
   85c2c:	110006d6 	add	w22, w22, #0x1
   85c30:	1a9fa140 	csel	w0, w10, wzr, ge  // ge = tcont
   85c34:	5100054a 	sub	w10, w10, #0x1
   85c38:	0b0002d6 	add	w22, w22, w0
   85c3c:	4b00014c 	sub	w12, w10, w0
   85c40:	34000074 	cbz	w20, 85c4c <Process_Out.constprop.2+0x1f14>
   85c44:	2a1203f1 	mov	w17, w18
   85c48:	b9000672 	str	w18, [x19, #4]
   85c4c:	5100058a 	sub	w10, w12, #0x1
   85c50:	51000432 	sub	w18, w1, #0x1
   85c54:	6b01013f 	cmp	w9, w1
   85c58:	12001e52 	and	w18, w18, #0xff
   85c5c:	5401188a 	b.ge	87f6c <Process_Out.constprop.2+0x4234>  // b.tcont
   85c60:	3100045f 	cmn	w2, #0x1
   85c64:	54009f00 	b.eq	87044 <Process_Out.constprop.2+0x330c>  // b.none
   85c68:	b4000bab 	cbz	x11, 85ddc <Process_Out.constprop.2+0x20a4>
   85c6c:	2a1103e8 	mov	w8, w17
   85c70:	2a1603e0 	mov	w0, w22
   85c74:	52800014 	mov	w20, #0x0                   	// #0
   85c78:	52800615 	mov	w21, #0x30                  	// #48
   85c7c:	d503201f 	nop
   85c80:	4b0002c1 	sub	w1, w22, w0
   85c84:	6b02011f 	cmp	w8, w2
   85c88:	0b010241 	add	w1, w18, w1
   85c8c:	11000400 	add	w0, w0, #0x1
   85c90:	13001c21 	sxtb	w1, w1
   85c94:	5400008a 	b.ge	85ca4 <Process_Out.constprop.2+0x1f6c>  // b.tcont
   85c98:	3828c975 	strb	w21, [x11, w8, sxtw]
   85c9c:	11000508 	add	w8, w8, #0x1
   85ca0:	52800034 	mov	w20, #0x1                   	// #1
   85ca4:	6b01013f 	cmp	w9, w1
   85ca8:	54fffecb 	b.lt	85c80 <Process_Out.constprop.2+0x1f48>  // b.tstop
   85cac:	34000a54 	cbz	w20, 85df4 <Process_Out.constprop.2+0x20bc>
   85cb0:	b9000668 	str	w8, [x19, #4]
   85cb4:	34000150 	cbz	w16, 85cdc <Process_Out.constprop.2+0x1fa4>
   85cb8:	3100045f 	cmn	w2, #0x1
   85cbc:	54000060 	b.eq	85cc8 <Process_Out.constprop.2+0x1f90>  // b.none
   85cc0:	6b02011f 	cmp	w8, w2
   85cc4:	540000aa 	b.ge	85cd8 <Process_Out.constprop.2+0x1fa0>  // b.tcont
   85cc8:	b400008b 	cbz	x11, 85cd8 <Process_Out.constprop.2+0x1fa0>
   85ccc:	3828c970 	strb	w16, [x11, w8, sxtw]
   85cd0:	11000508 	add	w8, w8, #0x1
   85cd4:	b9000668 	str	w8, [x19, #4]
   85cd8:	11000400 	add	w0, w0, #0x1
   85cdc:	3630030e 	tbz	w14, #6, 85d3c <Process_Out.constprop.2+0x2004>
   85ce0:	710020ff 	cmp	w7, #0x8
   85ce4:	5400fa20 	b.eq	87c28 <Process_Out.constprop.2+0x3ef0>  // b.none
   85ce8:	710040ff 	cmp	w7, #0x10
   85cec:	54000281 	b.ne	85d3c <Process_Out.constprop.2+0x2004>  // b.any
   85cf0:	3100045f 	cmn	w2, #0x1
   85cf4:	54012980 	b.eq	88224 <Process_Out.constprop.2+0x44ec>  // b.none
   85cf8:	6b02011f 	cmp	w8, w2
   85cfc:	540001ca 	b.ge	85d34 <Process_Out.constprop.2+0x1ffc>  // b.tcont
   85d00:	52800b01 	mov	w1, #0x58                  	// #88
   85d04:	2a0101ef 	orr	w15, w15, w1
   85d08:	b400016b 	cbz	x11, 85d34 <Process_Out.constprop.2+0x1ffc>
   85d0c:	52800601 	mov	w1, #0x30                  	// #48
   85d10:	3828c961 	strb	w1, [x11, w8, sxtw]
   85d14:	11000508 	add	w8, w8, #0x1
   85d18:	b9000668 	str	w8, [x19, #4]
   85d1c:	6b02011f 	cmp	w8, w2
   85d20:	540000aa 	b.ge	85d34 <Process_Out.constprop.2+0x1ffc>  // b.tcont
   85d24:	b9400661 	ldr	w1, [x19, #4]
   85d28:	11000427 	add	w7, w1, #0x1
   85d2c:	b9000667 	str	w7, [x19, #4]
   85d30:	3821c96f 	strb	w15, [x11, w1, sxtw]
   85d34:	b9400668 	ldr	w8, [x19, #4]
   85d38:	11000800 	add	w0, w0, #0x2
   85d3c:	3100045f 	cmn	w2, #0x1
   85d40:	54009a20 	b.eq	87084 <Process_Out.constprop.2+0x334c>  // b.none
   85d44:	b400098b 	cbz	x11, 85e74 <Process_Out.constprop.2+0x213c>
   85d48:	93407da7 	sxtw	x7, w13
   85d4c:	2a0803e1 	mov	w1, w8
   85d50:	5280000e 	mov	w14, #0x0                   	// #0
   85d54:	14000003 	b	85d60 <Process_Out.constprop.2+0x2028>
   85d58:	385ff066 	ldurb	w6, [x3, #-1]
   85d5c:	d10004e7 	sub	x7, x7, #0x1
   85d60:	910243e3 	add	x3, sp, #0x90
   85d64:	6b02003f 	cmp	w1, w2
   85d68:	8b0300e3 	add	x3, x7, x3
   85d6c:	5400008a 	b.ge	85d7c <Process_Out.constprop.2+0x2044>  // b.tcont
   85d70:	3821c966 	strb	w6, [x11, w1, sxtw]
   85d74:	11000421 	add	w1, w1, #0x1
   85d78:	5280002e 	mov	w14, #0x1                   	// #1
   85d7c:	710000ff 	cmp	w7, #0x0
   85d80:	54fffecc 	b.gt	85d58 <Process_Out.constprop.2+0x2020>
   85d84:	11000400 	add	w0, w0, #0x1
   85d88:	0b0d0006 	add	w6, w0, w13
   85d8c:	34012c6e 	cbz	w14, 88318 <Process_Out.constprop.2+0x45e0>
   85d90:	b9000661 	str	w1, [x19, #4]
   85d94:	7100019f 	cmp	w12, #0x0
   85d98:	54ff2c8d 	b.le	84328 <Process_Out.constprop.2+0x5f0>
   85d9c:	3100045f 	cmn	w2, #0x1
   85da0:	5400bfa0 	b.eq	87594 <Process_Out.constprop.2+0x385c>  // b.none
   85da4:	b400070b 	cbz	x11, 85e84 <Process_Out.constprop.2+0x214c>
   85da8:	2a0a03e0 	mov	w0, w10
   85dac:	52800007 	mov	w7, #0x0                   	// #0
   85db0:	52800408 	mov	w8, #0x20                  	// #32
   85db4:	d503201f 	nop
   85db8:	6b02003f 	cmp	w1, w2
   85dbc:	5400008a 	b.ge	85dcc <Process_Out.constprop.2+0x2094>  // b.tcont
   85dc0:	3821c968 	strb	w8, [x11, w1, sxtw]
   85dc4:	11000421 	add	w1, w1, #0x1
   85dc8:	52800027 	mov	w7, #0x1                   	// #1
   85dcc:	7100001f 	cmp	w0, #0x0
   85dd0:	51000400 	sub	w0, w0, #0x1
   85dd4:	54ffff2c 	b.gt	85db8 <Process_Out.constprop.2+0x2080>
   85dd8:	17fff94e 	b	84310 <Process_Out.constprop.2+0x5d8>
   85ddc:	2a1603e0 	mov	w0, w22
   85de0:	4b0002c1 	sub	w1, w22, w0
   85de4:	11000400 	add	w0, w0, #0x1
   85de8:	0b010241 	add	w1, w18, w1
   85dec:	6b21813f 	cmp	w9, w1, sxtb
   85df0:	54ffff8b 	b.lt	85de0 <Process_Out.constprop.2+0x20a8>  // b.tstop
   85df4:	2a1103e8 	mov	w8, w17
   85df8:	17ffffaf 	b	85cb4 <Process_Out.constprop.2+0x1f7c>
   85dfc:	7101a85f 	cmp	w2, #0x6a
   85e00:	540004e0 	b.eq	85e9c <Process_Out.constprop.2+0x2164>  // b.none
   85e04:	540001ed 	b.le	85e40 <Process_Out.constprop.2+0x2108>
   85e08:	7101d05f 	cmp	w2, #0x74
   85e0c:	54000480 	b.eq	85e9c <Process_Out.constprop.2+0x2164>  // b.none
   85e10:	7101e85f 	cmp	w2, #0x7a
   85e14:	54000440 	b.eq	85e9c <Process_Out.constprop.2+0x2164>  // b.none
   85e18:	7101b05f 	cmp	w2, #0x6c
   85e1c:	54000400 	b.eq	85e9c <Process_Out.constprop.2+0x2164>  // b.none
   85e20:	b94067e0 	ldr	w0, [sp, #100]
   85e24:	37f90340 	tbnz	w0, #31, 87e8c <Process_Out.constprop.2+0x4154>
   85e28:	91003d00 	add	x0, x8, #0xf
   85e2c:	927df000 	and	x0, x0, #0xfffffffffffffff8
   85e30:	f90037e0 	str	x0, [sp, #104]
   85e34:	f9400100 	ldr	x0, [x8]
   85e38:	b9000019 	str	w25, [x0]
   85e3c:	17fff7f0 	b	83dfc <Process_Out.constprop.2+0xc4>
   85e40:	7101305f 	cmp	w2, #0x4c
   85e44:	5400a2c0 	b.eq	8729c <Process_Out.constprop.2+0x3564>  // b.none
   85e48:	7101a05f 	cmp	w2, #0x68
   85e4c:	54fffea1 	b.ne	85e20 <Process_Out.constprop.2+0x20e8>  // b.any
   85e50:	b94067e0 	ldr	w0, [sp, #100]
   85e54:	370100ea 	tbnz	w10, #0, 87e70 <Process_Out.constprop.2+0x4138>
   85e58:	37f90fe0 	tbnz	w0, #31, 88054 <Process_Out.constprop.2+0x431c>
   85e5c:	91003d00 	add	x0, x8, #0xf
   85e60:	927df000 	and	x0, x0, #0xfffffffffffffff8
   85e64:	f90037e0 	str	x0, [sp, #104]
   85e68:	f9400100 	ldr	x0, [x8]
   85e6c:	79000019 	strh	w25, [x0]
   85e70:	17fff7e3 	b	83dfc <Process_Out.constprop.2+0xc4>
   85e74:	11000400 	add	w0, w0, #0x1
   85e78:	7100019f 	cmp	w12, #0x0
   85e7c:	0b0d0006 	add	w6, w0, w13
   85e80:	54ff254d 	b.le	84328 <Process_Out.constprop.2+0x5f0>
   85e84:	7100015f 	cmp	w10, #0x0
   85e88:	110004c6 	add	w6, w6, #0x1
   85e8c:	1a9fa14a 	csel	w10, w10, wzr, ge  // ge = tcont
   85e90:	0b060146 	add	w6, w10, w6
   85e94:	0b060339 	add	w25, w25, w6
   85e98:	17fff7d9 	b	83dfc <Process_Out.constprop.2+0xc4>
   85e9c:	b94067e0 	ldr	w0, [sp, #100]
   85ea0:	37f86d60 	tbnz	w0, #31, 86c4c <Process_Out.constprop.2+0x2f14>
   85ea4:	91003d00 	add	x0, x8, #0xf
   85ea8:	927df000 	and	x0, x0, #0xfffffffffffffff8
   85eac:	f90037e0 	str	x0, [sp, #104]
   85eb0:	f9400100 	ldr	x0, [x8]
   85eb4:	93407f21 	sxtw	x1, w25
   85eb8:	f9000001 	str	x1, [x0]
   85ebc:	17fff7d0 	b	83dfc <Process_Out.constprop.2+0xc4>
   85ec0:	11000400 	add	w0, w0, #0x1
   85ec4:	7100023f 	cmp	w17, #0x0
   85ec8:	0b000186 	add	w6, w12, w0
   85ecc:	54fffdcc 	b.gt	85e84 <Process_Out.constprop.2+0x214c>
   85ed0:	17fff916 	b	84328 <Process_Out.constprop.2+0x5f0>
   85ed4:	52800016 	mov	w22, #0x0                   	// #0
   85ed8:	17fffcbe 	b	851d0 <Process_Out.constprop.2+0x1498>
   85edc:	51000529 	sub	w9, w9, #0x1
   85ee0:	cb0203e2 	neg	x2, x2
   85ee4:	528005ae 	mov	w14, #0x2d                  	// #45
   85ee8:	92401c08 	and	x8, x0, #0xff
   85eec:	910243ea 	add	x10, sp, #0x90
   85ef0:	f0000060 	adrp	x0, 94000 <__trunctfdf2+0x1f8>
   85ef4:	5280000b 	mov	w11, #0x0                   	// #0
   85ef8:	91136000 	add	x0, x0, #0x4d8
   85efc:	14000002 	b	85f04 <Process_Out.constprop.2+0x21cc>
   85f00:	2a0703eb 	mov	w11, w7
   85f04:	9ac80c43 	sdiv	x3, x2, x8
   85f08:	11000567 	add	w7, w11, #0x1
   85f0c:	9b088864 	msub	x4, x3, x8, x2
   85f10:	aa0303e2 	mov	x2, x3
   85f14:	3864c806 	ldrb	w6, [x0, w4, sxtw]
   85f18:	2a0d00c6 	orr	w6, w6, w13
   85f1c:	38001546 	strb	w6, [x10], #1
   85f20:	b5ffff03 	cbnz	x3, 85f00 <Process_Out.constprop.2+0x21c8>
   85f24:	17fffc89 	b	85148 <Process_Out.constprop.2+0x1410>
   85f28:	5280000e 	mov	w14, #0x0                   	// #0
   85f2c:	17fffc81 	b	85130 <Process_Out.constprop.2+0x13f8>
   85f30:	5280000f 	mov	w15, #0x0                   	// #0
   85f34:	17fff99e 	b	845ac <Process_Out.constprop.2+0x874>
   85f38:	52800016 	mov	w22, #0x0                   	// #0
   85f3c:	17fff9c7 	b	84658 <Process_Out.constprop.2+0x920>
   85f40:	51000791 	sub	w17, w28, #0x1
   85f44:	4b0203e2 	neg	w2, w2
   85f48:	528005af 	mov	w15, #0x2d                  	// #45
   85f4c:	f0000060 	adrp	x0, 94000 <__trunctfdf2+0x1f8>
   85f50:	910243ea 	add	x10, sp, #0x90
   85f54:	91136000 	add	x0, x0, #0x4d8
   85f58:	5280000c 	mov	w12, #0x0                   	// #0
   85f5c:	14000002 	b	85f64 <Process_Out.constprop.2+0x222c>
   85f60:	2a0803ec 	mov	w12, w8
   85f64:	1ac70c43 	sdiv	w3, w2, w7
   85f68:	11000588 	add	w8, w12, #0x1
   85f6c:	1b078864 	msub	w4, w3, w7, w2
   85f70:	2a0303e2 	mov	w2, w3
   85f74:	3864c806 	ldrb	w6, [x0, w4, sxtw]
   85f78:	2a0e00c6 	orr	w6, w6, w14
   85f7c:	38001546 	strb	w6, [x10], #1
   85f80:	35ffff03 	cbnz	w3, 85f60 <Process_Out.constprop.2+0x2228>
   85f84:	17fff990 	b	845c4 <Process_Out.constprop.2+0x88c>
   85f88:	52800016 	mov	w22, #0x0                   	// #0
   85f8c:	17fffa87 	b	849a8 <Process_Out.constprop.2+0xc70>
   85f90:	51000792 	sub	w18, w28, #0x1
   85f94:	cb0203e2 	neg	x2, x2
   85f98:	528005b0 	mov	w16, #0x2d                  	// #45
   85f9c:	f0000060 	adrp	x0, 94000 <__trunctfdf2+0x1f8>
   85fa0:	92401ceb 	and	x11, x7, #0xff
   85fa4:	91136000 	add	x0, x0, #0x4d8
   85fa8:	910243ea 	add	x10, sp, #0x90
   85fac:	5280000d 	mov	w13, #0x0                   	// #0
   85fb0:	14000002 	b	85fb8 <Process_Out.constprop.2+0x2280>
   85fb4:	2a0803ed 	mov	w13, w8
   85fb8:	9acb0c43 	sdiv	x3, x2, x11
   85fbc:	110005a8 	add	w8, w13, #0x1
   85fc0:	9b0b8864 	msub	x4, x3, x11, x2
   85fc4:	aa0303e2 	mov	x2, x3
   85fc8:	3864c806 	ldrb	w6, [x0, w4, sxtw]
   85fcc:	2a0f00c6 	orr	w6, w6, w15
   85fd0:	38001546 	strb	w6, [x10], #1
   85fd4:	b5ffff03 	cbnz	x3, 85fb4 <Process_Out.constprop.2+0x227c>
   85fd8:	17fffa52 	b	84920 <Process_Out.constprop.2+0xbe8>
   85fdc:	5280000f 	mov	w15, #0x0                   	// #0
   85fe0:	17fff824 	b	84070 <Process_Out.constprop.2+0x338>
   85fe4:	52800016 	mov	w22, #0x0                   	// #0
   85fe8:	17fff84c 	b	84118 <Process_Out.constprop.2+0x3e0>
   85fec:	51000791 	sub	w17, w28, #0x1
   85ff0:	4b0803e2 	neg	w2, w8
   85ff4:	528005af 	mov	w15, #0x2d                  	// #45
   85ff8:	f0000060 	adrp	x0, 94000 <__trunctfdf2+0x1f8>
   85ffc:	910243ea 	add	x10, sp, #0x90
   86000:	91136000 	add	x0, x0, #0x4d8
   86004:	5280000c 	mov	w12, #0x0                   	// #0
   86008:	14000002 	b	86010 <Process_Out.constprop.2+0x22d8>
   8600c:	2a0803ec 	mov	w12, w8
   86010:	1ac70c43 	sdiv	w3, w2, w7
   86014:	11000588 	add	w8, w12, #0x1
   86018:	1b078864 	msub	w4, w3, w7, w2
   8601c:	2a0303e2 	mov	w2, w3
   86020:	3864c806 	ldrb	w6, [x0, w4, sxtw]
   86024:	2a0e00c6 	orr	w6, w6, w14
   86028:	38001546 	strb	w6, [x10], #1
   8602c:	35ffff03 	cbnz	w3, 8600c <Process_Out.constprop.2+0x22d4>
   86030:	17fff816 	b	84088 <Process_Out.constprop.2+0x350>
   86034:	52800010 	mov	w16, #0x0                   	// #0
   86038:	17fffa34 	b	84908 <Process_Out.constprop.2+0xbd0>
   8603c:	52800016 	mov	w22, #0x0                   	// #0
   86040:	17fffd28 	b	854e0 <Process_Out.constprop.2+0x17a8>
   86044:	51000792 	sub	w18, w28, #0x1
   86048:	cb0203e2 	neg	x2, x2
   8604c:	528005b0 	mov	w16, #0x2d                  	// #45
   86050:	d0000060 	adrp	x0, 94000 <__trunctfdf2+0x1f8>
   86054:	92401ceb 	and	x11, x7, #0xff
   86058:	91136000 	add	x0, x0, #0x4d8
   8605c:	910243ea 	add	x10, sp, #0x90
   86060:	5280000d 	mov	w13, #0x0                   	// #0
   86064:	14000002 	b	8606c <Process_Out.constprop.2+0x2334>
   86068:	2a0803ed 	mov	w13, w8
   8606c:	9acb0c43 	sdiv	x3, x2, x11
   86070:	110005a8 	add	w8, w13, #0x1
   86074:	9b0b8864 	msub	x4, x3, x11, x2
   86078:	aa0303e2 	mov	x2, x3
   8607c:	3864c806 	ldrb	w6, [x0, w4, sxtw]
   86080:	2a0f00c6 	orr	w6, w6, w15
   86084:	38001546 	strb	w6, [x10], #1
   86088:	b5ffff03 	cbnz	x3, 86068 <Process_Out.constprop.2+0x2330>
   8608c:	17fffcf3 	b	85458 <Process_Out.constprop.2+0x1720>
   86090:	52800010 	mov	w16, #0x0                   	// #0
   86094:	17fffceb 	b	85440 <Process_Out.constprop.2+0x1708>
   86098:	52800147 	mov	w7, #0xa                   	// #10
   8609c:	52800009 	mov	w9, #0x0                   	// #0
   860a0:	52800020 	mov	w0, #0x1                   	// #1
   860a4:	17fff7c2 	b	83fac <Process_Out.constprop.2+0x274>
   860a8:	b94067e0 	ldr	w0, [sp, #100]
   860ac:	11002000 	add	w0, w0, #0x8
   860b0:	7100001f 	cmp	w0, #0x0
   860b4:	5400808d 	b.le	870c4 <Process_Out.constprop.2+0x338c>
   860b8:	91003d02 	add	x2, x8, #0xf
   860bc:	b90067e0 	str	w0, [sp, #100]
   860c0:	927df040 	and	x0, x2, #0xfffffffffffffff8
   860c4:	f90037e0 	str	x0, [sp, #104]
   860c8:	17fffbf6 	b	850a0 <Process_Out.constprop.2+0x1368>
   860cc:	b94067e0 	ldr	w0, [sp, #100]
   860d0:	11002000 	add	w0, w0, #0x8
   860d4:	7100001f 	cmp	w0, #0x0
   860d8:	54007a8d 	b.le	87028 <Process_Out.constprop.2+0x32f0>
   860dc:	91003d02 	add	x2, x8, #0xf
   860e0:	b90067e0 	str	w0, [sp, #100]
   860e4:	927df040 	and	x0, x2, #0xfffffffffffffff8
   860e8:	f90037e0 	str	x0, [sp, #104]
   860ec:	17fffb5c 	b	84e5c <Process_Out.constprop.2+0x1124>
   860f0:	f9403fe3 	ldr	x3, [sp, #120]
   860f4:	b94067e0 	ldr	w0, [sp, #100]
   860f8:	b90067e2 	str	w2, [sp, #100]
   860fc:	8b20c060 	add	x0, x3, w0, sxtw
   86100:	17fffabe 	b	84bf8 <Process_Out.constprop.2+0xec0>
   86104:	b94067e2 	ldr	w2, [sp, #100]
   86108:	11002042 	add	w2, w2, #0x8
   8610c:	7100005f 	cmp	w2, #0x0
   86110:	540088ed 	b.le	8722c <Process_Out.constprop.2+0x34f4>
   86114:	91002d03 	add	x3, x8, #0xb
   86118:	b90067e2 	str	w2, [sp, #100]
   8611c:	927df062 	and	x2, x3, #0xfffffffffffffff8
   86120:	f90037e2 	str	x2, [sp, #104]
   86124:	17fff8fe 	b	8451c <Process_Out.constprop.2+0x7e4>
   86128:	37f88902 	tbnz	w2, #31, 87248 <Process_Out.constprop.2+0x3510>
   8612c:	91002d02 	add	x2, x8, #0xb
   86130:	927df042 	and	x2, x2, #0xfffffffffffffff8
   86134:	f90037e2 	str	x2, [sp, #104]
   86138:	331810f8 	bfi	w24, w7, #8, #5
   8613c:	f27c001f 	tst	x0, #0x10
   86140:	1a9f0294 	csel	w20, w20, wzr, eq  // eq = none
   86144:	52801ee0 	mov	w0, #0xf7                  	// #247
   86148:	33101f98 	bfi	w24, w28, #16, #8
   8614c:	39c00102 	ldrsb	w2, [x8]
   86150:	52800148 	mov	w8, #0xa                   	// #10
   86154:	33081c38 	bfi	w24, w1, #24, #8
   86158:	121f1b0e 	and	w14, w24, #0xfe
   8615c:	d3483306 	ubfx	x6, x24, #8, #5
   86160:	2a1401ce 	orr	w14, w14, w20
   86164:	510020c9 	sub	w9, w6, #0x8
   86168:	6a00013f 	tst	w9, w0
   8616c:	52800400 	mov	w0, #0x20                  	// #32
   86170:	7a4218c4 	ccmp	w6, #0x2, #0x4, ne  // ne = any
   86174:	52800609 	mov	w9, #0x30                  	// #48
   86178:	1a8800e7 	csel	w7, w7, w8, eq  // eq = none
   8617c:	f24001df 	tst	x14, #0x1
   86180:	1a801129 	csel	w9, w9, w0, ne  // ne = any
   86184:	0a0001cf 	and	w15, w14, w0
   86188:	36086f0e 	tbz	w14, #1, 86f68 <Process_Out.constprop.2+0x3230>
   8618c:	37f86ca2 	tbnz	w2, #31, 86f20 <Process_Out.constprop.2+0x31e8>
   86190:	3610dc2e 	tbz	w14, #2, 87d14 <Process_Out.constprop.2+0x3fdc>
   86194:	5100079c 	sub	w28, w28, #0x1
   86198:	52800570 	mov	w16, #0x2b                  	// #43
   8619c:	35006c82 	cbnz	w2, 86f2c <Process_Out.constprop.2+0x31f4>
   861a0:	52800600 	mov	w0, #0x30                  	// #48
   861a4:	5280000b 	mov	w11, #0x0                   	// #0
   861a8:	52800606 	mov	w6, #0x30                  	// #48
   861ac:	52800031 	mov	w17, #0x1                   	// #1
   861b0:	390243e0 	strb	w0, [sp, #144]
   861b4:	6b11003f 	cmp	w1, w17
   861b8:	2a0103f5 	mov	w21, w1
   861bc:	5400006a 	b.ge	861c8 <Process_Out.constprop.2+0x2490>  // b.tcont
   861c0:	13001e21 	sxtb	w1, w17
   861c4:	2a1103f5 	mov	w21, w17
   861c8:	b0000082 	adrp	x2, 97000 <__bss_start__>
   861cc:	91004053 	add	x19, x2, #0x10
   861d0:	4b15038d 	sub	w13, w28, w21
   861d4:	2b1402d6 	adds	w22, w22, w20
   861d8:	b940104a 	ldr	w10, [x2, #16]
   861dc:	510005a8 	sub	w8, w13, #0x1
   861e0:	b9400662 	ldr	w2, [x19, #4]
   861e4:	f940066c 	ldr	x12, [x19, #8]
   861e8:	54006981 	b.ne	86f18 <Process_Out.constprop.2+0x31e0>  // b.any
   861ec:	710001bf 	cmp	w13, #0x0
   861f0:	5400ffcd 	b.le	881e8 <Process_Out.constprop.2+0x44b0>
   861f4:	3100055f 	cmn	w10, #0x1
   861f8:	5400e780 	b.eq	87ee8 <Process_Out.constprop.2+0x41b0>  // b.none
   861fc:	b40001ec 	cbz	x12, 86238 <Process_Out.constprop.2+0x2500>
   86200:	2a0203e0 	mov	w0, w2
   86204:	52800012 	mov	w18, #0x0                   	// #0
   86208:	52800414 	mov	w20, #0x20                  	// #32
   8620c:	51000508 	sub	w8, w8, #0x1
   86210:	6b0a001f 	cmp	w0, w10
   86214:	5400008a 	b.ge	86224 <Process_Out.constprop.2+0x24ec>  // b.tcont
   86218:	3820c994 	strb	w20, [x12, w0, sxtw]
   8621c:	11000400 	add	w0, w0, #0x1
   86220:	52800032 	mov	w18, #0x1                   	// #1
   86224:	3100051f 	cmn	w8, #0x1
   86228:	54ffff21 	b.ne	8620c <Process_Out.constprop.2+0x24d4>  // b.any
   8622c:	34000072 	cbz	w18, 86238 <Process_Out.constprop.2+0x2500>
   86230:	2a0003e2 	mov	w2, w0
   86234:	b9000660 	str	w0, [x19, #4]
   86238:	2a0d03f6 	mov	w22, w13
   8623c:	12800028 	mov	w8, #0xfffffffe            	// #-2
   86240:	1280000d 	mov	w13, #0xffffffff            	// #-1
   86244:	52800220 	mov	w0, #0x11                  	// #17
   86248:	6a0001df 	tst	w14, w0
   8624c:	54000361 	b.ne	862b8 <Process_Out.constprop.2+0x2580>  // b.any
   86250:	710001bf 	cmp	w13, #0x0
   86254:	5401032d 	b.le	882b8 <Process_Out.constprop.2+0x4580>
   86258:	3100055f 	cmn	w10, #0x1
   8625c:	5400e5e0 	b.eq	87f18 <Process_Out.constprop.2+0x41e0>  // b.none
   86260:	b400e36c 	cbz	x12, 87ecc <Process_Out.constprop.2+0x4194>
   86264:	2a0203f2 	mov	w18, w2
   86268:	2a0803e0 	mov	w0, w8
   8626c:	52800014 	mov	w20, #0x0                   	// #0
   86270:	6b0a025f 	cmp	w18, w10
   86274:	5400008a 	b.ge	86284 <Process_Out.constprop.2+0x254c>  // b.tcont
   86278:	3832c989 	strb	w9, [x12, w18, sxtw]
   8627c:	11000652 	add	w18, w18, #0x1
   86280:	52800034 	mov	w20, #0x1                   	// #1
   86284:	7100001f 	cmp	w0, #0x0
   86288:	51000400 	sub	w0, w0, #0x1
   8628c:	54ffff2c 	b.gt	86270 <Process_Out.constprop.2+0x2538>
   86290:	7100011f 	cmp	w8, #0x0
   86294:	110006d6 	add	w22, w22, #0x1
   86298:	1a9fa100 	csel	w0, w8, wzr, ge  // ge = tcont
   8629c:	51000508 	sub	w8, w8, #0x1
   862a0:	0b0002d6 	add	w22, w22, w0
   862a4:	4b00010d 	sub	w13, w8, w0
   862a8:	34000074 	cbz	w20, 862b4 <Process_Out.constprop.2+0x257c>
   862ac:	2a1203e2 	mov	w2, w18
   862b0:	b9000672 	str	w18, [x19, #4]
   862b4:	510005a8 	sub	w8, w13, #0x1
   862b8:	51000421 	sub	w1, w1, #0x1
   862bc:	6b15023f 	cmp	w17, w21
   862c0:	12001c32 	and	w18, w1, #0xff
   862c4:	5400eeaa 	b.ge	88098 <Process_Out.constprop.2+0x4360>  // b.tcont
   862c8:	3100055f 	cmn	w10, #0x1
   862cc:	5400ad60 	b.eq	87878 <Process_Out.constprop.2+0x3b40>  // b.none
   862d0:	b4000c8c 	cbz	x12, 86460 <Process_Out.constprop.2+0x2728>
   862d4:	2a0203e9 	mov	w9, w2
   862d8:	2a1603e0 	mov	w0, w22
   862dc:	52800014 	mov	w20, #0x0                   	// #0
   862e0:	52800615 	mov	w21, #0x30                  	// #48
   862e4:	d503201f 	nop
   862e8:	4b0002c1 	sub	w1, w22, w0
   862ec:	6b0a013f 	cmp	w9, w10
   862f0:	0b010241 	add	w1, w18, w1
   862f4:	11000400 	add	w0, w0, #0x1
   862f8:	13001c21 	sxtb	w1, w1
   862fc:	5400008a 	b.ge	8630c <Process_Out.constprop.2+0x25d4>  // b.tcont
   86300:	3829c995 	strb	w21, [x12, w9, sxtw]
   86304:	11000529 	add	w9, w9, #0x1
   86308:	52800034 	mov	w20, #0x1                   	// #1
   8630c:	6b01023f 	cmp	w17, w1
   86310:	54fffecb 	b.lt	862e8 <Process_Out.constprop.2+0x25b0>  // b.tstop
   86314:	34000b34 	cbz	w20, 86478 <Process_Out.constprop.2+0x2740>
   86318:	b9000669 	str	w9, [x19, #4]
   8631c:	34000150 	cbz	w16, 86344 <Process_Out.constprop.2+0x260c>
   86320:	3100055f 	cmn	w10, #0x1
   86324:	54000060 	b.eq	86330 <Process_Out.constprop.2+0x25f8>  // b.none
   86328:	6b0a013f 	cmp	w9, w10
   8632c:	540000aa 	b.ge	86340 <Process_Out.constprop.2+0x2608>  // b.tcont
   86330:	b400008c 	cbz	x12, 86340 <Process_Out.constprop.2+0x2608>
   86334:	3829c990 	strb	w16, [x12, w9, sxtw]
   86338:	11000529 	add	w9, w9, #0x1
   8633c:	b9000669 	str	w9, [x19, #4]
   86340:	11000400 	add	w0, w0, #0x1
   86344:	3630030e 	tbz	w14, #6, 863a4 <Process_Out.constprop.2+0x266c>
   86348:	710020ff 	cmp	w7, #0x8
   8634c:	5400eca0 	b.eq	880e0 <Process_Out.constprop.2+0x43a8>  // b.none
   86350:	710040ff 	cmp	w7, #0x10
   86354:	54000281 	b.ne	863a4 <Process_Out.constprop.2+0x266c>  // b.any
   86358:	3100055f 	cmn	w10, #0x1
   8635c:	540101c0 	b.eq	88394 <Process_Out.constprop.2+0x465c>  // b.none
   86360:	6b0a013f 	cmp	w9, w10
   86364:	540001ca 	b.ge	8639c <Process_Out.constprop.2+0x2664>  // b.tcont
   86368:	52800b01 	mov	w1, #0x58                  	// #88
   8636c:	2a0101ef 	orr	w15, w15, w1
   86370:	b400016c 	cbz	x12, 8639c <Process_Out.constprop.2+0x2664>
   86374:	52800601 	mov	w1, #0x30                  	// #48
   86378:	3829c981 	strb	w1, [x12, w9, sxtw]
   8637c:	11000529 	add	w9, w9, #0x1
   86380:	b9000669 	str	w9, [x19, #4]
   86384:	6b0a013f 	cmp	w9, w10
   86388:	540000aa 	b.ge	8639c <Process_Out.constprop.2+0x2664>  // b.tcont
   8638c:	b9400661 	ldr	w1, [x19, #4]
   86390:	11000422 	add	w2, w1, #0x1
   86394:	b9000662 	str	w2, [x19, #4]
   86398:	3821c98f 	strb	w15, [x12, w1, sxtw]
   8639c:	b9400669 	ldr	w9, [x19, #4]
   863a0:	11000800 	add	w0, w0, #0x2
   863a4:	3100055f 	cmn	w10, #0x1
   863a8:	5400a480 	b.eq	87838 <Process_Out.constprop.2+0x3b00>  // b.none
   863ac:	b400abec 	cbz	x12, 87928 <Process_Out.constprop.2+0x3bf0>
   863b0:	93407d62 	sxtw	x2, w11
   863b4:	2a0903e1 	mov	w1, w9
   863b8:	5280000e 	mov	w14, #0x0                   	// #0
   863bc:	14000003 	b	863c8 <Process_Out.constprop.2+0x2690>
   863c0:	385ff066 	ldurb	w6, [x3, #-1]
   863c4:	d1000442 	sub	x2, x2, #0x1
   863c8:	910243e3 	add	x3, sp, #0x90
   863cc:	6b0a003f 	cmp	w1, w10
   863d0:	8b030043 	add	x3, x2, x3
   863d4:	5400008a 	b.ge	863e4 <Process_Out.constprop.2+0x26ac>  // b.tcont
   863d8:	3821c986 	strb	w6, [x12, w1, sxtw]
   863dc:	11000421 	add	w1, w1, #0x1
   863e0:	5280002e 	mov	w14, #0x1                   	// #1
   863e4:	7100005f 	cmp	w2, #0x0
   863e8:	54fffecc 	b.gt	863c0 <Process_Out.constprop.2+0x2688>
   863ec:	11000400 	add	w0, w0, #0x1
   863f0:	0b0b0002 	add	w2, w0, w11
   863f4:	3400fb8e 	cbz	w14, 88364 <Process_Out.constprop.2+0x462c>
   863f8:	b9000661 	str	w1, [x19, #4]
   863fc:	710001bf 	cmp	w13, #0x0
   86400:	540002cd 	b.le	86458 <Process_Out.constprop.2+0x2720>
   86404:	3100055f 	cmn	w10, #0x1
   86408:	5400ad20 	b.eq	879ac <Process_Out.constprop.2+0x3c74>  // b.none
   8640c:	b400a96c 	cbz	x12, 87938 <Process_Out.constprop.2+0x3c00>
   86410:	2a0803e0 	mov	w0, w8
   86414:	52800006 	mov	w6, #0x0                   	// #0
   86418:	52800407 	mov	w7, #0x20                  	// #32
   8641c:	d503201f 	nop
   86420:	6b0a003f 	cmp	w1, w10
   86424:	5400008a 	b.ge	86434 <Process_Out.constprop.2+0x26fc>  // b.tcont
   86428:	3821c987 	strb	w7, [x12, w1, sxtw]
   8642c:	11000421 	add	w1, w1, #0x1
   86430:	52800026 	mov	w6, #0x1                   	// #1
   86434:	7100001f 	cmp	w0, #0x0
   86438:	51000400 	sub	w0, w0, #0x1
   8643c:	54ffff2c 	b.gt	86420 <Process_Out.constprop.2+0x26e8>
   86440:	7100011f 	cmp	w8, #0x0
   86444:	11000442 	add	w2, w2, #0x1
   86448:	1a9fa108 	csel	w8, w8, wzr, ge  // ge = tcont
   8644c:	0b020102 	add	w2, w8, w2
   86450:	34000046 	cbz	w6, 86458 <Process_Out.constprop.2+0x2720>
   86454:	b9000661 	str	w1, [x19, #4]
   86458:	0b020339 	add	w25, w25, w2
   8645c:	17fff668 	b	83dfc <Process_Out.constprop.2+0xc4>
   86460:	2a1603e0 	mov	w0, w22
   86464:	4b0002c1 	sub	w1, w22, w0
   86468:	11000400 	add	w0, w0, #0x1
   8646c:	0b010241 	add	w1, w18, w1
   86470:	6b21823f 	cmp	w17, w1, sxtb
   86474:	54ffff8b 	b.lt	86464 <Process_Out.constprop.2+0x272c>  // b.tstop
   86478:	2a0203e9 	mov	w9, w2
   8647c:	17ffffa8 	b	8631c <Process_Out.constprop.2+0x25e4>
   86480:	37f86b62 	tbnz	w2, #31, 871ec <Process_Out.constprop.2+0x34b4>
   86484:	91003d02 	add	x2, x8, #0xf
   86488:	927df042 	and	x2, x2, #0xfffffffffffffff8
   8648c:	f90037e2 	str	x2, [sp, #104]
   86490:	331810f8 	bfi	w24, w7, #8, #5
   86494:	f27c001f 	tst	x0, #0x10
   86498:	1a9f0294 	csel	w20, w20, wzr, eq  // eq = none
   8649c:	52801ee9 	mov	w9, #0xf7                  	// #247
   864a0:	33101f98 	bfi	w24, w28, #16, #8
   864a4:	f9400102 	ldr	x2, [x8]
   864a8:	33081c38 	bfi	w24, w1, #24, #8
   864ac:	121f1b0c 	and	w12, w24, #0xfe
   864b0:	52800148 	mov	w8, #0xa                   	// #10
   864b4:	d3483300 	ubfx	x0, x24, #8, #5
   864b8:	2a14018c 	orr	w12, w12, w20
   864bc:	51002006 	sub	w6, w0, #0x8
   864c0:	6a0900df 	tst	w6, w9
   864c4:	52800606 	mov	w6, #0x30                  	// #48
   864c8:	7a421804 	ccmp	w0, #0x2, #0x4, ne  // ne = any
   864cc:	52800400 	mov	w0, #0x20                  	// #32
   864d0:	1a8800e7 	csel	w7, w7, w8, eq  // eq = none
   864d4:	f240019f 	tst	x12, #0x1
   864d8:	0a00018d 	and	w13, w12, w0
   864dc:	1a8010c6 	csel	w6, w6, w0, ne  // ne = any
   864e0:	3608548c 	tbz	w12, #1, 86f70 <Process_Out.constprop.2+0x3238>
   864e4:	b7f84f42 	tbnz	x2, #63, 86ecc <Process_Out.constprop.2+0x3194>
   864e8:	3610cb2c 	tbz	w12, #2, 87e4c <Process_Out.constprop.2+0x4114>
   864ec:	5100079c 	sub	w28, w28, #0x1
   864f0:	5280056e 	mov	w14, #0x2b                  	// #43
   864f4:	b5004f22 	cbnz	x2, 86ed8 <Process_Out.constprop.2+0x31a0>
   864f8:	52800600 	mov	w0, #0x30                  	// #48
   864fc:	52800609 	mov	w9, #0x30                  	// #48
   86500:	5280000b 	mov	w11, #0x0                   	// #0
   86504:	5280002f 	mov	w15, #0x1                   	// #1
   86508:	390243e0 	strb	w0, [sp, #144]
   8650c:	6b0f003f 	cmp	w1, w15
   86510:	13001de0 	sxtb	w0, w15
   86514:	1a81b001 	csel	w1, w0, w1, lt  // lt = tstop
   86518:	2b1402d6 	adds	w22, w22, w20
   8651c:	4b01038a 	sub	w10, w28, w1
   86520:	51000548 	sub	w8, w10, #0x1
   86524:	54004d01 	b.ne	86ec4 <Process_Out.constprop.2+0x318c>  // b.any
   86528:	2a0103e5 	mov	w5, w1
   8652c:	7100015f 	cmp	w10, #0x0
   86530:	5400e72d 	b.le	88214 <Process_Out.constprop.2+0x44dc>
   86534:	d503201f 	nop
   86538:	51000508 	sub	w8, w8, #0x1
   8653c:	52800400 	mov	w0, #0x20                  	// #32
   86540:	97fff5ee 	bl	83cf8 <Buffer_WriteChar>
   86544:	3100051f 	cmn	w8, #0x1
   86548:	54ffff81 	b.ne	86538 <Process_Out.constprop.2+0x2800>  // b.any
   8654c:	2a0503e1 	mov	w1, w5
   86550:	2a0a03f6 	mov	w22, w10
   86554:	12800028 	mov	w8, #0xfffffffe            	// #-2
   86558:	1280000a 	mov	w10, #0xffffffff            	// #-1
   8655c:	b0000082 	adrp	x2, 97000 <__bss_start__>
   86560:	91004053 	add	x19, x2, #0x10
   86564:	b9401052 	ldr	w18, [x2, #16]
   86568:	f9400674 	ldr	x20, [x19, #8]
   8656c:	3720034c 	tbnz	w12, #4, 865d4 <Process_Out.constprop.2+0x289c>
   86570:	7100015f 	cmp	w10, #0x0
   86574:	5400e14d 	b.le	8819c <Process_Out.constprop.2+0x4464>
   86578:	3100065f 	cmn	w18, #0x1
   8657c:	b9400662 	ldr	w2, [x19, #4]
   86580:	5400c280 	b.eq	87dd0 <Process_Out.constprop.2+0x4098>  // b.none
   86584:	b400c194 	cbz	x20, 87db4 <Process_Out.constprop.2+0x407c>
   86588:	2a0803e0 	mov	w0, w8
   8658c:	52800010 	mov	w16, #0x0                   	// #0
   86590:	6b12005f 	cmp	w2, w18
   86594:	5400008a 	b.ge	865a4 <Process_Out.constprop.2+0x286c>  // b.tcont
   86598:	3822ca86 	strb	w6, [x20, w2, sxtw]
   8659c:	11000442 	add	w2, w2, #0x1
   865a0:	52800030 	mov	w16, #0x1                   	// #1
   865a4:	7100001f 	cmp	w0, #0x0
   865a8:	51000400 	sub	w0, w0, #0x1
   865ac:	54ffff2c 	b.gt	86590 <Process_Out.constprop.2+0x2858>
   865b0:	7100011f 	cmp	w8, #0x0
   865b4:	110006d6 	add	w22, w22, #0x1
   865b8:	1a9fa10a 	csel	w10, w8, wzr, ge  // ge = tcont
   865bc:	51000508 	sub	w8, w8, #0x1
   865c0:	0b160156 	add	w22, w10, w22
   865c4:	4b0a010a 	sub	w10, w8, w10
   865c8:	34000050 	cbz	w16, 865d0 <Process_Out.constprop.2+0x2898>
   865cc:	b9000662 	str	w2, [x19, #4]
   865d0:	51000548 	sub	w8, w10, #0x1
   865d4:	51000422 	sub	w2, w1, #0x1
   865d8:	6b0101ff 	cmp	w15, w1
   865dc:	12001c42 	and	w2, w2, #0xff
   865e0:	5400dc8a 	b.ge	88170 <Process_Out.constprop.2+0x4438>  // b.tcont
   865e4:	3100065f 	cmn	w18, #0x1
   865e8:	b9400661 	ldr	w1, [x19, #4]
   865ec:	54009060 	b.eq	877f8 <Process_Out.constprop.2+0x3ac0>  // b.none
   865f0:	52800010 	mov	w16, #0x0                   	// #0
   865f4:	2a1603e6 	mov	w6, w22
   865f8:	52800611 	mov	w17, #0x30                  	// #48
   865fc:	b40009b4 	cbz	x20, 86730 <Process_Out.constprop.2+0x29f8>
   86600:	4b0602c0 	sub	w0, w22, w6
   86604:	6b12003f 	cmp	w1, w18
   86608:	0b000040 	add	w0, w2, w0
   8660c:	110004c6 	add	w6, w6, #0x1
   86610:	13001c00 	sxtb	w0, w0
   86614:	5400008a 	b.ge	86624 <Process_Out.constprop.2+0x28ec>  // b.tcont
   86618:	3821ca91 	strb	w17, [x20, w1, sxtw]
   8661c:	11000421 	add	w1, w1, #0x1
   86620:	52800030 	mov	w16, #0x1                   	// #1
   86624:	6b0001ff 	cmp	w15, w0
   86628:	54fffecb 	b.lt	86600 <Process_Out.constprop.2+0x28c8>  // b.tstop
   8662c:	34000050 	cbz	w16, 86634 <Process_Out.constprop.2+0x28fc>
   86630:	b9000661 	str	w1, [x19, #4]
   86634:	3400008e 	cbz	w14, 86644 <Process_Out.constprop.2+0x290c>
   86638:	110004c6 	add	w6, w6, #0x1
   8663c:	2a0e03e0 	mov	w0, w14
   86640:	97fff5ae 	bl	83cf8 <Buffer_WriteChar>
   86644:	3630016c 	tbz	w12, #6, 86670 <Process_Out.constprop.2+0x2938>
   86648:	710020ff 	cmp	w7, #0x8
   8664c:	5400d620 	b.eq	88110 <Process_Out.constprop.2+0x43d8>  // b.none
   86650:	710040ff 	cmp	w7, #0x10
   86654:	540000e1 	b.ne	86670 <Process_Out.constprop.2+0x2938>  // b.any
   86658:	52800600 	mov	w0, #0x30                  	// #48
   8665c:	97fff5a7 	bl	83cf8 <Buffer_WriteChar>
   86660:	110008c6 	add	w6, w6, #0x2
   86664:	52800b00 	mov	w0, #0x58                  	// #88
   86668:	2a0001a0 	orr	w0, w13, w0
   8666c:	97fff5a3 	bl	83cf8 <Buffer_WriteChar>
   86670:	3100065f 	cmn	w18, #0x1
   86674:	b9400667 	ldr	w7, [x19, #4]
   86678:	54008a00 	b.eq	877b8 <Process_Out.constprop.2+0x3a80>  // b.none
   8667c:	b4009434 	cbz	x20, 87900 <Process_Out.constprop.2+0x3bc8>
   86680:	93407d60 	sxtw	x0, w11
   86684:	2a0703e1 	mov	w1, w7
   86688:	5280000c 	mov	w12, #0x0                   	// #0
   8668c:	14000003 	b	86698 <Process_Out.constprop.2+0x2960>
   86690:	385ff049 	ldurb	w9, [x2, #-1]
   86694:	d1000400 	sub	x0, x0, #0x1
   86698:	910243e2 	add	x2, sp, #0x90
   8669c:	6b12003f 	cmp	w1, w18
   866a0:	8b020002 	add	x2, x0, x2
   866a4:	5400008a 	b.ge	866b4 <Process_Out.constprop.2+0x297c>  // b.tcont
   866a8:	3821ca89 	strb	w9, [x20, w1, sxtw]
   866ac:	11000421 	add	w1, w1, #0x1
   866b0:	5280002c 	mov	w12, #0x1                   	// #1
   866b4:	7100001f 	cmp	w0, #0x0
   866b8:	54fffecc 	b.gt	86690 <Process_Out.constprop.2+0x2958>
   866bc:	110004c0 	add	w0, w6, #0x1
   866c0:	0b000160 	add	w0, w11, w0
   866c4:	3400e12c 	cbz	w12, 882e8 <Process_Out.constprop.2+0x45b0>
   866c8:	b9000661 	str	w1, [x19, #4]
   866cc:	7100015f 	cmp	w10, #0x0
   866d0:	540002cd 	b.le	86728 <Process_Out.constprop.2+0x29f0>
   866d4:	3100065f 	cmn	w18, #0x1
   866d8:	54009dc0 	b.eq	87a90 <Process_Out.constprop.2+0x3d58>  // b.none
   866dc:	b40091b4 	cbz	x20, 87910 <Process_Out.constprop.2+0x3bd8>
   866e0:	2a0803e2 	mov	w2, w8
   866e4:	52800006 	mov	w6, #0x0                   	// #0
   866e8:	52800407 	mov	w7, #0x20                  	// #32
   866ec:	d503201f 	nop
   866f0:	6b12003f 	cmp	w1, w18
   866f4:	5400008a 	b.ge	86704 <Process_Out.constprop.2+0x29cc>  // b.tcont
   866f8:	3821ca87 	strb	w7, [x20, w1, sxtw]
   866fc:	11000421 	add	w1, w1, #0x1
   86700:	52800026 	mov	w6, #0x1                   	// #1
   86704:	7100005f 	cmp	w2, #0x0
   86708:	51000442 	sub	w2, w2, #0x1
   8670c:	54ffff2c 	b.gt	866f0 <Process_Out.constprop.2+0x29b8>
   86710:	7100011f 	cmp	w8, #0x0
   86714:	11000400 	add	w0, w0, #0x1
   86718:	1a9fa108 	csel	w8, w8, wzr, ge  // ge = tcont
   8671c:	0b000100 	add	w0, w8, w0
   86720:	34000046 	cbz	w6, 86728 <Process_Out.constprop.2+0x29f0>
   86724:	b9000661 	str	w1, [x19, #4]
   86728:	0b000339 	add	w25, w25, w0
   8672c:	17fff5b4 	b	83dfc <Process_Out.constprop.2+0xc4>
   86730:	4b0602c0 	sub	w0, w22, w6
   86734:	110004c6 	add	w6, w6, #0x1
   86738:	0b000040 	add	w0, w2, w0
   8673c:	6b2081ff 	cmp	w15, w0, sxtb
   86740:	54ffff8b 	b.lt	86730 <Process_Out.constprop.2+0x29f8>  // b.tstop
   86744:	17ffffbc 	b	86634 <Process_Out.constprop.2+0x28fc>
   86748:	b94067e2 	ldr	w2, [sp, #100]
   8674c:	11002042 	add	w2, w2, #0x8
   86750:	7100005f 	cmp	w2, #0x0
   86754:	540055ed 	b.le	87210 <Process_Out.constprop.2+0x34d8>
   86758:	91003d03 	add	x3, x8, #0xf
   8675c:	b90067e2 	str	w2, [sp, #100]
   86760:	927df062 	and	x2, x3, #0xfffffffffffffff8
   86764:	f90037e2 	str	x2, [sp, #104]
   86768:	17fffb12 	b	853b0 <Process_Out.constprop.2+0x1678>
   8676c:	b94067e0 	ldr	w0, [sp, #100]
   86770:	11002000 	add	w0, w0, #0x8
   86774:	7100001f 	cmp	w0, #0x0
   86778:	540068ad 	b.le	8748c <Process_Out.constprop.2+0x3754>
   8677c:	91002d01 	add	x1, x8, #0xb
   86780:	b90067e0 	str	w0, [sp, #100]
   86784:	927df020 	and	x0, x1, #0xfffffffffffffff8
   86788:	f90037e0 	str	x0, [sp, #104]
   8678c:	17fffa0f 	b	84fc8 <Process_Out.constprop.2+0x1290>
   86790:	52800009 	mov	w9, #0x0                   	// #0
   86794:	52800107 	mov	w7, #0x8                   	// #8
   86798:	52800000 	mov	w0, #0x0                   	// #0
   8679c:	17fff75b 	b	84508 <Process_Out.constprop.2+0x7d0>
   867a0:	b40003c6 	cbz	x6, 86818 <Process_Out.constprop.2+0x2ae0>
   867a4:	8b22c0c9 	add	x9, x6, w2, sxtw
   867a8:	11000442 	add	w2, w2, #0x1
   867ac:	d2800006 	mov	x6, #0x0                   	// #0
   867b0:	38666a83 	ldrb	w3, [x20, x6]
   867b4:	0b060041 	add	w1, w2, w6
   867b8:	38266923 	strb	w3, [x9, x6]
   867bc:	0b060105 	add	w5, w8, w6
   867c0:	910004c6 	add	x6, x6, #0x1
   867c4:	6b0600ff 	cmp	w7, w6
   867c8:	54ffff4c 	b.gt	867b0 <Process_Out.constprop.2+0x2a78>
   867cc:	2a0103e2 	mov	w2, w1
   867d0:	17fff9c1 	b	84ed4 <Process_Out.constprop.2+0x119c>
   867d4:	b4008789 	cbz	x9, 878c4 <Process_Out.constprop.2+0x3b8c>
   867d8:	11000601 	add	w1, w16, #0x1
   867dc:	2a1603e0 	mov	w0, w22
   867e0:	d1000535 	sub	x21, x9, #0x1
   867e4:	52800614 	mov	w20, #0x30                  	// #48
   867e8:	93407c21 	sxtw	x1, w1
   867ec:	d503201f 	nop
   867f0:	4b0002c3 	sub	w3, w22, w0
   867f4:	38216ab4 	strb	w20, [x21, x1]
   867f8:	0b030223 	add	w3, w17, w3
   867fc:	2a0103e8 	mov	w8, w1
   86800:	11000400 	add	w0, w0, #0x1
   86804:	91000421 	add	x1, x1, #0x1
   86808:	6b2380ff 	cmp	w7, w3, sxtb
   8680c:	54ffff2b 	b.lt	867f0 <Process_Out.constprop.2+0x2ab8>  // b.tstop
   86810:	b9000668 	str	w8, [x19, #4]
   86814:	17fffaa4 	b	852a4 <Process_Out.constprop.2+0x156c>
   86818:	52800001 	mov	w1, #0x0                   	// #0
   8681c:	0b010105 	add	w5, w8, w1
   86820:	11000421 	add	w1, w1, #0x1
   86824:	6b0100ff 	cmp	w7, w1
   86828:	54ffffac 	b.gt	8681c <Process_Out.constprop.2+0x2ae4>
   8682c:	2a0503f9 	mov	w25, w5
   86830:	17fff9ab 	b	84edc <Process_Out.constprop.2+0x11a4>
   86834:	b4009d2b 	cbz	x11, 87bd8 <Process_Out.constprop.2+0x3ea0>
   86838:	11000601 	add	w1, w16, #0x1
   8683c:	2a1603e0 	mov	w0, w22
   86840:	d1000575 	sub	x21, x11, #0x1
   86844:	52800614 	mov	w20, #0x30                  	// #48
   86848:	93407c21 	sxtw	x1, w1
   8684c:	d503201f 	nop
   86850:	4b0002c3 	sub	w3, w22, w0
   86854:	38216ab4 	strb	w20, [x21, x1]
   86858:	0b030243 	add	w3, w18, w3
   8685c:	2a0103e9 	mov	w9, w1
   86860:	11000400 	add	w0, w0, #0x1
   86864:	91000421 	add	x1, x1, #0x1
   86868:	6b23811f 	cmp	w8, w3, sxtb
   8686c:	54ffff2b 	b.lt	86850 <Process_Out.constprop.2+0x2b18>  // b.tstop
   86870:	b9000669 	str	w9, [x19, #4]
   86874:	17fff660 	b	841f4 <Process_Out.constprop.2+0x4bc>
   86878:	b4ffb24b 	cbz	x11, 85ec0 <Process_Out.constprop.2+0x2188>
   8687c:	93407d81 	sxtw	x1, w12
   86880:	8b29c167 	add	x7, x11, w9, sxtw
   86884:	14000002 	b	8688c <Process_Out.constprop.2+0x2b54>
   86888:	385ff066 	ldurb	w6, [x3, #-1]
   8688c:	380014e6 	strb	w6, [x7], #1
   86890:	910243e3 	add	x3, sp, #0x90
   86894:	8b030023 	add	x3, x1, x3
   86898:	7100003f 	cmp	w1, #0x0
   8689c:	d1000421 	sub	x1, x1, #0x1
   868a0:	54ffff4c 	b.gt	86888 <Process_Out.constprop.2+0x2b50>
   868a4:	11000400 	add	w0, w0, #0x1
   868a8:	11000521 	add	w1, w9, #0x1
   868ac:	0b0c0006 	add	w6, w0, w12
   868b0:	0b0c0021 	add	w1, w1, w12
   868b4:	17fff686 	b	842cc <Process_Out.constprop.2+0x594>
   868b8:	52800010 	mov	w16, #0x0                   	// #0
   868bc:	17fffca2 	b	85b44 <Process_Out.constprop.2+0x1e0c>
   868c0:	52800016 	mov	w22, #0x0                   	// #0
   868c4:	17fffcc8 	b	85be4 <Process_Out.constprop.2+0x1eac>
   868c8:	5100079c 	sub	w28, w28, #0x1
   868cc:	cb0203e2 	neg	x2, x2
   868d0:	528005b0 	mov	w16, #0x2d                  	// #45
   868d4:	d0000060 	adrp	x0, 94000 <__trunctfdf2+0x1f8>
   868d8:	92401ceb 	and	x11, x7, #0xff
   868dc:	91136000 	add	x0, x0, #0x4d8
   868e0:	910243ea 	add	x10, sp, #0x90
   868e4:	5280000d 	mov	w13, #0x0                   	// #0
   868e8:	14000002 	b	868f0 <Process_Out.constprop.2+0x2bb8>
   868ec:	2a0903ed 	mov	w13, w9
   868f0:	9acb0c43 	sdiv	x3, x2, x11
   868f4:	110005a9 	add	w9, w13, #0x1
   868f8:	9b0b8864 	msub	x4, x3, x11, x2
   868fc:	aa0303e2 	mov	x2, x3
   86900:	3864c806 	ldrb	w6, [x0, w4, sxtw]
   86904:	2a0f00c6 	orr	w6, w6, w15
   86908:	38001546 	strb	w6, [x10], #1
   8690c:	b5ffff03 	cbnz	x3, 868ec <Process_Out.constprop.2+0x2bb4>
   86910:	17fffc93 	b	85b5c <Process_Out.constprop.2+0x1e24>
   86914:	52800016 	mov	w22, #0x0                   	// #0
   86918:	17fffbd3 	b	85864 <Process_Out.constprop.2+0x1b2c>
   8691c:	5100079c 	sub	w28, w28, #0x1
   86920:	4b0203e2 	neg	w2, w2
   86924:	528005b0 	mov	w16, #0x2d                  	// #45
   86928:	d0000060 	adrp	x0, 94000 <__trunctfdf2+0x1f8>
   8692c:	910243e8 	add	x8, sp, #0x90
   86930:	91136000 	add	x0, x0, #0x4d8
   86934:	5280000d 	mov	w13, #0x0                   	// #0
   86938:	14000002 	b	86940 <Process_Out.constprop.2+0x2c08>
   8693c:	2a0a03ed 	mov	w13, w10
   86940:	1ac70c43 	sdiv	w3, w2, w7
   86944:	110005aa 	add	w10, w13, #0x1
   86948:	1b078864 	msub	w4, w3, w7, w2
   8694c:	2a0303e2 	mov	w2, w3
   86950:	3864c806 	ldrb	w6, [x0, w4, sxtw]
   86954:	2a0f00c6 	orr	w6, w6, w15
   86958:	38001506 	strb	w6, [x8], #1
   8695c:	35ffff03 	cbnz	w3, 8693c <Process_Out.constprop.2+0x2c04>
   86960:	17fffb9d 	b	857d4 <Process_Out.constprop.2+0x1a9c>
   86964:	52800010 	mov	w16, #0x0                   	// #0
   86968:	17fffb95 	b	857bc <Process_Out.constprop.2+0x1a84>
   8696c:	b400148a 	cbz	x10, 86bfc <Process_Out.constprop.2+0x2ec4>
   86970:	93407da1 	sxtw	x1, w13
   86974:	8b29c147 	add	x7, x10, w9, sxtw
   86978:	14000002 	b	86980 <Process_Out.constprop.2+0x2c48>
   8697c:	385ff066 	ldurb	w6, [x3, #-1]
   86980:	380014e6 	strb	w6, [x7], #1
   86984:	910243e3 	add	x3, sp, #0x90
   86988:	8b030023 	add	x3, x1, x3
   8698c:	7100003f 	cmp	w1, #0x0
   86990:	d1000421 	sub	x1, x1, #0x1
   86994:	54ffff4c 	b.gt	8697c <Process_Out.constprop.2+0x2c44>
   86998:	11000521 	add	w1, w9, #0x1
   8699c:	11000400 	add	w0, w0, #0x1
   869a0:	0b0d0021 	add	w1, w1, w13
   869a4:	0b0d000d 	add	w13, w0, w13
   869a8:	17fffb39 	b	8568c <Process_Out.constprop.2+0x1954>
   869ac:	b4008baa 	cbz	x10, 87b20 <Process_Out.constprop.2+0x3de8>
   869b0:	11000581 	add	w1, w12, #0x1
   869b4:	2a1603e0 	mov	w0, w22
   869b8:	d1000555 	sub	x21, x10, #0x1
   869bc:	52800614 	mov	w20, #0x30                  	// #48
   869c0:	93407c21 	sxtw	x1, w1
   869c4:	d503201f 	nop
   869c8:	4b0002c3 	sub	w3, w22, w0
   869cc:	38216ab4 	strb	w20, [x21, x1]
   869d0:	0b030223 	add	w3, w17, w3
   869d4:	2a0103e9 	mov	w9, w1
   869d8:	11000400 	add	w0, w0, #0x1
   869dc:	91000421 	add	x1, x1, #0x1
   869e0:	6b23811f 	cmp	w8, w3, sxtb
   869e4:	54ffff2b 	b.lt	869c8 <Process_Out.constprop.2+0x2c90>  // b.tstop
   869e8:	b9000669 	str	w9, [x19, #4]
   869ec:	17fffaf2 	b	855b4 <Process_Out.constprop.2+0x187c>
   869f0:	11000400 	add	w0, w0, #0x1
   869f4:	7100025f 	cmp	w18, #0x0
   869f8:	0b000166 	add	w6, w11, w0
   869fc:	54ffa44c 	b.gt	85e84 <Process_Out.constprop.2+0x214c>
   86a00:	17fff64a 	b	84328 <Process_Out.constprop.2+0x5f0>
   86a04:	b4008b8b 	cbz	x11, 87b74 <Process_Out.constprop.2+0x3e3c>
   86a08:	11000601 	add	w1, w16, #0x1
   86a0c:	2a1603e0 	mov	w0, w22
   86a10:	d1000575 	sub	x21, x11, #0x1
   86a14:	52800614 	mov	w20, #0x30                  	// #48
   86a18:	93407c21 	sxtw	x1, w1
   86a1c:	d503201f 	nop
   86a20:	4b0002c3 	sub	w3, w22, w0
   86a24:	38216ab4 	strb	w20, [x21, x1]
   86a28:	0b030243 	add	w3, w18, w3
   86a2c:	2a0103e9 	mov	w9, w1
   86a30:	11000400 	add	w0, w0, #0x1
   86a34:	91000421 	add	x1, x1, #0x1
   86a38:	6b23811f 	cmp	w8, w3, sxtb
   86a3c:	54ffff2b 	b.lt	86a20 <Process_Out.constprop.2+0x2ce8>  // b.tstop
   86a40:	b9000669 	str	w9, [x19, #4]
   86a44:	17fff73c 	b	84734 <Process_Out.constprop.2+0x9fc>
   86a48:	b400886a 	cbz	x10, 87b54 <Process_Out.constprop.2+0x3e1c>
   86a4c:	11000581 	add	w1, w12, #0x1
   86a50:	2a1603e0 	mov	w0, w22
   86a54:	d1000555 	sub	x21, x10, #0x1
   86a58:	52800614 	mov	w20, #0x30                  	// #48
   86a5c:	93407c21 	sxtw	x1, w1
   86a60:	4b0002c3 	sub	w3, w22, w0
   86a64:	38216ab4 	strb	w20, [x21, x1]
   86a68:	0b030223 	add	w3, w17, w3
   86a6c:	2a0103e9 	mov	w9, w1
   86a70:	11000400 	add	w0, w0, #0x1
   86a74:	91000421 	add	x1, x1, #0x1
   86a78:	6b23811f 	cmp	w8, w3, sxtb
   86a7c:	54ffff2b 	b.lt	86a60 <Process_Out.constprop.2+0x2d28>  // b.tstop
   86a80:	b9000669 	str	w9, [x19, #4]
   86a84:	17fff7fe 	b	84a7c <Process_Out.constprop.2+0xd44>
   86a88:	b94087e0 	ldr	w0, [sp, #132]
   86a8c:	11004000 	add	w0, w0, #0x10
   86a90:	7100001f 	cmp	w0, #0x0
   86a94:	5400668d 	b.le	87764 <Process_Out.constprop.2+0x3a2c>
   86a98:	91003d01 	add	x1, x8, #0xf
   86a9c:	b90087e0 	str	w0, [sp, #132]
   86aa0:	927df020 	and	x0, x1, #0xfffffffffffffff8
   86aa4:	f90037e0 	str	x0, [sp, #104]
   86aa8:	17fff675 	b	8447c <Process_Out.constprop.2+0x744>
   86aac:	6b1c001f 	cmp	w0, w28
   86ab0:	540056aa 	b.ge	87584 <Process_Out.constprop.2+0x384c>  // b.tcont
   86ab4:	4b000381 	sub	w1, w28, w0
   86ab8:	12001c21 	and	w1, w1, #0xff
   86abc:	13001c3c 	sxtb	w28, w1
   86ac0:	7100039f 	cmp	w28, #0x0
   86ac4:	5400036d 	b.le	86b30 <Process_Out.constprop.2+0x2df8>
   86ac8:	b0000082 	adrp	x2, 97000 <__bss_start__>
   86acc:	91004053 	add	x19, x2, #0x10
   86ad0:	b9401049 	ldr	w9, [x2, #16]
   86ad4:	b9400666 	ldr	w6, [x19, #4]
   86ad8:	3100053f 	cmn	w9, #0x1
   86adc:	f9400668 	ldr	x8, [x19, #8]
   86ae0:	5400a760 	b.eq	87fcc <Process_Out.constprop.2+0x4294>  // b.none
   86ae4:	b400a5c8 	cbz	x8, 87f9c <Process_Out.constprop.2+0x4264>
   86ae8:	2a1c03e2 	mov	w2, w28
   86aec:	5280000a 	mov	w10, #0x0                   	// #0
   86af0:	5280040b 	mov	w11, #0x20                  	// #32
   86af4:	51000442 	sub	w2, w2, #0x1
   86af8:	6b06013f 	cmp	w9, w6
   86afc:	12001c41 	and	w1, w2, #0xff
   86b00:	5400008d 	b.le	86b10 <Process_Out.constprop.2+0x2dd8>
   86b04:	3826c90b 	strb	w11, [x8, w6, sxtw]
   86b08:	110004c6 	add	w6, w6, #0x1
   86b0c:	5280002a 	mov	w10, #0x1                   	// #1
   86b10:	13001c22 	sxtb	w2, w1
   86b14:	35ffff01 	cbnz	w1, 86af4 <Process_Out.constprop.2+0x2dbc>
   86b18:	5100079c 	sub	w28, w28, #0x1
   86b1c:	11000725 	add	w5, w25, #0x1
   86b20:	0b3c80b9 	add	w25, w5, w28, sxtb
   86b24:	3400004a 	cbz	w10, 86b2c <Process_Out.constprop.2+0x2df4>
   86b28:	b9000666 	str	w6, [x19, #4]
   86b2c:	5280001c 	mov	w28, #0x0                   	// #0
   86b30:	7100001f 	cmp	w0, #0x0
   86b34:	54ff1a4c 	b.gt	84e7c <Process_Out.constprop.2+0x1144>
   86b38:	17fff4b1 	b	83dfc <Process_Out.constprop.2+0xc4>
   86b3c:	b4ff9c2b 	cbz	x11, 85ec0 <Process_Out.constprop.2+0x2188>
   86b40:	93407d81 	sxtw	x1, w12
   86b44:	8b29c167 	add	x7, x11, w9, sxtw
   86b48:	14000002 	b	86b50 <Process_Out.constprop.2+0x2e18>
   86b4c:	385ff066 	ldurb	w6, [x3, #-1]
   86b50:	380014e6 	strb	w6, [x7], #1
   86b54:	910243e3 	add	x3, sp, #0x90
   86b58:	8b030023 	add	x3, x1, x3
   86b5c:	7100003f 	cmp	w1, #0x0
   86b60:	d1000421 	sub	x1, x1, #0x1
   86b64:	54ffff4c 	b.gt	86b4c <Process_Out.constprop.2+0x2e14>
   86b68:	11000400 	add	w0, w0, #0x1
   86b6c:	11000521 	add	w1, w9, #0x1
   86b70:	0b0c0006 	add	w6, w0, w12
   86b74:	0b0c0021 	add	w1, w1, w12
   86b78:	17fff725 	b	8480c <Process_Out.constprop.2+0xad4>
   86b7c:	b400054a 	cbz	x10, 86c24 <Process_Out.constprop.2+0x2eec>
   86b80:	93407da1 	sxtw	x1, w13
   86b84:	8b29c147 	add	x7, x10, w9, sxtw
   86b88:	14000002 	b	86b90 <Process_Out.constprop.2+0x2e58>
   86b8c:	385ff066 	ldurb	w6, [x3, #-1]
   86b90:	380014e6 	strb	w6, [x7], #1
   86b94:	910243e3 	add	x3, sp, #0x90
   86b98:	8b030023 	add	x3, x1, x3
   86b9c:	7100003f 	cmp	w1, #0x0
   86ba0:	d1000421 	sub	x1, x1, #0x1
   86ba4:	54ffff4c 	b.gt	86b8c <Process_Out.constprop.2+0x2e54>
   86ba8:	11000400 	add	w0, w0, #0x1
   86bac:	11000521 	add	w1, w9, #0x1
   86bb0:	0b0d0006 	add	w6, w0, w13
   86bb4:	0b0d0021 	add	w1, w1, w13
   86bb8:	17fff7e7 	b	84b54 <Process_Out.constprop.2+0xe1c>
   86bbc:	b4fff1a9 	cbz	x9, 869f0 <Process_Out.constprop.2+0x2cb8>
   86bc0:	93407d61 	sxtw	x1, w11
   86bc4:	8b28c127 	add	x7, x9, w8, sxtw
   86bc8:	14000002 	b	86bd0 <Process_Out.constprop.2+0x2e98>
   86bcc:	385ff066 	ldurb	w6, [x3, #-1]
   86bd0:	380014e6 	strb	w6, [x7], #1
   86bd4:	910243e3 	add	x3, sp, #0x90
   86bd8:	8b030023 	add	x3, x1, x3
   86bdc:	7100003f 	cmp	w1, #0x0
   86be0:	d1000421 	sub	x1, x1, #0x1
   86be4:	54ffff4c 	b.gt	86bcc <Process_Out.constprop.2+0x2e94>
   86be8:	11000400 	add	w0, w0, #0x1
   86bec:	11000501 	add	w1, w8, #0x1
   86bf0:	0b000166 	add	w6, w11, w0
   86bf4:	0b0b0021 	add	w1, w1, w11
   86bf8:	17fff9c9 	b	8531c <Process_Out.constprop.2+0x15e4>
   86bfc:	11000400 	add	w0, w0, #0x1
   86c00:	7100025f 	cmp	w18, #0x0
   86c04:	0b0001ad 	add	w13, w13, w0
   86c08:	54ff570d 	b.le	856e8 <Process_Out.constprop.2+0x19b0>
   86c0c:	7100017f 	cmp	w11, #0x0
   86c10:	110005ad 	add	w13, w13, #0x1
   86c14:	1a9fa16b 	csel	w11, w11, wzr, ge  // ge = tcont
   86c18:	0b0d016d 	add	w13, w11, w13
   86c1c:	0b0d0339 	add	w25, w25, w13
   86c20:	17fff477 	b	83dfc <Process_Out.constprop.2+0xc4>
   86c24:	11000400 	add	w0, w0, #0x1
   86c28:	7100025f 	cmp	w18, #0x0
   86c2c:	0b0d0006 	add	w6, w0, w13
   86c30:	54feb7cd 	b.le	84328 <Process_Out.constprop.2+0x5f0>
   86c34:	7100017f 	cmp	w11, #0x0
   86c38:	110004c6 	add	w6, w6, #0x1
   86c3c:	1a9fa16b 	csel	w11, w11, wzr, ge  // ge = tcont
   86c40:	0b060166 	add	w6, w11, w6
   86c44:	0b060339 	add	w25, w25, w6
   86c48:	17fff46d 	b	83dfc <Process_Out.constprop.2+0xc4>
   86c4c:	b94067e0 	ldr	w0, [sp, #100]
   86c50:	11002000 	add	w0, w0, #0x8
   86c54:	7100001f 	cmp	w0, #0x0
   86c58:	5400696d 	b.le	87984 <Process_Out.constprop.2+0x3c4c>
   86c5c:	91003d01 	add	x1, x8, #0xf
   86c60:	b90067e0 	str	w0, [sp, #100]
   86c64:	927df020 	and	x0, x1, #0xfffffffffffffff8
   86c68:	f90037e0 	str	x0, [sp, #104]
   86c6c:	17fffc91 	b	85eb0 <Process_Out.constprop.2+0x2178>
   86c70:	b94067e2 	ldr	w2, [sp, #100]
   86c74:	11002042 	add	w2, w2, #0x8
   86c78:	7100005f 	cmp	w2, #0x0
   86c7c:	540066ad 	b.le	87950 <Process_Out.constprop.2+0x3c18>
   86c80:	91002d03 	add	x3, x8, #0xb
   86c84:	b90067e2 	str	w2, [sp, #100]
   86c88:	927df062 	and	x2, x3, #0xfffffffffffffff8
   86c8c:	f90037e2 	str	x2, [sp, #104]
   86c90:	17fffab2 	b	85758 <Process_Out.constprop.2+0x1a20>
   86c94:	b4ff8f89 	cbz	x9, 85e84 <Process_Out.constprop.2+0x214c>
   86c98:	8b21c129 	add	x9, x9, w1, sxtw
   86c9c:	11000548 	add	w8, w10, #0x1
   86ca0:	aa0903e2 	mov	x2, x9
   86ca4:	52800407 	mov	w7, #0x20                  	// #32
   86ca8:	38001447 	strb	w7, [x2], #1
   86cac:	4b020120 	sub	w0, w9, w2
   86cb0:	0b080000 	add	w0, w0, w8
   86cb4:	7100001f 	cmp	w0, #0x0
   86cb8:	54ffff8c 	b.gt	86ca8 <Process_Out.constprop.2+0x2f70>
   86cbc:	7100015f 	cmp	w10, #0x0
   86cc0:	110004c6 	add	w6, w6, #0x1
   86cc4:	1a9fa14a 	csel	w10, w10, wzr, ge  // ge = tcont
   86cc8:	11000421 	add	w1, w1, #0x1
   86ccc:	0b0a0021 	add	w1, w1, w10
   86cd0:	0b060146 	add	w6, w10, w6
   86cd4:	b9000661 	str	w1, [x19, #4]
   86cd8:	17fff594 	b	84328 <Process_Out.constprop.2+0x5f0>
   86cdc:	b94067e2 	ldr	w2, [sp, #100]
   86ce0:	11002042 	add	w2, w2, #0x8
   86ce4:	7100005f 	cmp	w2, #0x0
   86ce8:	54005fed 	b.le	878e4 <Process_Out.constprop.2+0x3bac>
   86cec:	91003d03 	add	x3, x8, #0xf
   86cf0:	b90067e2 	str	w2, [sp, #100]
   86cf4:	927df062 	and	x2, x3, #0xfffffffffffffff8
   86cf8:	f90037e2 	str	x2, [sp, #104]
   86cfc:	17fffb79 	b	85ae0 <Process_Out.constprop.2+0x1da8>
   86d00:	37f86b60 	tbnz	w0, #31, 87a6c <Process_Out.constprop.2+0x3d34>
   86d04:	91002d00 	add	x0, x8, #0xb
   86d08:	927df000 	and	x0, x0, #0xfffffffffffffff8
   86d0c:	f90037e0 	str	x0, [sp, #104]
   86d10:	b9400100 	ldr	w0, [x8]
   86d14:	9400218b 	bl	8f340 <wctob>
   86d18:	b9400267 	ldr	w7, [x19]
   86d1c:	310004ff 	cmn	w7, #0x1
   86d20:	54000080 	b.eq	86d30 <Process_Out.constprop.2+0x2ff8>  // b.none
   86d24:	b9400661 	ldr	w1, [x19, #4]
   86d28:	6b0100ff 	cmp	w7, w1
   86d2c:	54ff168d 	b.le	84ffc <Process_Out.constprop.2+0x12c4>
   86d30:	f9400661 	ldr	x1, [x19, #8]
   86d34:	b4ff1641 	cbz	x1, 84ffc <Process_Out.constprop.2+0x12c4>
   86d38:	b9400662 	ldr	w2, [x19, #4]
   86d3c:	11000446 	add	w6, w2, #0x1
   86d40:	b9000666 	str	w6, [x19, #4]
   86d44:	3822c820 	strb	w0, [x1, w2, sxtw]
   86d48:	17fff8ad 	b	84ffc <Process_Out.constprop.2+0x12c4>
   86d4c:	b4fff74a 	cbz	x10, 86c34 <Process_Out.constprop.2+0x2efc>
   86d50:	8b21c14a 	add	x10, x10, w1, sxtw
   86d54:	11000571 	add	w17, w11, #0x1
   86d58:	aa0a03e2 	mov	x2, x10
   86d5c:	52800407 	mov	w7, #0x20                  	// #32
   86d60:	38001447 	strb	w7, [x2], #1
   86d64:	4b020140 	sub	w0, w10, w2
   86d68:	0b110000 	add	w0, w0, w17
   86d6c:	7100001f 	cmp	w0, #0x0
   86d70:	54ffff8c 	b.gt	86d60 <Process_Out.constprop.2+0x3028>
   86d74:	7100017f 	cmp	w11, #0x0
   86d78:	11000421 	add	w1, w1, #0x1
   86d7c:	1a9fa16b 	csel	w11, w11, wzr, ge  // ge = tcont
   86d80:	110004c6 	add	w6, w6, #0x1
   86d84:	0b0b0021 	add	w1, w1, w11
   86d88:	0b0b00c6 	add	w6, w6, w11
   86d8c:	b9000661 	str	w1, [x19, #4]
   86d90:	17fff566 	b	84328 <Process_Out.constprop.2+0x5f0>
   86d94:	b4fff3ca 	cbz	x10, 86c0c <Process_Out.constprop.2+0x2ed4>
   86d98:	8b21c14a 	add	x10, x10, w1, sxtw
   86d9c:	11000571 	add	w17, w11, #0x1
   86da0:	aa0a03e2 	mov	x2, x10
   86da4:	52800406 	mov	w6, #0x20                  	// #32
   86da8:	38001446 	strb	w6, [x2], #1
   86dac:	4b020140 	sub	w0, w10, w2
   86db0:	0b110000 	add	w0, w0, w17
   86db4:	7100001f 	cmp	w0, #0x0
   86db8:	54ffff8c 	b.gt	86da8 <Process_Out.constprop.2+0x3070>
   86dbc:	7100017f 	cmp	w11, #0x0
   86dc0:	110005ad 	add	w13, w13, #0x1
   86dc4:	1a9fa16b 	csel	w11, w11, wzr, ge  // ge = tcont
   86dc8:	11000421 	add	w1, w1, #0x1
   86dcc:	0b0b0021 	add	w1, w1, w11
   86dd0:	0b0b01ad 	add	w13, w13, w11
   86dd4:	b9000661 	str	w1, [x19, #4]
   86dd8:	17fffa44 	b	856e8 <Process_Out.constprop.2+0x19b0>
   86ddc:	b4ff854b 	cbz	x11, 85e84 <Process_Out.constprop.2+0x214c>
   86de0:	8b21c16b 	add	x11, x11, w1, sxtw
   86de4:	11000551 	add	w17, w10, #0x1
   86de8:	aa0b03e2 	mov	x2, x11
   86dec:	52800407 	mov	w7, #0x20                  	// #32
   86df0:	38001447 	strb	w7, [x2], #1
   86df4:	4b020160 	sub	w0, w11, w2
   86df8:	0b110000 	add	w0, w0, w17
   86dfc:	7100001f 	cmp	w0, #0x0
   86e00:	54ffff8c 	b.gt	86df0 <Process_Out.constprop.2+0x30b8>
   86e04:	17ffffae 	b	86cbc <Process_Out.constprop.2+0x2f84>
   86e08:	b4ff83eb 	cbz	x11, 85e84 <Process_Out.constprop.2+0x214c>
   86e0c:	8b21c16b 	add	x11, x11, w1, sxtw
   86e10:	11000551 	add	w17, w10, #0x1
   86e14:	aa0b03e2 	mov	x2, x11
   86e18:	52800407 	mov	w7, #0x20                  	// #32
   86e1c:	d503201f 	nop
   86e20:	38001447 	strb	w7, [x2], #1
   86e24:	4b020160 	sub	w0, w11, w2
   86e28:	0b110000 	add	w0, w0, w17
   86e2c:	7100001f 	cmp	w0, #0x0
   86e30:	54ffff8c 	b.gt	86e20 <Process_Out.constprop.2+0x30e8>
   86e34:	17ffffa2 	b	86cbc <Process_Out.constprop.2+0x2f84>
   86e38:	51000b9c 	sub	w28, w28, #0x2
   86e3c:	b4000b86 	cbz	x6, 86fac <Process_Out.constprop.2+0x3274>
   86e40:	12001f81 	and	w1, w28, #0xff
   86e44:	8b22c0c0 	add	x0, x6, w2, sxtw
   86e48:	92401c26 	and	x6, x1, #0xff
   86e4c:	52800407 	mov	w7, #0x20                  	// #32
   86e50:	910004c6 	add	x6, x6, #0x1
   86e54:	8b060006 	add	x6, x0, x6
   86e58:	38001407 	strb	w7, [x0], #1
   86e5c:	eb0000df 	cmp	x6, x0
   86e60:	54ffffc1 	b.ne	86e58 <Process_Out.constprop.2+0x3120>  // b.any
   86e64:	11000725 	add	w5, w25, #0x1
   86e68:	11000442 	add	w2, w2, #0x1
   86e6c:	0b010042 	add	w2, w2, w1
   86e70:	0b0100b9 	add	w25, w5, w1
   86e74:	b9000662 	str	w2, [x19, #4]
   86e78:	17fff3e1 	b	83dfc <Process_Out.constprop.2+0xc4>
   86e7c:	b40008e2 	cbz	x2, 86f98 <Process_Out.constprop.2+0x3260>
   86e80:	8b21c040 	add	x0, x2, w1, sxtw
   86e84:	12001f9c 	and	w28, w28, #0xff
   86e88:	0b000387 	add	w7, w28, w0
   86e8c:	52800406 	mov	w6, #0x20                  	// #32
   86e90:	38001406 	strb	w6, [x0], #1
   86e94:	4b0000e2 	sub	w2, w7, w0
   86e98:	13001c42 	sxtb	w2, w2
   86e9c:	7100005f 	cmp	w2, #0x0
   86ea0:	54ffff8c 	b.gt	86e90 <Process_Out.constprop.2+0x3158>
   86ea4:	5100079c 	sub	w28, w28, #0x1
   86ea8:	11000725 	add	w5, w25, #0x1
   86eac:	11000421 	add	w1, w1, #0x1
   86eb0:	13001f80 	sxtb	w0, w28
   86eb4:	0b000021 	add	w1, w1, w0
   86eb8:	0b0000b9 	add	w25, w5, w0
   86ebc:	b9000661 	str	w1, [x19, #4]
   86ec0:	17fff3cf 	b	83dfc <Process_Out.constprop.2+0xc4>
   86ec4:	52800016 	mov	w22, #0x0                   	// #0
   86ec8:	17fffda5 	b	8655c <Process_Out.constprop.2+0x2824>
   86ecc:	5100079c 	sub	w28, w28, #0x1
   86ed0:	cb0203e2 	neg	x2, x2
   86ed4:	528005ae 	mov	w14, #0x2d                  	// #45
   86ed8:	d0000060 	adrp	x0, 94000 <__trunctfdf2+0x1f8>
   86edc:	92401cf1 	and	x17, x7, #0xff
   86ee0:	91136000 	add	x0, x0, #0x4d8
   86ee4:	910243f0 	add	x16, sp, #0x90
   86ee8:	5280000b 	mov	w11, #0x0                   	// #0
   86eec:	14000002 	b	86ef4 <Process_Out.constprop.2+0x31bc>
   86ef0:	2a0f03eb 	mov	w11, w15
   86ef4:	9ad10c43 	sdiv	x3, x2, x17
   86ef8:	1100056f 	add	w15, w11, #0x1
   86efc:	9b118864 	msub	x4, x3, x17, x2
   86f00:	aa0303e2 	mov	x2, x3
   86f04:	3864c809 	ldrb	w9, [x0, w4, sxtw]
   86f08:	2a0d0129 	orr	w9, w9, w13
   86f0c:	38001609 	strb	w9, [x16], #1
   86f10:	b5ffff03 	cbnz	x3, 86ef0 <Process_Out.constprop.2+0x31b8>
   86f14:	17fffd7e 	b	8650c <Process_Out.constprop.2+0x27d4>
   86f18:	52800016 	mov	w22, #0x0                   	// #0
   86f1c:	17fffcca 	b	86244 <Process_Out.constprop.2+0x250c>
   86f20:	5100079c 	sub	w28, w28, #0x1
   86f24:	4b0203e2 	neg	w2, w2
   86f28:	528005b0 	mov	w16, #0x2d                  	// #45
   86f2c:	d0000060 	adrp	x0, 94000 <__trunctfdf2+0x1f8>
   86f30:	910243e8 	add	x8, sp, #0x90
   86f34:	91136000 	add	x0, x0, #0x4d8
   86f38:	5280000b 	mov	w11, #0x0                   	// #0
   86f3c:	14000002 	b	86f44 <Process_Out.constprop.2+0x320c>
   86f40:	2a1103eb 	mov	w11, w17
   86f44:	1ac70c43 	sdiv	w3, w2, w7
   86f48:	11000571 	add	w17, w11, #0x1
   86f4c:	1b078864 	msub	w4, w3, w7, w2
   86f50:	2a0303e2 	mov	w2, w3
   86f54:	3864c806 	ldrb	w6, [x0, w4, sxtw]
   86f58:	2a0f00c6 	orr	w6, w6, w15
   86f5c:	38001506 	strb	w6, [x8], #1
   86f60:	35ffff03 	cbnz	w3, 86f40 <Process_Out.constprop.2+0x3208>
   86f64:	17fffc94 	b	861b4 <Process_Out.constprop.2+0x247c>
   86f68:	52800010 	mov	w16, #0x0                   	// #0
   86f6c:	17fffc8c 	b	8619c <Process_Out.constprop.2+0x2464>
   86f70:	5280000e 	mov	w14, #0x0                   	// #0
   86f74:	17fffd60 	b	864f4 <Process_Out.constprop.2+0x27bc>
   86f78:	52800001 	mov	w1, #0x0                   	// #0
   86f7c:	d503201f 	nop
   86f80:	0b010105 	add	w5, w8, w1
   86f84:	11000421 	add	w1, w1, #0x1
   86f88:	6b0100ff 	cmp	w7, w1
   86f8c:	54ffffac 	b.gt	86f80 <Process_Out.constprop.2+0x3248>
   86f90:	2a0503f9 	mov	w25, w5
   86f94:	17fff7d2 	b	84edc <Process_Out.constprop.2+0x11a4>
   86f98:	5100079c 	sub	w28, w28, #0x1
   86f9c:	11000725 	add	w5, w25, #0x1
   86fa0:	0b3c80b9 	add	w25, w5, w28, sxtb
   86fa4:	17fff396 	b	83dfc <Process_Out.constprop.2+0xc4>
   86fa8:	51000b9c 	sub	w28, w28, #0x2
   86fac:	11000725 	add	w5, w25, #0x1
   86fb0:	0b3c00b9 	add	w25, w5, w28, uxtb
   86fb4:	17fff392 	b	83dfc <Process_Out.constprop.2+0xc4>
   86fb8:	12001f9c 	and	w28, w28, #0xff
   86fbc:	51000780 	sub	w0, w28, #0x1
   86fc0:	12001c00 	and	w0, w0, #0xff
   86fc4:	13001c01 	sxtb	w1, w0
   86fc8:	340002c0 	cbz	w0, 87020 <Process_Out.constprop.2+0x32e8>
   86fcc:	29400a6a 	ldp	w10, w2, [x19]
   86fd0:	f9400669 	ldr	x9, [x19, #8]
   86fd4:	3100055f 	cmn	w10, #0x1
   86fd8:	54006a80 	b.eq	87d28 <Process_Out.constprop.2+0x3ff0>  // b.none
   86fdc:	b4008c09 	cbz	x9, 8815c <Process_Out.constprop.2+0x4424>
   86fe0:	5280000b 	mov	w11, #0x0                   	// #0
   86fe4:	5280040c 	mov	w12, #0x20                  	// #32
   86fe8:	51000421 	sub	w1, w1, #0x1
   86fec:	6b02015f 	cmp	w10, w2
   86ff0:	12001c20 	and	w0, w1, #0xff
   86ff4:	5400008d 	b.le	87004 <Process_Out.constprop.2+0x32cc>
   86ff8:	2a0603eb 	mov	w11, w6
   86ffc:	3822c92c 	strb	w12, [x9, w2, sxtw]
   87000:	11000442 	add	w2, w2, #0x1
   87004:	13001c01 	sxtb	w1, w0
   87008:	35ffff00 	cbnz	w0, 86fe8 <Process_Out.constprop.2+0x32b0>
   8700c:	51000b9c 	sub	w28, w28, #0x2
   87010:	11000725 	add	w5, w25, #0x1
   87014:	0b3c00b9 	add	w25, w5, w28, uxtb
   87018:	3400004b 	cbz	w11, 87020 <Process_Out.constprop.2+0x32e8>
   8701c:	b9000662 	str	w2, [x19, #4]
   87020:	5280001c 	mov	w28, #0x0                   	// #0
   87024:	17fff7e2 	b	84fac <Process_Out.constprop.2+0x1274>
   87028:	f9403fe3 	ldr	x3, [sp, #120]
   8702c:	f90037e8 	str	x8, [sp, #104]
   87030:	b94067e2 	ldr	w2, [sp, #100]
   87034:	b90067e0 	str	w0, [sp, #100]
   87038:	8b22c062 	add	x2, x3, w2, sxtw
   8703c:	aa0203e8 	mov	x8, x2
   87040:	17fff787 	b	84e5c <Process_Out.constprop.2+0x1124>
   87044:	b400652b 	cbz	x11, 87ce8 <Process_Out.constprop.2+0x3fb0>
   87048:	11000621 	add	w1, w17, #0x1
   8704c:	2a1603e0 	mov	w0, w22
   87050:	d1000575 	sub	x21, x11, #0x1
   87054:	52800614 	mov	w20, #0x30                  	// #48
   87058:	93407c21 	sxtw	x1, w1
   8705c:	4b0002c3 	sub	w3, w22, w0
   87060:	38216ab4 	strb	w20, [x21, x1]
   87064:	0b030243 	add	w3, w18, w3
   87068:	2a0103e8 	mov	w8, w1
   8706c:	11000400 	add	w0, w0, #0x1
   87070:	91000421 	add	x1, x1, #0x1
   87074:	6b23813f 	cmp	w9, w3, sxtb
   87078:	54ffff2b 	b.lt	8705c <Process_Out.constprop.2+0x3324>  // b.tstop
   8707c:	b9000668 	str	w8, [x19, #4]
   87080:	17fffb0d 	b	85cb4 <Process_Out.constprop.2+0x1f7c>
   87084:	b4ff6f8b 	cbz	x11, 85e74 <Process_Out.constprop.2+0x213c>
   87088:	93407da1 	sxtw	x1, w13
   8708c:	8b28c167 	add	x7, x11, w8, sxtw
   87090:	14000002 	b	87098 <Process_Out.constprop.2+0x3360>
   87094:	385ff066 	ldurb	w6, [x3, #-1]
   87098:	380014e6 	strb	w6, [x7], #1
   8709c:	910243e3 	add	x3, sp, #0x90
   870a0:	8b030023 	add	x3, x1, x3
   870a4:	7100003f 	cmp	w1, #0x0
   870a8:	d1000421 	sub	x1, x1, #0x1
   870ac:	54ffff4c 	b.gt	87094 <Process_Out.constprop.2+0x335c>
   870b0:	11000400 	add	w0, w0, #0x1
   870b4:	11000501 	add	w1, w8, #0x1
   870b8:	0b0d0006 	add	w6, w0, w13
   870bc:	0b0d0021 	add	w1, w1, w13
   870c0:	17fffb34 	b	85d90 <Process_Out.constprop.2+0x2058>
   870c4:	f9403fe3 	ldr	x3, [sp, #120]
   870c8:	f90037e8 	str	x8, [sp, #104]
   870cc:	b94067e2 	ldr	w2, [sp, #100]
   870d0:	b90067e0 	str	w0, [sp, #100]
   870d4:	8b22c062 	add	x2, x3, w2, sxtw
   870d8:	aa0203e8 	mov	x8, x2
   870dc:	17fff7f1 	b	850a0 <Process_Out.constprop.2+0x1368>
   870e0:	b400072b 	cbz	x11, 871c4 <Process_Out.constprop.2+0x348c>
   870e4:	93407da1 	sxtw	x1, w13
   870e8:	8b29c167 	add	x7, x11, w9, sxtw
   870ec:	14000002 	b	870f4 <Process_Out.constprop.2+0x33bc>
   870f0:	385ff066 	ldurb	w6, [x3, #-1]
   870f4:	380014e6 	strb	w6, [x7], #1
   870f8:	910243e3 	add	x3, sp, #0x90
   870fc:	8b030023 	add	x3, x1, x3
   87100:	7100003f 	cmp	w1, #0x0
   87104:	d1000421 	sub	x1, x1, #0x1
   87108:	54ffff4c 	b.gt	870f0 <Process_Out.constprop.2+0x33b8>
   8710c:	11000400 	add	w0, w0, #0x1
   87110:	11000521 	add	w1, w9, #0x1
   87114:	0b0d0006 	add	w6, w0, w13
   87118:	0b0d0021 	add	w1, w1, w13
   8711c:	17fffa3f 	b	85a18 <Process_Out.constprop.2+0x1ce0>
   87120:	b400634b 	cbz	x11, 87d88 <Process_Out.constprop.2+0x4050>
   87124:	11000621 	add	w1, w17, #0x1
   87128:	2a1603e0 	mov	w0, w22
   8712c:	d1000575 	sub	x21, x11, #0x1
   87130:	52800614 	mov	w20, #0x30                  	// #48
   87134:	93407c21 	sxtw	x1, w1
   87138:	4b0002c3 	sub	w3, w22, w0
   8713c:	38216ab4 	strb	w20, [x21, x1]
   87140:	0b030243 	add	w3, w18, w3
   87144:	2a0103e9 	mov	w9, w1
   87148:	11000400 	add	w0, w0, #0x1
   8714c:	91000421 	add	x1, x1, #0x1
   87150:	6b23815f 	cmp	w10, w3, sxtb
   87154:	54ffff2b 	b.lt	87138 <Process_Out.constprop.2+0x3400>  // b.tstop
   87158:	b9000669 	str	w9, [x19, #4]
   8715c:	17fff9f8 	b	8593c <Process_Out.constprop.2+0x1c04>
   87160:	b4001c89 	cbz	x9, 874f0 <Process_Out.constprop.2+0x37b8>
   87164:	8b30c134 	add	x20, x9, w16, sxtw
   87168:	11000548 	add	w8, w10, #0x1
   8716c:	aa1403f2 	mov	x18, x20
   87170:	38001651 	strb	w17, [x18], #1
   87174:	4b120280 	sub	w0, w20, w18
   87178:	0b000100 	add	w0, w8, w0
   8717c:	7100001f 	cmp	w0, #0x0
   87180:	54ffff8c 	b.gt	87170 <Process_Out.constprop.2+0x3438>
   87184:	7100015f 	cmp	w10, #0x0
   87188:	11000608 	add	w8, w16, #0x1
   8718c:	1a9fa140 	csel	w0, w10, wzr, ge  // ge = tcont
   87190:	110006d6 	add	w22, w22, #0x1
   87194:	5100054a 	sub	w10, w10, #0x1
   87198:	0b000108 	add	w8, w8, w0
   8719c:	0b160016 	add	w22, w0, w22
   871a0:	4b000152 	sub	w18, w10, w0
   871a4:	17fff824 	b	85234 <Process_Out.constprop.2+0x14fc>
   871a8:	f9403fe4 	ldr	x4, [sp, #120]
   871ac:	f90037e8 	str	x8, [sp, #104]
   871b0:	b94067e3 	ldr	w3, [sp, #100]
   871b4:	b90067e2 	str	w2, [sp, #100]
   871b8:	8b23c08b 	add	x11, x4, w3, sxtw
   871bc:	aa0b03e8 	mov	x8, x11
   871c0:	17fff5ae 	b	84878 <Process_Out.constprop.2+0xb40>
   871c4:	11000400 	add	w0, w0, #0x1
   871c8:	7100019f 	cmp	w12, #0x0
   871cc:	0b0d0006 	add	w6, w0, w13
   871d0:	54fe8acd 	b.le	84328 <Process_Out.constprop.2+0x5f0>
   871d4:	7100011f 	cmp	w8, #0x0
   871d8:	110004c6 	add	w6, w6, #0x1
   871dc:	1a9fa108 	csel	w8, w8, wzr, ge  // ge = tcont
   871e0:	0b060106 	add	w6, w8, w6
   871e4:	0b060339 	add	w25, w25, w6
   871e8:	17fff305 	b	83dfc <Process_Out.constprop.2+0xc4>
   871ec:	b94067e2 	ldr	w2, [sp, #100]
   871f0:	11002042 	add	w2, w2, #0x8
   871f4:	7100005f 	cmp	w2, #0x0
   871f8:	540053ed 	b.le	87c74 <Process_Out.constprop.2+0x3f3c>
   871fc:	91003d03 	add	x3, x8, #0xf
   87200:	b90067e2 	str	w2, [sp, #100]
   87204:	927df062 	and	x2, x3, #0xfffffffffffffff8
   87208:	f90037e2 	str	x2, [sp, #104]
   8720c:	17fffca1 	b	86490 <Process_Out.constprop.2+0x2758>
   87210:	f9403fe4 	ldr	x4, [sp, #120]
   87214:	f90037e8 	str	x8, [sp, #104]
   87218:	b94067e3 	ldr	w3, [sp, #100]
   8721c:	b90067e2 	str	w2, [sp, #100]
   87220:	8b23c08b 	add	x11, x4, w3, sxtw
   87224:	aa0b03e8 	mov	x8, x11
   87228:	17fff862 	b	853b0 <Process_Out.constprop.2+0x1678>
   8722c:	f9403fe4 	ldr	x4, [sp, #120]
   87230:	f90037e8 	str	x8, [sp, #104]
   87234:	b94067e3 	ldr	w3, [sp, #100]
   87238:	b90067e2 	str	w2, [sp, #100]
   8723c:	8b23c08b 	add	x11, x4, w3, sxtw
   87240:	aa0b03e8 	mov	x8, x11
   87244:	17fff4b6 	b	8451c <Process_Out.constprop.2+0x7e4>
   87248:	b94067e2 	ldr	w2, [sp, #100]
   8724c:	11002042 	add	w2, w2, #0x8
   87250:	7100005f 	cmp	w2, #0x0
   87254:	5400502d 	b.le	87c58 <Process_Out.constprop.2+0x3f20>
   87258:	91002d03 	add	x3, x8, #0xb
   8725c:	b90067e2 	str	w2, [sp, #100]
   87260:	927df062 	and	x2, x3, #0xfffffffffffffff8
   87264:	f90037e2 	str	x2, [sp, #104]
   87268:	17fffbb4 	b	86138 <Process_Out.constprop.2+0x2400>
   8726c:	b4fefac9 	cbz	x9, 851c4 <Process_Out.constprop.2+0x148c>
   87270:	2a0a03e8 	mov	w8, w10
   87274:	8b30c120 	add	x0, x9, w16, sxtw
   87278:	91000508 	add	x8, x8, #0x1
   8727c:	52800414 	mov	w20, #0x20                  	// #32
   87280:	8b000108 	add	x8, x8, x0
   87284:	38001414 	strb	w20, [x0], #1
   87288:	eb00011f 	cmp	x8, x0
   8728c:	54ffffc1 	b.ne	87284 <Process_Out.constprop.2+0x354c>  // b.any
   87290:	11000600 	add	w0, w16, #0x1
   87294:	0b0a0000 	add	w0, w0, w10
   87298:	17fff7c9 	b	851bc <Process_Out.constprop.2+0x1484>
   8729c:	b94067e0 	ldr	w0, [sp, #100]
   872a0:	37f866c0 	tbnz	w0, #31, 87f78 <Process_Out.constprop.2+0x4240>
   872a4:	91003d00 	add	x0, x8, #0xf
   872a8:	927df000 	and	x0, x0, #0xfffffffffffffff8
   872ac:	f90037e0 	str	x0, [sp, #104]
   872b0:	f9400113 	ldr	x19, [x8]
   872b4:	2a1903e0 	mov	w0, w25
   872b8:	940032b4 	bl	93d88 <__floatsitf>
   872bc:	3d800260 	str	q0, [x19]
   872c0:	17fff2cf 	b	83dfc <Process_Out.constprop.2+0xc4>
   872c4:	f9403fe4 	ldr	x4, [sp, #120]
   872c8:	f90037e8 	str	x8, [sp, #104]
   872cc:	b94067e3 	ldr	w3, [sp, #100]
   872d0:	b90067e2 	str	w2, [sp, #100]
   872d4:	8b23c08b 	add	x11, x4, w3, sxtw
   872d8:	aa0b03e8 	mov	x8, x11
   872dc:	17fff340 	b	83fdc <Process_Out.constprop.2+0x2a4>
   872e0:	5280000e 	mov	w14, #0x0                   	// #0
   872e4:	361ef26c 	tbz	w12, #3, 85130 <Process_Out.constprop.2+0x13f8>
   872e8:	51000529 	sub	w9, w9, #0x1
   872ec:	2a0703ee 	mov	w14, w7
   872f0:	17fff790 	b	85130 <Process_Out.constprop.2+0x13f8>
   872f4:	b400174b 	cbz	x11, 875dc <Process_Out.constprop.2+0x38a4>
   872f8:	8b30c174 	add	x20, x11, w16, sxtw
   872fc:	11000551 	add	w17, w10, #0x1
   87300:	aa1403f2 	mov	x18, x20
   87304:	38001649 	strb	w9, [x18], #1
   87308:	4b120280 	sub	w0, w20, w18
   8730c:	0b110000 	add	w0, w0, w17
   87310:	7100001f 	cmp	w0, #0x0
   87314:	54ffff8c 	b.gt	87304 <Process_Out.constprop.2+0x35cc>
   87318:	7100015f 	cmp	w10, #0x0
   8731c:	110006d6 	add	w22, w22, #0x1
   87320:	1a9fa151 	csel	w17, w10, wzr, ge  // ge = tcont
   87324:	11000610 	add	w16, w16, #0x1
   87328:	5100054a 	sub	w10, w10, #0x1
   8732c:	0b160236 	add	w22, w17, w22
   87330:	0b110212 	add	w18, w16, w17
   87334:	4b110151 	sub	w17, w10, w17
   87338:	17fff393 	b	84184 <Process_Out.constprop.2+0x44c>
   8733c:	b4fe6e8b 	cbz	x11, 8410c <Process_Out.constprop.2+0x3d4>
   87340:	2a0a03f2 	mov	w18, w10
   87344:	8b30c160 	add	x0, x11, w16, sxtw
   87348:	91000652 	add	x18, x18, #0x1
   8734c:	52800414 	mov	w20, #0x20                  	// #32
   87350:	8b000252 	add	x18, x18, x0
   87354:	38001414 	strb	w20, [x0], #1
   87358:	eb00025f 	cmp	x18, x0
   8735c:	54ffffc1 	b.ne	87354 <Process_Out.constprop.2+0x361c>  // b.any
   87360:	11000600 	add	w0, w16, #0x1
   87364:	0b0a0000 	add	w0, w0, w10
   87368:	17fff367 	b	84104 <Process_Out.constprop.2+0x3cc>
   8736c:	52800010 	mov	w16, #0x0                   	// #0
   87370:	361f068e 	tbz	w14, #3, 85440 <Process_Out.constprop.2+0x1708>
   87374:	51000792 	sub	w18, w28, #0x1
   87378:	2a0003f0 	mov	w16, w0
   8737c:	17fff831 	b	85440 <Process_Out.constprop.2+0x1708>
   87380:	52800010 	mov	w16, #0x0                   	// #0
   87384:	361eac2e 	tbz	w14, #3, 84908 <Process_Out.constprop.2+0xbd0>
   87388:	51000792 	sub	w18, w28, #0x1
   8738c:	2a0003f0 	mov	w16, w0
   87390:	17fff55e 	b	84908 <Process_Out.constprop.2+0xbd0>
   87394:	5280000f 	mov	w15, #0x0                   	// #0
   87398:	361e90ad 	tbz	w13, #3, 845ac <Process_Out.constprop.2+0x874>
   8739c:	51000791 	sub	w17, w28, #0x1
   873a0:	2a0003ef 	mov	w15, w0
   873a4:	17fff482 	b	845ac <Process_Out.constprop.2+0x874>
   873a8:	b4fe952b 	cbz	x11, 8464c <Process_Out.constprop.2+0x914>
   873ac:	2a0a03f2 	mov	w18, w10
   873b0:	8b30c160 	add	x0, x11, w16, sxtw
   873b4:	91000652 	add	x18, x18, #0x1
   873b8:	52800414 	mov	w20, #0x20                  	// #32
   873bc:	8b000252 	add	x18, x18, x0
   873c0:	38001414 	strb	w20, [x0], #1
   873c4:	eb12001f 	cmp	x0, x18
   873c8:	54ffffc1 	b.ne	873c0 <Process_Out.constprop.2+0x3688>  // b.any
   873cc:	11000600 	add	w0, w16, #0x1
   873d0:	0b0a0000 	add	w0, w0, w10
   873d4:	17fff49c 	b	84644 <Process_Out.constprop.2+0x90c>
   873d8:	b4feae2a 	cbz	x10, 8499c <Process_Out.constprop.2+0xc64>
   873dc:	2a0b03f1 	mov	w17, w11
   873e0:	8b2cc140 	add	x0, x10, w12, sxtw
   873e4:	91000631 	add	x17, x17, #0x1
   873e8:	52800414 	mov	w20, #0x20                  	// #32
   873ec:	8b000231 	add	x17, x17, x0
   873f0:	38001414 	strb	w20, [x0], #1
   873f4:	eb00023f 	cmp	x17, x0
   873f8:	54ffffc1 	b.ne	873f0 <Process_Out.constprop.2+0x36b8>  // b.any
   873fc:	11000580 	add	w0, w12, #0x1
   87400:	0b0b0000 	add	w0, w0, w11
   87404:	17fff564 	b	84994 <Process_Out.constprop.2+0xc5c>
   87408:	b4000f8a 	cbz	x10, 875f8 <Process_Out.constprop.2+0x38c0>
   8740c:	8b2cc154 	add	x20, x10, w12, sxtw
   87410:	11000571 	add	w17, w11, #0x1
   87414:	aa1403f2 	mov	x18, x20
   87418:	38001649 	strb	w9, [x18], #1
   8741c:	4b120280 	sub	w0, w20, w18
   87420:	0b000220 	add	w0, w17, w0
   87424:	7100001f 	cmp	w0, #0x0
   87428:	54ffff8c 	b.gt	87418 <Process_Out.constprop.2+0x36e0>
   8742c:	7100017f 	cmp	w11, #0x0
   87430:	110006d6 	add	w22, w22, #0x1
   87434:	1a9fa160 	csel	w0, w11, wzr, ge  // ge = tcont
   87438:	1100058c 	add	w12, w12, #0x1
   8743c:	5100056b 	sub	w11, w11, #0x1
   87440:	0b0002d6 	add	w22, w22, w0
   87444:	0b000191 	add	w17, w12, w0
   87448:	4b000172 	sub	w18, w11, w0
   8744c:	17fff570 	b	84a0c <Process_Out.constprop.2+0xcd4>
   87450:	5280000f 	mov	w15, #0x0                   	// #0
   87454:	361e60ed 	tbz	w13, #3, 84070 <Process_Out.constprop.2+0x338>
   87458:	51000791 	sub	w17, w28, #0x1
   8745c:	2a0003ef 	mov	w15, w0
   87460:	17fff304 	b	84070 <Process_Out.constprop.2+0x338>
   87464:	b94087e0 	ldr	w0, [sp, #132]
   87468:	11004001 	add	w1, w0, #0x10
   8746c:	7100003f 	cmp	w1, #0x0
   87470:	54004dcd 	b.le	87e28 <Process_Out.constprop.2+0x40f0>
   87474:	91003d00 	add	x0, x8, #0xf
   87478:	b90087e1 	str	w1, [sp, #132]
   8747c:	927cec00 	and	x0, x0, #0xfffffffffffffff0
   87480:	91004001 	add	x1, x0, #0x10
   87484:	f90037e1 	str	x1, [sp, #104]
   87488:	17fff60e 	b	84cc0 <Process_Out.constprop.2+0xf88>
   8748c:	f9403fe2 	ldr	x2, [sp, #120]
   87490:	f90037e8 	str	x8, [sp, #104]
   87494:	b94067e1 	ldr	w1, [sp, #100]
   87498:	b90067e0 	str	w0, [sp, #100]
   8749c:	8b21c041 	add	x1, x2, w1, sxtw
   874a0:	aa0103e8 	mov	x8, x1
   874a4:	17fff6c9 	b	84fc8 <Process_Out.constprop.2+0x1290>
   874a8:	b40010eb 	cbz	x11, 876c4 <Process_Out.constprop.2+0x398c>
   874ac:	8b30c174 	add	x20, x11, w16, sxtw
   874b0:	11000551 	add	w17, w10, #0x1
   874b4:	aa1403f2 	mov	x18, x20
   874b8:	38001649 	strb	w9, [x18], #1
   874bc:	4b120280 	sub	w0, w20, w18
   874c0:	0b110000 	add	w0, w0, w17
   874c4:	7100001f 	cmp	w0, #0x0
   874c8:	54ffff8c 	b.gt	874b8 <Process_Out.constprop.2+0x3780>
   874cc:	7100015f 	cmp	w10, #0x0
   874d0:	110006d6 	add	w22, w22, #0x1
   874d4:	1a9fa151 	csel	w17, w10, wzr, ge  // ge = tcont
   874d8:	11000610 	add	w16, w16, #0x1
   874dc:	5100054a 	sub	w10, w10, #0x1
   874e0:	0b1102d6 	add	w22, w22, w17
   874e4:	0b110212 	add	w18, w16, w17
   874e8:	4b110151 	sub	w17, w10, w17
   874ec:	17fff476 	b	846c4 <Process_Out.constprop.2+0x98c>
   874f0:	7100015f 	cmp	w10, #0x0
   874f4:	110006d6 	add	w22, w22, #0x1
   874f8:	1a9fa140 	csel	w0, w10, wzr, ge  // ge = tcont
   874fc:	5100054a 	sub	w10, w10, #0x1
   87500:	0b0002d6 	add	w22, w22, w0
   87504:	4b000152 	sub	w18, w10, w0
   87508:	17fff74d 	b	8523c <Process_Out.constprop.2+0x1504>
   8750c:	b4000cea 	cbz	x10, 876a8 <Process_Out.constprop.2+0x3970>
   87510:	8b2cc154 	add	x20, x10, w12, sxtw
   87514:	11000571 	add	w17, w11, #0x1
   87518:	aa1403f2 	mov	x18, x20
   8751c:	38001649 	strb	w9, [x18], #1
   87520:	4b120280 	sub	w0, w20, w18
   87524:	0b000220 	add	w0, w17, w0
   87528:	7100001f 	cmp	w0, #0x0
   8752c:	54ffff8c 	b.gt	8751c <Process_Out.constprop.2+0x37e4>
   87530:	7100017f 	cmp	w11, #0x0
   87534:	1100058c 	add	w12, w12, #0x1
   87538:	1a9fa160 	csel	w0, w11, wzr, ge  // ge = tcont
   8753c:	110006d6 	add	w22, w22, #0x1
   87540:	5100056b 	sub	w11, w11, #0x1
   87544:	0b000191 	add	w17, w12, w0
   87548:	0b0002d6 	add	w22, w22, w0
   8754c:	4b000172 	sub	w18, w11, w0
   87550:	17fff7fd 	b	85544 <Process_Out.constprop.2+0x180c>
   87554:	b4fefc0a 	cbz	x10, 854d4 <Process_Out.constprop.2+0x179c>
   87558:	2a0b03f1 	mov	w17, w11
   8755c:	8b2cc140 	add	x0, x10, w12, sxtw
   87560:	91000631 	add	x17, x17, #0x1
   87564:	52800414 	mov	w20, #0x20                  	// #32
   87568:	8b000231 	add	x17, x17, x0
   8756c:	38001414 	strb	w20, [x0], #1
   87570:	eb11001f 	cmp	x0, x17
   87574:	54ffffc1 	b.ne	8756c <Process_Out.constprop.2+0x3834>  // b.any
   87578:	11000580 	add	w0, w12, #0x1
   8757c:	0b0b0000 	add	w0, w0, w11
   87580:	17fff7d3 	b	854cc <Process_Out.constprop.2+0x1794>
   87584:	7100001f 	cmp	w0, #0x0
   87588:	5280001c 	mov	w28, #0x0                   	// #0
   8758c:	54fec78c 	b.gt	84e7c <Process_Out.constprop.2+0x1144>
   87590:	17fff21b 	b	83dfc <Process_Out.constprop.2+0xc4>
   87594:	b4ff478b 	cbz	x11, 85e84 <Process_Out.constprop.2+0x214c>
   87598:	8b21c16b 	add	x11, x11, w1, sxtw
   8759c:	1100054c 	add	w12, w10, #0x1
   875a0:	aa0b03e2 	mov	x2, x11
   875a4:	52800407 	mov	w7, #0x20                  	// #32
   875a8:	38001447 	strb	w7, [x2], #1
   875ac:	4b020160 	sub	w0, w11, w2
   875b0:	0b0c0000 	add	w0, w0, w12
   875b4:	7100001f 	cmp	w0, #0x0
   875b8:	54ffff8c 	b.gt	875a8 <Process_Out.constprop.2+0x3870>
   875bc:	7100015f 	cmp	w10, #0x0
   875c0:	11000421 	add	w1, w1, #0x1
   875c4:	1a9fa14a 	csel	w10, w10, wzr, ge  // ge = tcont
   875c8:	110004c6 	add	w6, w6, #0x1
   875cc:	0b0a0021 	add	w1, w1, w10
   875d0:	0b0a00c6 	add	w6, w6, w10
   875d4:	b9000661 	str	w1, [x19, #4]
   875d8:	17fff354 	b	84328 <Process_Out.constprop.2+0x5f0>
   875dc:	7100015f 	cmp	w10, #0x0
   875e0:	110006d6 	add	w22, w22, #0x1
   875e4:	1a9fa151 	csel	w17, w10, wzr, ge  // ge = tcont
   875e8:	5100054a 	sub	w10, w10, #0x1
   875ec:	0b1102d6 	add	w22, w22, w17
   875f0:	4b110151 	sub	w17, w10, w17
   875f4:	17fff2e6 	b	8418c <Process_Out.constprop.2+0x454>
   875f8:	7100017f 	cmp	w11, #0x0
   875fc:	110006d6 	add	w22, w22, #0x1
   87600:	1a9fa160 	csel	w0, w11, wzr, ge  // ge = tcont
   87604:	5100056b 	sub	w11, w11, #0x1
   87608:	0b160016 	add	w22, w0, w22
   8760c:	4b000172 	sub	w18, w11, w0
   87610:	17fff501 	b	84a14 <Process_Out.constprop.2+0xcdc>
   87614:	3100045f 	cmn	w2, #0x1
   87618:	54005920 	b.eq	8813c <Process_Out.constprop.2+0x4404>  // b.none
   8761c:	6b02011f 	cmp	w8, w2
   87620:	540001ca 	b.ge	87658 <Process_Out.constprop.2+0x3920>  // b.tcont
   87624:	52800b01 	mov	w1, #0x58                  	// #88
   87628:	2a0101ad 	orr	w13, w13, w1
   8762c:	b4006889 	cbz	x9, 8833c <Process_Out.constprop.2+0x4604>
   87630:	52800601 	mov	w1, #0x30                  	// #48
   87634:	3828c921 	strb	w1, [x9, w8, sxtw]
   87638:	11000508 	add	w8, w8, #0x1
   8763c:	b9000668 	str	w8, [x19, #4]
   87640:	6b02011f 	cmp	w8, w2
   87644:	540000aa 	b.ge	87658 <Process_Out.constprop.2+0x3920>  // b.tcont
   87648:	b9400661 	ldr	w1, [x19, #4]
   8764c:	11000428 	add	w8, w1, #0x1
   87650:	b9000668 	str	w8, [x19, #4]
   87654:	3821c92d 	strb	w13, [x9, w1, sxtw]
   87658:	11000800 	add	w0, w0, #0x2
   8765c:	17fff71b 	b	852c8 <Process_Out.constprop.2+0x1590>
   87660:	b4ffdbab 	cbz	x11, 871d4 <Process_Out.constprop.2+0x349c>
   87664:	8b21c16b 	add	x11, x11, w1, sxtw
   87668:	1100050c 	add	w12, w8, #0x1
   8766c:	aa0b03e2 	mov	x2, x11
   87670:	52800407 	mov	w7, #0x20                  	// #32
   87674:	38001447 	strb	w7, [x2], #1
   87678:	4b020160 	sub	w0, w11, w2
   8767c:	0b0c0000 	add	w0, w0, w12
   87680:	7100001f 	cmp	w0, #0x0
   87684:	54ffff8c 	b.gt	87674 <Process_Out.constprop.2+0x393c>
   87688:	7100011f 	cmp	w8, #0x0
   8768c:	110004c6 	add	w6, w6, #0x1
   87690:	1a9fa108 	csel	w8, w8, wzr, ge  // ge = tcont
   87694:	11000421 	add	w1, w1, #0x1
   87698:	0b080021 	add	w1, w1, w8
   8769c:	0b0800c6 	add	w6, w6, w8
   876a0:	b9000661 	str	w1, [x19, #4]
   876a4:	17fff321 	b	84328 <Process_Out.constprop.2+0x5f0>
   876a8:	7100017f 	cmp	w11, #0x0
   876ac:	110006d6 	add	w22, w22, #0x1
   876b0:	1a9fa160 	csel	w0, w11, wzr, ge  // ge = tcont
   876b4:	5100056b 	sub	w11, w11, #0x1
   876b8:	0b0002d6 	add	w22, w22, w0
   876bc:	4b000172 	sub	w18, w11, w0
   876c0:	17fff7a3 	b	8554c <Process_Out.constprop.2+0x1814>
   876c4:	7100015f 	cmp	w10, #0x0
   876c8:	110006d6 	add	w22, w22, #0x1
   876cc:	1a9fa151 	csel	w17, w10, wzr, ge  // ge = tcont
   876d0:	5100054a 	sub	w10, w10, #0x1
   876d4:	0b160236 	add	w22, w17, w22
   876d8:	4b110151 	sub	w17, w10, w17
   876dc:	17fff3fc 	b	846cc <Process_Out.constprop.2+0x994>
   876e0:	3100045f 	cmn	w2, #0x1
   876e4:	54000060 	b.eq	876f0 <Process_Out.constprop.2+0x39b8>  // b.none
   876e8:	6b02013f 	cmp	w9, w2
   876ec:	540000ca 	b.ge	87704 <Process_Out.constprop.2+0x39cc>  // b.tcont
   876f0:	b40000aa 	cbz	x10, 87704 <Process_Out.constprop.2+0x39cc>
   876f4:	52800601 	mov	w1, #0x30                  	// #48
   876f8:	3829c941 	strb	w1, [x10, w9, sxtw]
   876fc:	11000529 	add	w9, w9, #0x1
   87700:	b9000669 	str	w9, [x19, #4]
   87704:	11000400 	add	w0, w0, #0x1
   87708:	17fff4fe 	b	84b00 <Process_Out.constprop.2+0xdc8>
   8770c:	3100045f 	cmn	w2, #0x1
   87710:	54000060 	b.eq	8771c <Process_Out.constprop.2+0x39e4>  // b.none
   87714:	6b02013f 	cmp	w9, w2
   87718:	540000ca 	b.ge	87730 <Process_Out.constprop.2+0x39f8>  // b.tcont
   8771c:	b40000ab 	cbz	x11, 87730 <Process_Out.constprop.2+0x39f8>
   87720:	52800601 	mov	w1, #0x30                  	// #48
   87724:	3829c961 	strb	w1, [x11, w9, sxtw]
   87728:	11000529 	add	w9, w9, #0x1
   8772c:	b9000669 	str	w9, [x19, #4]
   87730:	11000400 	add	w0, w0, #0x1
   87734:	17fff421 	b	847b8 <Process_Out.constprop.2+0xa80>
   87738:	3100045f 	cmn	w2, #0x1
   8773c:	54000060 	b.eq	87748 <Process_Out.constprop.2+0x3a10>  // b.none
   87740:	6b02013f 	cmp	w9, w2
   87744:	540000ca 	b.ge	8775c <Process_Out.constprop.2+0x3a24>  // b.tcont
   87748:	b40000ab 	cbz	x11, 8775c <Process_Out.constprop.2+0x3a24>
   8774c:	52800601 	mov	w1, #0x30                  	// #48
   87750:	3829c961 	strb	w1, [x11, w9, sxtw]
   87754:	11000529 	add	w9, w9, #0x1
   87758:	b9000669 	str	w9, [x19, #4]
   8775c:	11000400 	add	w0, w0, #0x1
   87760:	17fff2c6 	b	84278 <Process_Out.constprop.2+0x540>
   87764:	f94047e2 	ldr	x2, [sp, #136]
   87768:	f90037e8 	str	x8, [sp, #104]
   8776c:	b94087e1 	ldr	w1, [sp, #132]
   87770:	b90087e0 	str	w0, [sp, #132]
   87774:	8b21c041 	add	x1, x2, w1, sxtw
   87778:	aa0103e8 	mov	x8, x1
   8777c:	17fff340 	b	8447c <Process_Out.constprop.2+0x744>
   87780:	2a1003e8 	mov	w8, w16
   87784:	2a1603e0 	mov	w0, w22
   87788:	17fff6c7 	b	852a4 <Process_Out.constprop.2+0x156c>
   8778c:	3100045f 	cmn	w2, #0x1
   87790:	54000060 	b.eq	8779c <Process_Out.constprop.2+0x3a64>  // b.none
   87794:	6b02013f 	cmp	w9, w2
   87798:	540000ca 	b.ge	877b0 <Process_Out.constprop.2+0x3a78>  // b.tcont
   8779c:	b40000aa 	cbz	x10, 877b0 <Process_Out.constprop.2+0x3a78>
   877a0:	52800601 	mov	w1, #0x30                  	// #48
   877a4:	3829c941 	strb	w1, [x10, w9, sxtw]
   877a8:	11000529 	add	w9, w9, #0x1
   877ac:	b9000669 	str	w9, [x19, #4]
   877b0:	11000400 	add	w0, w0, #0x1
   877b4:	17fff7a1 	b	85638 <Process_Out.constprop.2+0x1900>
   877b8:	b4000a54 	cbz	x20, 87900 <Process_Out.constprop.2+0x3bc8>
   877bc:	93407d60 	sxtw	x0, w11
   877c0:	8b27c281 	add	x1, x20, w7, sxtw
   877c4:	14000002 	b	877cc <Process_Out.constprop.2+0x3a94>
   877c8:	385ff049 	ldurb	w9, [x2, #-1]
   877cc:	38001429 	strb	w9, [x1], #1
   877d0:	910243e2 	add	x2, sp, #0x90
   877d4:	8b020002 	add	x2, x0, x2
   877d8:	7100001f 	cmp	w0, #0x0
   877dc:	d1000400 	sub	x0, x0, #0x1
   877e0:	54ffff4c 	b.gt	877c8 <Process_Out.constprop.2+0x3a90>
   877e4:	110004c0 	add	w0, w6, #0x1
   877e8:	110004e1 	add	w1, w7, #0x1
   877ec:	0b000160 	add	w0, w11, w0
   877f0:	0b0b0021 	add	w1, w1, w11
   877f4:	17fffbb5 	b	866c8 <Process_Out.constprop.2+0x2990>
   877f8:	b4004954 	cbz	x20, 88120 <Process_Out.constprop.2+0x43e8>
   877fc:	11000420 	add	w0, w1, #0x1
   87800:	2a1603e6 	mov	w6, w22
   87804:	d1000695 	sub	x21, x20, #0x1
   87808:	52800611 	mov	w17, #0x30                  	// #48
   8780c:	93407c00 	sxtw	x0, w0
   87810:	4b0602d0 	sub	w16, w22, w6
   87814:	38206ab1 	strb	w17, [x21, x0]
   87818:	0b100050 	add	w16, w2, w16
   8781c:	2a0003e1 	mov	w1, w0
   87820:	110004c6 	add	w6, w6, #0x1
   87824:	91000400 	add	x0, x0, #0x1
   87828:	6b3081ff 	cmp	w15, w16, sxtb
   8782c:	54ffff2b 	b.lt	87810 <Process_Out.constprop.2+0x3ad8>  // b.tstop
   87830:	b9000661 	str	w1, [x19, #4]
   87834:	17fffb80 	b	86634 <Process_Out.constprop.2+0x28fc>
   87838:	b400078c 	cbz	x12, 87928 <Process_Out.constprop.2+0x3bf0>
   8783c:	93407d61 	sxtw	x1, w11
   87840:	8b29c182 	add	x2, x12, w9, sxtw
   87844:	14000002 	b	8784c <Process_Out.constprop.2+0x3b14>
   87848:	385ff0e6 	ldurb	w6, [x7, #-1]
   8784c:	38001446 	strb	w6, [x2], #1
   87850:	910243e3 	add	x3, sp, #0x90
   87854:	8b030027 	add	x7, x1, x3
   87858:	7100003f 	cmp	w1, #0x0
   8785c:	d1000421 	sub	x1, x1, #0x1
   87860:	54ffff4c 	b.gt	87848 <Process_Out.constprop.2+0x3b10>
   87864:	11000400 	add	w0, w0, #0x1
   87868:	11000521 	add	w1, w9, #0x1
   8786c:	0b0b0002 	add	w2, w0, w11
   87870:	0b0b0021 	add	w1, w1, w11
   87874:	17fffae1 	b	863f8 <Process_Out.constprop.2+0x26c0>
   87878:	b4003cec 	cbz	x12, 88014 <Process_Out.constprop.2+0x42dc>
   8787c:	11000441 	add	w1, w2, #0x1
   87880:	2a1603e0 	mov	w0, w22
   87884:	d1000595 	sub	x21, x12, #0x1
   87888:	52800614 	mov	w20, #0x30                  	// #48
   8788c:	93407c21 	sxtw	x1, w1
   87890:	4b0002c2 	sub	w2, w22, w0
   87894:	38216ab4 	strb	w20, [x21, x1]
   87898:	0b020242 	add	w2, w18, w2
   8789c:	2a0103e9 	mov	w9, w1
   878a0:	11000400 	add	w0, w0, #0x1
   878a4:	91000421 	add	x1, x1, #0x1
   878a8:	6b22823f 	cmp	w17, w2, sxtb
   878ac:	54ffff2b 	b.lt	87890 <Process_Out.constprop.2+0x3b58>  // b.tstop
   878b0:	b9000669 	str	w9, [x19, #4]
   878b4:	17fffa9a 	b	8631c <Process_Out.constprop.2+0x25e4>
   878b8:	2a1003e9 	mov	w9, w16
   878bc:	2a1603e0 	mov	w0, w22
   878c0:	17fff39d 	b	84734 <Process_Out.constprop.2+0x9fc>
   878c4:	2a1603e0 	mov	w0, w22
   878c8:	4b0002c1 	sub	w1, w22, w0
   878cc:	11000400 	add	w0, w0, #0x1
   878d0:	0b010221 	add	w1, w17, w1
   878d4:	6b2180ff 	cmp	w7, w1, sxtb
   878d8:	54ffff8b 	b.lt	878c8 <Process_Out.constprop.2+0x3b90>  // b.tstop
   878dc:	2a1003e8 	mov	w8, w16
   878e0:	17fff671 	b	852a4 <Process_Out.constprop.2+0x156c>
   878e4:	f9403fe4 	ldr	x4, [sp, #120]
   878e8:	f90037e8 	str	x8, [sp, #104]
   878ec:	b94067e3 	ldr	w3, [sp, #100]
   878f0:	b90067e2 	str	w2, [sp, #100]
   878f4:	8b23c089 	add	x9, x4, w3, sxtw
   878f8:	aa0903e8 	mov	x8, x9
   878fc:	17fff879 	b	85ae0 <Process_Out.constprop.2+0x1da8>
   87900:	110004c0 	add	w0, w6, #0x1
   87904:	7100015f 	cmp	w10, #0x0
   87908:	0b000160 	add	w0, w11, w0
   8790c:	54ff70ed 	b.le	86728 <Process_Out.constprop.2+0x29f0>
   87910:	7100011f 	cmp	w8, #0x0
   87914:	11000400 	add	w0, w0, #0x1
   87918:	1a9fa108 	csel	w8, w8, wzr, ge  // ge = tcont
   8791c:	0b000100 	add	w0, w8, w0
   87920:	0b000339 	add	w25, w25, w0
   87924:	17fff136 	b	83dfc <Process_Out.constprop.2+0xc4>
   87928:	11000400 	add	w0, w0, #0x1
   8792c:	710001bf 	cmp	w13, #0x0
   87930:	0b0b0002 	add	w2, w0, w11
   87934:	54ff592d 	b.le	86458 <Process_Out.constprop.2+0x2720>
   87938:	7100011f 	cmp	w8, #0x0
   8793c:	11000442 	add	w2, w2, #0x1
   87940:	1a9fa108 	csel	w8, w8, wzr, ge  // ge = tcont
   87944:	0b020102 	add	w2, w8, w2
   87948:	0b020339 	add	w25, w25, w2
   8794c:	17fff12c 	b	83dfc <Process_Out.constprop.2+0xc4>
   87950:	f9403fe4 	ldr	x4, [sp, #120]
   87954:	f90037e8 	str	x8, [sp, #104]
   87958:	b94067e3 	ldr	w3, [sp, #100]
   8795c:	b90067e2 	str	w2, [sp, #100]
   87960:	8b23c089 	add	x9, x4, w3, sxtw
   87964:	aa0903e8 	mov	x8, x9
   87968:	17fff77c 	b	85758 <Process_Out.constprop.2+0x1a20>
   8796c:	2a0c03e9 	mov	w9, w12
   87970:	2a1603e0 	mov	w0, w22
   87974:	17fff442 	b	84a7c <Process_Out.constprop.2+0xd44>
   87978:	2a0c03e9 	mov	w9, w12
   8797c:	2a1603e0 	mov	w0, w22
   87980:	17fff70d 	b	855b4 <Process_Out.constprop.2+0x187c>
   87984:	f9403fe2 	ldr	x2, [sp, #120]
   87988:	f90037e8 	str	x8, [sp, #104]
   8798c:	b94067e1 	ldr	w1, [sp, #100]
   87990:	b90067e0 	str	w0, [sp, #100]
   87994:	8b21c041 	add	x1, x2, w1, sxtw
   87998:	aa0103e8 	mov	x8, x1
   8799c:	17fff945 	b	85eb0 <Process_Out.constprop.2+0x2178>
   879a0:	2a1003e9 	mov	w9, w16
   879a4:	2a1603e0 	mov	w0, w22
   879a8:	17fff213 	b	841f4 <Process_Out.constprop.2+0x4bc>
   879ac:	b4fffc6c 	cbz	x12, 87938 <Process_Out.constprop.2+0x3c00>
   879b0:	8b21c18c 	add	x12, x12, w1, sxtw
   879b4:	1100050d 	add	w13, w8, #0x1
   879b8:	aa0c03e6 	mov	x6, x12
   879bc:	52800407 	mov	w7, #0x20                  	// #32
   879c0:	380014c7 	strb	w7, [x6], #1
   879c4:	4b060180 	sub	w0, w12, w6
   879c8:	0b0001a0 	add	w0, w13, w0
   879cc:	7100001f 	cmp	w0, #0x0
   879d0:	54ffff8c 	b.gt	879c0 <Process_Out.constprop.2+0x3c88>
   879d4:	7100011f 	cmp	w8, #0x0
   879d8:	11000442 	add	w2, w2, #0x1
   879dc:	1a9fa108 	csel	w8, w8, wzr, ge  // ge = tcont
   879e0:	11000421 	add	w1, w1, #0x1
   879e4:	0b080021 	add	w1, w1, w8
   879e8:	0b020102 	add	w2, w8, w2
   879ec:	b9000661 	str	w1, [x19, #4]
   879f0:	17fffa9a 	b	86458 <Process_Out.constprop.2+0x2720>
   879f4:	b4ff0f2b 	cbz	x11, 85bd8 <Process_Out.constprop.2+0x1ea0>
   879f8:	2a0a03f2 	mov	w18, w10
   879fc:	8b31c160 	add	x0, x11, w17, sxtw
   87a00:	91000652 	add	x18, x18, #0x1
   87a04:	52800414 	mov	w20, #0x20                  	// #32
   87a08:	8b000252 	add	x18, x18, x0
   87a0c:	38001414 	strb	w20, [x0], #1
   87a10:	eb00025f 	cmp	x18, x0
   87a14:	54ffffc1 	b.ne	87a0c <Process_Out.constprop.2+0x3cd4>  // b.any
   87a18:	11000620 	add	w0, w17, #0x1
   87a1c:	0b0a0000 	add	w0, w0, w10
   87a20:	17fff86c 	b	85bd0 <Process_Out.constprop.2+0x1e98>
   87a24:	b400136b 	cbz	x11, 87c90 <Process_Out.constprop.2+0x3f58>
   87a28:	8b31c174 	add	x20, x11, w17, sxtw
   87a2c:	1100054c 	add	w12, w10, #0x1
   87a30:	aa1403f2 	mov	x18, x20
   87a34:	38001648 	strb	w8, [x18], #1
   87a38:	4b120280 	sub	w0, w20, w18
   87a3c:	0b0c0000 	add	w0, w0, w12
   87a40:	7100001f 	cmp	w0, #0x0
   87a44:	54ffff8c 	b.gt	87a34 <Process_Out.constprop.2+0x3cfc>
   87a48:	7100015f 	cmp	w10, #0x0
   87a4c:	110006d6 	add	w22, w22, #0x1
   87a50:	1a9fa140 	csel	w0, w10, wzr, ge  // ge = tcont
   87a54:	11000631 	add	w17, w17, #0x1
   87a58:	5100054a 	sub	w10, w10, #0x1
   87a5c:	0b0002d6 	add	w22, w22, w0
   87a60:	0b000232 	add	w18, w17, w0
   87a64:	4b00014c 	sub	w12, w10, w0
   87a68:	17fff877 	b	85c44 <Process_Out.constprop.2+0x1f0c>
   87a6c:	b94067e0 	ldr	w0, [sp, #100]
   87a70:	11002000 	add	w0, w0, #0x8
   87a74:	7100001f 	cmp	w0, #0x0
   87a78:	5400326d 	b.le	880c4 <Process_Out.constprop.2+0x438c>
   87a7c:	91002d01 	add	x1, x8, #0xb
   87a80:	b90067e0 	str	w0, [sp, #100]
   87a84:	927df020 	and	x0, x1, #0xfffffffffffffff8
   87a88:	f90037e0 	str	x0, [sp, #104]
   87a8c:	17fffca1 	b	86d10 <Process_Out.constprop.2+0x2fd8>
   87a90:	b4fff414 	cbz	x20, 87910 <Process_Out.constprop.2+0x3bd8>
   87a94:	8b21c294 	add	x20, x20, w1, sxtw
   87a98:	11000509 	add	w9, w8, #0x1
   87a9c:	aa1403e6 	mov	x6, x20
   87aa0:	52800407 	mov	w7, #0x20                  	// #32
   87aa4:	380014c7 	strb	w7, [x6], #1
   87aa8:	4b060282 	sub	w2, w20, w6
   87aac:	0b020122 	add	w2, w9, w2
   87ab0:	7100005f 	cmp	w2, #0x0
   87ab4:	54ffff8c 	b.gt	87aa4 <Process_Out.constprop.2+0x3d6c>
   87ab8:	7100011f 	cmp	w8, #0x0
   87abc:	11000400 	add	w0, w0, #0x1
   87ac0:	1a9fa108 	csel	w8, w8, wzr, ge  // ge = tcont
   87ac4:	11000421 	add	w1, w1, #0x1
   87ac8:	0b080021 	add	w1, w1, w8
   87acc:	0b000100 	add	w0, w8, w0
   87ad0:	b9000661 	str	w1, [x19, #4]
   87ad4:	17fffb15 	b	86728 <Process_Out.constprop.2+0x29f0>
   87ad8:	b4000eab 	cbz	x11, 87cac <Process_Out.constprop.2+0x3f74>
   87adc:	8b31c174 	add	x20, x11, w17, sxtw
   87ae0:	1100050c 	add	w12, w8, #0x1
   87ae4:	aa1403f2 	mov	x18, x20
   87ae8:	38001649 	strb	w9, [x18], #1
   87aec:	4b120280 	sub	w0, w20, w18
   87af0:	0b0c0000 	add	w0, w0, w12
   87af4:	7100001f 	cmp	w0, #0x0
   87af8:	54ffff8c 	b.gt	87ae8 <Process_Out.constprop.2+0x3db0>
   87afc:	7100011f 	cmp	w8, #0x0
   87b00:	110006d6 	add	w22, w22, #0x1
   87b04:	1a9fa10c 	csel	w12, w8, wzr, ge  // ge = tcont
   87b08:	11000631 	add	w17, w17, #0x1
   87b0c:	51000508 	sub	w8, w8, #0x1
   87b10:	0b0c02d6 	add	w22, w22, w12
   87b14:	0b0c0232 	add	w18, w17, w12
   87b18:	4b0c010c 	sub	w12, w8, w12
   87b1c:	17fff76c 	b	858cc <Process_Out.constprop.2+0x1b94>
   87b20:	2a1603e0 	mov	w0, w22
   87b24:	4b0002c1 	sub	w1, w22, w0
   87b28:	11000400 	add	w0, w0, #0x1
   87b2c:	0b010221 	add	w1, w17, w1
   87b30:	6b21811f 	cmp	w8, w1, sxtb
   87b34:	54ffff8b 	b.lt	87b24 <Process_Out.constprop.2+0x3dec>  // b.tstop
   87b38:	2a0c03e9 	mov	w9, w12
   87b3c:	17fff69e 	b	855b4 <Process_Out.constprop.2+0x187c>
   87b40:	52800010 	mov	w16, #0x0                   	// #0
   87b44:	361f000e 	tbz	w14, #3, 85b44 <Process_Out.constprop.2+0x1e0c>
   87b48:	5100079c 	sub	w28, w28, #0x1
   87b4c:	2a0003f0 	mov	w16, w0
   87b50:	17fff7fd 	b	85b44 <Process_Out.constprop.2+0x1e0c>
   87b54:	2a1603e0 	mov	w0, w22
   87b58:	4b0002c1 	sub	w1, w22, w0
   87b5c:	11000400 	add	w0, w0, #0x1
   87b60:	0b010221 	add	w1, w17, w1
   87b64:	6b21811f 	cmp	w8, w1, sxtb
   87b68:	54ffff8b 	b.lt	87b58 <Process_Out.constprop.2+0x3e20>  // b.tstop
   87b6c:	2a0c03e9 	mov	w9, w12
   87b70:	17fff3c3 	b	84a7c <Process_Out.constprop.2+0xd44>
   87b74:	2a1603e0 	mov	w0, w22
   87b78:	4b0002c1 	sub	w1, w22, w0
   87b7c:	11000400 	add	w0, w0, #0x1
   87b80:	0b010241 	add	w1, w18, w1
   87b84:	6b21811f 	cmp	w8, w1, sxtb
   87b88:	54ffff8b 	b.lt	87b78 <Process_Out.constprop.2+0x3e40>  // b.tstop
   87b8c:	2a1003e9 	mov	w9, w16
   87b90:	17fff2e9 	b	84734 <Process_Out.constprop.2+0x9fc>
   87b94:	52800010 	mov	w16, #0x0                   	// #0
   87b98:	361ee12e 	tbz	w14, #3, 857bc <Process_Out.constprop.2+0x1a84>
   87b9c:	5100079c 	sub	w28, w28, #0x1
   87ba0:	2a0003f0 	mov	w16, w0
   87ba4:	17fff706 	b	857bc <Process_Out.constprop.2+0x1a84>
   87ba8:	b4fee58b 	cbz	x11, 85858 <Process_Out.constprop.2+0x1b20>
   87bac:	2a0803f2 	mov	w18, w8
   87bb0:	8b31c160 	add	x0, x11, w17, sxtw
   87bb4:	91000652 	add	x18, x18, #0x1
   87bb8:	52800414 	mov	w20, #0x20                  	// #32
   87bbc:	8b000252 	add	x18, x18, x0
   87bc0:	38001414 	strb	w20, [x0], #1
   87bc4:	eb00025f 	cmp	x18, x0
   87bc8:	54ffffc1 	b.ne	87bc0 <Process_Out.constprop.2+0x3e88>  // b.any
   87bcc:	11000620 	add	w0, w17, #0x1
   87bd0:	0b080000 	add	w0, w0, w8
   87bd4:	17fff71f 	b	85850 <Process_Out.constprop.2+0x1b18>
   87bd8:	2a1603e0 	mov	w0, w22
   87bdc:	4b0002c1 	sub	w1, w22, w0
   87be0:	11000400 	add	w0, w0, #0x1
   87be4:	0b010241 	add	w1, w18, w1
   87be8:	6b21811f 	cmp	w8, w1, sxtb
   87bec:	54ffff8b 	b.lt	87bdc <Process_Out.constprop.2+0x3ea4>  // b.tstop
   87bf0:	2a1003e9 	mov	w9, w16
   87bf4:	17fff180 	b	841f4 <Process_Out.constprop.2+0x4bc>
   87bf8:	3100045f 	cmn	w2, #0x1
   87bfc:	54000060 	b.eq	87c08 <Process_Out.constprop.2+0x3ed0>  // b.none
   87c00:	6b02013f 	cmp	w9, w2
   87c04:	540000ca 	b.ge	87c1c <Process_Out.constprop.2+0x3ee4>  // b.tcont
   87c08:	b40000ab 	cbz	x11, 87c1c <Process_Out.constprop.2+0x3ee4>
   87c0c:	52800601 	mov	w1, #0x30                  	// #48
   87c10:	3829c961 	strb	w1, [x11, w9, sxtw]
   87c14:	11000529 	add	w9, w9, #0x1
   87c18:	b9000669 	str	w9, [x19, #4]
   87c1c:	11000400 	add	w0, w0, #0x1
   87c20:	b9400669 	ldr	w9, [x19, #4]
   87c24:	17fff768 	b	859c4 <Process_Out.constprop.2+0x1c8c>
   87c28:	3100045f 	cmn	w2, #0x1
   87c2c:	54000060 	b.eq	87c38 <Process_Out.constprop.2+0x3f00>  // b.none
   87c30:	6b02011f 	cmp	w8, w2
   87c34:	540000ca 	b.ge	87c4c <Process_Out.constprop.2+0x3f14>  // b.tcont
   87c38:	b40000ab 	cbz	x11, 87c4c <Process_Out.constprop.2+0x3f14>
   87c3c:	52800601 	mov	w1, #0x30                  	// #48
   87c40:	3828c961 	strb	w1, [x11, w8, sxtw]
   87c44:	11000508 	add	w8, w8, #0x1
   87c48:	b9000668 	str	w8, [x19, #4]
   87c4c:	11000400 	add	w0, w0, #0x1
   87c50:	b9400668 	ldr	w8, [x19, #4]
   87c54:	17fff83a 	b	85d3c <Process_Out.constprop.2+0x2004>
   87c58:	f9403fe4 	ldr	x4, [sp, #120]
   87c5c:	f90037e8 	str	x8, [sp, #104]
   87c60:	b94067e3 	ldr	w3, [sp, #100]
   87c64:	b90067e2 	str	w2, [sp, #100]
   87c68:	8b23c089 	add	x9, x4, w3, sxtw
   87c6c:	aa0903e8 	mov	x8, x9
   87c70:	17fff932 	b	86138 <Process_Out.constprop.2+0x2400>
   87c74:	f9403fe4 	ldr	x4, [sp, #120]
   87c78:	f90037e8 	str	x8, [sp, #104]
   87c7c:	b94067e3 	ldr	w3, [sp, #100]
   87c80:	b90067e2 	str	w2, [sp, #100]
   87c84:	8b23c089 	add	x9, x4, w3, sxtw
   87c88:	aa0903e8 	mov	x8, x9
   87c8c:	17fffa01 	b	86490 <Process_Out.constprop.2+0x2758>
   87c90:	7100015f 	cmp	w10, #0x0
   87c94:	110006d6 	add	w22, w22, #0x1
   87c98:	1a9fa140 	csel	w0, w10, wzr, ge  // ge = tcont
   87c9c:	5100054a 	sub	w10, w10, #0x1
   87ca0:	0b160016 	add	w22, w0, w22
   87ca4:	4b00014c 	sub	w12, w10, w0
   87ca8:	17fff7e9 	b	85c4c <Process_Out.constprop.2+0x1f14>
   87cac:	7100011f 	cmp	w8, #0x0
   87cb0:	110006d6 	add	w22, w22, #0x1
   87cb4:	1a9fa10c 	csel	w12, w8, wzr, ge  // ge = tcont
   87cb8:	51000508 	sub	w8, w8, #0x1
   87cbc:	0b0c02d6 	add	w22, w22, w12
   87cc0:	4b0c010c 	sub	w12, w8, w12
   87cc4:	17fff704 	b	858d4 <Process_Out.constprop.2+0x1b9c>
   87cc8:	51000a20 	sub	w0, w17, #0x2
   87ccc:	2a0a03f1 	mov	w17, w10
   87cd0:	2a0003ea 	mov	w10, w0
   87cd4:	17fff261 	b	84658 <Process_Out.constprop.2+0x920>
   87cd8:	51000a40 	sub	w0, w18, #0x2
   87cdc:	2a0b03f2 	mov	w18, w11
   87ce0:	2a0003eb 	mov	w11, w0
   87ce4:	17fff331 	b	849a8 <Process_Out.constprop.2+0xc70>
   87ce8:	2a1603e0 	mov	w0, w22
   87cec:	4b0002c1 	sub	w1, w22, w0
   87cf0:	11000400 	add	w0, w0, #0x1
   87cf4:	0b010241 	add	w1, w18, w1
   87cf8:	6b21813f 	cmp	w9, w1, sxtb
   87cfc:	54ffff8b 	b.lt	87cec <Process_Out.constprop.2+0x3fb4>  // b.tstop
   87d00:	2a1103e8 	mov	w8, w17
   87d04:	17fff7ec 	b	85cb4 <Process_Out.constprop.2+0x1f7c>
   87d08:	2a1103e9 	mov	w9, w17
   87d0c:	2a1603e0 	mov	w0, w22
   87d10:	17fff70b 	b	8593c <Process_Out.constprop.2+0x1c04>
   87d14:	52800010 	mov	w16, #0x0                   	// #0
   87d18:	361f242e 	tbz	w14, #3, 8619c <Process_Out.constprop.2+0x2464>
   87d1c:	5100079c 	sub	w28, w28, #0x1
   87d20:	2a0003f0 	mov	w16, w0
   87d24:	17fff91e 	b	8619c <Process_Out.constprop.2+0x2464>
   87d28:	51000b9c 	sub	w28, w28, #0x2
   87d2c:	b40021a9 	cbz	x9, 88160 <Process_Out.constprop.2+0x4428>
   87d30:	12001f80 	and	w0, w28, #0xff
   87d34:	8b22c121 	add	x1, x9, w2, sxtw
   87d38:	92401c06 	and	x6, x0, #0xff
   87d3c:	52800409 	mov	w9, #0x20                  	// #32
   87d40:	910004c6 	add	x6, x6, #0x1
   87d44:	8b0100c6 	add	x6, x6, x1
   87d48:	38001429 	strb	w9, [x1], #1
   87d4c:	eb0100df 	cmp	x6, x1
   87d50:	54ffffc1 	b.ne	87d48 <Process_Out.constprop.2+0x4010>  // b.any
   87d54:	11000725 	add	w5, w25, #0x1
   87d58:	11000442 	add	w2, w2, #0x1
   87d5c:	0b000042 	add	w2, w2, w0
   87d60:	0b0000b9 	add	w25, w5, w0
   87d64:	b9000662 	str	w2, [x19, #4]
   87d68:	17fffcae 	b	87020 <Process_Out.constprop.2+0x32e8>
   87d6c:	2a0b03f2 	mov	w18, w11
   87d70:	5100056b 	sub	w11, w11, #0x1
   87d74:	17fff5f7 	b	85550 <Process_Out.constprop.2+0x1818>
   87d78:	51000a20 	sub	w0, w17, #0x2
   87d7c:	2a0a03f1 	mov	w17, w10
   87d80:	2a0003ea 	mov	w10, w0
   87d84:	17fff0e5 	b	84118 <Process_Out.constprop.2+0x3e0>
   87d88:	2a1603e0 	mov	w0, w22
   87d8c:	4b0002c1 	sub	w1, w22, w0
   87d90:	11000400 	add	w0, w0, #0x1
   87d94:	0b010241 	add	w1, w18, w1
   87d98:	6b21815f 	cmp	w10, w1, sxtb
   87d9c:	54ffff8b 	b.lt	87d8c <Process_Out.constprop.2+0x4054>  // b.tstop
   87da0:	2a1103e9 	mov	w9, w17
   87da4:	17fff6e6 	b	8593c <Process_Out.constprop.2+0x1c04>
   87da8:	2a0a03f2 	mov	w18, w10
   87dac:	5100054a 	sub	w10, w10, #0x1
   87db0:	17fff524 	b	85240 <Process_Out.constprop.2+0x1508>
   87db4:	7100011f 	cmp	w8, #0x0
   87db8:	110006d6 	add	w22, w22, #0x1
   87dbc:	1a9fa10a 	csel	w10, w8, wzr, ge  // ge = tcont
   87dc0:	51000508 	sub	w8, w8, #0x1
   87dc4:	0b160156 	add	w22, w10, w22
   87dc8:	4b0a010a 	sub	w10, w8, w10
   87dcc:	17fffa01 	b	865d0 <Process_Out.constprop.2+0x2898>
   87dd0:	b4ffff34 	cbz	x20, 87db4 <Process_Out.constprop.2+0x407c>
   87dd4:	8b22c280 	add	x0, x20, w2, sxtw
   87dd8:	11000410 	add	w16, w0, #0x1
   87ddc:	38001406 	strb	w6, [x0], #1
   87de0:	4b00010a 	sub	w10, w8, w0
   87de4:	0b10014a 	add	w10, w10, w16
   87de8:	7100015f 	cmp	w10, #0x0
   87dec:	54ffff8c 	b.gt	87ddc <Process_Out.constprop.2+0x40a4>
   87df0:	7100011f 	cmp	w8, #0x0
   87df4:	110006d6 	add	w22, w22, #0x1
   87df8:	1a9fa10a 	csel	w10, w8, wzr, ge  // ge = tcont
   87dfc:	11000442 	add	w2, w2, #0x1
   87e00:	51000508 	sub	w8, w8, #0x1
   87e04:	0b0a0042 	add	w2, w2, w10
   87e08:	0b0a02d6 	add	w22, w22, w10
   87e0c:	4b0a010a 	sub	w10, w8, w10
   87e10:	b9000662 	str	w2, [x19, #4]
   87e14:	17fff9ef 	b	865d0 <Process_Out.constprop.2+0x2898>
   87e18:	51000a40 	sub	w0, w18, #0x2
   87e1c:	2a0b03f2 	mov	w18, w11
   87e20:	2a0003eb 	mov	w11, w0
   87e24:	17fff5af 	b	854e0 <Process_Out.constprop.2+0x17a8>
   87e28:	f94047e2 	ldr	x2, [sp, #136]
   87e2c:	f90037e8 	str	x8, [sp, #104]
   87e30:	b94087e0 	ldr	w0, [sp, #132]
   87e34:	b90087e1 	str	w1, [sp, #132]
   87e38:	8b20c040 	add	x0, x2, w0, sxtw
   87e3c:	17fff3a1 	b	84cc0 <Process_Out.constprop.2+0xf88>
   87e40:	2a0a03f1 	mov	w17, w10
   87e44:	5100054a 	sub	w10, w10, #0x1
   87e48:	17fff0d2 	b	84190 <Process_Out.constprop.2+0x458>
   87e4c:	5280000e 	mov	w14, #0x0                   	// #0
   87e50:	361f352c 	tbz	w12, #3, 864f4 <Process_Out.constprop.2+0x27bc>
   87e54:	5100079c 	sub	w28, w28, #0x1
   87e58:	2a0003ee 	mov	w14, w0
   87e5c:	17fff9a6 	b	864f4 <Process_Out.constprop.2+0x27bc>
   87e60:	51000a40 	sub	w0, w18, #0x2
   87e64:	2a0a03f2 	mov	w18, w10
   87e68:	2a0003ea 	mov	w10, w0
   87e6c:	17fff4d9 	b	851d0 <Process_Out.constprop.2+0x1498>
   87e70:	37f822a0 	tbnz	w0, #31, 882c4 <Process_Out.constprop.2+0x458c>
   87e74:	91003d00 	add	x0, x8, #0xf
   87e78:	927df000 	and	x0, x0, #0xfffffffffffffff8
   87e7c:	f90037e0 	str	x0, [sp, #104]
   87e80:	f9400100 	ldr	x0, [x8]
   87e84:	39000019 	strb	w25, [x0]
   87e88:	17ffefdd 	b	83dfc <Process_Out.constprop.2+0xc4>
   87e8c:	b94067e0 	ldr	w0, [sp, #100]
   87e90:	11002000 	add	w0, w0, #0x8
   87e94:	7100001f 	cmp	w0, #0x0
   87e98:	5400202d 	b.le	8829c <Process_Out.constprop.2+0x4564>
   87e9c:	91003d01 	add	x1, x8, #0xf
   87ea0:	b90067e0 	str	w0, [sp, #100]
   87ea4:	927df020 	and	x0, x1, #0xfffffffffffffff8
   87ea8:	f90037e0 	str	x0, [sp, #104]
   87eac:	17fff7e2 	b	85e34 <Process_Out.constprop.2+0x20fc>
   87eb0:	2a0a03f1 	mov	w17, w10
   87eb4:	5100054a 	sub	w10, w10, #0x1
   87eb8:	17fff206 	b	846d0 <Process_Out.constprop.2+0x998>
   87ebc:	52800009 	mov	w9, #0x0                   	// #0
   87ec0:	52800147 	mov	w7, #0xa                   	// #10
   87ec4:	52800020 	mov	w0, #0x1                   	// #1
   87ec8:	17fff190 	b	84508 <Process_Out.constprop.2+0x7d0>
   87ecc:	7100011f 	cmp	w8, #0x0
   87ed0:	110006d6 	add	w22, w22, #0x1
   87ed4:	1a9fa100 	csel	w0, w8, wzr, ge  // ge = tcont
   87ed8:	51000508 	sub	w8, w8, #0x1
   87edc:	0b0002d6 	add	w22, w22, w0
   87ee0:	4b00010d 	sub	w13, w8, w0
   87ee4:	17fff8f4 	b	862b4 <Process_Out.constprop.2+0x257c>
   87ee8:	b4ff1a8c 	cbz	x12, 86238 <Process_Out.constprop.2+0x2500>
   87eec:	2a0803e0 	mov	w0, w8
   87ef0:	8b22c192 	add	x18, x12, w2, sxtw
   87ef4:	91000400 	add	x0, x0, #0x1
   87ef8:	52800414 	mov	w20, #0x20                  	// #32
   87efc:	8b120000 	add	x0, x0, x18
   87f00:	38001654 	strb	w20, [x18], #1
   87f04:	eb12001f 	cmp	x0, x18
   87f08:	54ffffc1 	b.ne	87f00 <Process_Out.constprop.2+0x41c8>  // b.any
   87f0c:	11000440 	add	w0, w2, #0x1
   87f10:	0b080000 	add	w0, w0, w8
   87f14:	17fff8c7 	b	86230 <Process_Out.constprop.2+0x24f8>
   87f18:	b4fffdac 	cbz	x12, 87ecc <Process_Out.constprop.2+0x4194>
   87f1c:	8b22c194 	add	x20, x12, w2, sxtw
   87f20:	1100050d 	add	w13, w8, #0x1
   87f24:	aa1403f2 	mov	x18, x20
   87f28:	38001649 	strb	w9, [x18], #1
   87f2c:	4b120280 	sub	w0, w20, w18
   87f30:	0b0d0000 	add	w0, w0, w13
   87f34:	7100001f 	cmp	w0, #0x0
   87f38:	54ffff8c 	b.gt	87f28 <Process_Out.constprop.2+0x41f0>
   87f3c:	7100011f 	cmp	w8, #0x0
   87f40:	11000442 	add	w2, w2, #0x1
   87f44:	1a9fa100 	csel	w0, w8, wzr, ge  // ge = tcont
   87f48:	110006d6 	add	w22, w22, #0x1
   87f4c:	51000508 	sub	w8, w8, #0x1
   87f50:	0b000052 	add	w18, w2, w0
   87f54:	0b160016 	add	w22, w0, w22
   87f58:	4b00010d 	sub	w13, w8, w0
   87f5c:	17fff8d4 	b	862ac <Process_Out.constprop.2+0x2574>
   87f60:	2a0b03f2 	mov	w18, w11
   87f64:	5100056b 	sub	w11, w11, #0x1
   87f68:	17fff2ac 	b	84a18 <Process_Out.constprop.2+0xce0>
   87f6c:	2a1103e8 	mov	w8, w17
   87f70:	2a1603e0 	mov	w0, w22
   87f74:	17fff750 	b	85cb4 <Process_Out.constprop.2+0x1f7c>
   87f78:	b94067e0 	ldr	w0, [sp, #100]
   87f7c:	11002000 	add	w0, w0, #0x8
   87f80:	7100001f 	cmp	w0, #0x0
   87f84:	540013ad 	b.le	881f8 <Process_Out.constprop.2+0x44c0>
   87f88:	91003d01 	add	x1, x8, #0xf
   87f8c:	b90067e0 	str	w0, [sp, #100]
   87f90:	927df020 	and	x0, x1, #0xfffffffffffffff8
   87f94:	f90037e0 	str	x0, [sp, #104]
   87f98:	17fffcc6 	b	872b0 <Process_Out.constprop.2+0x3578>
   87f9c:	5100079c 	sub	w28, w28, #0x1
   87fa0:	11000725 	add	w5, w25, #0x1
   87fa4:	0b3c80b9 	add	w25, w5, w28, sxtb
   87fa8:	17fffae1 	b	86b2c <Process_Out.constprop.2+0x2df4>
   87fac:	b4fe404b 	cbz	x11, 847b4 <Process_Out.constprop.2+0xa7c>
   87fb0:	52800601 	mov	w1, #0x30                  	// #48
   87fb4:	3829c961 	strb	w1, [x11, w9, sxtw]
   87fb8:	11000529 	add	w9, w9, #0x1
   87fbc:	52800b01 	mov	w1, #0x58                  	// #88
   87fc0:	2a0101ce 	orr	w14, w14, w1
   87fc4:	b9000669 	str	w9, [x19, #4]
   87fc8:	17fff1f7 	b	847a4 <Process_Out.constprop.2+0xa6c>
   87fcc:	b4fffe88 	cbz	x8, 87f9c <Process_Out.constprop.2+0x4264>
   87fd0:	51000422 	sub	w2, w1, #0x1
   87fd4:	8b26c101 	add	x1, x8, w6, sxtw
   87fd8:	92401c42 	and	x2, x2, #0xff
   87fdc:	52800408 	mov	w8, #0x20                  	// #32
   87fe0:	91000442 	add	x2, x2, #0x1
   87fe4:	8b010042 	add	x2, x2, x1
   87fe8:	38001428 	strb	w8, [x1], #1
   87fec:	eb01005f 	cmp	x2, x1
   87ff0:	54ffffc1 	b.ne	87fe8 <Process_Out.constprop.2+0x42b0>  // b.any
   87ff4:	51000781 	sub	w1, w28, #0x1
   87ff8:	11000725 	add	w5, w25, #0x1
   87ffc:	110004c6 	add	w6, w6, #0x1
   88000:	13001c21 	sxtb	w1, w1
   88004:	0b0100c6 	add	w6, w6, w1
   88008:	0b0100b9 	add	w25, w5, w1
   8800c:	b9000666 	str	w6, [x19, #4]
   88010:	17fffac7 	b	86b2c <Process_Out.constprop.2+0x2df4>
   88014:	2a1603e0 	mov	w0, w22
   88018:	4b0002c1 	sub	w1, w22, w0
   8801c:	11000400 	add	w0, w0, #0x1
   88020:	0b010241 	add	w1, w18, w1
   88024:	6b21823f 	cmp	w17, w1, sxtb
   88028:	54ffff8b 	b.lt	88018 <Process_Out.constprop.2+0x42e0>  // b.tstop
   8802c:	2a0203e9 	mov	w9, w2
   88030:	17fff8bb 	b	8631c <Process_Out.constprop.2+0x25e4>
   88034:	b4fe564a 	cbz	x10, 84afc <Process_Out.constprop.2+0xdc4>
   88038:	52800601 	mov	w1, #0x30                  	// #48
   8803c:	3829c941 	strb	w1, [x10, w9, sxtw]
   88040:	11000529 	add	w9, w9, #0x1
   88044:	52800b01 	mov	w1, #0x58                  	// #88
   88048:	2a0101ef 	orr	w15, w15, w1
   8804c:	b9000669 	str	w9, [x19, #4]
   88050:	17fff2a7 	b	84aec <Process_Out.constprop.2+0xdb4>
   88054:	b94067e0 	ldr	w0, [sp, #100]
   88058:	11002000 	add	w0, w0, #0x8
   8805c:	7100001f 	cmp	w0, #0x0
   88060:	540018cd 	b.le	88378 <Process_Out.constprop.2+0x4640>
   88064:	91003d01 	add	x1, x8, #0xf
   88068:	b90067e0 	str	w0, [sp, #100]
   8806c:	927df020 	and	x0, x1, #0xfffffffffffffff8
   88070:	f90037e0 	str	x0, [sp, #104]
   88074:	17fff77d 	b	85e68 <Process_Out.constprop.2+0x2130>
   88078:	b4feadea 	cbz	x10, 85634 <Process_Out.constprop.2+0x18fc>
   8807c:	52800601 	mov	w1, #0x30                  	// #48
   88080:	3829c941 	strb	w1, [x10, w9, sxtw]
   88084:	11000529 	add	w9, w9, #0x1
   88088:	52800b01 	mov	w1, #0x58                  	// #88
   8808c:	2a0101ef 	orr	w15, w15, w1
   88090:	b9000669 	str	w9, [x19, #4]
   88094:	17fff564 	b	85624 <Process_Out.constprop.2+0x18ec>
   88098:	2a0203e9 	mov	w9, w2
   8809c:	2a1603e0 	mov	w0, w22
   880a0:	17fff89f 	b	8631c <Process_Out.constprop.2+0x25e4>
   880a4:	b4fe0e8b 	cbz	x11, 84274 <Process_Out.constprop.2+0x53c>
   880a8:	52800601 	mov	w1, #0x30                  	// #48
   880ac:	3829c961 	strb	w1, [x11, w9, sxtw]
   880b0:	11000529 	add	w9, w9, #0x1
   880b4:	52800b01 	mov	w1, #0x58                  	// #88
   880b8:	2a0101ce 	orr	w14, w14, w1
   880bc:	b9000669 	str	w9, [x19, #4]
   880c0:	17fff069 	b	84264 <Process_Out.constprop.2+0x52c>
   880c4:	f9403fe2 	ldr	x2, [sp, #120]
   880c8:	f90037e8 	str	x8, [sp, #104]
   880cc:	b94067e1 	ldr	w1, [sp, #100]
   880d0:	b90067e0 	str	w0, [sp, #100]
   880d4:	8b21c041 	add	x1, x2, w1, sxtw
   880d8:	aa0103e8 	mov	x8, x1
   880dc:	17fffb0d 	b	86d10 <Process_Out.constprop.2+0x2fd8>
   880e0:	3100055f 	cmn	w10, #0x1
   880e4:	54000060 	b.eq	880f0 <Process_Out.constprop.2+0x43b8>  // b.none
   880e8:	6b0a013f 	cmp	w9, w10
   880ec:	540000ca 	b.ge	88104 <Process_Out.constprop.2+0x43cc>  // b.tcont
   880f0:	b40000ac 	cbz	x12, 88104 <Process_Out.constprop.2+0x43cc>
   880f4:	52800601 	mov	w1, #0x30                  	// #48
   880f8:	3829c981 	strb	w1, [x12, w9, sxtw]
   880fc:	11000529 	add	w9, w9, #0x1
   88100:	b9000669 	str	w9, [x19, #4]
   88104:	11000400 	add	w0, w0, #0x1
   88108:	b9400669 	ldr	w9, [x19, #4]
   8810c:	17fff8a6 	b	863a4 <Process_Out.constprop.2+0x266c>
   88110:	110004c6 	add	w6, w6, #0x1
   88114:	52800600 	mov	w0, #0x30                  	// #48
   88118:	97ffeef8 	bl	83cf8 <Buffer_WriteChar>
   8811c:	17fff955 	b	86670 <Process_Out.constprop.2+0x2938>
   88120:	2a1603e6 	mov	w6, w22
   88124:	4b0602c0 	sub	w0, w22, w6
   88128:	110004c6 	add	w6, w6, #0x1
   8812c:	0b000040 	add	w0, w2, w0
   88130:	6b2081ff 	cmp	w15, w0, sxtb
   88134:	54ffff8b 	b.lt	88124 <Process_Out.constprop.2+0x43ec>  // b.tstop
   88138:	17fff93f 	b	86634 <Process_Out.constprop.2+0x28fc>
   8813c:	b4ffa8e9 	cbz	x9, 87658 <Process_Out.constprop.2+0x3920>
   88140:	52800601 	mov	w1, #0x30                  	// #48
   88144:	3828c921 	strb	w1, [x9, w8, sxtw]
   88148:	11000508 	add	w8, w8, #0x1
   8814c:	52800b01 	mov	w1, #0x58                  	// #88
   88150:	2a0101ad 	orr	w13, w13, w1
   88154:	b9000668 	str	w8, [x19, #4]
   88158:	17fffd3c 	b	87648 <Process_Out.constprop.2+0x3910>
   8815c:	51000b9c 	sub	w28, w28, #0x2
   88160:	11000725 	add	w5, w25, #0x1
   88164:	0b3c00b9 	add	w25, w5, w28, uxtb
   88168:	5280001c 	mov	w28, #0x0                   	// #0
   8816c:	17fff390 	b	84fac <Process_Out.constprop.2+0x1274>
   88170:	2a1603e6 	mov	w6, w22
   88174:	17fff930 	b	86634 <Process_Out.constprop.2+0x28fc>
   88178:	2a0903e1 	mov	w1, w9
   8817c:	7100025f 	cmp	w18, #0x0
   88180:	54fea92c 	b.gt	856a4 <Process_Out.constprop.2+0x196c>
   88184:	0b0d0339 	add	w25, w25, w13
   88188:	17ffef1d 	b	83dfc <Process_Out.constprop.2+0xc4>
   8818c:	51000980 	sub	w0, w12, #0x2
   88190:	2a0a03ec 	mov	w12, w10
   88194:	2a0003ea 	mov	w10, w0
   88198:	17fff693 	b	85be4 <Process_Out.constprop.2+0x1eac>
   8819c:	2a0803ea 	mov	w10, w8
   881a0:	51000508 	sub	w8, w8, #0x1
   881a4:	17fff90c 	b	865d4 <Process_Out.constprop.2+0x289c>
   881a8:	2a0803e1 	mov	w1, w8
   881ac:	7100025f 	cmp	w18, #0x0
   881b0:	54fe8c2c 	b.gt	85334 <Process_Out.constprop.2+0x15fc>
   881b4:	0b060339 	add	w25, w25, w6
   881b8:	17ffef11 	b	83dfc <Process_Out.constprop.2+0xc4>
   881bc:	2a0803ec 	mov	w12, w8
   881c0:	51000508 	sub	w8, w8, #0x1
   881c4:	17fff5c5 	b	858d8 <Process_Out.constprop.2+0x1ba0>
   881c8:	2a0a03ec 	mov	w12, w10
   881cc:	5100054a 	sub	w10, w10, #0x1
   881d0:	17fff6a0 	b	85c50 <Process_Out.constprop.2+0x1f18>
   881d4:	2a0903e1 	mov	w1, w9
   881d8:	7100025f 	cmp	w18, #0x0
   881dc:	54fe4c8c 	b.gt	84b6c <Process_Out.constprop.2+0xe34>
   881e0:	0b060339 	add	w25, w25, w6
   881e4:	17ffef06 	b	83dfc <Process_Out.constprop.2+0xc4>
   881e8:	510009a0 	sub	w0, w13, #0x2
   881ec:	2a0803ed 	mov	w13, w8
   881f0:	2a0003e8 	mov	w8, w0
   881f4:	17fff814 	b	86244 <Process_Out.constprop.2+0x250c>
   881f8:	f9403fe2 	ldr	x2, [sp, #120]
   881fc:	f90037e8 	str	x8, [sp, #104]
   88200:	b94067e1 	ldr	w1, [sp, #100]
   88204:	b90067e0 	str	w0, [sp, #100]
   88208:	8b21c041 	add	x1, x2, w1, sxtw
   8820c:	aa0103e8 	mov	x8, x1
   88210:	17fffc28 	b	872b0 <Process_Out.constprop.2+0x3578>
   88214:	51000940 	sub	w0, w10, #0x2
   88218:	2a0803ea 	mov	w10, w8
   8821c:	2a0003e8 	mov	w8, w0
   88220:	17fff8cf 	b	8655c <Process_Out.constprop.2+0x2824>
   88224:	b4fed88b 	cbz	x11, 85d34 <Process_Out.constprop.2+0x1ffc>
   88228:	52800601 	mov	w1, #0x30                  	// #48
   8822c:	3828c961 	strb	w1, [x11, w8, sxtw]
   88230:	11000508 	add	w8, w8, #0x1
   88234:	52800b01 	mov	w1, #0x58                  	// #88
   88238:	2a0101ef 	orr	w15, w15, w1
   8823c:	b9000668 	str	w8, [x19, #4]
   88240:	17fff6b9 	b	85d24 <Process_Out.constprop.2+0x1fec>
   88244:	2a0903e1 	mov	w1, w9
   88248:	7100023f 	cmp	w17, #0x0
   8824c:	54fe2ecc 	b.gt	84824 <Process_Out.constprop.2+0xaec>
   88250:	0b060339 	add	w25, w25, w6
   88254:	17ffeeea 	b	83dfc <Process_Out.constprop.2+0xc4>
   88258:	51000980 	sub	w0, w12, #0x2
   8825c:	2a0803ec 	mov	w12, w8
   88260:	2a0003e8 	mov	w8, w0
   88264:	17fff580 	b	85864 <Process_Out.constprop.2+0x1b2c>
   88268:	2a0903e1 	mov	w1, w9
   8826c:	7100023f 	cmp	w17, #0x0
   88270:	54fe03ac 	b.gt	842e4 <Process_Out.constprop.2+0x5ac>
   88274:	0b060339 	add	w25, w25, w6
   88278:	17ffeee1 	b	83dfc <Process_Out.constprop.2+0xc4>
   8827c:	b4feba0b 	cbz	x11, 859bc <Process_Out.constprop.2+0x1c84>
   88280:	52800601 	mov	w1, #0x30                  	// #48
   88284:	3829c961 	strb	w1, [x11, w9, sxtw]
   88288:	11000529 	add	w9, w9, #0x1
   8828c:	52800b01 	mov	w1, #0x58                  	// #88
   88290:	2a0101ef 	orr	w15, w15, w1
   88294:	b9000669 	str	w9, [x19, #4]
   88298:	17fff5c5 	b	859ac <Process_Out.constprop.2+0x1c74>
   8829c:	f9403fe2 	ldr	x2, [sp, #120]
   882a0:	f90037e8 	str	x8, [sp, #104]
   882a4:	b94067e1 	ldr	w1, [sp, #100]
   882a8:	b90067e0 	str	w0, [sp, #100]
   882ac:	8b21c041 	add	x1, x2, w1, sxtw
   882b0:	aa0103e8 	mov	x8, x1
   882b4:	17fff6e0 	b	85e34 <Process_Out.constprop.2+0x20fc>
   882b8:	2a0803ed 	mov	w13, w8
   882bc:	51000508 	sub	w8, w8, #0x1
   882c0:	17fff7fe 	b	862b8 <Process_Out.constprop.2+0x2580>
   882c4:	b94067e0 	ldr	w0, [sp, #100]
   882c8:	11002000 	add	w0, w0, #0x8
   882cc:	7100001f 	cmp	w0, #0x0
   882d0:	5400016d 	b.le	882fc <Process_Out.constprop.2+0x45c4>
   882d4:	91003d01 	add	x1, x8, #0xf
   882d8:	b90067e0 	str	w0, [sp, #100]
   882dc:	927df020 	and	x0, x1, #0xfffffffffffffff8
   882e0:	f90037e0 	str	x0, [sp, #104]
   882e4:	17fffee7 	b	87e80 <Process_Out.constprop.2+0x4148>
   882e8:	2a0703e1 	mov	w1, w7
   882ec:	7100015f 	cmp	w10, #0x0
   882f0:	54ff1f8c 	b.gt	866e0 <Process_Out.constprop.2+0x29a8>
   882f4:	0b000339 	add	w25, w25, w0
   882f8:	17ffeec1 	b	83dfc <Process_Out.constprop.2+0xc4>
   882fc:	f9403fe2 	ldr	x2, [sp, #120]
   88300:	f90037e8 	str	x8, [sp, #104]
   88304:	b94067e1 	ldr	w1, [sp, #100]
   88308:	b90067e0 	str	w0, [sp, #100]
   8830c:	8b21c041 	add	x1, x2, w1, sxtw
   88310:	aa0103e8 	mov	x8, x1
   88314:	17fffedb 	b	87e80 <Process_Out.constprop.2+0x4148>
   88318:	2a0803e1 	mov	w1, w8
   8831c:	7100019f 	cmp	w12, #0x0
   88320:	54fed44c 	b.gt	85da8 <Process_Out.constprop.2+0x2070>
   88324:	0b060339 	add	w25, w25, w6
   88328:	17ffeeb5 	b	83dfc <Process_Out.constprop.2+0xc4>
   8832c:	b9400669 	ldr	w9, [x19, #4]
   88330:	17fff121 	b	847b4 <Process_Out.constprop.2+0xa7c>
   88334:	b9400669 	ldr	w9, [x19, #4]
   88338:	17fff4bf 	b	85634 <Process_Out.constprop.2+0x18fc>
   8833c:	b9400668 	ldr	w8, [x19, #4]
   88340:	11000800 	add	w0, w0, #0x2
   88344:	17fff3e1 	b	852c8 <Process_Out.constprop.2+0x1590>
   88348:	b9400669 	ldr	w9, [x19, #4]
   8834c:	17ffefca 	b	84274 <Process_Out.constprop.2+0x53c>
   88350:	2a0903e1 	mov	w1, w9
   88354:	7100019f 	cmp	w12, #0x0
   88358:	54feb6cc 	b.gt	85a30 <Process_Out.constprop.2+0x1cf8>
   8835c:	0b060339 	add	w25, w25, w6
   88360:	17ffeea7 	b	83dfc <Process_Out.constprop.2+0xc4>
   88364:	2a0903e1 	mov	w1, w9
   88368:	710001bf 	cmp	w13, #0x0
   8836c:	54ff052c 	b.gt	86410 <Process_Out.constprop.2+0x26d8>
   88370:	0b020339 	add	w25, w25, w2
   88374:	17ffeea2 	b	83dfc <Process_Out.constprop.2+0xc4>
   88378:	f9403fe2 	ldr	x2, [sp, #120]
   8837c:	f90037e8 	str	x8, [sp, #104]
   88380:	b94067e1 	ldr	w1, [sp, #100]
   88384:	b90067e0 	str	w0, [sp, #100]
   88388:	8b21c041 	add	x1, x2, w1, sxtw
   8838c:	aa0103e8 	mov	x8, x1
   88390:	17fff6b6 	b	85e68 <Process_Out.constprop.2+0x2130>
   88394:	b4ff004c 	cbz	x12, 8639c <Process_Out.constprop.2+0x2664>
   88398:	52800601 	mov	w1, #0x30                  	// #48
   8839c:	3829c981 	strb	w1, [x12, w9, sxtw]
   883a0:	11000529 	add	w9, w9, #0x1
   883a4:	52800b01 	mov	w1, #0x58                  	// #88
   883a8:	2a0101ef 	orr	w15, w15, w1
   883ac:	b9000669 	str	w9, [x19, #4]
   883b0:	17fff7f7 	b	8638c <Process_Out.constprop.2+0x2654>
   883b4:	b9400669 	ldr	w9, [x19, #4]
   883b8:	17fff1d1 	b	84afc <Process_Out.constprop.2+0xdc4>
   883bc:	d503201f 	nop

00000000000883c0 <snprintf.constprop.1>:
   883c0:	a9ae53f3 	stp	x19, x20, [sp, #-288]!
   883c4:	f0000074 	adrp	x20, 97000 <__bss_start__>
   883c8:	52804001 	mov	w1, #0x200                 	// #512
   883cc:	9103c3e9 	add	x9, sp, #0xf0
   883d0:	91004293 	add	x19, x20, #0x10
   883d4:	a9017bf5 	stp	x21, x30, [sp, #16]
   883d8:	aa0003f5 	mov	x21, x0
   883dc:	aa0203e0 	mov	x0, x2
   883e0:	f90017e2 	str	x2, [sp, #40]
   883e4:	910483e2 	add	x2, sp, #0x120
   883e8:	128004e8 	mov	w8, #0xffffffd8            	// #-40
   883ec:	b9001281 	str	w1, [x20, #16]
   883f0:	12800fe1 	mov	w1, #0xffffff80            	// #-128
   883f4:	b900067f 	str	wzr, [x19, #4]
   883f8:	f9000675 	str	x21, [x19, #8]
   883fc:	a9050be2 	stp	x2, x2, [sp, #80]
   88400:	f90033e9 	str	x9, [sp, #96]
   88404:	290d07e8 	stp	w8, w1, [sp, #104]
   88408:	3d801fe0 	str	q0, [sp, #112]
   8840c:	3d8023e1 	str	q1, [sp, #128]
   88410:	3d8027e2 	str	q2, [sp, #144]
   88414:	3d802be3 	str	q3, [sp, #160]
   88418:	3d802fe4 	str	q4, [sp, #176]
   8841c:	3d8033e5 	str	q5, [sp, #192]
   88420:	3d8037e6 	str	q6, [sp, #208]
   88424:	3d803be7 	str	q7, [sp, #224]
   88428:	a90f93e3 	stp	x3, x4, [sp, #248]
   8842c:	a9109be5 	stp	x5, x6, [sp, #264]
   88430:	f9008fe7 	str	x7, [sp, #280]
   88434:	940013d3 	bl	8d380 <strlen>
   88438:	a9451fe6 	ldp	x6, x7, [sp, #80]
   8843c:	aa0003e1 	mov	x1, x0
   88440:	a94617e4 	ldp	x4, x5, [sp, #96]
   88444:	a9031fe6 	stp	x6, x7, [sp, #48]
   88448:	f94017e2 	ldr	x2, [sp, #40]
   8844c:	a90417e4 	stp	x4, x5, [sp, #64]
   88450:	aa0203e0 	mov	x0, x2
   88454:	9100c3e2 	add	x2, sp, #0x30
   88458:	97ffee38 	bl	83d38 <Process_Out.constprop.2>
   8845c:	b9401282 	ldr	w2, [x20, #16]
   88460:	3100045f 	cmn	w2, #0x1
   88464:	54000140 	b.eq	8848c <snprintf.constprop.1+0xcc>  // b.none
   88468:	b9400663 	ldr	w3, [x19, #4]
   8846c:	f9400661 	ldr	x1, [x19, #8]
   88470:	6b03005f 	cmp	w2, w3
   88474:	540000ec 	b.gt	88490 <snprintf.constprop.1+0xd0>
   88478:	eb15003f 	cmp	x1, x21
   8847c:	54000180 	b.eq	884ac <snprintf.constprop.1+0xec>  // b.none
   88480:	a9417bf5 	ldp	x21, x30, [sp, #16]
   88484:	a8d253f3 	ldp	x19, x20, [sp], #288
   88488:	d65f03c0 	ret
   8848c:	f9400661 	ldr	x1, [x19, #8]
   88490:	b4ffff41 	cbz	x1, 88478 <snprintf.constprop.1+0xb8>
   88494:	b9400662 	ldr	w2, [x19, #4]
   88498:	eb15003f 	cmp	x1, x21
   8849c:	11000443 	add	w3, w2, #0x1
   884a0:	b9000663 	str	w3, [x19, #4]
   884a4:	3822c83f 	strb	wzr, [x1, w2, sxtw]
   884a8:	54fffec1 	b.ne	88480 <snprintf.constprop.1+0xc0>  // b.any
   884ac:	f900067f 	str	xzr, [x19, #8]
   884b0:	a9417bf5 	ldp	x21, x30, [sp, #16]
   884b4:	a8d253f3 	ldp	x19, x20, [sp], #288
   884b8:	d65f03c0 	ret
   884bc:	d503201f 	nop

00000000000884c0 <vsscanf>:
   884c0:	d11643ff 	sub	sp, sp, #0x590
   884c4:	f100003f 	cmp	x1, #0x0
   884c8:	a90053f3 	stp	x19, x20, [sp]
   884cc:	aa0003f3 	mov	x19, x0
   884d0:	1a9f17e0 	cset	w0, eq  // eq = none
   884d4:	f9002bfe 	str	x30, [sp, #80]
   884d8:	f100027f 	cmp	x19, #0x0
   884dc:	1a9f1400 	csinc	w0, w0, wzr, ne  // ne = any
   884e0:	350040a0 	cbnz	w0, 88cf4 <vsscanf+0x834>
   884e4:	a90263f7 	stp	x23, x24, [sp, #32]
   884e8:	a9036bf9 	stp	x25, x26, [sp, #48]
   884ec:	910243f9 	add	x25, sp, #0x90
   884f0:	b940185a 	ldr	w26, [x2, #24]
   884f4:	a9400058 	ldp	x24, x0, [x2]
   884f8:	fd002fe8 	str	d8, [sp, #88]
   884fc:	0f000548 	movi	v8.2s, #0xa
   88500:	a90473fb 	stp	x27, x28, [sp, #64]
   88504:	aa0103fc 	mov	x28, x1
   88508:	a9015bf5 	stp	x21, x22, [sp, #16]
   8850c:	b90067ff 	str	wzr, [sp, #100]
   88510:	b9006fff 	str	wzr, [sp, #108]
   88514:	f9003be0 	str	x0, [sp, #112]
   88518:	290f7fff 	stp	wzr, wzr, [sp, #120]
   8851c:	39400260 	ldrb	w0, [x19]
   88520:	34000260 	cbz	w0, 8856c <vsscanf+0xac>
   88524:	39400380 	ldrb	w0, [x28]
   88528:	35000060 	cbnz	w0, 88534 <vsscanf+0x74>
   8852c:	14000010 	b	8856c <vsscanf+0xac>
   88530:	9100079c 	add	x28, x28, #0x1
   88534:	94001255 	bl	8ce88 <__locale_ctype_ptr>
   88538:	39400381 	ldrb	w1, [x28]
   8853c:	8b210000 	add	x0, x0, w1, uxtb
   88540:	39400400 	ldrb	w0, [x0, #1]
   88544:	371fff60 	tbnz	w0, #3, 88530 <vsscanf+0x70>
   88548:	7100943f 	cmp	w1, #0x25
   8854c:	54000240 	b.eq	88594 <vsscanf+0xd4>  // b.none
   88550:	39400260 	ldrb	w0, [x19]
   88554:	6b01001f 	cmp	w0, w1
   88558:	540000a1 	b.ne	8856c <vsscanf+0xac>  // b.any
   8855c:	91000673 	add	x19, x19, #0x1
   88560:	39400260 	ldrb	w0, [x19]
   88564:	9100079c 	add	x28, x28, #0x1
   88568:	35fffde0 	cbnz	w0, 88524 <vsscanf+0x64>
   8856c:	b94067e0 	ldr	w0, [sp, #100]
   88570:	a94053f3 	ldp	x19, x20, [sp]
   88574:	a9415bf5 	ldp	x21, x22, [sp, #16]
   88578:	a94263f7 	ldp	x23, x24, [sp, #32]
   8857c:	a9436bf9 	ldp	x25, x26, [sp, #48]
   88580:	a94473fb 	ldp	x27, x28, [sp, #64]
   88584:	f9402bfe 	ldr	x30, [sp, #80]
   88588:	fd402fe8 	ldr	d8, [sp, #88]
   8858c:	911643ff 	add	sp, sp, #0x590
   88590:	d65f03c0 	ret
   88594:	39400780 	ldrb	w0, [x28, #1]
   88598:	9100079b 	add	x27, x28, #0x1
   8859c:	7100a81f 	cmp	w0, #0x2a
   885a0:	54000081 	b.ne	885b0 <vsscanf+0xf0>  // b.any
   885a4:	91000673 	add	x19, x19, #0x1
   885a8:	52800020 	mov	w0, #0x1                   	// #1
   885ac:	b9006fe0 	str	w0, [sp, #108]
   885b0:	94001236 	bl	8ce88 <__locale_ctype_ptr>
   885b4:	39400796 	ldrb	w22, [x28, #1]
   885b8:	8b360000 	add	x0, x0, w22, uxtb
   885bc:	39400400 	ldrb	w0, [x0, #1]
   885c0:	37102b60 	tbnz	w0, #2, 88b2c <vsscanf+0x66c>
   885c4:	91000b95 	add	x21, x28, #0x2
   885c8:	52802017 	mov	w23, #0x100                 	// #256
   885cc:	121d7ac0 	and	w0, w22, #0xfffffffb
   885d0:	7101a01f 	cmp	w0, #0x68
   885d4:	54002981 	b.ne	88b04 <vsscanf+0x644>  // b.any
   885d8:	39400774 	ldrb	w20, [x27, #1]
   885dc:	910006bc 	add	x28, x21, #0x1
   885e0:	6b16029f 	cmp	w20, w22
   885e4:	540000e1 	b.ne	88600 <vsscanf+0x140>  // b.any
   885e8:	91000aa0 	add	x0, x21, #0x2
   885ec:	39400b74 	ldrb	w20, [x27, #2]
   885f0:	aa1c03f5 	mov	x21, x28
   885f4:	aa0003fc 	mov	x28, x0
   885f8:	52800021 	mov	w1, #0x1                   	// #1
   885fc:	b9007fe1 	str	w1, [sp, #124]
   88600:	7101e29f 	cmp	w20, #0x78
   88604:	540002a8 	b.hi	88658 <vsscanf+0x198>  // b.pmore
   88608:	90000060 	adrp	x0, 94000 <__trunctfdf2+0x1f8>
   8860c:	910f8000 	add	x0, x0, #0x3e0
   88610:	78745800 	ldrh	w0, [x0, w20, uxtw #1]
   88614:	10000061 	adr	x1, 88620 <vsscanf+0x160>
   88618:	8b20a820 	add	x0, x1, w0, sxth #2
   8861c:	d61f0000 	br	x0
   88620:	91000673 	add	x19, x19, #0x1
   88624:	94001219 	bl	8ce88 <__locale_ctype_ptr>
   88628:	39400261 	ldrb	w1, [x19]
   8862c:	5100b422 	sub	w2, w1, #0x2d
   88630:	8b210000 	add	x0, x0, w1, uxtb
   88634:	12001c42 	and	w2, w2, #0xff
   88638:	39400400 	ldrb	w0, [x0, #1]
   8863c:	f27e001f 	tst	x0, #0x4
   88640:	7a410840 	ccmp	w2, #0x1, #0x0, eq  // eq = none
   88644:	1a9f97e0 	cset	w0, hi  // hi = pmore
   88648:	7100ac3f 	cmp	w1, #0x2b
   8864c:	7a401824 	ccmp	w1, #0x0, #0x4, ne  // ne = any
   88650:	1a9f1000 	csel	w0, w0, wzr, ne  // ne = any
   88654:	35fffe60 	cbnz	w0, 88620 <vsscanf+0x160>
   88658:	71016e9f 	cmp	w20, #0x5b
   8865c:	54000900 	b.eq	8877c <vsscanf+0x2bc>  // b.none
   88660:	39400261 	ldrb	w1, [x19]
   88664:	34fff841 	cbz	w1, 8856c <vsscanf+0xac>
   88668:	39400660 	ldrb	w0, [x19, #1]
   8866c:	9100067b 	add	x27, x19, #0x1
   88670:	34fff7e0 	cbz	w0, 8856c <vsscanf+0xac>
   88674:	71019e9f 	cmp	w20, #0x67
   88678:	54001f09 	b.ls	88a58 <vsscanf+0x598>  // b.plast
   8867c:	7101c29f 	cmp	w20, #0x70
   88680:	54003460 	b.eq	88d0c <vsscanf+0x84c>  // b.none
   88684:	54001869 	b.ls	88990 <vsscanf+0x4d0>  // b.plast
   88688:	7101d69f 	cmp	w20, #0x75
   8868c:	540012c0 	b.eq	888e4 <vsscanf+0x424>  // b.none
   88690:	7101e29f 	cmp	w20, #0x78
   88694:	54000e80 	b.eq	88864 <vsscanf+0x3a4>  // b.none
   88698:	7101ce9f 	cmp	w20, #0x73
   8869c:	540000a0 	b.eq	886b0 <vsscanf+0x1f0>  // b.none
   886a0:	1400007c 	b	88890 <vsscanf+0x3d0>
   886a4:	34000157 	cbz	w23, 886cc <vsscanf+0x20c>
   886a8:	9100077b 	add	x27, x27, #0x1
   886ac:	510006f7 	sub	w23, w23, #0x1
   886b0:	940011f6 	bl	8ce88 <__locale_ctype_ptr>
   886b4:	39400361 	ldrb	w1, [x27]
   886b8:	8b210000 	add	x0, x0, w1, uxtb
   886bc:	39400400 	ldrb	w0, [x0, #1]
   886c0:	f27d001f 	tst	x0, #0x8
   886c4:	7a400824 	ccmp	w1, #0x0, #0x4, eq  // eq = none
   886c8:	54fffee1 	b.ne	886a4 <vsscanf+0x1e4>  // b.any
   886cc:	cb130362 	sub	x2, x27, x19
   886d0:	aa1303e1 	mov	x1, x19
   886d4:	2a0203f4 	mov	w20, w2
   886d8:	aa1b03f3 	mov	x19, x27
   886dc:	93407c42 	sxtw	x2, w2
   886e0:	aa1903e0 	mov	x0, x25
   886e4:	940013c1 	bl	8d5e8 <strncpy>
   886e8:	3834cb3f 	strb	wzr, [x25, w20, sxtw]
   886ec:	b9406fe0 	ldr	w0, [sp, #108]
   886f0:	35000220 	cbnz	w0, 88734 <vsscanf+0x274>
   886f4:	340046f6 	cbz	w22, 88fd0 <vsscanf+0xb10>
   886f8:	7101b2df 	cmp	w22, #0x6c
   886fc:	540001c1 	b.ne	88734 <vsscanf+0x274>  // b.any
   88700:	aa1903e0 	mov	x0, x25
   88704:	9400131f 	bl	8d380 <strlen>
   88708:	aa1903e1 	mov	x1, x25
   8870c:	91000402 	add	x2, x0, #0x1
   88710:	910643e0 	add	x0, sp, #0x190
   88714:	940011e7 	bl	8ceb0 <mbstowcs>
   88718:	37f83b9a 	tbnz	w26, #31, 88e88 <vsscanf+0x9c8>
   8871c:	91003f01 	add	x1, x24, #0xf
   88720:	aa1803e0 	mov	x0, x24
   88724:	927df038 	and	x24, x1, #0xfffffffffffffff8
   88728:	f9400000 	ldr	x0, [x0]
   8872c:	910643e1 	add	x1, sp, #0x190
   88730:	94001afa 	bl	8f318 <wcscpy>
   88734:	b94067e0 	ldr	w0, [sp, #100]
   88738:	11000400 	add	w0, w0, #0x1
   8873c:	b90067e0 	str	w0, [sp, #100]
   88740:	17ffff77 	b	8851c <vsscanf+0x5c>
   88744:	91000673 	add	x19, x19, #0x1
   88748:	940011d0 	bl	8ce88 <__locale_ctype_ptr>
   8874c:	39400261 	ldrb	w1, [x19]
   88750:	52801fa2 	mov	w2, #0xfd                  	// #253
   88754:	5100ac24 	sub	w4, w1, #0x2b
   88758:	8b210000 	add	x0, x0, w1, uxtb
   8875c:	6a02009f 	tst	w4, w2
   88760:	7a401824 	ccmp	w1, #0x0, #0x4, ne  // ne = any
   88764:	39400400 	ldrb	w0, [x0, #1]
   88768:	121e0000 	and	w0, w0, #0x4
   8876c:	7a401800 	ccmp	w0, #0x0, #0x0, ne  // ne = any
   88770:	54fffea0 	b.eq	88744 <vsscanf+0x284>  // b.none
   88774:	71016e9f 	cmp	w20, #0x5b
   88778:	54fff741 	b.ne	88660 <vsscanf+0x1a0>  // b.any
   8877c:	394006a0 	ldrb	w0, [x21, #1]
   88780:	34ffef60 	cbz	w0, 8856c <vsscanf+0xac>
   88784:	39400780 	ldrb	w0, [x28, #1]
   88788:	91000782 	add	x2, x28, #0x1
   8878c:	34ffef00 	cbz	w0, 8856c <vsscanf+0xac>
   88790:	7101741f 	cmp	w0, #0x5d
   88794:	7a401804 	ccmp	w0, #0x0, #0x4, ne  // ne = any
   88798:	540000c0 	b.eq	887b0 <vsscanf+0x2f0>  // b.none
   8879c:	d503201f 	nop
   887a0:	38401c40 	ldrb	w0, [x2, #1]!
   887a4:	7101741f 	cmp	w0, #0x5d
   887a8:	7a401804 	ccmp	w0, #0x0, #0x4, ne  // ne = any
   887ac:	54ffffa1 	b.ne	887a0 <vsscanf+0x2e0>  // b.any
   887b0:	71016e9f 	cmp	w20, #0x5b
   887b4:	54005401 	b.ne	89234 <vsscanf+0xd74>  // b.any
   887b8:	cb1c0054 	sub	x20, x2, x28
   887bc:	aa1c03e1 	mov	x1, x28
   887c0:	aa1903e0 	mov	x0, x25
   887c4:	aa0203fc 	mov	x28, x2
   887c8:	93407e94 	sxtw	x20, w20
   887cc:	aa1403e2 	mov	x2, x20
   887d0:	94001386 	bl	8d5e8 <strncpy>
   887d4:	38346b3f 	strb	wzr, [x25, x20]
   887d8:	b9407be0 	ldr	w0, [sp, #120]
   887dc:	0b1302f7 	add	w23, w23, w19
   887e0:	34001f00 	cbz	w0, 88bc0 <vsscanf+0x700>
   887e4:	39400261 	ldrb	w1, [x19]
   887e8:	aa1903e0 	mov	x0, x25
   887ec:	9400123d 	bl	8d0e0 <strchr>
   887f0:	f100001f 	cmp	x0, #0x0
   887f4:	7a5302e4 	ccmp	w23, w19, #0x4, eq  // eq = none
   887f8:	54ffe920 	b.eq	8851c <vsscanf+0x5c>  // b.none
   887fc:	d503201f 	nop
   88800:	91000673 	add	x19, x19, #0x1
   88804:	39400261 	ldrb	w1, [x19]
   88808:	aa1903e0 	mov	x0, x25
   8880c:	94001235 	bl	8d0e0 <strchr>
   88810:	f100001f 	cmp	x0, #0x0
   88814:	7a5302e4 	ccmp	w23, w19, #0x4, eq  // eq = none
   88818:	54ffff41 	b.ne	88800 <vsscanf+0x340>  // b.any
   8881c:	17ffff40 	b	8851c <vsscanf+0x5c>
   88820:	91000673 	add	x19, x19, #0x1
   88824:	94001199 	bl	8ce88 <__locale_ctype_ptr>
   88828:	39400261 	ldrb	w1, [x19]
   8882c:	8b210000 	add	x0, x0, w1, uxtb
   88830:	39400400 	ldrb	w0, [x0, #1]
   88834:	f27e001f 	tst	x0, #0x4
   88838:	7a400824 	ccmp	w1, #0x0, #0x4, eq  // eq = none
   8883c:	54ffff21 	b.ne	88820 <vsscanf+0x360>  // b.any
   88840:	17ffff86 	b	88658 <vsscanf+0x198>
   88844:	91000673 	add	x19, x19, #0x1
   88848:	94001190 	bl	8ce88 <__locale_ctype_ptr>
   8884c:	39400261 	ldrb	w1, [x19]
   88850:	8b010000 	add	x0, x0, x1
   88854:	39400400 	ldrb	w0, [x0, #1]
   88858:	371fff60 	tbnz	w0, #3, 88844 <vsscanf+0x384>
   8885c:	17ffff7f 	b	88658 <vsscanf+0x198>
   88860:	9100077b 	add	x27, x27, #0x1
   88864:	94001189 	bl	8ce88 <__locale_ctype_ptr>
   88868:	39400361 	ldrb	w1, [x27]
   8886c:	8b210000 	add	x0, x0, w1, uxtb
   88870:	39400400 	ldrb	w0, [x0, #1]
   88874:	3717ff60 	tbnz	w0, #2, 88860 <vsscanf+0x3a0>
   88878:	121a7820 	and	w0, w1, #0xffffffdf
   8887c:	51010400 	sub	w0, w0, #0x41
   88880:	12001c00 	and	w0, w0, #0xff
   88884:	7100141f 	cmp	w0, #0x5
   88888:	54fffec9 	b.ls	88860 <vsscanf+0x3a0>  // b.plast
   8888c:	0f000608 	movi	v8.2s, #0x10
   88890:	71018e9f 	cmp	w20, #0x63
   88894:	54000361 	b.ne	88900 <vsscanf+0x440>  // b.any
   88898:	b9406fe0 	ldr	w0, [sp, #108]
   8889c:	35002860 	cbnz	w0, 88da8 <vsscanf+0x8e8>
   888a0:	34003a96 	cbz	w22, 88ff0 <vsscanf+0xb30>
   888a4:	7101b2df 	cmp	w22, #0x6c
   888a8:	54002801 	b.ne	88da8 <vsscanf+0x8e8>  // b.any
   888ac:	aa1303e1 	mov	x1, x19
   888b0:	d2800022 	mov	x2, #0x1                   	// #1
   888b4:	910643e0 	add	x0, sp, #0x190
   888b8:	9400117e 	bl	8ceb0 <mbstowcs>
   888bc:	37f82f7a 	tbnz	w26, #31, 88ea8 <vsscanf+0x9e8>
   888c0:	91003f01 	add	x1, x24, #0xf
   888c4:	aa1803e0 	mov	x0, x24
   888c8:	927df038 	and	x24, x1, #0xfffffffffffffff8
   888cc:	f9400000 	ldr	x0, [x0]
   888d0:	aa1b03f3 	mov	x19, x27
   888d4:	b94193e1 	ldr	w1, [sp, #400]
   888d8:	b9000001 	str	w1, [x0]
   888dc:	17ffff96 	b	88734 <vsscanf+0x274>
   888e0:	9100077b 	add	x27, x27, #0x1
   888e4:	94001169 	bl	8ce88 <__locale_ctype_ptr>
   888e8:	39400361 	ldrb	w1, [x27]
   888ec:	8b010000 	add	x0, x0, x1
   888f0:	39400400 	ldrb	w0, [x0, #1]
   888f4:	3717ff60 	tbnz	w0, #2, 888e0 <vsscanf+0x420>
   888f8:	71018e9f 	cmp	w20, #0x63
   888fc:	54fffce0 	b.eq	88898 <vsscanf+0x3d8>  // b.none
   88900:	cb130360 	sub	x0, x27, x19
   88904:	aa1303f5 	mov	x21, x19
   88908:	2a0003e3 	mov	w3, w0
   8890c:	aa1b03f3 	mov	x19, x27
   88910:	93407c02 	sxtw	x2, w0
   88914:	aa1503e1 	mov	x1, x21
   88918:	aa1903e0 	mov	x0, x25
   8891c:	b9006be3 	str	w3, [sp, #104]
   88920:	94001332 	bl	8d5e8 <strncpy>
   88924:	b9406be3 	ldr	w3, [sp, #104]
   88928:	71019e9f 	cmp	w20, #0x67
   8892c:	3823cb3f 	strb	wzr, [x25, w3, sxtw]
   88930:	540015c8 	b.hi	88be8 <vsscanf+0x728>  // b.pmore
   88934:	7101969f 	cmp	w20, #0x65
   88938:	54000102 	b.cs	88958 <vsscanf+0x498>  // b.hs, b.nlast
   8893c:	7101629f 	cmp	w20, #0x58
   88940:	54000580 	b.eq	889f0 <vsscanf+0x530>  // b.none
   88944:	54001768 	b.hi	88c30 <vsscanf+0x770>  // b.pmore
   88948:	51011680 	sub	w0, w20, #0x45
   8894c:	12001c00 	and	w0, w0, #0xff
   88950:	7100081f 	cmp	w0, #0x2
   88954:	54ffef08 	b.hi	88734 <vsscanf+0x274>  // b.pmore
   88958:	b9406fe0 	ldr	w0, [sp, #108]
   8895c:	350000e0 	cbnz	w0, 88978 <vsscanf+0x4b8>
   88960:	710132df 	cmp	w22, #0x4c
   88964:	54003580 	b.eq	89014 <vsscanf+0xb54>  // b.none
   88968:	7101b2df 	cmp	w22, #0x6c
   8896c:	54003680 	b.eq	8903c <vsscanf+0xb7c>  // b.none
   88970:	34002796 	cbz	w22, 88e60 <vsscanf+0x9a0>
   88974:	d503201f 	nop
   88978:	71016e9f 	cmp	w20, #0x5b
   8897c:	54ffdd00 	b.eq	8851c <vsscanf+0x5c>  // b.none
   88980:	b94067e0 	ldr	w0, [sp, #100]
   88984:	11000400 	add	w0, w0, #0x1
   88988:	b90067e0 	str	w0, [sp, #100]
   8898c:	17fffee4 	b	8851c <vsscanf+0x5c>
   88990:	7101a69f 	cmp	w20, #0x69
   88994:	54001bc0 	b.eq	88d0c <vsscanf+0x84c>  // b.none
   88998:	7101be9f 	cmp	w20, #0x6f
   8899c:	54fff7a1 	b.ne	88890 <vsscanf+0x3d0>  // b.any
   889a0:	5100c000 	sub	w0, w0, #0x30
   889a4:	d2800022 	mov	x2, #0x1                   	// #1
   889a8:	12001c00 	and	w0, w0, #0xff
   889ac:	2a0203f5 	mov	w21, w2
   889b0:	71001c1f 	cmp	w0, #0x7
   889b4:	54000128 	b.hi	889d8 <vsscanf+0x518>  // b.pmore
   889b8:	38401f60 	ldrb	w0, [x27, #1]!
   889bc:	5100c000 	sub	w0, w0, #0x30
   889c0:	12001c00 	and	w0, w0, #0xff
   889c4:	71001c1f 	cmp	w0, #0x7
   889c8:	54ffff89 	b.ls	889b8 <vsscanf+0x4f8>  // b.plast
   889cc:	cb130360 	sub	x0, x27, x19
   889d0:	2a0003f5 	mov	w21, w0
   889d4:	93407c02 	sxtw	x2, w0
   889d8:	aa1303e1 	mov	x1, x19
   889dc:	aa1903e0 	mov	x0, x25
   889e0:	94001302 	bl	8d5e8 <strncpy>
   889e4:	aa1b03f3 	mov	x19, x27
   889e8:	0f000508 	movi	v8.2s, #0x8
   889ec:	3835cb3f 	strb	wzr, [x25, w21, sxtw]
   889f0:	b9406fe0 	ldr	w0, [sp, #108]
   889f4:	35fffc20 	cbnz	w0, 88978 <vsscanf+0x4b8>
   889f8:	7101aadf 	cmp	w22, #0x6a
   889fc:	54002a80 	b.eq	88f4c <vsscanf+0xa8c>  // b.none
   88a00:	54001e89 	b.ls	88dd0 <vsscanf+0x910>  // b.plast
   88a04:	7101d2df 	cmp	w22, #0x74
   88a08:	54002a20 	b.eq	88f4c <vsscanf+0xa8c>  // b.none
   88a0c:	7101eadf 	cmp	w22, #0x7a
   88a10:	540029e0 	b.eq	88f4c <vsscanf+0xa8c>  // b.none
   88a14:	7101b2df 	cmp	w22, #0x6c
   88a18:	54fffb01 	b.ne	88978 <vsscanf+0x4b8>  // b.any
   88a1c:	b9407fe0 	ldr	w0, [sp, #124]
   88a20:	1e260102 	fmov	w2, s8
   88a24:	910223e1 	add	x1, sp, #0x88
   88a28:	34003ee0 	cbz	w0, 89204 <vsscanf+0xd44>
   88a2c:	aa1903e0 	mov	x0, x25
   88a30:	94001a2e 	bl	8f2e8 <strtoull>
   88a34:	37f8129a 	tbnz	w26, #31, 88c84 <vsscanf+0x7c4>
   88a38:	91003f01 	add	x1, x24, #0xf
   88a3c:	2a1a03e2 	mov	w2, w26
   88a40:	927df021 	and	x1, x1, #0xfffffffffffffff8
   88a44:	f9400304 	ldr	x4, [x24]
   88a48:	2a0203fa 	mov	w26, w2
   88a4c:	aa0103f8 	mov	x24, x1
   88a50:	f9000080 	str	x0, [x4]
   88a54:	17ffffc9 	b	88978 <vsscanf+0x4b8>
   88a58:	7101969f 	cmp	w20, #0x65
   88a5c:	540001c2 	b.cs	88a94 <vsscanf+0x5d4>  // b.hs, b.nlast
   88a60:	71011e9f 	cmp	w20, #0x47
   88a64:	54000109 	b.ls	88a84 <vsscanf+0x5c4>  // b.plast
   88a68:	7101869f 	cmp	w20, #0x61
   88a6c:	54000140 	b.eq	88a94 <vsscanf+0x5d4>  // b.none
   88a70:	7101929f 	cmp	w20, #0x64
   88a74:	54fff380 	b.eq	888e4 <vsscanf+0x424>  // b.none
   88a78:	7101629f 	cmp	w20, #0x58
   88a7c:	54fff0a1 	b.ne	88890 <vsscanf+0x3d0>  // b.any
   88a80:	17ffff79 	b	88864 <vsscanf+0x3a4>
   88a84:	7101169f 	cmp	w20, #0x45
   88a88:	54000062 	b.cs	88a94 <vsscanf+0x5d4>  // b.hs, b.nlast
   88a8c:	7101069f 	cmp	w20, #0x41
   88a90:	54fff001 	b.ne	88890 <vsscanf+0x3d0>  // b.any
   88a94:	7100b83f 	cmp	w1, #0x2e
   88a98:	52800015 	mov	w21, #0x0                   	// #0
   88a9c:	1a9f17e0 	cset	w0, eq  // eq = none
   88aa0:	b9006be0 	str	w0, [sp, #104]
   88aa4:	d503201f 	nop
   88aa8:	b9406be0 	ldr	w0, [sp, #104]
   88aac:	35000080 	cbnz	w0, 88abc <vsscanf+0x5fc>
   88ab0:	39400360 	ldrb	w0, [x27]
   88ab4:	7100b81f 	cmp	w0, #0x2e
   88ab8:	540006a0 	b.eq	88b8c <vsscanf+0x6cc>  // b.none
   88abc:	35000175 	cbnz	w21, 88ae8 <vsscanf+0x628>
   88ac0:	39400360 	ldrb	w0, [x27]
   88ac4:	121a7800 	and	w0, w0, #0xffffffdf
   88ac8:	12001c00 	and	w0, w0, #0xff
   88acc:	7101141f 	cmp	w0, #0x45
   88ad0:	540000c1 	b.ne	88ae8 <vsscanf+0x628>  // b.any
   88ad4:	39400760 	ldrb	w0, [x27, #1]
   88ad8:	7100b41f 	cmp	w0, #0x2d
   88adc:	54001740 	b.eq	88dc4 <vsscanf+0x904>  // b.none
   88ae0:	9100077b 	add	x27, x27, #0x1
   88ae4:	52800035 	mov	w21, #0x1                   	// #1
   88ae8:	940010e8 	bl	8ce88 <__locale_ctype_ptr>
   88aec:	39400361 	ldrb	w1, [x27]
   88af0:	8b010000 	add	x0, x0, x1
   88af4:	39400400 	ldrb	w0, [x0, #1]
   88af8:	3617ecc0 	tbz	w0, #2, 88890 <vsscanf+0x3d0>
   88afc:	9100077b 	add	x27, x27, #0x1
   88b00:	17ffffea 	b	88aa8 <vsscanf+0x5e8>
   88b04:	710132df 	cmp	w22, #0x4c
   88b08:	52800e81 	mov	w1, #0x74                  	// #116
   88b0c:	121b7ac0 	and	w0, w22, #0xffffffef
   88b10:	7a4112c4 	ccmp	w22, w1, #0x4, ne  // ne = any
   88b14:	52800d41 	mov	w1, #0x6a                  	// #106
   88b18:	7a411004 	ccmp	w0, w1, #0x4, ne  // ne = any
   88b1c:	540014a1 	b.ne	88db0 <vsscanf+0x8f0>  // b.any
   88b20:	39400774 	ldrb	w20, [x27, #1]
   88b24:	910006bc 	add	x28, x21, #0x1
   88b28:	17fffeb6 	b	88600 <vsscanf+0x140>
   88b2c:	aa1b03f4 	mov	x20, x27
   88b30:	14000002 	b	88b38 <vsscanf+0x678>
   88b34:	aa1503f4 	mov	x20, x21
   88b38:	aa1403f5 	mov	x21, x20
   88b3c:	940010d3 	bl	8ce88 <__locale_ctype_ptr>
   88b40:	384016a1 	ldrb	w1, [x21], #1
   88b44:	8b010000 	add	x0, x0, x1
   88b48:	39400400 	ldrb	w0, [x0, #1]
   88b4c:	3717ff40 	tbnz	w0, #2, 88b34 <vsscanf+0x674>
   88b50:	cb1b0296 	sub	x22, x20, x27
   88b54:	aa1b03e1 	mov	x1, x27
   88b58:	aa1903e0 	mov	x0, x25
   88b5c:	93407ed6 	sxtw	x22, w22
   88b60:	aa1603e2 	mov	x2, x22
   88b64:	940012a1 	bl	8d5e8 <strncpy>
   88b68:	aa1b03e0 	mov	x0, x27
   88b6c:	52800142 	mov	w2, #0xa                   	// #10
   88b70:	910223e1 	add	x1, sp, #0x88
   88b74:	aa1403fb 	mov	x27, x20
   88b78:	38366b3f 	strb	wzr, [x25, x22]
   88b7c:	940017f9 	bl	8eb60 <strtol>
   88b80:	39400296 	ldrb	w22, [x20]
   88b84:	2a0003f7 	mov	w23, w0
   88b88:	17fffe91 	b	885cc <vsscanf+0x10c>
   88b8c:	52800020 	mov	w0, #0x1                   	// #1
   88b90:	9100077b 	add	x27, x27, #0x1
   88b94:	b9006be0 	str	w0, [sp, #104]
   88b98:	17ffffc9 	b	88abc <vsscanf+0x5fc>
   88b9c:	394006a0 	ldrb	w0, [x21, #1]
   88ba0:	7101781f 	cmp	w0, #0x5e
   88ba4:	54ffdee1 	b.ne	88780 <vsscanf+0x2c0>  // b.any
   88ba8:	52800021 	mov	w1, #0x1                   	// #1
   88bac:	91000abc 	add	x28, x21, #0x2
   88bb0:	39400aa0 	ldrb	w0, [x21, #2]
   88bb4:	b9007be1 	str	w1, [sp, #120]
   88bb8:	17fffef2 	b	88780 <vsscanf+0x2c0>
   88bbc:	91000673 	add	x19, x19, #0x1
   88bc0:	39400261 	ldrb	w1, [x19]
   88bc4:	aa1903e0 	mov	x0, x25
   88bc8:	94001146 	bl	8d0e0 <strchr>
   88bcc:	6b1302ff 	cmp	w23, w19
   88bd0:	1a9f07e1 	cset	w1, ne  // ne = any
   88bd4:	f100001f 	cmp	x0, #0x0
   88bd8:	1a9f1020 	csel	w0, w1, wzr, ne  // ne = any
   88bdc:	b9007be0 	str	w0, [sp, #120]
   88be0:	35fffee0 	cbnz	w0, 88bbc <vsscanf+0x6fc>
   88be4:	17fffe4e 	b	8851c <vsscanf+0x5c>
   88be8:	7101c29f 	cmp	w20, #0x70
   88bec:	54000581 	b.ne	88c9c <vsscanf+0x7dc>  // b.any
   88bf0:	910223e1 	add	x1, sp, #0x88
   88bf4:	52800202 	mov	w2, #0x10                  	// #16
   88bf8:	aa1903e0 	mov	x0, x25
   88bfc:	940017d9 	bl	8eb60 <strtol>
   88c00:	b9406fe1 	ldr	w1, [sp, #108]
   88c04:	35ffd981 	cbnz	w1, 88734 <vsscanf+0x274>
   88c08:	37f81bda 	tbnz	w26, #31, 88f80 <vsscanf+0xac0>
   88c0c:	91003f02 	add	x2, x24, #0xf
   88c10:	aa1803e1 	mov	x1, x24
   88c14:	927df058 	and	x24, x2, #0xfffffffffffffff8
   88c18:	f9400021 	ldr	x1, [x1]
   88c1c:	f9000020 	str	x0, [x1]
   88c20:	b94067e0 	ldr	w0, [sp, #100]
   88c24:	11000400 	add	w0, w0, #0x1
   88c28:	b90067e0 	str	w0, [sp, #100]
   88c2c:	17fffe3c 	b	8851c <vsscanf+0x5c>
   88c30:	71018e9f 	cmp	w20, #0x63
   88c34:	540030c0 	b.eq	8924c <vsscanf+0xd8c>  // b.none
   88c38:	54000589 	b.ls	88ce8 <vsscanf+0x828>  // b.plast
   88c3c:	b9406fe0 	ldr	w0, [sp, #108]
   88c40:	35ffe9c0 	cbnz	w0, 88978 <vsscanf+0x4b8>
   88c44:	7101aadf 	cmp	w22, #0x6a
   88c48:	540016c0 	b.eq	88f20 <vsscanf+0xa60>  // b.none
   88c4c:	54000e89 	b.ls	88e1c <vsscanf+0x95c>  // b.plast
   88c50:	7101d2df 	cmp	w22, #0x74
   88c54:	54001660 	b.eq	88f20 <vsscanf+0xa60>  // b.none
   88c58:	7101eadf 	cmp	w22, #0x7a
   88c5c:	54001620 	b.eq	88f20 <vsscanf+0xa60>  // b.none
   88c60:	7101b2df 	cmp	w22, #0x6c
   88c64:	54ffe8a1 	b.ne	88978 <vsscanf+0x4b8>  // b.any
   88c68:	b9407fe0 	ldr	w0, [sp, #124]
   88c6c:	1e260102 	fmov	w2, s8
   88c70:	910223e1 	add	x1, sp, #0x88
   88c74:	34002c00 	cbz	w0, 891f4 <vsscanf+0xd34>
   88c78:	aa1903e0 	mov	x0, x25
   88c7c:	9400184b 	bl	8eda8 <strtoll>
   88c80:	36ffedda 	tbz	w26, #31, 88a38 <vsscanf+0x578>
   88c84:	11002342 	add	w2, w26, #0x8
   88c88:	7100005f 	cmp	w2, #0x0
   88c8c:	540028cd 	b.le	891a4 <vsscanf+0xce4>
   88c90:	91003f01 	add	x1, x24, #0xf
   88c94:	927df021 	and	x1, x1, #0xfffffffffffffff8
   88c98:	17ffff6b 	b	88a44 <vsscanf+0x584>
   88c9c:	54000128 	b.hi	88cc0 <vsscanf+0x800>  // b.pmore
   88ca0:	7101a69f 	cmp	w20, #0x69
   88ca4:	54fffcc0 	b.eq	88c3c <vsscanf+0x77c>  // b.none
   88ca8:	7101be9f 	cmp	w20, #0x6f
   88cac:	54ffea20 	b.eq	889f0 <vsscanf+0x530>  // b.none
   88cb0:	b94067e0 	ldr	w0, [sp, #100]
   88cb4:	11000400 	add	w0, w0, #0x1
   88cb8:	b90067e0 	str	w0, [sp, #100]
   88cbc:	17fffe18 	b	8851c <vsscanf+0x5c>
   88cc0:	7101d69f 	cmp	w20, #0x75
   88cc4:	54ffe960 	b.eq	889f0 <vsscanf+0x530>  // b.none
   88cc8:	7101e29f 	cmp	w20, #0x78
   88ccc:	54ffe920 	b.eq	889f0 <vsscanf+0x530>  // b.none
   88cd0:	7101ce9f 	cmp	w20, #0x73
   88cd4:	54ffd0c0 	b.eq	886ec <vsscanf+0x22c>  // b.none
   88cd8:	b94067e0 	ldr	w0, [sp, #100]
   88cdc:	11000400 	add	w0, w0, #0x1
   88ce0:	b90067e0 	str	w0, [sp, #100]
   88ce4:	17fffe0e 	b	8851c <vsscanf+0x5c>
   88ce8:	71016e9f 	cmp	w20, #0x5b
   88cec:	54ffd241 	b.ne	88734 <vsscanf+0x274>  // b.any
   88cf0:	17fffeba 	b	887d8 <vsscanf+0x318>
   88cf4:	b90067ff 	str	wzr, [sp, #100]
   88cf8:	a94053f3 	ldp	x19, x20, [sp]
   88cfc:	b94067e0 	ldr	w0, [sp, #100]
   88d00:	f9402bfe 	ldr	x30, [sp, #80]
   88d04:	911643ff 	add	sp, sp, #0x590
   88d08:	d65f03c0 	ret
   88d0c:	7100c03f 	cmp	w1, #0x30
   88d10:	54000261 	b.ne	88d5c <vsscanf+0x89c>  // b.any
   88d14:	7101881f 	cmp	w0, #0x62
   88d18:	91000a7b 	add	x27, x19, #0x2
   88d1c:	54001420 	b.eq	88fa0 <vsscanf+0xae0>  // b.none
   88d20:	7101e01f 	cmp	w0, #0x78
   88d24:	540002a0 	b.eq	88d78 <vsscanf+0x8b8>  // b.none
   88d28:	39400a60 	ldrb	w0, [x19, #2]
   88d2c:	5100c000 	sub	w0, w0, #0x30
   88d30:	12001c00 	and	w0, w0, #0xff
   88d34:	71001c1f 	cmp	w0, #0x7
   88d38:	540000c8 	b.hi	88d50 <vsscanf+0x890>  // b.pmore
   88d3c:	38401f60 	ldrb	w0, [x27, #1]!
   88d40:	5100c000 	sub	w0, w0, #0x30
   88d44:	12001c00 	and	w0, w0, #0xff
   88d48:	71001c1f 	cmp	w0, #0x7
   88d4c:	54ffff89 	b.ls	88d3c <vsscanf+0x87c>  // b.plast
   88d50:	0f000508 	movi	v8.2s, #0x8
   88d54:	17fffecf 	b	88890 <vsscanf+0x3d0>
   88d58:	9100077b 	add	x27, x27, #0x1
   88d5c:	9400104b 	bl	8ce88 <__locale_ctype_ptr>
   88d60:	39400361 	ldrb	w1, [x27]
   88d64:	8b010000 	add	x0, x0, x1
   88d68:	39400400 	ldrb	w0, [x0, #1]
   88d6c:	3717ff60 	tbnz	w0, #2, 88d58 <vsscanf+0x898>
   88d70:	17fffec8 	b	88890 <vsscanf+0x3d0>
   88d74:	9100077b 	add	x27, x27, #0x1
   88d78:	94001044 	bl	8ce88 <__locale_ctype_ptr>
   88d7c:	39400361 	ldrb	w1, [x27]
   88d80:	8b210000 	add	x0, x0, w1, uxtb
   88d84:	39400400 	ldrb	w0, [x0, #1]
   88d88:	3717ff60 	tbnz	w0, #2, 88d74 <vsscanf+0x8b4>
   88d8c:	121a7820 	and	w0, w1, #0xffffffdf
   88d90:	51010400 	sub	w0, w0, #0x41
   88d94:	12001c00 	and	w0, w0, #0xff
   88d98:	7100141f 	cmp	w0, #0x5
   88d9c:	54ffd788 	b.hi	8888c <vsscanf+0x3cc>  // b.pmore
   88da0:	9100077b 	add	x27, x27, #0x1
   88da4:	17fffff5 	b	88d78 <vsscanf+0x8b8>
   88da8:	aa1b03f3 	mov	x19, x27
   88dac:	17fffe62 	b	88734 <vsscanf+0x274>
   88db0:	aa1503fc 	mov	x28, x21
   88db4:	2a1603f4 	mov	w20, w22
   88db8:	aa1b03f5 	mov	x21, x27
   88dbc:	52800016 	mov	w22, #0x0                   	// #0
   88dc0:	17fffe10 	b	88600 <vsscanf+0x140>
   88dc4:	91000b7b 	add	x27, x27, #0x2
   88dc8:	52800035 	mov	w21, #0x1                   	// #1
   88dcc:	17ffff47 	b	88ae8 <vsscanf+0x628>
   88dd0:	340014b6 	cbz	w22, 89064 <vsscanf+0xba4>
   88dd4:	7101a2df 	cmp	w22, #0x68
   88dd8:	54ffdd01 	b.ne	88978 <vsscanf+0x4b8>  // b.any
   88ddc:	b9407fe0 	ldr	w0, [sp, #124]
   88de0:	1e260102 	fmov	w2, s8
   88de4:	910223e1 	add	x1, sp, #0x88
   88de8:	34000880 	cbz	w0, 88ef8 <vsscanf+0xa38>
   88dec:	aa1903e0 	mov	x0, x25
   88df0:	940018ba 	bl	8f0d8 <strtoul>
   88df4:	12001c00 	and	w0, w0, #0xff
   88df8:	37f8029a 	tbnz	w26, #31, 88e48 <vsscanf+0x988>
   88dfc:	91003f01 	add	x1, x24, #0xf
   88e00:	2a1a03e2 	mov	w2, w26
   88e04:	927df021 	and	x1, x1, #0xfffffffffffffff8
   88e08:	f9400304 	ldr	x4, [x24]
   88e0c:	2a0203fa 	mov	w26, w2
   88e10:	aa0103f8 	mov	x24, x1
   88e14:	39000080 	strb	w0, [x4]
   88e18:	17fffed8 	b	88978 <vsscanf+0x4b8>
   88e1c:	340014b6 	cbz	w22, 890b0 <vsscanf+0xbf0>
   88e20:	7101a2df 	cmp	w22, #0x68
   88e24:	54ffdaa1 	b.ne	88978 <vsscanf+0x4b8>  // b.any
   88e28:	b9407fe0 	ldr	w0, [sp, #124]
   88e2c:	1e260102 	fmov	w2, s8
   88e30:	910223e1 	add	x1, sp, #0x88
   88e34:	340004a0 	cbz	w0, 88ec8 <vsscanf+0xa08>
   88e38:	aa1903e0 	mov	x0, x25
   88e3c:	94001749 	bl	8eb60 <strtol>
   88e40:	13001c00 	sxtb	w0, w0
   88e44:	36fffdda 	tbz	w26, #31, 88dfc <vsscanf+0x93c>
   88e48:	11002342 	add	w2, w26, #0x8
   88e4c:	7100005f 	cmp	w2, #0x0
   88e50:	540020cd 	b.le	89268 <vsscanf+0xda8>
   88e54:	91003f01 	add	x1, x24, #0xf
   88e58:	927df021 	and	x1, x1, #0xfffffffffffffff8
   88e5c:	17ffffeb 	b	88e08 <vsscanf+0x948>
   88e60:	910223e1 	add	x1, sp, #0x88
   88e64:	aa1903e0 	mov	x0, x25
   88e68:	940016a4 	bl	8e8f8 <strtof>
   88e6c:	37f816da 	tbnz	w26, #31, 89144 <vsscanf+0xc84>
   88e70:	91003f01 	add	x1, x24, #0xf
   88e74:	aa1803e0 	mov	x0, x24
   88e78:	927df038 	and	x24, x1, #0xfffffffffffffff8
   88e7c:	f9400000 	ldr	x0, [x0]
   88e80:	bd000000 	str	s0, [x0]
   88e84:	17fffebd 	b	88978 <vsscanf+0x4b8>
   88e88:	11002341 	add	w1, w26, #0x8
   88e8c:	7100003f 	cmp	w1, #0x0
   88e90:	54001aad 	b.le	891e4 <vsscanf+0xd24>
   88e94:	91003f02 	add	x2, x24, #0xf
   88e98:	aa1803e0 	mov	x0, x24
   88e9c:	2a0103fa 	mov	w26, w1
   88ea0:	927df058 	and	x24, x2, #0xfffffffffffffff8
   88ea4:	17fffe21 	b	88728 <vsscanf+0x268>
   88ea8:	11002341 	add	w1, w26, #0x8
   88eac:	7100003f 	cmp	w1, #0x0
   88eb0:	540016ad 	b.le	89184 <vsscanf+0xcc4>
   88eb4:	91003f02 	add	x2, x24, #0xf
   88eb8:	aa1803e0 	mov	x0, x24
   88ebc:	2a0103fa 	mov	w26, w1
   88ec0:	927df058 	and	x24, x2, #0xfffffffffffffff8
   88ec4:	17fffe82 	b	888cc <vsscanf+0x40c>
   88ec8:	aa1903e0 	mov	x0, x25
   88ecc:	94001725 	bl	8eb60 <strtol>
   88ed0:	13003c00 	sxth	w0, w0
   88ed4:	37f801ba 	tbnz	w26, #31, 88f08 <vsscanf+0xa48>
   88ed8:	91003f01 	add	x1, x24, #0xf
   88edc:	2a1a03e2 	mov	w2, w26
   88ee0:	927df021 	and	x1, x1, #0xfffffffffffffff8
   88ee4:	f9400304 	ldr	x4, [x24]
   88ee8:	2a0203fa 	mov	w26, w2
   88eec:	aa0103f8 	mov	x24, x1
   88ef0:	79000080 	strh	w0, [x4]
   88ef4:	17fffea1 	b	88978 <vsscanf+0x4b8>
   88ef8:	aa1903e0 	mov	x0, x25
   88efc:	94001877 	bl	8f0d8 <strtoul>
   88f00:	12003c00 	and	w0, w0, #0xffff
   88f04:	36fffeba 	tbz	w26, #31, 88ed8 <vsscanf+0xa18>
   88f08:	11002342 	add	w2, w26, #0x8
   88f0c:	7100005f 	cmp	w2, #0x0
   88f10:	54001a4d 	b.le	89258 <vsscanf+0xd98>
   88f14:	91003f01 	add	x1, x24, #0xf
   88f18:	927df021 	and	x1, x1, #0xfffffffffffffff8
   88f1c:	17fffff2 	b	88ee4 <vsscanf+0xa24>
   88f20:	1e260102 	fmov	w2, s8
   88f24:	910223e1 	add	x1, sp, #0x88
   88f28:	aa1903e0 	mov	x0, x25
   88f2c:	9400170d 	bl	8eb60 <strtol>
   88f30:	37f8019a 	tbnz	w26, #31, 88f60 <vsscanf+0xaa0>
   88f34:	91003f02 	add	x2, x24, #0xf
   88f38:	aa1803e1 	mov	x1, x24
   88f3c:	927df058 	and	x24, x2, #0xfffffffffffffff8
   88f40:	f9400021 	ldr	x1, [x1]
   88f44:	f9000020 	str	x0, [x1]
   88f48:	17fffe8c 	b	88978 <vsscanf+0x4b8>
   88f4c:	1e260102 	fmov	w2, s8
   88f50:	910223e1 	add	x1, sp, #0x88
   88f54:	aa1903e0 	mov	x0, x25
   88f58:	94001860 	bl	8f0d8 <strtoul>
   88f5c:	36fffeda 	tbz	w26, #31, 88f34 <vsscanf+0xa74>
   88f60:	11002342 	add	w2, w26, #0x8
   88f64:	7100005f 	cmp	w2, #0x0
   88f68:	54000d6d 	b.le	89114 <vsscanf+0xc54>
   88f6c:	91003f04 	add	x4, x24, #0xf
   88f70:	aa1803e1 	mov	x1, x24
   88f74:	2a0203fa 	mov	w26, w2
   88f78:	927df098 	and	x24, x4, #0xfffffffffffffff8
   88f7c:	17fffff1 	b	88f40 <vsscanf+0xa80>
   88f80:	11002342 	add	w2, w26, #0x8
   88f84:	7100005f 	cmp	w2, #0x0
   88f88:	54000bed 	b.le	89104 <vsscanf+0xc44>
   88f8c:	91003f04 	add	x4, x24, #0xf
   88f90:	aa1803e1 	mov	x1, x24
   88f94:	2a0203fa 	mov	w26, w2
   88f98:	927df098 	and	x24, x4, #0xfffffffffffffff8
   88f9c:	17ffff1f 	b	88c18 <vsscanf+0x758>
   88fa0:	39400a60 	ldrb	w0, [x19, #2]
   88fa4:	5100c000 	sub	w0, w0, #0x30
   88fa8:	12001c00 	and	w0, w0, #0xff
   88fac:	7100041f 	cmp	w0, #0x1
   88fb0:	540000c8 	b.hi	88fc8 <vsscanf+0xb08>  // b.pmore
   88fb4:	38401f60 	ldrb	w0, [x27, #1]!
   88fb8:	5100c000 	sub	w0, w0, #0x30
   88fbc:	12001c00 	and	w0, w0, #0xff
   88fc0:	7100041f 	cmp	w0, #0x1
   88fc4:	54ffff89 	b.ls	88fb4 <vsscanf+0xaf4>  // b.plast
   88fc8:	0f000448 	movi	v8.2s, #0x2
   88fcc:	17fffe31 	b	88890 <vsscanf+0x3d0>
   88fd0:	37f808ba 	tbnz	w26, #31, 890e4 <vsscanf+0xc24>
   88fd4:	91003f01 	add	x1, x24, #0xf
   88fd8:	aa1803e0 	mov	x0, x24
   88fdc:	927df038 	and	x24, x1, #0xfffffffffffffff8
   88fe0:	f9400000 	ldr	x0, [x0]
   88fe4:	aa1903e1 	mov	x1, x25
   88fe8:	94001076 	bl	8d1c0 <strcpy>
   88fec:	17fffdd2 	b	88734 <vsscanf+0x274>
   88ff0:	39400262 	ldrb	w2, [x19]
   88ff4:	37f804fa 	tbnz	w26, #31, 89090 <vsscanf+0xbd0>
   88ff8:	91003f01 	add	x1, x24, #0xf
   88ffc:	aa1803e0 	mov	x0, x24
   89000:	927df038 	and	x24, x1, #0xfffffffffffffff8
   89004:	f9400000 	ldr	x0, [x0]
   89008:	aa1b03f3 	mov	x19, x27
   8900c:	39000002 	strb	w2, [x0]
   89010:	17fffdc9 	b	88734 <vsscanf+0x274>
   89014:	910223e1 	add	x1, sp, #0x88
   89018:	aa1903e0 	mov	x0, x25
   8901c:	940016dd 	bl	8eb90 <strtold>
   89020:	37f8083a 	tbnz	w26, #31, 89124 <vsscanf+0xc64>
   89024:	91003f01 	add	x1, x24, #0xf
   89028:	aa1803e0 	mov	x0, x24
   8902c:	927df038 	and	x24, x1, #0xfffffffffffffff8
   89030:	f9400000 	ldr	x0, [x0]
   89034:	3d800000 	str	q0, [x0]
   89038:	17fffe50 	b	88978 <vsscanf+0x4b8>
   8903c:	910223e1 	add	x1, sp, #0x88
   89040:	aa1903e0 	mov	x0, x25
   89044:	94001621 	bl	8e8c8 <strtod>
   89048:	37f808fa 	tbnz	w26, #31, 89164 <vsscanf+0xca4>
   8904c:	91003f01 	add	x1, x24, #0xf
   89050:	aa1803e0 	mov	x0, x24
   89054:	927df038 	and	x24, x1, #0xfffffffffffffff8
   89058:	f9400000 	ldr	x0, [x0]
   8905c:	fd000000 	str	d0, [x0]
   89060:	17fffe46 	b	88978 <vsscanf+0x4b8>
   89064:	1e260102 	fmov	w2, s8
   89068:	910223e1 	add	x1, sp, #0x88
   8906c:	aa1903e0 	mov	x0, x25
   89070:	9400181a 	bl	8f0d8 <strtoul>
   89074:	37f8029a 	tbnz	w26, #31, 890c4 <vsscanf+0xc04>
   89078:	91003f02 	add	x2, x24, #0xf
   8907c:	aa1803e1 	mov	x1, x24
   89080:	927df058 	and	x24, x2, #0xfffffffffffffff8
   89084:	f9400021 	ldr	x1, [x1]
   89088:	b9000020 	str	w0, [x1]
   8908c:	17fffe3b 	b	88978 <vsscanf+0x4b8>
   89090:	11002341 	add	w1, w26, #0x8
   89094:	7100003f 	cmp	w1, #0x0
   89098:	540009ed 	b.le	891d4 <vsscanf+0xd14>
   8909c:	91003f05 	add	x5, x24, #0xf
   890a0:	aa1803e0 	mov	x0, x24
   890a4:	2a0103fa 	mov	w26, w1
   890a8:	927df0b8 	and	x24, x5, #0xfffffffffffffff8
   890ac:	17ffffd6 	b	89004 <vsscanf+0xb44>
   890b0:	1e260102 	fmov	w2, s8
   890b4:	910223e1 	add	x1, sp, #0x88
   890b8:	aa1903e0 	mov	x0, x25
   890bc:	940016a9 	bl	8eb60 <strtol>
   890c0:	36fffdda 	tbz	w26, #31, 89078 <vsscanf+0xbb8>
   890c4:	11002342 	add	w2, w26, #0x8
   890c8:	7100005f 	cmp	w2, #0x0
   890cc:	540007cd 	b.le	891c4 <vsscanf+0xd04>
   890d0:	91003f04 	add	x4, x24, #0xf
   890d4:	aa1803e1 	mov	x1, x24
   890d8:	2a0203fa 	mov	w26, w2
   890dc:	927df098 	and	x24, x4, #0xfffffffffffffff8
   890e0:	17ffffe9 	b	89084 <vsscanf+0xbc4>
   890e4:	11002341 	add	w1, w26, #0x8
   890e8:	7100003f 	cmp	w1, #0x0
   890ec:	5400064d 	b.le	891b4 <vsscanf+0xcf4>
   890f0:	91003f02 	add	x2, x24, #0xf
   890f4:	aa1803e0 	mov	x0, x24
   890f8:	2a0103fa 	mov	w26, w1
   890fc:	927df058 	and	x24, x2, #0xfffffffffffffff8
   89100:	17ffffb8 	b	88fe0 <vsscanf+0xb20>
   89104:	f9403be1 	ldr	x1, [sp, #112]
   89108:	8b3ac021 	add	x1, x1, w26, sxtw
   8910c:	2a0203fa 	mov	w26, w2
   89110:	17fffec2 	b	88c18 <vsscanf+0x758>
   89114:	f9403be1 	ldr	x1, [sp, #112]
   89118:	8b3ac021 	add	x1, x1, w26, sxtw
   8911c:	2a0203fa 	mov	w26, w2
   89120:	17ffff88 	b	88f40 <vsscanf+0xa80>
   89124:	11002341 	add	w1, w26, #0x8
   89128:	7100003f 	cmp	w1, #0x0
   8912c:	5400074d 	b.le	89214 <vsscanf+0xd54>
   89130:	91003f02 	add	x2, x24, #0xf
   89134:	aa1803e0 	mov	x0, x24
   89138:	2a0103fa 	mov	w26, w1
   8913c:	927df058 	and	x24, x2, #0xfffffffffffffff8
   89140:	17ffffbc 	b	89030 <vsscanf+0xb70>
   89144:	11002341 	add	w1, w26, #0x8
   89148:	7100003f 	cmp	w1, #0x0
   8914c:	540006cd 	b.le	89224 <vsscanf+0xd64>
   89150:	91003f02 	add	x2, x24, #0xf
   89154:	aa1803e0 	mov	x0, x24
   89158:	2a0103fa 	mov	w26, w1
   8915c:	927df058 	and	x24, x2, #0xfffffffffffffff8
   89160:	17ffff47 	b	88e7c <vsscanf+0x9bc>
   89164:	11002341 	add	w1, w26, #0x8
   89168:	7100003f 	cmp	w1, #0x0
   8916c:	5400014d 	b.le	89194 <vsscanf+0xcd4>
   89170:	91003f02 	add	x2, x24, #0xf
   89174:	aa1803e0 	mov	x0, x24
   89178:	2a0103fa 	mov	w26, w1
   8917c:	927df058 	and	x24, x2, #0xfffffffffffffff8
   89180:	17ffffb6 	b	89058 <vsscanf+0xb98>
   89184:	f9403be0 	ldr	x0, [sp, #112]
   89188:	8b3ac000 	add	x0, x0, w26, sxtw
   8918c:	2a0103fa 	mov	w26, w1
   89190:	17fffdcf 	b	888cc <vsscanf+0x40c>
   89194:	f9403be0 	ldr	x0, [sp, #112]
   89198:	8b3ac000 	add	x0, x0, w26, sxtw
   8919c:	2a0103fa 	mov	w26, w1
   891a0:	17ffffae 	b	89058 <vsscanf+0xb98>
   891a4:	f9403be3 	ldr	x3, [sp, #112]
   891a8:	aa1803e1 	mov	x1, x24
   891ac:	8b3ac078 	add	x24, x3, w26, sxtw
   891b0:	17fffe25 	b	88a44 <vsscanf+0x584>
   891b4:	f9403be0 	ldr	x0, [sp, #112]
   891b8:	8b3ac000 	add	x0, x0, w26, sxtw
   891bc:	2a0103fa 	mov	w26, w1
   891c0:	17ffff88 	b	88fe0 <vsscanf+0xb20>
   891c4:	f9403be1 	ldr	x1, [sp, #112]
   891c8:	8b3ac021 	add	x1, x1, w26, sxtw
   891cc:	2a0203fa 	mov	w26, w2
   891d0:	17ffffad 	b	89084 <vsscanf+0xbc4>
   891d4:	f9403be0 	ldr	x0, [sp, #112]
   891d8:	8b3ac000 	add	x0, x0, w26, sxtw
   891dc:	2a0103fa 	mov	w26, w1
   891e0:	17ffff89 	b	89004 <vsscanf+0xb44>
   891e4:	f9403be0 	ldr	x0, [sp, #112]
   891e8:	8b3ac000 	add	x0, x0, w26, sxtw
   891ec:	2a0103fa 	mov	w26, w1
   891f0:	17fffd4e 	b	88728 <vsscanf+0x268>
   891f4:	aa1903e0 	mov	x0, x25
   891f8:	9400165a 	bl	8eb60 <strtol>
   891fc:	36ffc1fa 	tbz	w26, #31, 88a38 <vsscanf+0x578>
   89200:	17fffea1 	b	88c84 <vsscanf+0x7c4>
   89204:	aa1903e0 	mov	x0, x25
   89208:	940017b4 	bl	8f0d8 <strtoul>
   8920c:	36ffc17a 	tbz	w26, #31, 88a38 <vsscanf+0x578>
   89210:	17fffe9d 	b	88c84 <vsscanf+0x7c4>
   89214:	f9403be0 	ldr	x0, [sp, #112]
   89218:	8b3ac000 	add	x0, x0, w26, sxtw
   8921c:	2a0103fa 	mov	w26, w1
   89220:	17ffff84 	b	89030 <vsscanf+0xb70>
   89224:	f9403be0 	ldr	x0, [sp, #112]
   89228:	8b3ac000 	add	x0, x0, w26, sxtw
   8922c:	2a0103fa 	mov	w26, w1
   89230:	17ffff13 	b	88e7c <vsscanf+0x9bc>
   89234:	cb1c0260 	sub	x0, x19, x28
   89238:	aa1c03f5 	mov	x21, x28
   8923c:	2a0003e3 	mov	w3, w0
   89240:	aa0203fc 	mov	x28, x2
   89244:	93407c02 	sxtw	x2, w0
   89248:	17fffdb3 	b	88914 <vsscanf+0x454>
   8924c:	aa1303fb 	mov	x27, x19
   89250:	aa1503f3 	mov	x19, x21
   89254:	17fffd91 	b	88898 <vsscanf+0x3d8>
   89258:	f9403be3 	ldr	x3, [sp, #112]
   8925c:	aa1803e1 	mov	x1, x24
   89260:	8b3ac078 	add	x24, x3, w26, sxtw
   89264:	17ffff20 	b	88ee4 <vsscanf+0xa24>
   89268:	f9403be3 	ldr	x3, [sp, #112]
   8926c:	aa1803e1 	mov	x1, x24
   89270:	8b3ac078 	add	x24, x3, w26, sxtw
   89274:	17fffee5 	b	88e08 <vsscanf+0x948>

0000000000089278 <sscanf>:
   89278:	d10403ff 	sub	sp, sp, #0x100
   8927c:	f90003fe 	str	x30, [sp]
   89280:	3d8017e0 	str	q0, [sp, #80]
   89284:	3d801be1 	str	q1, [sp, #96]
   89288:	3d801fe2 	str	q2, [sp, #112]
   8928c:	3d8023e3 	str	q3, [sp, #128]
   89290:	3d8027e4 	str	q4, [sp, #144]
   89294:	3d802be5 	str	q5, [sp, #160]
   89298:	3d802fe6 	str	q6, [sp, #176]
   8929c:	3d8033e7 	str	q7, [sp, #192]
   892a0:	a90d0fe2 	stp	x2, x3, [sp, #208]
   892a4:	a90e17e4 	stp	x4, x5, [sp, #224]
   892a8:	a90f1fe6 	stp	x6, x7, [sp, #240]
   892ac:	b4000220 	cbz	x0, 892f0 <sscanf+0x78>
   892b0:	910403e2 	add	x2, sp, #0x100
   892b4:	a9030be2 	stp	x2, x2, [sp, #48]
   892b8:	910343e5 	add	x5, sp, #0xd0
   892bc:	12800fe3 	mov	w3, #0xffffff80            	// #-128
   892c0:	128005e4 	mov	w4, #0xffffffd0            	// #-48
   892c4:	f90023e5 	str	x5, [sp, #64]
   892c8:	910043e2 	add	x2, sp, #0x10
   892cc:	29090fe4 	stp	w4, w3, [sp, #72]
   892d0:	a94317e4 	ldp	x4, x5, [sp, #48]
   892d4:	a90117e4 	stp	x4, x5, [sp, #16]
   892d8:	a94417e4 	ldp	x4, x5, [sp, #64]
   892dc:	a90217e4 	stp	x4, x5, [sp, #32]
   892e0:	97fffc78 	bl	884c0 <vsscanf>
   892e4:	f94003fe 	ldr	x30, [sp]
   892e8:	910403ff 	add	sp, sp, #0x100
   892ec:	d65f03c0 	ret
   892f0:	52800000 	mov	w0, #0x0                   	// #0
   892f4:	f94003fe 	ldr	x30, [sp]
   892f8:	910403ff 	add	sp, sp, #0x100
   892fc:	d65f03c0 	ret

0000000000089300 <Init_EmbStdio>:
   89300:	d0000061 	adrp	x1, 97000 <__bss_start__>
   89304:	91004021 	add	x1, x1, #0x10
   89308:	f9400822 	ldr	x2, [x1, #16]
   8930c:	f9000820 	str	x0, [x1, #16]
   89310:	aa0203e0 	mov	x0, x2
   89314:	d65f03c0 	ret

0000000000089318 <printf>:
   89318:	a9ae53f3 	stp	x19, x20, [sp, #-288]!
   8931c:	d0000068 	adrp	x8, 97000 <__bss_start__>
   89320:	128006ea 	mov	w10, #0xffffffc8            	// #-56
   89324:	910383eb 	add	x11, sp, #0xe0
   89328:	a90e8be1 	stp	x1, x2, [sp, #232]
   8932c:	910483e1 	add	x1, sp, #0x120
   89330:	12800fe9 	mov	w9, #0xffffff80            	// #-128
   89334:	aa0003f3 	mov	x19, x0
   89338:	f9401114 	ldr	x20, [x8, #32]
   8933c:	f9000bfe 	str	x30, [sp, #16]
   89340:	a90407e1 	stp	x1, x1, [sp, #64]
   89344:	f9002beb 	str	x11, [sp, #80]
   89348:	290b27ea 	stp	w10, w9, [sp, #88]
   8934c:	3d801be0 	str	q0, [sp, #96]
   89350:	3d801fe1 	str	q1, [sp, #112]
   89354:	3d8023e2 	str	q2, [sp, #128]
   89358:	3d8027e3 	str	q3, [sp, #144]
   8935c:	3d802be4 	str	q4, [sp, #160]
   89360:	3d802fe5 	str	q5, [sp, #176]
   89364:	3d8033e6 	str	q6, [sp, #192]
   89368:	3d8037e7 	str	q7, [sp, #208]
   8936c:	a90f93e3 	stp	x3, x4, [sp, #248]
   89370:	a9109be5 	stp	x5, x6, [sp, #264]
   89374:	f9008fe7 	str	x7, [sp, #280]
   89378:	94001002 	bl	8d380 <strlen>
   8937c:	a9441fe6 	ldp	x6, x7, [sp, #64]
   89380:	aa0003e2 	mov	x2, x0
   89384:	a94517e4 	ldp	x4, x5, [sp, #80]
   89388:	aa1303e1 	mov	x1, x19
   8938c:	910083e3 	add	x3, sp, #0x20
   89390:	aa1403e0 	mov	x0, x20
   89394:	a9021fe6 	stp	x6, x7, [sp, #32]
   89398:	a90317e4 	stp	x4, x5, [sp, #48]
   8939c:	97ffe685 	bl	82db0 <Process_Out>
   893a0:	f9400bfe 	ldr	x30, [sp, #16]
   893a4:	a8d253f3 	ldp	x19, x20, [sp], #288
   893a8:	d65f03c0 	ret
   893ac:	d503201f 	nop

00000000000893b0 <sprintf>:
   893b0:	a9ae53f3 	stp	x19, x20, [sp, #-288]!
   893b4:	d0000074 	adrp	x20, 97000 <__bss_start__>
   893b8:	91004293 	add	x19, x20, #0x10
   893bc:	9103c3e9 	add	x9, sp, #0xf0
   893c0:	a9015bf5 	stp	x21, x22, [sp, #16]
   893c4:	aa0103f6 	mov	x22, x1
   893c8:	12800001 	mov	w1, #0xffffffff            	// #-1
   893cc:	a90f0fe2 	stp	x2, x3, [sp, #240]
   893d0:	910483e2 	add	x2, sp, #0x120
   893d4:	128005e8 	mov	w8, #0xffffffd0            	// #-48
   893d8:	b9001281 	str	w1, [x20, #16]
   893dc:	12800fe1 	mov	w1, #0xffffff80            	// #-128
   893e0:	aa0003f5 	mov	x21, x0
   893e4:	aa1603e0 	mov	x0, x22
   893e8:	b900067f 	str	wzr, [x19, #4]
   893ec:	f9000675 	str	x21, [x19, #8]
   893f0:	f90013fe 	str	x30, [sp, #32]
   893f4:	a9050be2 	stp	x2, x2, [sp, #80]
   893f8:	f90033e9 	str	x9, [sp, #96]
   893fc:	290d07e8 	stp	w8, w1, [sp, #104]
   89400:	3d801fe0 	str	q0, [sp, #112]
   89404:	3d8023e1 	str	q1, [sp, #128]
   89408:	3d8027e2 	str	q2, [sp, #144]
   8940c:	3d802be3 	str	q3, [sp, #160]
   89410:	3d802fe4 	str	q4, [sp, #176]
   89414:	3d8033e5 	str	q5, [sp, #192]
   89418:	3d8037e6 	str	q6, [sp, #208]
   8941c:	3d803be7 	str	q7, [sp, #224]
   89420:	a91017e4 	stp	x4, x5, [sp, #256]
   89424:	a9111fe6 	stp	x6, x7, [sp, #272]
   89428:	94000fd6 	bl	8d380 <strlen>
   8942c:	9100c3e2 	add	x2, sp, #0x30
   89430:	a9451fe6 	ldp	x6, x7, [sp, #80]
   89434:	aa0003e1 	mov	x1, x0
   89438:	a94617e4 	ldp	x4, x5, [sp, #96]
   8943c:	aa1603e0 	mov	x0, x22
   89440:	a9031fe6 	stp	x6, x7, [sp, #48]
   89444:	a90417e4 	stp	x4, x5, [sp, #64]
   89448:	97ffea3c 	bl	83d38 <Process_Out.constprop.2>
   8944c:	b9401282 	ldr	w2, [x20, #16]
   89450:	3100045f 	cmn	w2, #0x1
   89454:	54000160 	b.eq	89480 <sprintf+0xd0>  // b.none
   89458:	b9400663 	ldr	w3, [x19, #4]
   8945c:	f9400661 	ldr	x1, [x19, #8]
   89460:	6b03005f 	cmp	w2, w3
   89464:	5400010c 	b.gt	89484 <sprintf+0xd4>
   89468:	eb0102bf 	cmp	x21, x1
   8946c:	540001a0 	b.eq	894a0 <sprintf+0xf0>  // b.none
   89470:	a9415bf5 	ldp	x21, x22, [sp, #16]
   89474:	f94013fe 	ldr	x30, [sp, #32]
   89478:	a8d253f3 	ldp	x19, x20, [sp], #288
   8947c:	d65f03c0 	ret
   89480:	f9400661 	ldr	x1, [x19, #8]
   89484:	b4ffff21 	cbz	x1, 89468 <sprintf+0xb8>
   89488:	b9400662 	ldr	w2, [x19, #4]
   8948c:	eb0102bf 	cmp	x21, x1
   89490:	11000443 	add	w3, w2, #0x1
   89494:	b9000663 	str	w3, [x19, #4]
   89498:	3822c83f 	strb	wzr, [x1, w2, sxtw]
   8949c:	54fffea1 	b.ne	89470 <sprintf+0xc0>  // b.any
   894a0:	f900067f 	str	xzr, [x19, #8]
   894a4:	a9415bf5 	ldp	x21, x22, [sp, #16]
   894a8:	f94013fe 	ldr	x30, [sp, #32]
   894ac:	a8d253f3 	ldp	x19, x20, [sp], #288
   894b0:	d65f03c0 	ret
   894b4:	d503201f 	nop

00000000000894b8 <snprintf>:
   894b8:	a9ae53f3 	stp	x19, x20, [sp, #-288]!
   894bc:	d0000074 	adrp	x20, 97000 <__bss_start__>
   894c0:	91004293 	add	x19, x20, #0x10
   894c4:	9103c3e9 	add	x9, sp, #0xf0
   894c8:	a9017bf5 	stp	x21, x30, [sp, #16]
   894cc:	aa0003f5 	mov	x21, x0
   894d0:	aa0203e0 	mov	x0, x2
   894d4:	f90017e2 	str	x2, [sp, #40]
   894d8:	910483e2 	add	x2, sp, #0x120
   894dc:	128004e8 	mov	w8, #0xffffffd8            	// #-40
   894e0:	b9001281 	str	w1, [x20, #16]
   894e4:	12800fe1 	mov	w1, #0xffffff80            	// #-128
   894e8:	b900067f 	str	wzr, [x19, #4]
   894ec:	f9000675 	str	x21, [x19, #8]
   894f0:	a9050be2 	stp	x2, x2, [sp, #80]
   894f4:	f90033e9 	str	x9, [sp, #96]
   894f8:	290d07e8 	stp	w8, w1, [sp, #104]
   894fc:	3d801fe0 	str	q0, [sp, #112]
   89500:	3d8023e1 	str	q1, [sp, #128]
   89504:	3d8027e2 	str	q2, [sp, #144]
   89508:	3d802be3 	str	q3, [sp, #160]
   8950c:	3d802fe4 	str	q4, [sp, #176]
   89510:	3d8033e5 	str	q5, [sp, #192]
   89514:	3d8037e6 	str	q6, [sp, #208]
   89518:	3d803be7 	str	q7, [sp, #224]
   8951c:	a90f93e3 	stp	x3, x4, [sp, #248]
   89520:	a9109be5 	stp	x5, x6, [sp, #264]
   89524:	f9008fe7 	str	x7, [sp, #280]
   89528:	94000f96 	bl	8d380 <strlen>
   8952c:	a9451fe6 	ldp	x6, x7, [sp, #80]
   89530:	aa0003e1 	mov	x1, x0
   89534:	a94617e4 	ldp	x4, x5, [sp, #96]
   89538:	a9031fe6 	stp	x6, x7, [sp, #48]
   8953c:	f94017e2 	ldr	x2, [sp, #40]
   89540:	a90417e4 	stp	x4, x5, [sp, #64]
   89544:	aa0203e0 	mov	x0, x2
   89548:	9100c3e2 	add	x2, sp, #0x30
   8954c:	97ffe9fb 	bl	83d38 <Process_Out.constprop.2>
   89550:	b9401282 	ldr	w2, [x20, #16]
   89554:	3100045f 	cmn	w2, #0x1
   89558:	54000140 	b.eq	89580 <snprintf+0xc8>  // b.none
   8955c:	b9400663 	ldr	w3, [x19, #4]
   89560:	f9400661 	ldr	x1, [x19, #8]
   89564:	6b03005f 	cmp	w2, w3
   89568:	540000ec 	b.gt	89584 <snprintf+0xcc>
   8956c:	eb0102bf 	cmp	x21, x1
   89570:	54000180 	b.eq	895a0 <snprintf+0xe8>  // b.none
   89574:	a9417bf5 	ldp	x21, x30, [sp, #16]
   89578:	a8d253f3 	ldp	x19, x20, [sp], #288
   8957c:	d65f03c0 	ret
   89580:	f9400661 	ldr	x1, [x19, #8]
   89584:	b4ffff41 	cbz	x1, 8956c <snprintf+0xb4>
   89588:	b9400662 	ldr	w2, [x19, #4]
   8958c:	eb0102bf 	cmp	x21, x1
   89590:	11000443 	add	w3, w2, #0x1
   89594:	b9000663 	str	w3, [x19, #4]
   89598:	3822c83f 	strb	wzr, [x1, w2, sxtw]
   8959c:	54fffec1 	b.ne	89574 <snprintf+0xbc>  // b.any
   895a0:	f900067f 	str	xzr, [x19, #8]
   895a4:	a9417bf5 	ldp	x21, x30, [sp, #16]
   895a8:	a8d253f3 	ldp	x19, x20, [sp], #288
   895ac:	d65f03c0 	ret

00000000000895b0 <vprintf>:
   895b0:	a9bb53f3 	stp	x19, x20, [sp, #-80]!
   895b4:	d0000062 	adrp	x2, 97000 <__bss_start__>
   895b8:	aa0103f3 	mov	x19, x1
   895bc:	f9401054 	ldr	x20, [x2, #32]
   895c0:	f9000bfe 	str	x30, [sp, #16]
   895c4:	f90017e0 	str	x0, [sp, #40]
   895c8:	94000f6e 	bl	8d380 <strlen>
   895cc:	a9401a67 	ldp	x7, x6, [x19]
   895d0:	aa0003e2 	mov	x2, x0
   895d4:	a9411265 	ldp	x5, x4, [x19, #16]
   895d8:	9100c3e3 	add	x3, sp, #0x30
   895dc:	f94017e1 	ldr	x1, [sp, #40]
   895e0:	aa1403e0 	mov	x0, x20
   895e4:	a9031be7 	stp	x7, x6, [sp, #48]
   895e8:	a90413e5 	stp	x5, x4, [sp, #64]
   895ec:	97ffe5f1 	bl	82db0 <Process_Out>
   895f0:	f9400bfe 	ldr	x30, [sp, #16]
   895f4:	a8c553f3 	ldp	x19, x20, [sp], #80
   895f8:	d65f03c0 	ret
   895fc:	d503201f 	nop

0000000000089600 <vsprintf>:
   89600:	a9bb53f3 	stp	x19, x20, [sp, #-80]!
   89604:	aa0203f4 	mov	x20, x2
   89608:	a9015bf5 	stp	x21, x22, [sp, #16]
   8960c:	d0000075 	adrp	x21, 97000 <__bss_start__>
   89610:	910042b3 	add	x19, x21, #0x10
   89614:	a9027bf7 	stp	x23, x30, [sp, #32]
   89618:	aa0103f7 	mov	x23, x1
   8961c:	12800001 	mov	w1, #0xffffffff            	// #-1
   89620:	aa0003f6 	mov	x22, x0
   89624:	b90012a1 	str	w1, [x21, #16]
   89628:	aa1703e0 	mov	x0, x23
   8962c:	b900067f 	str	wzr, [x19, #4]
   89630:	f9000676 	str	x22, [x19, #8]
   89634:	94000f53 	bl	8d380 <strlen>
   89638:	a9401686 	ldp	x6, x5, [x20]
   8963c:	aa0003e1 	mov	x1, x0
   89640:	a9410e84 	ldp	x4, x3, [x20, #16]
   89644:	9100c3e2 	add	x2, sp, #0x30
   89648:	aa1703e0 	mov	x0, x23
   8964c:	a90317e6 	stp	x6, x5, [sp, #48]
   89650:	a9040fe4 	stp	x4, x3, [sp, #64]
   89654:	97ffe9b9 	bl	83d38 <Process_Out.constprop.2>
   89658:	b94012a2 	ldr	w2, [x21, #16]
   8965c:	3100045f 	cmn	w2, #0x1
   89660:	54000160 	b.eq	8968c <vsprintf+0x8c>  // b.none
   89664:	b9400663 	ldr	w3, [x19, #4]
   89668:	f9400661 	ldr	x1, [x19, #8]
   8966c:	6b03005f 	cmp	w2, w3
   89670:	5400010c 	b.gt	89690 <vsprintf+0x90>
   89674:	eb0102df 	cmp	x22, x1
   89678:	540001a0 	b.eq	896ac <vsprintf+0xac>  // b.none
   8967c:	a9415bf5 	ldp	x21, x22, [sp, #16]
   89680:	a9427bf7 	ldp	x23, x30, [sp, #32]
   89684:	a8c553f3 	ldp	x19, x20, [sp], #80
   89688:	d65f03c0 	ret
   8968c:	f9400661 	ldr	x1, [x19, #8]
   89690:	b4ffff21 	cbz	x1, 89674 <vsprintf+0x74>
   89694:	b9400662 	ldr	w2, [x19, #4]
   89698:	eb0102df 	cmp	x22, x1
   8969c:	11000443 	add	w3, w2, #0x1
   896a0:	b9000663 	str	w3, [x19, #4]
   896a4:	3822c83f 	strb	wzr, [x1, w2, sxtw]
   896a8:	54fffea1 	b.ne	8967c <vsprintf+0x7c>  // b.any
   896ac:	f900067f 	str	xzr, [x19, #8]
   896b0:	a9415bf5 	ldp	x21, x22, [sp, #16]
   896b4:	a9427bf7 	ldp	x23, x30, [sp, #32]
   896b8:	a8c553f3 	ldp	x19, x20, [sp], #80
   896bc:	d65f03c0 	ret

00000000000896c0 <vsnprintf>:
   896c0:	a9ba53f3 	stp	x19, x20, [sp, #-96]!
   896c4:	aa0303f4 	mov	x20, x3
   896c8:	a9015bf5 	stp	x21, x22, [sp, #16]
   896cc:	d0000075 	adrp	x21, 97000 <__bss_start__>
   896d0:	910042b3 	add	x19, x21, #0x10
   896d4:	aa0003f6 	mov	x22, x0
   896d8:	b90012a1 	str	w1, [x21, #16]
   896dc:	aa0203e0 	mov	x0, x2
   896e0:	f90013fe 	str	x30, [sp, #32]
   896e4:	b900067f 	str	wzr, [x19, #4]
   896e8:	f9000676 	str	x22, [x19, #8]
   896ec:	f9001fe2 	str	x2, [sp, #56]
   896f0:	94000f24 	bl	8d380 <strlen>
   896f4:	a9401686 	ldp	x6, x5, [x20]
   896f8:	aa0003e1 	mov	x1, x0
   896fc:	a9410e84 	ldp	x4, x3, [x20, #16]
   89700:	a90417e6 	stp	x6, x5, [sp, #64]
   89704:	f9401fe2 	ldr	x2, [sp, #56]
   89708:	a9050fe4 	stp	x4, x3, [sp, #80]
   8970c:	aa0203e0 	mov	x0, x2
   89710:	910103e2 	add	x2, sp, #0x40
   89714:	97ffe989 	bl	83d38 <Process_Out.constprop.2>
   89718:	b94012a2 	ldr	w2, [x21, #16]
   8971c:	3100045f 	cmn	w2, #0x1
   89720:	54000160 	b.eq	8974c <vsnprintf+0x8c>  // b.none
   89724:	b9400663 	ldr	w3, [x19, #4]
   89728:	f9400661 	ldr	x1, [x19, #8]
   8972c:	6b03005f 	cmp	w2, w3
   89730:	5400010c 	b.gt	89750 <vsnprintf+0x90>
   89734:	eb0102df 	cmp	x22, x1
   89738:	540001a0 	b.eq	8976c <vsnprintf+0xac>  // b.none
   8973c:	a9415bf5 	ldp	x21, x22, [sp, #16]
   89740:	f94013fe 	ldr	x30, [sp, #32]
   89744:	a8c653f3 	ldp	x19, x20, [sp], #96
   89748:	d65f03c0 	ret
   8974c:	f9400661 	ldr	x1, [x19, #8]
   89750:	b4ffff21 	cbz	x1, 89734 <vsnprintf+0x74>
   89754:	b9400662 	ldr	w2, [x19, #4]
   89758:	eb0102df 	cmp	x22, x1
   8975c:	11000443 	add	w3, w2, #0x1
   89760:	b9000663 	str	w3, [x19, #4]
   89764:	3822c83f 	strb	wzr, [x1, w2, sxtw]
   89768:	54fffea1 	b.ne	8973c <vsnprintf+0x7c>  // b.any
   8976c:	f900067f 	str	xzr, [x19, #8]
   89770:	a9415bf5 	ldp	x21, x22, [sp, #16]
   89774:	f94013fe 	ldr	x30, [sp, #32]
   89778:	a8c653f3 	ldp	x19, x20, [sp], #96
   8977c:	d65f03c0 	ret

0000000000089780 <check_buffer>:
   89780:	b9400006 	ldr	w6, [x0]
   89784:	110004c6 	add	w6, w6, #0x1
   89788:	b9000006 	str	w6, [x0]
   8978c:	39400020 	ldrb	w0, [x1]
   89790:	340001c0 	cbz	w0, 897c8 <check_buffer+0x48>
   89794:	39400043 	ldrb	w3, [x2]
   89798:	34000183 	cbz	w3, 897c8 <check_buffer+0x48>
   8979c:	6b00007f 	cmp	w3, w0
   897a0:	54000181 	b.ne	897d0 <check_buffer+0x50>  // b.any
   897a4:	d2800020 	mov	x0, #0x1                   	// #1
   897a8:	14000006 	b	897c0 <check_buffer+0x40>
   897ac:	38606845 	ldrb	w5, [x2, x0]
   897b0:	91000400 	add	x0, x0, #0x1
   897b4:	6b05009f 	cmp	w4, w5
   897b8:	34000085 	cbz	w5, 897c8 <check_buffer+0x48>
   897bc:	540000a1 	b.ne	897d0 <check_buffer+0x50>  // b.any
   897c0:	38606824 	ldrb	w4, [x1, x0]
   897c4:	35ffff44 	cbnz	w4, 897ac <check_buffer+0x2c>
   897c8:	52800020 	mov	w0, #0x1                   	// #1
   897cc:	d65f03c0 	ret
   897d0:	f81f0ffe 	str	x30, [sp, #-16]!
   897d4:	aa0203e3 	mov	x3, x2
   897d8:	f0000040 	adrp	x0, 94000 <__trunctfdf2+0x1f8>
   897dc:	aa0103e2 	mov	x2, x1
   897e0:	9113c000 	add	x0, x0, #0x4f0
   897e4:	2a0603e1 	mov	w1, w6
   897e8:	97fffecc 	bl	89318 <printf>
   897ec:	52800000 	mov	w0, #0x0                   	// #0
   897f0:	f84107fe 	ldr	x30, [sp], #16
   897f4:	d65f03c0 	ret

00000000000897f8 <BENCHTEST_snprintf>:
   897f8:	d10883ff 	sub	sp, sp, #0x220
   897fc:	52800003 	mov	w3, #0x0                   	// #0
   89800:	910083e0 	add	x0, sp, #0x20
   89804:	d2804001 	mov	x1, #0x200                 	// #512
   89808:	a90053f3 	stp	x19, x20, [sp]
   8980c:	f0000054 	adrp	x20, 94000 <__trunctfdf2+0x1f8>
   89810:	91170294 	add	x20, x20, #0x5c0
   89814:	aa1403e2 	mov	x2, x20
   89818:	a9017bf5 	stp	x21, x30, [sp, #16]
   8981c:	97fffae9 	bl	883c0 <snprintf.constprop.1>
   89820:	394083e0 	ldrb	w0, [sp, #32]
   89824:	340001e0 	cbz	w0, 89860 <BENCHTEST_snprintf+0x68>
   89828:	f0000043 	adrp	x3, 94000 <__trunctfdf2+0x1f8>
   8982c:	7100801f 	cmp	w0, #0x20
   89830:	91144063 	add	x3, x3, #0x510
   89834:	54002b21 	b.ne	89d98 <BENCHTEST_snprintf+0x5a0>  // b.any
   89838:	aa0303e0 	mov	x0, x3
   8983c:	910083e4 	add	x4, sp, #0x20
   89840:	14000005 	b	89854 <BENCHTEST_snprintf+0x5c>
   89844:	39400001 	ldrb	w1, [x0]
   89848:	6b01005f 	cmp	w2, w1
   8984c:	340000a1 	cbz	w1, 89860 <BENCHTEST_snprintf+0x68>
   89850:	54002a41 	b.ne	89d98 <BENCHTEST_snprintf+0x5a0>  // b.any
   89854:	38401c82 	ldrb	w2, [x4, #1]!
   89858:	91000400 	add	x0, x0, #0x1
   8985c:	35ffff42 	cbnz	w2, 89844 <BENCHTEST_snprintf+0x4c>
   89860:	52800053 	mov	w19, #0x2                   	// #2
   89864:	52800035 	mov	w21, #0x1                   	// #1
   89868:	5299a2a3 	mov	w3, #0xcd15                	// #52501
   8986c:	aa1403e2 	mov	x2, x20
   89870:	72a0eb63 	movk	w3, #0x75b, lsl #16
   89874:	d2804001 	mov	x1, #0x200                 	// #512
   89878:	910083e0 	add	x0, sp, #0x20
   8987c:	97fffad1 	bl	883c0 <snprintf.constprop.1>
   89880:	394083e0 	ldrb	w0, [sp, #32]
   89884:	340001e0 	cbz	w0, 898c0 <BENCHTEST_snprintf+0xc8>
   89888:	f0000043 	adrp	x3, 94000 <__trunctfdf2+0x1f8>
   8988c:	7100c41f 	cmp	w0, #0x31
   89890:	91146063 	add	x3, x3, #0x518
   89894:	54003221 	b.ne	89ed8 <BENCHTEST_snprintf+0x6e0>  // b.any
   89898:	aa0303e0 	mov	x0, x3
   8989c:	910083e4 	add	x4, sp, #0x20
   898a0:	14000005 	b	898b4 <BENCHTEST_snprintf+0xbc>
   898a4:	39400001 	ldrb	w1, [x0]
   898a8:	6b01005f 	cmp	w2, w1
   898ac:	340000a1 	cbz	w1, 898c0 <BENCHTEST_snprintf+0xc8>
   898b0:	54003141 	b.ne	89ed8 <BENCHTEST_snprintf+0x6e0>  // b.any
   898b4:	38401c82 	ldrb	w2, [x4, #1]!
   898b8:	91000400 	add	x0, x0, #0x1
   898bc:	35ffff42 	cbnz	w2, 898a4 <BENCHTEST_snprintf+0xac>
   898c0:	f0000042 	adrp	x2, 94000 <__trunctfdf2+0x1f8>
   898c4:	12800123 	mov	w3, #0xfffffff6            	// #-10
   898c8:	91172042 	add	x2, x2, #0x5c8
   898cc:	d2804001 	mov	x1, #0x200                 	// #512
   898d0:	910083e0 	add	x0, sp, #0x20
   898d4:	97fffabb 	bl	883c0 <snprintf.constprop.1>
   898d8:	394083e0 	ldrb	w0, [sp, #32]
   898dc:	340001e0 	cbz	w0, 89918 <BENCHTEST_snprintf+0x120>
   898e0:	f0000043 	adrp	x3, 94000 <__trunctfdf2+0x1f8>
   898e4:	7100b41f 	cmp	w0, #0x2d
   898e8:	9114a063 	add	x3, x3, #0x528
   898ec:	54002ea1 	b.ne	89ec0 <BENCHTEST_snprintf+0x6c8>  // b.any
   898f0:	aa0303e0 	mov	x0, x3
   898f4:	910083e4 	add	x4, sp, #0x20
   898f8:	14000005 	b	8990c <BENCHTEST_snprintf+0x114>
   898fc:	39400001 	ldrb	w1, [x0]
   89900:	6b01005f 	cmp	w2, w1
   89904:	340000a1 	cbz	w1, 89918 <BENCHTEST_snprintf+0x120>
   89908:	54002dc1 	b.ne	89ec0 <BENCHTEST_snprintf+0x6c8>  // b.any
   8990c:	38401c82 	ldrb	w2, [x4, #1]!
   89910:	91000400 	add	x0, x0, #0x1
   89914:	35ffff42 	cbnz	w2, 898fc <BENCHTEST_snprintf+0x104>
   89918:	11000673 	add	w19, w19, #0x1
   8991c:	f0000042 	adrp	x2, 94000 <__trunctfdf2+0x1f8>
   89920:	52800143 	mov	w3, #0xa                   	// #10
   89924:	91174042 	add	x2, x2, #0x5d0
   89928:	d2804001 	mov	x1, #0x200                 	// #512
   8992c:	910083e0 	add	x0, sp, #0x20
   89930:	97fffaa4 	bl	883c0 <snprintf.constprop.1>
   89934:	394083e0 	ldrb	w0, [sp, #32]
   89938:	340001e0 	cbz	w0, 89974 <BENCHTEST_snprintf+0x17c>
   8993c:	f0000043 	adrp	x3, 94000 <__trunctfdf2+0x1f8>
   89940:	71009c1f 	cmp	w0, #0x27
   89944:	9114c063 	add	x3, x3, #0x530
   89948:	54002b01 	b.ne	89ea8 <BENCHTEST_snprintf+0x6b0>  // b.any
   8994c:	aa0303e0 	mov	x0, x3
   89950:	910083e4 	add	x4, sp, #0x20
   89954:	14000005 	b	89968 <BENCHTEST_snprintf+0x170>
   89958:	39400001 	ldrb	w1, [x0]
   8995c:	6b01005f 	cmp	w2, w1
   89960:	340000a1 	cbz	w1, 89974 <BENCHTEST_snprintf+0x17c>
   89964:	54002a21 	b.ne	89ea8 <BENCHTEST_snprintf+0x6b0>  // b.any
   89968:	38401c82 	ldrb	w2, [x4, #1]!
   8996c:	91000400 	add	x0, x0, #0x1
   89970:	35ffff42 	cbnz	w2, 89958 <BENCHTEST_snprintf+0x160>
   89974:	11000673 	add	w19, w19, #0x1
   89978:	f0000042 	adrp	x2, 94000 <__trunctfdf2+0x1f8>
   8997c:	52800143 	mov	w3, #0xa                   	// #10
   89980:	91176042 	add	x2, x2, #0x5d8
   89984:	d2804001 	mov	x1, #0x200                 	// #512
   89988:	910083e0 	add	x0, sp, #0x20
   8998c:	97fffa8d 	bl	883c0 <snprintf.constprop.1>
   89990:	394083e0 	ldrb	w0, [sp, #32]
   89994:	340001e0 	cbz	w0, 899d0 <BENCHTEST_snprintf+0x1d8>
   89998:	f0000043 	adrp	x3, 94000 <__trunctfdf2+0x1f8>
   8999c:	71009c1f 	cmp	w0, #0x27
   899a0:	9114e063 	add	x3, x3, #0x538
   899a4:	54002761 	b.ne	89e90 <BENCHTEST_snprintf+0x698>  // b.any
   899a8:	aa0303e0 	mov	x0, x3
   899ac:	910083e4 	add	x4, sp, #0x20
   899b0:	14000005 	b	899c4 <BENCHTEST_snprintf+0x1cc>
   899b4:	39400001 	ldrb	w1, [x0]
   899b8:	6b01005f 	cmp	w2, w1
   899bc:	340000a1 	cbz	w1, 899d0 <BENCHTEST_snprintf+0x1d8>
   899c0:	54002681 	b.ne	89e90 <BENCHTEST_snprintf+0x698>  // b.any
   899c4:	38401c82 	ldrb	w2, [x4, #1]!
   899c8:	91000400 	add	x0, x0, #0x1
   899cc:	35ffff42 	cbnz	w2, 899b4 <BENCHTEST_snprintf+0x1bc>
   899d0:	11000673 	add	w19, w19, #0x1
   899d4:	f0000042 	adrp	x2, 94000 <__trunctfdf2+0x1f8>
   899d8:	52800183 	mov	w3, #0xc                   	// #12
   899dc:	91178042 	add	x2, x2, #0x5e0
   899e0:	d2804001 	mov	x1, #0x200                 	// #512
   899e4:	910083e0 	add	x0, sp, #0x20
   899e8:	97fffa76 	bl	883c0 <snprintf.constprop.1>
   899ec:	394083e0 	ldrb	w0, [sp, #32]
   899f0:	340001e0 	cbz	w0, 89a2c <BENCHTEST_snprintf+0x234>
   899f4:	f0000043 	adrp	x3, 94000 <__trunctfdf2+0x1f8>
   899f8:	7100f01f 	cmp	w0, #0x3c
   899fc:	91150063 	add	x3, x3, #0x540
   89a00:	540023c1 	b.ne	89e78 <BENCHTEST_snprintf+0x680>  // b.any
   89a04:	aa0303e0 	mov	x0, x3
   89a08:	910083e4 	add	x4, sp, #0x20
   89a0c:	14000005 	b	89a20 <BENCHTEST_snprintf+0x228>
   89a10:	39400001 	ldrb	w1, [x0]
   89a14:	6b01005f 	cmp	w2, w1
   89a18:	340000a1 	cbz	w1, 89a2c <BENCHTEST_snprintf+0x234>
   89a1c:	540022e1 	b.ne	89e78 <BENCHTEST_snprintf+0x680>  // b.any
   89a20:	38401c82 	ldrb	w2, [x4, #1]!
   89a24:	91000400 	add	x0, x0, #0x1
   89a28:	35ffff42 	cbnz	w2, 89a10 <BENCHTEST_snprintf+0x218>
   89a2c:	11000673 	add	w19, w19, #0x1
   89a30:	f0000042 	adrp	x2, 94000 <__trunctfdf2+0x1f8>
   89a34:	52829ca3 	mov	w3, #0x14e5                	// #5349
   89a38:	9117a042 	add	x2, x2, #0x5e8
   89a3c:	d2804001 	mov	x1, #0x200                 	// #512
   89a40:	910083e0 	add	x0, sp, #0x20
   89a44:	97fffa5f 	bl	883c0 <snprintf.constprop.1>
   89a48:	394083e0 	ldrb	w0, [sp, #32]
   89a4c:	340001e0 	cbz	w0, 89a88 <BENCHTEST_snprintf+0x290>
   89a50:	f0000043 	adrp	x3, 94000 <__trunctfdf2+0x1f8>
   89a54:	7100f01f 	cmp	w0, #0x3c
   89a58:	91152063 	add	x3, x3, #0x548
   89a5c:	54002021 	b.ne	89e60 <BENCHTEST_snprintf+0x668>  // b.any
   89a60:	aa0303e0 	mov	x0, x3
   89a64:	910083e4 	add	x4, sp, #0x20
   89a68:	14000005 	b	89a7c <BENCHTEST_snprintf+0x284>
   89a6c:	39400001 	ldrb	w1, [x0]
   89a70:	6b01005f 	cmp	w2, w1
   89a74:	340000a1 	cbz	w1, 89a88 <BENCHTEST_snprintf+0x290>
   89a78:	54001f41 	b.ne	89e60 <BENCHTEST_snprintf+0x668>  // b.any
   89a7c:	38401c82 	ldrb	w2, [x4, #1]!
   89a80:	91000400 	add	x0, x0, #0x1
   89a84:	35ffff42 	cbnz	w2, 89a6c <BENCHTEST_snprintf+0x274>
   89a88:	11000673 	add	w19, w19, #0x1
   89a8c:	f0000043 	adrp	x3, 94000 <__trunctfdf2+0x1f8>
   89a90:	f0000042 	adrp	x2, 94000 <__trunctfdf2+0x1f8>
   89a94:	9117c063 	add	x3, x3, #0x5f0
   89a98:	9117e042 	add	x2, x2, #0x5f8
   89a9c:	d2804001 	mov	x1, #0x200                 	// #512
   89aa0:	910083e0 	add	x0, sp, #0x20
   89aa4:	97fffa47 	bl	883c0 <snprintf.constprop.1>
   89aa8:	394083e0 	ldrb	w0, [sp, #32]
   89aac:	340001e0 	cbz	w0, 89ae8 <BENCHTEST_snprintf+0x2f0>
   89ab0:	f0000043 	adrp	x3, 94000 <__trunctfdf2+0x1f8>
   89ab4:	7100f01f 	cmp	w0, #0x3c
   89ab8:	91156063 	add	x3, x3, #0x558
   89abc:	54001c61 	b.ne	89e48 <BENCHTEST_snprintf+0x650>  // b.any
   89ac0:	aa0303e0 	mov	x0, x3
   89ac4:	910083e4 	add	x4, sp, #0x20
   89ac8:	14000005 	b	89adc <BENCHTEST_snprintf+0x2e4>
   89acc:	39400001 	ldrb	w1, [x0]
   89ad0:	6b01005f 	cmp	w2, w1
   89ad4:	340000a1 	cbz	w1, 89ae8 <BENCHTEST_snprintf+0x2f0>
   89ad8:	54001b81 	b.ne	89e48 <BENCHTEST_snprintf+0x650>  // b.any
   89adc:	38401c82 	ldrb	w2, [x4, #1]!
   89ae0:	91000400 	add	x0, x0, #0x1
   89ae4:	35ffff42 	cbnz	w2, 89acc <BENCHTEST_snprintf+0x2d4>
   89ae8:	11000673 	add	w19, w19, #0x1
   89aec:	f0000045 	adrp	x5, 94000 <__trunctfdf2+0x1f8>
   89af0:	f0000044 	adrp	x4, 94000 <__trunctfdf2+0x1f8>
   89af4:	911800a5 	add	x5, x5, #0x600
   89af8:	91182084 	add	x4, x4, #0x608
   89afc:	f0000043 	adrp	x3, 94000 <__trunctfdf2+0x1f8>
   89b00:	f0000042 	adrp	x2, 94000 <__trunctfdf2+0x1f8>
   89b04:	91184063 	add	x3, x3, #0x610
   89b08:	91186042 	add	x2, x2, #0x618
   89b0c:	d2804001 	mov	x1, #0x200                 	// #512
   89b10:	910083e0 	add	x0, sp, #0x20
   89b14:	97fffa2b 	bl	883c0 <snprintf.constprop.1>
   89b18:	394083e0 	ldrb	w0, [sp, #32]
   89b1c:	340001e0 	cbz	w0, 89b58 <BENCHTEST_snprintf+0x360>
   89b20:	f0000043 	adrp	x3, 94000 <__trunctfdf2+0x1f8>
   89b24:	7101201f 	cmp	w0, #0x48
   89b28:	9115a063 	add	x3, x3, #0x568
   89b2c:	54001821 	b.ne	89e30 <BENCHTEST_snprintf+0x638>  // b.any
   89b30:	aa0303e0 	mov	x0, x3
   89b34:	910083e4 	add	x4, sp, #0x20
   89b38:	14000005 	b	89b4c <BENCHTEST_snprintf+0x354>
   89b3c:	39400001 	ldrb	w1, [x0]
   89b40:	6b01005f 	cmp	w2, w1
   89b44:	340000a1 	cbz	w1, 89b58 <BENCHTEST_snprintf+0x360>
   89b48:	54001741 	b.ne	89e30 <BENCHTEST_snprintf+0x638>  // b.any
   89b4c:	38401c82 	ldrb	w2, [x4, #1]!
   89b50:	91000400 	add	x0, x0, #0x1
   89b54:	35ffff42 	cbnz	w2, 89b3c <BENCHTEST_snprintf+0x344>
   89b58:	11000673 	add	w19, w19, #0x1
   89b5c:	f0000043 	adrp	x3, 94000 <__trunctfdf2+0x1f8>
   89b60:	f0000042 	adrp	x2, 94000 <__trunctfdf2+0x1f8>
   89b64:	9118a063 	add	x3, x3, #0x628
   89b68:	9118e042 	add	x2, x2, #0x638
   89b6c:	d2804001 	mov	x1, #0x200                 	// #512
   89b70:	910083e0 	add	x0, sp, #0x20
   89b74:	97fffa13 	bl	883c0 <snprintf.constprop.1>
   89b78:	394083e0 	ldrb	w0, [sp, #32]
   89b7c:	340001e0 	cbz	w0, 89bb8 <BENCHTEST_snprintf+0x3c0>
   89b80:	f0000043 	adrp	x3, 94000 <__trunctfdf2+0x1f8>
   89b84:	71018c1f 	cmp	w0, #0x63
   89b88:	91162063 	add	x3, x3, #0x588
   89b8c:	54001461 	b.ne	89e18 <BENCHTEST_snprintf+0x620>  // b.any
   89b90:	aa0303e0 	mov	x0, x3
   89b94:	910083e4 	add	x4, sp, #0x20
   89b98:	14000005 	b	89bac <BENCHTEST_snprintf+0x3b4>
   89b9c:	39400001 	ldrb	w1, [x0]
   89ba0:	6b01005f 	cmp	w2, w1
   89ba4:	340000a1 	cbz	w1, 89bb8 <BENCHTEST_snprintf+0x3c0>
   89ba8:	54001381 	b.ne	89e18 <BENCHTEST_snprintf+0x620>  // b.any
   89bac:	38401c82 	ldrb	w2, [x4, #1]!
   89bb0:	91000400 	add	x0, x0, #0x1
   89bb4:	35ffff42 	cbnz	w2, 89b9c <BENCHTEST_snprintf+0x3a4>
   89bb8:	11000673 	add	w19, w19, #0x1
   89bbc:	f0000042 	adrp	x2, 94000 <__trunctfdf2+0x1f8>
   89bc0:	528000a4 	mov	w4, #0x5                   	// #5
   89bc4:	91190042 	add	x2, x2, #0x640
   89bc8:	528001c3 	mov	w3, #0xe                   	// #14
   89bcc:	d2804001 	mov	x1, #0x200                 	// #512
   89bd0:	910083e0 	add	x0, sp, #0x20
   89bd4:	97fff9fb 	bl	883c0 <snprintf.constprop.1>
   89bd8:	394083e0 	ldrb	w0, [sp, #32]
   89bdc:	340001e0 	cbz	w0, 89c18 <BENCHTEST_snprintf+0x420>
   89be0:	f0000043 	adrp	x3, 94000 <__trunctfdf2+0x1f8>
   89be4:	7100c41f 	cmp	w0, #0x31
   89be8:	91166063 	add	x3, x3, #0x598
   89bec:	540010a1 	b.ne	89e00 <BENCHTEST_snprintf+0x608>  // b.any
   89bf0:	aa0303e0 	mov	x0, x3
   89bf4:	910083e4 	add	x4, sp, #0x20
   89bf8:	14000005 	b	89c0c <BENCHTEST_snprintf+0x414>
   89bfc:	39400001 	ldrb	w1, [x0]
   89c00:	6b01005f 	cmp	w2, w1
   89c04:	340000a1 	cbz	w1, 89c18 <BENCHTEST_snprintf+0x420>
   89c08:	54000fc1 	b.ne	89e00 <BENCHTEST_snprintf+0x608>  // b.any
   89c0c:	38401c82 	ldrb	w2, [x4, #1]!
   89c10:	91000400 	add	x0, x0, #0x1
   89c14:	35ffff42 	cbnz	w2, 89bfc <BENCHTEST_snprintf+0x404>
   89c18:	11000673 	add	w19, w19, #0x1
   89c1c:	f0000042 	adrp	x2, 94000 <__trunctfdf2+0x1f8>
   89c20:	52800c63 	mov	w3, #0x63                  	// #99
   89c24:	91192042 	add	x2, x2, #0x648
   89c28:	d2804001 	mov	x1, #0x200                 	// #512
   89c2c:	910083e0 	add	x0, sp, #0x20
   89c30:	97fff9e4 	bl	883c0 <snprintf.constprop.1>
   89c34:	394083e0 	ldrb	w0, [sp, #32]
   89c38:	340001e0 	cbz	w0, 89c74 <BENCHTEST_snprintf+0x47c>
   89c3c:	f0000043 	adrp	x3, 94000 <__trunctfdf2+0x1f8>
   89c40:	7101c01f 	cmp	w0, #0x70
   89c44:	91168063 	add	x3, x3, #0x5a0
   89c48:	54000d01 	b.ne	89de8 <BENCHTEST_snprintf+0x5f0>  // b.any
   89c4c:	aa0303e0 	mov	x0, x3
   89c50:	910083e4 	add	x4, sp, #0x20
   89c54:	14000005 	b	89c68 <BENCHTEST_snprintf+0x470>
   89c58:	39400001 	ldrb	w1, [x0]
   89c5c:	6b01005f 	cmp	w2, w1
   89c60:	340000a1 	cbz	w1, 89c74 <BENCHTEST_snprintf+0x47c>
   89c64:	54000c21 	b.ne	89de8 <BENCHTEST_snprintf+0x5f0>  // b.any
   89c68:	38401c82 	ldrb	w2, [x4, #1]!
   89c6c:	91000400 	add	x0, x0, #0x1
   89c70:	35ffff42 	cbnz	w2, 89c58 <BENCHTEST_snprintf+0x460>
   89c74:	11000673 	add	w19, w19, #0x1
   89c78:	f0000042 	adrp	x2, 94000 <__trunctfdf2+0x1f8>
   89c7c:	52800b03 	mov	w3, #0x58                  	// #88
   89c80:	91198042 	add	x2, x2, #0x660
   89c84:	d2804001 	mov	x1, #0x200                 	// #512
   89c88:	910083e0 	add	x0, sp, #0x20
   89c8c:	97fff9cd 	bl	883c0 <snprintf.constprop.1>
   89c90:	394083e0 	ldrb	w0, [sp, #32]
   89c94:	340001e0 	cbz	w0, 89cd0 <BENCHTEST_snprintf+0x4d8>
   89c98:	f0000043 	adrp	x3, 94000 <__trunctfdf2+0x1f8>
   89c9c:	7100e01f 	cmp	w0, #0x38
   89ca0:	9116c063 	add	x3, x3, #0x5b0
   89ca4:	54000961 	b.ne	89dd0 <BENCHTEST_snprintf+0x5d8>  // b.any
   89ca8:	aa0303e0 	mov	x0, x3
   89cac:	910083e4 	add	x4, sp, #0x20
   89cb0:	14000005 	b	89cc4 <BENCHTEST_snprintf+0x4cc>
   89cb4:	39400001 	ldrb	w1, [x0]
   89cb8:	6b01005f 	cmp	w2, w1
   89cbc:	340000a1 	cbz	w1, 89cd0 <BENCHTEST_snprintf+0x4d8>
   89cc0:	54000881 	b.ne	89dd0 <BENCHTEST_snprintf+0x5d8>  // b.any
   89cc4:	38401c82 	ldrb	w2, [x4, #1]!
   89cc8:	91000400 	add	x0, x0, #0x1
   89ccc:	35ffff42 	cbnz	w2, 89cb4 <BENCHTEST_snprintf+0x4bc>
   89cd0:	11000673 	add	w19, w19, #0x1
   89cd4:	f0000042 	adrp	x2, 94000 <__trunctfdf2+0x1f8>
   89cd8:	52800143 	mov	w3, #0xa                   	// #10
   89cdc:	9119a042 	add	x2, x2, #0x668
   89ce0:	d2804001 	mov	x1, #0x200                 	// #512
   89ce4:	910083e0 	add	x0, sp, #0x20
   89ce8:	97fff9b6 	bl	883c0 <snprintf.constprop.1>
   89cec:	394083e0 	ldrb	w0, [sp, #32]
   89cf0:	340001e0 	cbz	w0, 89d2c <BENCHTEST_snprintf+0x534>
   89cf4:	f0000043 	adrp	x3, 94000 <__trunctfdf2+0x1f8>
   89cf8:	7100c01f 	cmp	w0, #0x30
   89cfc:	9116e063 	add	x3, x3, #0x5b8
   89d00:	540005c1 	b.ne	89db8 <BENCHTEST_snprintf+0x5c0>  // b.any
   89d04:	aa0303e0 	mov	x0, x3
   89d08:	910083e4 	add	x4, sp, #0x20
   89d0c:	14000005 	b	89d20 <BENCHTEST_snprintf+0x528>
   89d10:	39400001 	ldrb	w1, [x0]
   89d14:	6b01005f 	cmp	w2, w1
   89d18:	340000a1 	cbz	w1, 89d2c <BENCHTEST_snprintf+0x534>
   89d1c:	540004e1 	b.ne	89db8 <BENCHTEST_snprintf+0x5c0>  // b.any
   89d20:	38401c82 	ldrb	w2, [x4, #1]!
   89d24:	91000400 	add	x0, x0, #0x1
   89d28:	35ffff42 	cbnz	w2, 89d10 <BENCHTEST_snprintf+0x518>
   89d2c:	11000673 	add	w19, w19, #0x1
   89d30:	f0000054 	adrp	x20, 94000 <__trunctfdf2+0x1f8>
   89d34:	9119c294 	add	x20, x20, #0x670
   89d38:	aa1403e0 	mov	x0, x20
   89d3c:	97fffd77 	bl	89318 <printf>
   89d40:	f0000040 	adrp	x0, 94000 <__trunctfdf2+0x1f8>
   89d44:	911a2000 	add	x0, x0, #0x688
   89d48:	97fffd74 	bl	89318 <printf>
   89d4c:	aa1403e0 	mov	x0, x20
   89d50:	97fffd72 	bl	89318 <printf>
   89d54:	528001c1 	mov	w1, #0xe                   	// #14
   89d58:	f0000040 	adrp	x0, 94000 <__trunctfdf2+0x1f8>
   89d5c:	911a8000 	add	x0, x0, #0x6a0
   89d60:	97fffd6e 	bl	89318 <printf>
   89d64:	2a1303e1 	mov	w1, w19
   89d68:	f0000040 	adrp	x0, 94000 <__trunctfdf2+0x1f8>
   89d6c:	911ac000 	add	x0, x0, #0x6b0
   89d70:	97fffd6a 	bl	89318 <printf>
   89d74:	528001c1 	mov	w1, #0xe                   	// #14
   89d78:	f0000040 	adrp	x0, 94000 <__trunctfdf2+0x1f8>
   89d7c:	4b130021 	sub	w1, w1, w19
   89d80:	911b0000 	add	x0, x0, #0x6c0
   89d84:	97fffd65 	bl	89318 <printf>
   89d88:	a94053f3 	ldp	x19, x20, [sp]
   89d8c:	a9417bf5 	ldp	x21, x30, [sp, #16]
   89d90:	910883ff 	add	sp, sp, #0x220
   89d94:	d65f03c0 	ret
   89d98:	52800021 	mov	w1, #0x1                   	// #1
   89d9c:	f0000040 	adrp	x0, 94000 <__trunctfdf2+0x1f8>
   89da0:	910083e2 	add	x2, sp, #0x20
   89da4:	9113c000 	add	x0, x0, #0x4f0
   89da8:	2a0103f3 	mov	w19, w1
   89dac:	52800015 	mov	w21, #0x0                   	// #0
   89db0:	97fffd5a 	bl	89318 <printf>
   89db4:	17fffead 	b	89868 <BENCHTEST_snprintf+0x70>
   89db8:	910083e2 	add	x2, sp, #0x20
   89dbc:	f0000040 	adrp	x0, 94000 <__trunctfdf2+0x1f8>
   89dc0:	528001c1 	mov	w1, #0xe                   	// #14
   89dc4:	9113c000 	add	x0, x0, #0x4f0
   89dc8:	97fffd54 	bl	89318 <printf>
   89dcc:	17ffffd9 	b	89d30 <BENCHTEST_snprintf+0x538>
   89dd0:	f0000040 	adrp	x0, 94000 <__trunctfdf2+0x1f8>
   89dd4:	910083e2 	add	x2, sp, #0x20
   89dd8:	528001a1 	mov	w1, #0xd                   	// #13
   89ddc:	9113c000 	add	x0, x0, #0x4f0
   89de0:	97fffd4e 	bl	89318 <printf>
   89de4:	17ffffbc 	b	89cd4 <BENCHTEST_snprintf+0x4dc>
   89de8:	f0000040 	adrp	x0, 94000 <__trunctfdf2+0x1f8>
   89dec:	910083e2 	add	x2, sp, #0x20
   89df0:	52800181 	mov	w1, #0xc                   	// #12
   89df4:	9113c000 	add	x0, x0, #0x4f0
   89df8:	97fffd48 	bl	89318 <printf>
   89dfc:	17ffff9f 	b	89c78 <BENCHTEST_snprintf+0x480>
   89e00:	f0000040 	adrp	x0, 94000 <__trunctfdf2+0x1f8>
   89e04:	910083e2 	add	x2, sp, #0x20
   89e08:	52800161 	mov	w1, #0xb                   	// #11
   89e0c:	9113c000 	add	x0, x0, #0x4f0
   89e10:	97fffd42 	bl	89318 <printf>
   89e14:	17ffff82 	b	89c1c <BENCHTEST_snprintf+0x424>
   89e18:	f0000040 	adrp	x0, 94000 <__trunctfdf2+0x1f8>
   89e1c:	910083e2 	add	x2, sp, #0x20
   89e20:	52800141 	mov	w1, #0xa                   	// #10
   89e24:	9113c000 	add	x0, x0, #0x4f0
   89e28:	97fffd3c 	bl	89318 <printf>
   89e2c:	17ffff64 	b	89bbc <BENCHTEST_snprintf+0x3c4>
   89e30:	f0000040 	adrp	x0, 94000 <__trunctfdf2+0x1f8>
   89e34:	910083e2 	add	x2, sp, #0x20
   89e38:	52800121 	mov	w1, #0x9                   	// #9
   89e3c:	9113c000 	add	x0, x0, #0x4f0
   89e40:	97fffd36 	bl	89318 <printf>
   89e44:	17ffff46 	b	89b5c <BENCHTEST_snprintf+0x364>
   89e48:	f0000040 	adrp	x0, 94000 <__trunctfdf2+0x1f8>
   89e4c:	910083e2 	add	x2, sp, #0x20
   89e50:	52800101 	mov	w1, #0x8                   	// #8
   89e54:	9113c000 	add	x0, x0, #0x4f0
   89e58:	97fffd30 	bl	89318 <printf>
   89e5c:	17ffff24 	b	89aec <BENCHTEST_snprintf+0x2f4>
   89e60:	f0000040 	adrp	x0, 94000 <__trunctfdf2+0x1f8>
   89e64:	910083e2 	add	x2, sp, #0x20
   89e68:	528000e1 	mov	w1, #0x7                   	// #7
   89e6c:	9113c000 	add	x0, x0, #0x4f0
   89e70:	97fffd2a 	bl	89318 <printf>
   89e74:	17ffff06 	b	89a8c <BENCHTEST_snprintf+0x294>
   89e78:	f0000040 	adrp	x0, 94000 <__trunctfdf2+0x1f8>
   89e7c:	910083e2 	add	x2, sp, #0x20
   89e80:	528000c1 	mov	w1, #0x6                   	// #6
   89e84:	9113c000 	add	x0, x0, #0x4f0
   89e88:	97fffd24 	bl	89318 <printf>
   89e8c:	17fffee9 	b	89a30 <BENCHTEST_snprintf+0x238>
   89e90:	f0000040 	adrp	x0, 94000 <__trunctfdf2+0x1f8>
   89e94:	910083e2 	add	x2, sp, #0x20
   89e98:	528000a1 	mov	w1, #0x5                   	// #5
   89e9c:	9113c000 	add	x0, x0, #0x4f0
   89ea0:	97fffd1e 	bl	89318 <printf>
   89ea4:	17fffecc 	b	899d4 <BENCHTEST_snprintf+0x1dc>
   89ea8:	f0000040 	adrp	x0, 94000 <__trunctfdf2+0x1f8>
   89eac:	910083e2 	add	x2, sp, #0x20
   89eb0:	52800081 	mov	w1, #0x4                   	// #4
   89eb4:	9113c000 	add	x0, x0, #0x4f0
   89eb8:	97fffd18 	bl	89318 <printf>
   89ebc:	17fffeaf 	b	89978 <BENCHTEST_snprintf+0x180>
   89ec0:	f0000040 	adrp	x0, 94000 <__trunctfdf2+0x1f8>
   89ec4:	910083e2 	add	x2, sp, #0x20
   89ec8:	52800061 	mov	w1, #0x3                   	// #3
   89ecc:	9113c000 	add	x0, x0, #0x4f0
   89ed0:	97fffd12 	bl	89318 <printf>
   89ed4:	17fffe92 	b	8991c <BENCHTEST_snprintf+0x124>
   89ed8:	2a1503f3 	mov	w19, w21
   89edc:	f0000040 	adrp	x0, 94000 <__trunctfdf2+0x1f8>
   89ee0:	910083e2 	add	x2, sp, #0x20
   89ee4:	52800041 	mov	w1, #0x2                   	// #2
   89ee8:	9113c000 	add	x0, x0, #0x4f0
   89eec:	97fffd0b 	bl	89318 <printf>
   89ef0:	17fffe74 	b	898c0 <BENCHTEST_snprintf+0xc8>
   89ef4:	00000000 	.inst	0x00000000 ; undefined

0000000000089ef8 <init_page_table>:
   89ef8:	f0000080 	adrp	x0, 9c000 <Stage2map1to1>
   89efc:	91000000 	add	x0, x0, #0x0
   89f00:	d2800002 	mov	x2, #0x0                   	// #0
   89f04:	52800001 	mov	w1, #0x0                   	// #0
   89f08:	5280e225 	mov	w5, #0x711                 	// #1809
   89f0c:	d503201f 	nop
   89f10:	2a0103e3 	mov	w3, w1
   89f14:	11000421 	add	w1, w1, #0x1
   89f18:	7106e03f 	cmp	w1, #0x1b8
   89f1c:	d37df064 	lsl	x4, x3, #3
   89f20:	f823781f 	str	xzr, [x0, x3, lsl #3]
   89f24:	78246805 	strh	w5, [x0, x4]
   89f28:	f8637804 	ldr	x4, [x0, x3, lsl #3]
   89f2c:	b3748c44 	bfi	x4, x2, #12, #36
   89f30:	f8237804 	str	x4, [x0, x3, lsl #3]
   89f34:	91080042 	add	x2, x2, #0x200
   89f38:	92408c42 	and	x2, x2, #0xfffffffff
   89f3c:	54fffea1 	b.ne	89f10 <init_page_table+0x18>  // b.any
   89f40:	d28e0002 	mov	x2, #0x7000                	// #28672
   89f44:	528081a5 	mov	w5, #0x40d                 	// #1037
   89f48:	f2a00062 	movk	x2, #0x3, lsl #16
   89f4c:	d503201f 	nop
   89f50:	2a0103e3 	mov	w3, w1
   89f54:	11000421 	add	w1, w1, #0x1
   89f58:	7107e03f 	cmp	w1, #0x1f8
   89f5c:	d37df064 	lsl	x4, x3, #3
   89f60:	f823781f 	str	xzr, [x0, x3, lsl #3]
   89f64:	78246805 	strh	w5, [x0, x4]
   89f68:	f8637804 	ldr	x4, [x0, x3, lsl #3]
   89f6c:	b3748c44 	bfi	x4, x2, #12, #36
   89f70:	f8237804 	str	x4, [x0, x3, lsl #3]
   89f74:	91080042 	add	x2, x2, #0x200
   89f78:	92408c42 	and	x2, x2, #0xfffffffff
   89f7c:	54fffea1 	b.ne	89f50 <init_page_table+0x58>  // b.any
   89f80:	9138000c 	add	x12, x0, #0xe00
   89f84:	9138000d 	add	x13, x0, #0xe00
   89f88:	d280802b 	mov	x11, #0x401                 	// #1025
   89f8c:	d280802a 	mov	x10, #0x401                 	// #1025
   89f90:	d2808029 	mov	x9, #0x401                 	// #1025
   89f94:	d2808028 	mov	x8, #0x401                 	// #1025
   89f98:	f2a7e00b 	movk	x11, #0x3f00, lsl #16
   89f9c:	f2a7e40a 	movk	x10, #0x3f20, lsl #16
   89fa0:	f2a7e809 	movk	x9, #0x3f40, lsl #16
   89fa4:	f2a7ec08 	movk	x8, #0x3f60, lsl #16
   89fa8:	d2808027 	mov	x7, #0x401                 	// #1025
   89fac:	d2808026 	mov	x6, #0x401                 	// #1025
   89fb0:	d2808025 	mov	x5, #0x401                 	// #1025
   89fb4:	d2808024 	mov	x4, #0x401                 	// #1025
   89fb8:	a91c298b 	stp	x11, x10, [x12, #448]
   89fbc:	900000a1 	adrp	x1, 9d000 <Stage2map1to1+0x1000>
   89fc0:	f2a7f007 	movk	x7, #0x3f80, lsl #16
   89fc4:	a91d2189 	stp	x9, x8, [x12, #464]
   89fc8:	f2a7f406 	movk	x6, #0x3fa0, lsl #16
   89fcc:	f2a7f805 	movk	x5, #0x3fc0, lsl #16
   89fd0:	f2a7fc04 	movk	x4, #0x3fe0, lsl #16
   89fd4:	d2808023 	mov	x3, #0x401                 	// #1025
   89fd8:	91400802 	add	x2, x0, #0x2, lsl #12
   89fdc:	91002021 	add	x1, x1, #0x8
   89fe0:	a91e19a7 	stp	x7, x6, [x13, #480]
   89fe4:	f2a80003 	movk	x3, #0x4000, lsl #16
   89fe8:	a91f11a5 	stp	x5, x4, [x13, #496]
   89fec:	f9080003 	str	x3, [x0, #4096]
   89ff0:	f800843f 	str	xzr, [x1], #8
   89ff4:	eb02003f 	cmp	x1, x2
   89ff8:	54ffffc1 	b.ne	89ff0 <init_page_table+0xf8>  // b.any
   89ffc:	b00000a5 	adrp	x5, 9e000 <Stage1map1to1>
   8a000:	910000a4 	add	x4, x5, #0x0
   8a004:	f0000083 	adrp	x3, 9d000 <Stage2map1to1+0x1000>
   8a008:	91000063 	add	x3, x3, #0x0
   8a00c:	92748c00 	and	x0, x0, #0xfffffffff000
   8a010:	92748c63 	and	x3, x3, #0xfffffffff000
   8a014:	900000a1 	adrp	x1, 9e000 <Stage1map1to1>
   8a018:	91400482 	add	x2, x4, #0x1, lsl #12
   8a01c:	91004021 	add	x1, x1, #0x10
   8a020:	b2410800 	orr	x0, x0, #0x8000000000000003
   8a024:	b2410863 	orr	x3, x3, #0x8000000000000003
   8a028:	f90000a0 	str	x0, [x5]
   8a02c:	f9000483 	str	x3, [x4, #8]
   8a030:	f800843f 	str	xzr, [x1], #8
   8a034:	eb02003f 	cmp	x1, x2
   8a038:	54ffffc1 	b.ne	8a030 <init_page_table+0x138>  // b.any
   8a03c:	f0000063 	adrp	x3, 99000 <Stage3virtual>
   8a040:	91000063 	add	x3, x3, #0x0
   8a044:	aa0303e0 	mov	x0, x3
   8a048:	91400461 	add	x1, x3, #0x1, lsl #12
   8a04c:	d503201f 	nop
   8a050:	f800841f 	str	xzr, [x0], #8
   8a054:	eb00003f 	cmp	x1, x0
   8a058:	54ffffc1 	b.ne	8a050 <init_page_table+0x158>  // b.any
   8a05c:	90000082 	adrp	x2, 9a000 <Stage2virtual>
   8a060:	91000042 	add	x2, x2, #0x0
   8a064:	92748c63 	and	x3, x3, #0xfffffffff000
   8a068:	aa0203e0 	mov	x0, x2
   8a06c:	913fe041 	add	x1, x2, #0xff8
   8a070:	b2410863 	orr	x3, x3, #0x8000000000000003
   8a074:	f907fc43 	str	x3, [x2, #4088]
   8a078:	f800841f 	str	xzr, [x0], #8
   8a07c:	eb00003f 	cmp	x1, x0
   8a080:	54ffffc1 	b.ne	8a078 <init_page_table+0x180>  // b.any
   8a084:	b0000083 	adrp	x3, 9b000 <Stage1virtual>
   8a088:	91000063 	add	x3, x3, #0x0
   8a08c:	92748c42 	and	x2, x2, #0xfffffffff000
   8a090:	aa0303e0 	mov	x0, x3
   8a094:	913fe061 	add	x1, x3, #0xff8
   8a098:	b2410842 	orr	x2, x2, #0x8000000000000003
   8a09c:	f907fc62 	str	x2, [x3, #4088]
   8a0a0:	f800841f 	str	xzr, [x0], #8
   8a0a4:	eb01001f 	cmp	x0, x1
   8a0a8:	54ffffc1 	b.ne	8a0a0 <init_page_table+0x1a8>  // b.any
   8a0ac:	d65f03c0 	ret

000000000008a0b0 <mmu_init>:
   8a0b0:	d5033f9f 	dsb	sy
   8a0b4:	d2808000 	mov	x0, #0x400                 	// #1024
   8a0b8:	f2a88180 	movk	x0, #0x440c, lsl #16
   8a0bc:	f2c01fe0 	movk	x0, #0xff, lsl #32
   8a0c0:	d518a200 	msr	mair_el1, x0
   8a0c4:	900000a0 	adrp	x0, 9e000 <Stage1map1to1>
   8a0c8:	91000000 	add	x0, x0, #0x0
   8a0cc:	d5182000 	msr	ttbr0_el1, x0
   8a0d0:	b0000080 	adrp	x0, 9b000 <Stage1virtual>
   8a0d4:	91000000 	add	x0, x0, #0x0
   8a0d8:	d5182020 	msr	ttbr1_el1, x0
   8a0dc:	d5033fdf 	isb
   8a0e0:	d286a320 	mov	x0, #0x3519                	// #13593
   8a0e4:	f2b6a320 	movk	x0, #0xb519, lsl #16
   8a0e8:	d5182040 	msr	tcr_el1, x0
   8a0ec:	d5033fdf 	isb
   8a0f0:	d5033fdf 	isb
   8a0f4:	d5381000 	mrs	x0, sctlr_el1
   8a0f8:	d28303e1 	mov	x1, #0x181f                	// #6175
   8a0fc:	f2a01801 	movk	x1, #0xc0, lsl #16
   8a100:	aa010000 	orr	x0, x0, x1
   8a104:	d5181000 	msr	sctlr_el1, x0
   8a108:	d5033fdf 	isb
   8a10c:	d0000060 	adrp	x0, 98000 <table_loaded>
   8a110:	91000000 	add	x0, x0, #0x0
   8a114:	17ffdbbb 	b	81000 <semaphore_dec>

000000000008a118 <virtualmap>:
   8a118:	f0000064 	adrp	x4, 99000 <Stage3virtual>
   8a11c:	12001c21 	and	w1, w1, #0xff
   8a120:	91000084 	add	x4, x4, #0x0
   8a124:	d2800002 	mov	x2, #0x0                   	// #0
   8a128:	14000002 	b	8a130 <virtualmap+0x18>
   8a12c:	54000320 	b.eq	8a190 <virtualmap+0x78>  // b.none
   8a130:	f8627883 	ldr	x3, [x4, x2, lsl #3]
   8a134:	2a0203e5 	mov	w5, w2
   8a138:	91000442 	add	x2, x2, #0x1
   8a13c:	f108005f 	cmp	x2, #0x200
   8a140:	b5ffff63 	cbnz	x3, 8a12c <virtualmap+0x14>
   8a144:	93407ca2 	sxtw	x2, w5
   8a148:	52800066 	mov	w6, #0x3                   	// #3
   8a14c:	331e0c26 	bfi	w6, w1, #2, #4
   8a150:	d3777c00 	ubfiz	x0, x0, #9, #32
   8a154:	d37df041 	lsl	x1, x2, #3
   8a158:	8b010083 	add	x3, x4, x1
   8a15c:	f822789f 	str	xzr, [x4, x2, lsl #3]
   8a160:	38216886 	strb	w6, [x4, x1]
   8a164:	39400461 	ldrb	w1, [x3, #1]
   8a168:	321e0021 	orr	w1, w1, #0x4
   8a16c:	39000461 	strb	w1, [x3, #1]
   8a170:	f8627881 	ldr	x1, [x4, x2, lsl #3]
   8a174:	b3748c01 	bfi	x1, x0, #12, #36
   8a178:	f8227881 	str	x1, [x4, x2, lsl #3]
   8a17c:	d5033fbf 	dmb	sy
   8a180:	53144ca0 	lsl	w0, w5, #12
   8a184:	51480000 	sub	w0, w0, #0x200, lsl #12
   8a188:	93407c00 	sxtw	x0, w0
   8a18c:	d65f03c0 	ret
   8a190:	d2800000 	mov	x0, #0x0                   	// #0
   8a194:	d65f03c0 	ret

000000000008a198 <SetPixel16>:
   8a198:	d10083ff 	sub	sp, sp, #0x20
   8a19c:	531f7821 	lsl	w1, w1, #1
   8a1a0:	29401008 	ldp	w8, w4, [x0]
   8a1a4:	530a3c66 	ubfx	w6, w3, #10, #6
   8a1a8:	b9000be3 	str	w3, [sp, #8]
   8a1ac:	53031c67 	ubfx	w7, w3, #3, #5
   8a1b0:	2a0614e7 	orr	w7, w7, w6, lsl #5
   8a1b4:	53135c63 	ubfx	w3, w3, #19, #5
   8a1b8:	b9401405 	ldr	w5, [x0, #20]
   8a1bc:	aa048104 	orr	x4, x8, x4, lsl #32
   8a1c0:	8b010081 	add	x1, x4, x1
   8a1c4:	b9400be0 	ldr	w0, [sp, #8]
   8a1c8:	1b057c42 	mul	w2, w2, w5
   8a1cc:	531f7842 	lsl	w2, w2, #1
   8a1d0:	8b224024 	add	x4, x1, w2, uxtw
   8a1d4:	38224827 	strb	w7, [x1, w2, uxtw]
   8a1d8:	39400481 	ldrb	w1, [x4, #1]
   8a1dc:	121d7021 	and	w1, w1, #0xfffffff8
   8a1e0:	2a460c26 	orr	w6, w1, w6, lsr #3
   8a1e4:	331d1066 	bfi	w6, w3, #3, #5
   8a1e8:	39000486 	strb	w6, [x4, #1]
   8a1ec:	910083ff 	add	sp, sp, #0x20
   8a1f0:	d65f03c0 	ret
   8a1f4:	d503201f 	nop

000000000008a1f8 <ClearArea16>:
   8a1f8:	b9401409 	ldr	w9, [x0, #20]
   8a1fc:	6b020084 	subs	w4, w4, w2
   8a200:	2940200a 	ldp	w10, w8, [x0]
   8a204:	531f782b 	lsl	w11, w1, #1
   8a208:	3940c807 	ldrb	w7, [x0, #50]
   8a20c:	1b027d22 	mul	w2, w9, w2
   8a210:	3940c406 	ldrb	w6, [x0, #49]
   8a214:	3940c005 	ldrb	w5, [x0, #48]
   8a218:	aa08814a 	orr	x10, x10, x8, lsl #32
   8a21c:	8b0b014a 	add	x10, x10, x11
   8a220:	53037ce7 	lsr	w7, w7, #3
   8a224:	531f7842 	lsl	w2, w2, #1
   8a228:	53027cc6 	lsr	w6, w6, #2
   8a22c:	53037ca5 	lsr	w5, w5, #3
   8a230:	8b02014a 	add	x10, x10, x2
   8a234:	540007c0 	b.eq	8a32c <ClearArea16+0x134>  // b.none
   8a238:	d37f7d29 	ubfiz	x9, x9, #1, #32
   8a23c:	6b010063 	subs	w3, w3, w1
   8a240:	54000760 	b.eq	8a32c <ClearArea16+0x134>  // b.none
   8a244:	51000463 	sub	w3, w3, #0x1
   8a248:	aa0a03eb 	mov	x11, x10
   8a24c:	91000463 	add	x3, x3, #0x1
   8a250:	52800008 	mov	w8, #0x0                   	// #0
   8a254:	8b030543 	add	x3, x10, x3, lsl #1
   8a258:	aa0303e2 	mov	x2, x3
   8a25c:	d503201f 	nop
   8a260:	aa0b03e0 	mov	x0, x11
   8a264:	d503201f 	nop
   8a268:	39400001 	ldrb	w1, [x0]
   8a26c:	330010a1 	bfxil	w1, w5, #0, #5
   8a270:	38002401 	strb	w1, [x0], #2
   8a274:	eb02001f 	cmp	x0, x2
   8a278:	54ffff81 	b.ne	8a268 <ClearArea16+0x70>  // b.any
   8a27c:	11000508 	add	w8, w8, #0x1
   8a280:	8b09016b 	add	x11, x11, x9
   8a284:	6b04011f 	cmp	w8, w4
   8a288:	8b090002 	add	x2, x0, x9
   8a28c:	54fffea1 	b.ne	8a260 <ClearArea16+0x68>  // b.any
   8a290:	531b08c8 	ubfiz	w8, w6, #5, #3
   8a294:	aa0303e5 	mov	x5, x3
   8a298:	aa0a03ec 	mov	x12, x10
   8a29c:	53037cc6 	lsr	w6, w6, #3
   8a2a0:	5280000b 	mov	w11, #0x0                   	// #0
   8a2a4:	d503201f 	nop
   8a2a8:	aa0c03e0 	mov	x0, x12
   8a2ac:	d503201f 	nop
   8a2b0:	39400002 	ldrb	w2, [x0]
   8a2b4:	91000800 	add	x0, x0, #0x2
   8a2b8:	385ff001 	ldurb	w1, [x0, #-1]
   8a2bc:	12001042 	and	w2, w2, #0x1f
   8a2c0:	121d7021 	and	w1, w1, #0xfffffff8
   8a2c4:	2a080042 	orr	w2, w2, w8
   8a2c8:	2a060021 	orr	w1, w1, w6
   8a2cc:	381fe002 	sturb	w2, [x0, #-2]
   8a2d0:	381ff001 	sturb	w1, [x0, #-1]
   8a2d4:	eb05001f 	cmp	x0, x5
   8a2d8:	54fffec1 	b.ne	8a2b0 <ClearArea16+0xb8>  // b.any
   8a2dc:	1100056b 	add	w11, w11, #0x1
   8a2e0:	8b09018c 	add	x12, x12, x9
   8a2e4:	6b0b009f 	cmp	w4, w11
   8a2e8:	8b090005 	add	x5, x0, x9
   8a2ec:	54fffde1 	b.ne	8a2a8 <ClearArea16+0xb0>  // b.any
   8a2f0:	52800002 	mov	w2, #0x0                   	// #0
   8a2f4:	d503201f 	nop
   8a2f8:	aa0a03e0 	mov	x0, x10
   8a2fc:	d503201f 	nop
   8a300:	39400401 	ldrb	w1, [x0, #1]
   8a304:	91000800 	add	x0, x0, #0x2
   8a308:	331d10e1 	bfi	w1, w7, #3, #5
   8a30c:	381ff001 	sturb	w1, [x0, #-1]
   8a310:	eb03001f 	cmp	x0, x3
   8a314:	54ffff61 	b.ne	8a300 <ClearArea16+0x108>  // b.any
   8a318:	11000442 	add	w2, w2, #0x1
   8a31c:	8b09014a 	add	x10, x10, x9
   8a320:	6b04005f 	cmp	w2, w4
   8a324:	8b090063 	add	x3, x3, x9
   8a328:	54fffe81 	b.ne	8a2f8 <ClearArea16+0x100>  // b.any
   8a32c:	d65f03c0 	ret

000000000008a330 <VertLine16>:
   8a330:	29428c08 	ldp	w8, w3, [x0, #20]
   8a334:	b9401c0b 	ldr	w11, [x0, #28]
   8a338:	29401406 	ldp	w6, w5, [x0]
   8a33c:	531f7863 	lsl	w3, w3, #1
   8a340:	3940a80a 	ldrb	w10, [x0, #42]
   8a344:	1b087d64 	mul	w4, w11, w8
   8a348:	3940a40c 	ldrb	w12, [x0, #41]
   8a34c:	3940a007 	ldrb	w7, [x0, #40]
   8a350:	aa0580c5 	orr	x5, x6, x5, lsl #32
   8a354:	8b23c0a3 	add	x3, x5, w3, sxtw
   8a358:	53037d4a 	lsr	w10, w10, #3
   8a35c:	531f7884 	lsl	w4, w4, #1
   8a360:	53027d8c 	lsr	w12, w12, #2
   8a364:	53037ce7 	lsr	w7, w7, #3
   8a368:	8b040063 	add	x3, x3, x4
   8a36c:	34000541 	cbz	w1, 8a414 <VertLine16+0xe4>
   8a370:	d37f7d08 	ubfiz	x8, x8, #1, #32
   8a374:	aa0303e4 	mov	x4, x3
   8a378:	7100045f 	cmp	w2, #0x1
   8a37c:	cb0803e9 	neg	x9, x8
   8a380:	54000500 	b.eq	8a420 <VertLine16+0xf0>  // b.none
   8a384:	52800008 	mov	w8, #0x0                   	// #0
   8a388:	14000002 	b	8a390 <VertLine16+0x60>
   8a38c:	2a0603e8 	mov	w8, w6
   8a390:	39400085 	ldrb	w5, [x4]
   8a394:	11000506 	add	w6, w8, #0x1
   8a398:	6b06003f 	cmp	w1, w6
   8a39c:	330010e5 	bfxil	w5, w7, #0, #5
   8a3a0:	39000085 	strb	w5, [x4]
   8a3a4:	8b090084 	add	x4, x4, x9
   8a3a8:	54ffff21 	b.ne	8a38c <VertLine16+0x5c>  // b.any
   8a3ac:	531b098d 	ubfiz	w13, w12, #5, #3
   8a3b0:	aa0303e4 	mov	x4, x3
   8a3b4:	53037d8c 	lsr	w12, w12, #3
   8a3b8:	52800007 	mov	w7, #0x0                   	// #0
   8a3bc:	d503201f 	nop
   8a3c0:	39400086 	ldrb	w6, [x4]
   8a3c4:	6b07011f 	cmp	w8, w7
   8a3c8:	39400485 	ldrb	w5, [x4, #1]
   8a3cc:	110004e7 	add	w7, w7, #0x1
   8a3d0:	120010c6 	and	w6, w6, #0x1f
   8a3d4:	121d70a5 	and	w5, w5, #0xfffffff8
   8a3d8:	2a0d00c6 	orr	w6, w6, w13
   8a3dc:	2a0c00a5 	orr	w5, w5, w12
   8a3e0:	39000086 	strb	w6, [x4]
   8a3e4:	39000485 	strb	w5, [x4, #1]
   8a3e8:	8b090084 	add	x4, x4, x9
   8a3ec:	54fffea1 	b.ne	8a3c0 <VertLine16+0x90>  // b.any
   8a3f0:	52800004 	mov	w4, #0x0                   	// #0
   8a3f4:	d503201f 	nop
   8a3f8:	39400465 	ldrb	w5, [x3, #1]
   8a3fc:	6b08009f 	cmp	w4, w8
   8a400:	11000484 	add	w4, w4, #0x1
   8a404:	331d1145 	bfi	w5, w10, #3, #5
   8a408:	39000465 	strb	w5, [x3, #1]
   8a40c:	8b090063 	add	x3, x3, x9
   8a410:	54ffff41 	b.ne	8a3f8 <VertLine16+0xc8>  // b.any
   8a414:	1b012c41 	madd	w1, w2, w1, w11
   8a418:	b9001c01 	str	w1, [x0, #28]
   8a41c:	d65f03c0 	ret
   8a420:	52800009 	mov	w9, #0x0                   	// #0
   8a424:	14000002 	b	8a42c <VertLine16+0xfc>
   8a428:	2a0603e9 	mov	w9, w6
   8a42c:	39400085 	ldrb	w5, [x4]
   8a430:	11000526 	add	w6, w9, #0x1
   8a434:	6b06003f 	cmp	w1, w6
   8a438:	330010e5 	bfxil	w5, w7, #0, #5
   8a43c:	39000085 	strb	w5, [x4]
   8a440:	8b080084 	add	x4, x4, x8
   8a444:	54ffff21 	b.ne	8a428 <VertLine16+0xf8>  // b.any
   8a448:	531b098d 	ubfiz	w13, w12, #5, #3
   8a44c:	aa0303e4 	mov	x4, x3
   8a450:	53037d8c 	lsr	w12, w12, #3
   8a454:	52800007 	mov	w7, #0x0                   	// #0
   8a458:	39400086 	ldrb	w6, [x4]
   8a45c:	6b07013f 	cmp	w9, w7
   8a460:	39400485 	ldrb	w5, [x4, #1]
   8a464:	110004e7 	add	w7, w7, #0x1
   8a468:	120010c6 	and	w6, w6, #0x1f
   8a46c:	121d70a5 	and	w5, w5, #0xfffffff8
   8a470:	2a0d00c6 	orr	w6, w6, w13
   8a474:	2a0c00a5 	orr	w5, w5, w12
   8a478:	39000086 	strb	w6, [x4]
   8a47c:	39000485 	strb	w5, [x4, #1]
   8a480:	8b080084 	add	x4, x4, x8
   8a484:	54fffea1 	b.ne	8a458 <VertLine16+0x128>  // b.any
   8a488:	52800004 	mov	w4, #0x0                   	// #0
   8a48c:	d503201f 	nop
   8a490:	39400465 	ldrb	w5, [x3, #1]
   8a494:	6b09009f 	cmp	w4, w9
   8a498:	11000484 	add	w4, w4, #0x1
   8a49c:	331d1145 	bfi	w5, w10, #3, #5
   8a4a0:	39000465 	strb	w5, [x3, #1]
   8a4a4:	8b080063 	add	x3, x3, x8
   8a4a8:	54ffff41 	b.ne	8a490 <VertLine16+0x160>  // b.any
   8a4ac:	1b012c41 	madd	w1, w2, w1, w11
   8a4b0:	b9001c01 	str	w1, [x0, #28]
   8a4b4:	d65f03c0 	ret

000000000008a4b8 <HorzLine16>:
   8a4b8:	2942b003 	ldp	w3, w12, [x0, #20]
   8a4bc:	b9401c07 	ldr	w7, [x0, #28]
   8a4c0:	29401005 	ldp	w5, w4, [x0]
   8a4c4:	3940a80b 	ldrb	w11, [x0, #42]
   8a4c8:	1b037ce7 	mul	w7, w7, w3
   8a4cc:	3940a40a 	ldrb	w10, [x0, #41]
   8a4d0:	3940a006 	ldrb	w6, [x0, #40]
   8a4d4:	531f7983 	lsl	w3, w12, #1
   8a4d8:	aa0480a4 	orr	x4, x5, x4, lsl #32
   8a4dc:	53037d6b 	lsr	w11, w11, #3
   8a4e0:	531f78e7 	lsl	w7, w7, #1
   8a4e4:	8b23c083 	add	x3, x4, w3, sxtw
   8a4e8:	53027d4a 	lsr	w10, w10, #2
   8a4ec:	53037cc6 	lsr	w6, w6, #3
   8a4f0:	8b0300e7 	add	x7, x7, x3
   8a4f4:	340004c1 	cbz	w1, 8a58c <HorzLine16+0xd4>
   8a4f8:	937f7c49 	sbfiz	x9, x2, #1, #32
   8a4fc:	aa0703e3 	mov	x3, x7
   8a500:	52800008 	mov	w8, #0x0                   	// #0
   8a504:	14000002 	b	8a50c <HorzLine16+0x54>
   8a508:	2a0503e8 	mov	w8, w5
   8a50c:	39400064 	ldrb	w4, [x3]
   8a510:	11000505 	add	w5, w8, #0x1
   8a514:	6b05003f 	cmp	w1, w5
   8a518:	330010c4 	bfxil	w4, w6, #0, #5
   8a51c:	39000064 	strb	w4, [x3]
   8a520:	8b090063 	add	x3, x3, x9
   8a524:	54ffff21 	b.ne	8a508 <HorzLine16+0x50>  // b.any
   8a528:	531b094d 	ubfiz	w13, w10, #5, #3
   8a52c:	aa0703e3 	mov	x3, x7
   8a530:	53037d4a 	lsr	w10, w10, #3
   8a534:	52800006 	mov	w6, #0x0                   	// #0
   8a538:	39400065 	ldrb	w5, [x3]
   8a53c:	6b06011f 	cmp	w8, w6
   8a540:	39400464 	ldrb	w4, [x3, #1]
   8a544:	110004c6 	add	w6, w6, #0x1
   8a548:	120010a5 	and	w5, w5, #0x1f
   8a54c:	121d7084 	and	w4, w4, #0xfffffff8
   8a550:	2a0d00a5 	orr	w5, w5, w13
   8a554:	2a0a0084 	orr	w4, w4, w10
   8a558:	39000065 	strb	w5, [x3]
   8a55c:	39000464 	strb	w4, [x3, #1]
   8a560:	8b090063 	add	x3, x3, x9
   8a564:	54fffea1 	b.ne	8a538 <HorzLine16+0x80>  // b.any
   8a568:	52800003 	mov	w3, #0x0                   	// #0
   8a56c:	d503201f 	nop
   8a570:	394004e4 	ldrb	w4, [x7, #1]
   8a574:	6b03011f 	cmp	w8, w3
   8a578:	11000463 	add	w3, w3, #0x1
   8a57c:	331d1164 	bfi	w4, w11, #3, #5
   8a580:	390004e4 	strb	w4, [x7, #1]
   8a584:	8b0900e7 	add	x7, x7, x9
   8a588:	54ffff41 	b.ne	8a570 <HorzLine16+0xb8>  // b.any
   8a58c:	1b013041 	madd	w1, w2, w1, w12
   8a590:	b9001801 	str	w1, [x0, #24]
   8a594:	d65f03c0 	ret

000000000008a598 <DiagLine16>:
   8a598:	2942c40d 	ldp	w13, w17, [x0, #20]
   8a59c:	6b02003f 	cmp	w1, w2
   8a5a0:	b9401c10 	ldr	w16, [x0, #28]
   8a5a4:	1a829022 	csel	w2, w1, w2, ls  // ls = plast
   8a5a8:	29401c08 	ldp	w8, w7, [x0]
   8a5ac:	531f7a26 	lsl	w6, w17, #1
   8a5b0:	3940a80b 	ldrb	w11, [x0, #42]
   8a5b4:	1b0d7e05 	mul	w5, w16, w13
   8a5b8:	3940a40a 	ldrb	w10, [x0, #41]
   8a5bc:	3940a00c 	ldrb	w12, [x0, #40]
   8a5c0:	aa078107 	orr	x7, x8, x7, lsl #32
   8a5c4:	8b26c0e6 	add	x6, x7, w6, sxtw
   8a5c8:	53037d6b 	lsr	w11, w11, #3
   8a5cc:	531f78a5 	lsl	w5, w5, #1
   8a5d0:	53027d4a 	lsr	w10, w10, #2
   8a5d4:	53037d8c 	lsr	w12, w12, #3
   8a5d8:	8b0500c6 	add	x6, x6, x5
   8a5dc:	34000321 	cbz	w1, 8a640 <DiagLine16+0xa8>
   8a5e0:	1b047dad 	mul	w13, w13, w4
   8a5e4:	531b094e 	ubfiz	w14, w10, #5, #3
   8a5e8:	937f7c6f 	sbfiz	x15, x3, #1, #32
   8a5ec:	53037d4a 	lsr	w10, w10, #3
   8a5f0:	52800008 	mov	w8, #0x0                   	// #0
   8a5f4:	52800007 	mov	w7, #0x0                   	// #0
   8a5f8:	d37ff9ad 	lsl	x13, x13, #1
   8a5fc:	d503201f 	nop
   8a600:	394004c5 	ldrb	w5, [x6, #1]
   8a604:	2a0e0189 	orr	w9, w12, w14
   8a608:	390000c9 	strb	w9, [x6]
   8a60c:	0b0200e7 	add	w7, w7, w2
   8a610:	121d70a5 	and	w5, w5, #0xfffffff8
   8a614:	11000508 	add	w8, w8, #0x1
   8a618:	2a0a00a5 	orr	w5, w5, w10
   8a61c:	6b07003f 	cmp	w1, w7
   8a620:	331d1165 	bfi	w5, w11, #3, #5
   8a624:	390004c5 	strb	w5, [x6, #1]
   8a628:	8b0f00c6 	add	x6, x6, x15
   8a62c:	54000068 	b.hi	8a638 <DiagLine16+0xa0>  // b.pmore
   8a630:	4b0100e7 	sub	w7, w7, w1
   8a634:	8b0d00c6 	add	x6, x6, x13
   8a638:	6b08003f 	cmp	w1, w8
   8a63c:	54fffe21 	b.ne	8a600 <DiagLine16+0x68>  // b.any
   8a640:	1b014461 	madd	w1, w3, w1, w17
   8a644:	1b024082 	madd	w2, w4, w2, w16
   8a648:	29030801 	stp	w1, w2, [x0, #24]
   8a64c:	d65f03c0 	ret

000000000008a650 <WriteChar16>:
   8a650:	a9bf7bf3 	stp	x19, x30, [sp, #-16]!
   8a654:	531e1c21 	ubfiz	w1, w1, #2, #8
   8a658:	b9401c03 	ldr	w3, [x0, #28]
   8a65c:	2942cc02 	ldp	w2, w19, [x0, #20]
   8a660:	d0000052 	adrp	x18, 94000 <__trunctfdf2+0x1f8>
   8a664:	29401005 	ldp	w5, w4, [x0]
   8a668:	1100103e 	add	w30, w1, #0x4
   8a66c:	1b037c43 	mul	w3, w2, w3
   8a670:	3940a811 	ldrb	w17, [x0, #42]
   8a674:	3940a410 	ldrb	w16, [x0, #41]
   8a678:	d37f7c4e 	ubfiz	x14, x2, #1, #32
   8a67c:	3940a00f 	ldrb	w15, [x0, #40]
   8a680:	531f7a62 	lsl	w2, w19, #1
   8a684:	3940b80d 	ldrb	w13, [x0, #46]
   8a688:	aa0480a4 	orr	x4, x5, x4, lsl #32
   8a68c:	3940b40c 	ldrb	w12, [x0, #45]
   8a690:	531f7863 	lsl	w3, w3, #1
   8a694:	3940b00b 	ldrb	w11, [x0, #44]
   8a698:	8b22c082 	add	x2, x4, w2, sxtw
   8a69c:	911b3252 	add	x18, x18, #0x6cc
   8a6a0:	53037e31 	lsr	w17, w17, #3
   8a6a4:	53027e10 	lsr	w16, w16, #2
   8a6a8:	53037def 	lsr	w15, w15, #3
   8a6ac:	53037dad 	lsr	w13, w13, #3
   8a6b0:	53027d8c 	lsr	w12, w12, #2
   8a6b4:	53037d6b 	lsr	w11, w11, #3
   8a6b8:	8b020063 	add	x3, x3, x2
   8a6bc:	b8615a46 	ldr	w6, [x18, w1, uxtw #2]
   8a6c0:	52800005 	mov	w5, #0x0                   	// #0
   8a6c4:	d503201f 	nop
   8a6c8:	2a0c03e2 	mov	w2, w12
   8a6cc:	2a0d03ea 	mov	w10, w13
   8a6d0:	2a0b03e4 	mov	w4, w11
   8a6d4:	120008a9 	and	w9, w5, #0x7
   8a6d8:	36f80086 	tbz	w6, #31, 8a6e8 <WriteChar16+0x98>
   8a6dc:	2a1103ea 	mov	w10, w17
   8a6e0:	2a1003e2 	mov	w2, w16
   8a6e4:	2a0f03e4 	mov	w4, w15
   8a6e8:	937f7d28 	sbfiz	x8, x9, #1, #32
   8a6ec:	2a021484 	orr	w4, w4, w2, lsl #5
   8a6f0:	8b080067 	add	x7, x3, x8
   8a6f4:	71001d3f 	cmp	w9, #0x7
   8a6f8:	110004a5 	add	w5, w5, #0x1
   8a6fc:	8b0e0069 	add	x9, x3, x14
   8a700:	38286864 	strb	w4, [x3, x8]
   8a704:	531f78c6 	lsl	w6, w6, #1
   8a708:	9a830123 	csel	x3, x9, x3, eq  // eq = none
   8a70c:	710080bf 	cmp	w5, #0x20
   8a710:	394004e4 	ldrb	w4, [x7, #1]
   8a714:	121d7084 	and	w4, w4, #0xfffffff8
   8a718:	2a420c82 	orr	w2, w4, w2, lsr #3
   8a71c:	331d1142 	bfi	w2, w10, #3, #5
   8a720:	390004e2 	strb	w2, [x7, #1]
   8a724:	54fffd21 	b.ne	8a6c8 <WriteChar16+0x78>  // b.any
   8a728:	11000421 	add	w1, w1, #0x1
   8a72c:	6b1e003f 	cmp	w1, w30
   8a730:	54fffc61 	b.ne	8a6bc <WriteChar16+0x6c>  // b.any
   8a734:	11002273 	add	w19, w19, #0x8
   8a738:	b9001813 	str	w19, [x0, #24]
   8a73c:	a8c17bf3 	ldp	x19, x30, [sp], #16
   8a740:	d65f03c0 	ret
   8a744:	d503201f 	nop

000000000008a748 <TransparentWriteChar16>:
   8a748:	2942c402 	ldp	w2, w17, [x0, #20]
   8a74c:	531e1c21 	ubfiz	w1, w1, #2, #8
   8a750:	b9401c03 	ldr	w3, [x0, #28]
   8a754:	d000004f 	adrp	x15, 94000 <__trunctfdf2+0x1f8>
   8a758:	29401005 	ldp	w5, w4, [x0]
   8a75c:	d37f7c4c 	ubfiz	x12, x2, #1, #32
   8a760:	3940a40d 	ldrb	w13, [x0, #41]
   8a764:	11001030 	add	w16, w1, #0x4
   8a768:	1b037c43 	mul	w3, w2, w3
   8a76c:	3940a80e 	ldrb	w14, [x0, #42]
   8a770:	3940a00a 	ldrb	w10, [x0, #40]
   8a774:	531f7a22 	lsl	w2, w17, #1
   8a778:	53027dad 	lsr	w13, w13, #2
   8a77c:	aa0480a4 	orr	x4, x5, x4, lsl #32
   8a780:	531f7863 	lsl	w3, w3, #1
   8a784:	8b22c082 	add	x2, x4, w2, sxtw
   8a788:	531b09ab 	ubfiz	w11, w13, #5, #3
   8a78c:	911b31ef 	add	x15, x15, #0x6cc
   8a790:	53037dce 	lsr	w14, w14, #3
   8a794:	53037dad 	lsr	w13, w13, #3
   8a798:	53037d4a 	lsr	w10, w10, #3
   8a79c:	8b020063 	add	x3, x3, x2
   8a7a0:	b86159e4 	ldr	w4, [x15, w1, uxtw #2]
   8a7a4:	52800002 	mov	w2, #0x0                   	// #0
   8a7a8:	12000846 	and	w6, w2, #0x7
   8a7ac:	2a0b0145 	orr	w5, w10, w11
   8a7b0:	8b0c0067 	add	x7, x3, x12
   8a7b4:	11000442 	add	w2, w2, #0x1
   8a7b8:	36f80124 	tbz	w4, #31, 8a7dc <TransparentWriteChar16+0x94>
   8a7bc:	937f7cc9 	sbfiz	x9, x6, #1, #32
   8a7c0:	8b090068 	add	x8, x3, x9
   8a7c4:	38296865 	strb	w5, [x3, x9]
   8a7c8:	39400505 	ldrb	w5, [x8, #1]
   8a7cc:	121d70a5 	and	w5, w5, #0xfffffff8
   8a7d0:	2a0d00a5 	orr	w5, w5, w13
   8a7d4:	331d11c5 	bfi	w5, w14, #3, #5
   8a7d8:	39000505 	strb	w5, [x8, #1]
   8a7dc:	71001cdf 	cmp	w6, #0x7
   8a7e0:	531f7884 	lsl	w4, w4, #1
   8a7e4:	9a8300e3 	csel	x3, x7, x3, eq  // eq = none
   8a7e8:	7100805f 	cmp	w2, #0x20
   8a7ec:	54fffde1 	b.ne	8a7a8 <TransparentWriteChar16+0x60>  // b.any
   8a7f0:	11000421 	add	w1, w1, #0x1
   8a7f4:	6b10003f 	cmp	w1, w16
   8a7f8:	54fffd41 	b.ne	8a7a0 <TransparentWriteChar16+0x58>  // b.any
   8a7fc:	11002231 	add	w17, w17, #0x8
   8a800:	b9001811 	str	w17, [x0, #24]
   8a804:	d65f03c0 	ret

000000000008a808 <PutImage16>:
   8a808:	29429408 	ldp	w8, w5, [x0, #20]
   8a80c:	12001c84 	and	w4, w4, #0xff
   8a810:	b9401c06 	ldr	w6, [x0, #28]
   8a814:	29401c09 	ldp	w9, w7, [x0]
   8a818:	531f78a5 	lsl	w5, w5, #1
   8a81c:	1b067d00 	mul	w0, w8, w6
   8a820:	aa078126 	orr	x6, x9, x7, lsl #32
   8a824:	8b25c0c5 	add	x5, x6, w5, sxtw
   8a828:	531f7800 	lsl	w0, w0, #1
   8a82c:	8b0000a5 	add	x5, x5, x0
   8a830:	340002e2 	cbz	w2, 8a88c <PutImage16+0x84>
   8a834:	d37f7d08 	ubfiz	x8, x8, #1, #32
   8a838:	cb0803e9 	neg	x9, x8
   8a83c:	34000281 	cbz	w1, 8a88c <PutImage16+0x84>
   8a840:	51000421 	sub	w1, w1, #0x1
   8a844:	52800007 	mov	w7, #0x0                   	// #0
   8a848:	91000421 	add	x1, x1, #0x1
   8a84c:	d37ff826 	lsl	x6, x1, #1
   8a850:	d2800000 	mov	x0, #0x0                   	// #0
   8a854:	d503201f 	nop
   8a858:	78606861 	ldrh	w1, [x3, x0]
   8a85c:	782068a1 	strh	w1, [x5, x0]
   8a860:	91000800 	add	x0, x0, #0x2
   8a864:	eb0000df 	cmp	x6, x0
   8a868:	54ffff81 	b.ne	8a858 <PutImage16+0x50>  // b.any
   8a86c:	7100009f 	cmp	w4, #0x0
   8a870:	8b0900a0 	add	x0, x5, x9
   8a874:	110004e7 	add	w7, w7, #0x1
   8a878:	8b0800a5 	add	x5, x5, x8
   8a87c:	9a8000a5 	csel	x5, x5, x0, eq  // eq = none
   8a880:	8b060063 	add	x3, x3, x6
   8a884:	6b07005f 	cmp	w2, w7
   8a888:	54fffe41 	b.ne	8a850 <PutImage16+0x48>  // b.any
   8a88c:	d65f03c0 	ret

000000000008a890 <SetPixel24>:
   8a890:	d10083ff 	sub	sp, sp, #0x20
   8a894:	b9400007 	ldr	w7, [x0]
   8a898:	0b010421 	add	w1, w1, w1, lsl #1
   8a89c:	b9000be3 	str	w3, [sp, #8]
   8a8a0:	b9401404 	ldr	w4, [x0, #20]
   8a8a4:	b9400400 	ldr	w0, [x0, #4]
   8a8a8:	394027e6 	ldrb	w6, [sp, #9]
   8a8ac:	39402be5 	ldrb	w5, [sp, #10]
   8a8b0:	1b047c42 	mul	w2, w2, w4
   8a8b4:	aa0080e4 	orr	x4, x7, x0, lsl #32
   8a8b8:	2a0303e0 	mov	w0, w3
   8a8bc:	0b020442 	add	w2, w2, w2, lsl #1
   8a8c0:	8b040042 	add	x2, x2, x4
   8a8c4:	8b214044 	add	x4, x2, w1, uxtw
   8a8c8:	38214843 	strb	w3, [x2, w1, uxtw]
   8a8cc:	39000486 	strb	w6, [x4, #1]
   8a8d0:	39000885 	strb	w5, [x4, #2]
   8a8d4:	910083ff 	add	sp, sp, #0x20
   8a8d8:	d65f03c0 	ret
   8a8dc:	d503201f 	nop

000000000008a8e0 <ClearArea24>:
   8a8e0:	b9401406 	ldr	w6, [x0, #20]
   8a8e4:	6b020084 	subs	w4, w4, w2
   8a8e8:	29401408 	ldp	w8, w5, [x0]
   8a8ec:	0b010427 	add	w7, w1, w1, lsl #1
   8a8f0:	1b027cc2 	mul	w2, w6, w2
   8a8f4:	aa058105 	orr	x5, x8, x5, lsl #32
   8a8f8:	8b0700a5 	add	x5, x5, x7
   8a8fc:	0b020442 	add	w2, w2, w2, lsl #1
   8a900:	8b0200a5 	add	x5, x5, x2
   8a904:	54000360 	b.eq	8a970 <ClearArea24+0x90>  // b.none
   8a908:	2a0603e7 	mov	w7, w6
   8a90c:	6b010063 	subs	w3, w3, w1
   8a910:	8b0704e7 	add	x7, x7, x7, lsl #1
   8a914:	540002e0 	b.eq	8a970 <ClearArea24+0x90>  // b.none
   8a918:	51000463 	sub	w3, w3, #0x1
   8a91c:	9100c001 	add	x1, x0, #0x30
   8a920:	91000460 	add	x0, x3, #0x1
   8a924:	52800006 	mov	w6, #0x0                   	// #0
   8a928:	8b000400 	add	x0, x0, x0, lsl #1
   8a92c:	8b050003 	add	x3, x0, x5
   8a930:	aa0503e0 	mov	x0, x5
   8a934:	d503201f 	nop
   8a938:	39400022 	ldrb	w2, [x1]
   8a93c:	91000c00 	add	x0, x0, #0x3
   8a940:	381fd002 	sturb	w2, [x0, #-3]
   8a944:	39400422 	ldrb	w2, [x1, #1]
   8a948:	381fe002 	sturb	w2, [x0, #-2]
   8a94c:	39400822 	ldrb	w2, [x1, #2]
   8a950:	381ff002 	sturb	w2, [x0, #-1]
   8a954:	eb00007f 	cmp	x3, x0
   8a958:	54ffff01 	b.ne	8a938 <ClearArea24+0x58>  // b.any
   8a95c:	110004c6 	add	w6, w6, #0x1
   8a960:	8b0700a5 	add	x5, x5, x7
   8a964:	6b0400df 	cmp	w6, w4
   8a968:	8b070063 	add	x3, x3, x7
   8a96c:	54fffe21 	b.ne	8a930 <ClearArea24+0x50>  // b.any
   8a970:	d65f03c0 	ret
   8a974:	d503201f 	nop

000000000008a978 <VertLine24>:
   8a978:	29429005 	ldp	w5, w4, [x0, #20]
   8a97c:	b9401c08 	ldr	w8, [x0, #28]
   8a980:	29400c07 	ldp	w7, w3, [x0]
   8a984:	0b040484 	add	w4, w4, w4, lsl #1
   8a988:	1b057d06 	mul	w6, w8, w5
   8a98c:	aa0380e3 	orr	x3, x7, x3, lsl #32
   8a990:	8b24c063 	add	x3, x3, w4, sxtw
   8a994:	0b0604c6 	add	w6, w6, w6, lsl #1
   8a998:	8b060063 	add	x3, x3, x6
   8a99c:	34000261 	cbz	w1, 8a9e8 <VertLine24+0x70>
   8a9a0:	2a0503e5 	mov	w5, w5
   8a9a4:	9100a004 	add	x4, x0, #0x28
   8a9a8:	7100045f 	cmp	w2, #0x1
   8a9ac:	8b0504a5 	add	x5, x5, x5, lsl #1
   8a9b0:	cb0503e7 	neg	x7, x5
   8a9b4:	54000200 	b.eq	8a9f4 <VertLine24+0x7c>  // b.none
   8a9b8:	52800005 	mov	w5, #0x0                   	// #0
   8a9bc:	d503201f 	nop
   8a9c0:	39400086 	ldrb	w6, [x4]
   8a9c4:	110004a5 	add	w5, w5, #0x1
   8a9c8:	39000066 	strb	w6, [x3]
   8a9cc:	6b05003f 	cmp	w1, w5
   8a9d0:	39400486 	ldrb	w6, [x4, #1]
   8a9d4:	39000466 	strb	w6, [x3, #1]
   8a9d8:	39400886 	ldrb	w6, [x4, #2]
   8a9dc:	39000866 	strb	w6, [x3, #2]
   8a9e0:	8b070063 	add	x3, x3, x7
   8a9e4:	54fffee1 	b.ne	8a9c0 <VertLine24+0x48>  // b.any
   8a9e8:	1b012041 	madd	w1, w2, w1, w8
   8a9ec:	b9001c01 	str	w1, [x0, #28]
   8a9f0:	d65f03c0 	ret
   8a9f4:	52800006 	mov	w6, #0x0                   	// #0
   8a9f8:	39400087 	ldrb	w7, [x4]
   8a9fc:	110004c6 	add	w6, w6, #0x1
   8aa00:	39000067 	strb	w7, [x3]
   8aa04:	6b06003f 	cmp	w1, w6
   8aa08:	39400487 	ldrb	w7, [x4, #1]
   8aa0c:	39000467 	strb	w7, [x3, #1]
   8aa10:	39400887 	ldrb	w7, [x4, #2]
   8aa14:	39000867 	strb	w7, [x3, #2]
   8aa18:	8b050063 	add	x3, x3, x5
   8aa1c:	54fffee1 	b.ne	8a9f8 <VertLine24+0x80>  // b.any
   8aa20:	1b012041 	madd	w1, w2, w1, w8
   8aa24:	b9001c01 	str	w1, [x0, #28]
   8aa28:	d65f03c0 	ret
   8aa2c:	d503201f 	nop

000000000008aa30 <HorzLine24>:
   8aa30:	2942a004 	ldp	w4, w8, [x0, #20]
   8aa34:	b9401c03 	ldr	w3, [x0, #28]
   8aa38:	29401406 	ldp	w6, w5, [x0]
   8aa3c:	1b047c63 	mul	w3, w3, w4
   8aa40:	0b080504 	add	w4, w8, w8, lsl #1
   8aa44:	aa0580c5 	orr	x5, x6, x5, lsl #32
   8aa48:	8b24c0a4 	add	x4, x5, w4, sxtw
   8aa4c:	0b030463 	add	w3, w3, w3, lsl #1
   8aa50:	8b040063 	add	x3, x3, x4
   8aa54:	340001e1 	cbz	w1, 8aa90 <HorzLine24+0x60>
   8aa58:	93407c47 	sxtw	x7, w2
   8aa5c:	9100a005 	add	x5, x0, #0x28
   8aa60:	52800004 	mov	w4, #0x0                   	// #0
   8aa64:	8b0704e7 	add	x7, x7, x7, lsl #1
   8aa68:	394000a6 	ldrb	w6, [x5]
   8aa6c:	11000484 	add	w4, w4, #0x1
   8aa70:	39000066 	strb	w6, [x3]
   8aa74:	6b04003f 	cmp	w1, w4
   8aa78:	394004a6 	ldrb	w6, [x5, #1]
   8aa7c:	39000466 	strb	w6, [x3, #1]
   8aa80:	394008a6 	ldrb	w6, [x5, #2]
   8aa84:	39000866 	strb	w6, [x3, #2]
   8aa88:	8b070063 	add	x3, x3, x7
   8aa8c:	54fffee1 	b.ne	8aa68 <HorzLine24+0x38>  // b.any
   8aa90:	1b012041 	madd	w1, w2, w1, w8
   8aa94:	b9001801 	str	w1, [x0, #24]
   8aa98:	d65f03c0 	ret
   8aa9c:	d503201f 	nop

000000000008aaa0 <DiagLine24>:
   8aaa0:	2942b00b 	ldp	w11, w12, [x0, #20]
   8aaa4:	6b02003f 	cmp	w1, w2
   8aaa8:	b9401c0d 	ldr	w13, [x0, #28]
   8aaac:	1a829022 	csel	w2, w1, w2, ls  // ls = plast
   8aab0:	29401c08 	ldp	w8, w7, [x0]
   8aab4:	0b0c0585 	add	w5, w12, w12, lsl #1
   8aab8:	1b0b7da6 	mul	w6, w13, w11
   8aabc:	aa078107 	orr	x7, x8, x7, lsl #32
   8aac0:	8b25c0e5 	add	x5, x7, w5, sxtw
   8aac4:	0b0604c6 	add	w6, w6, w6, lsl #1
   8aac8:	8b0600a5 	add	x5, x5, x6
   8aacc:	34000301 	cbz	w1, 8ab2c <DiagLine24+0x8c>
   8aad0:	1b047d6b 	mul	w11, w11, w4
   8aad4:	93407c6a 	sxtw	x10, w3
   8aad8:	9100a008 	add	x8, x0, #0x28
   8aadc:	52800007 	mov	w7, #0x0                   	// #0
   8aae0:	8b0a054a 	add	x10, x10, x10, lsl #1
   8aae4:	52800006 	mov	w6, #0x0                   	// #0
   8aae8:	8b0b056b 	add	x11, x11, x11, lsl #1
   8aaec:	d503201f 	nop
   8aaf0:	39400109 	ldrb	w9, [x8]
   8aaf4:	0b0200c6 	add	w6, w6, w2
   8aaf8:	390000a9 	strb	w9, [x5]
   8aafc:	110004e7 	add	w7, w7, #0x1
   8ab00:	6b06003f 	cmp	w1, w6
   8ab04:	39400509 	ldrb	w9, [x8, #1]
   8ab08:	390004a9 	strb	w9, [x5, #1]
   8ab0c:	39400909 	ldrb	w9, [x8, #2]
   8ab10:	390008a9 	strb	w9, [x5, #2]
   8ab14:	8b0a00a5 	add	x5, x5, x10
   8ab18:	54000068 	b.hi	8ab24 <DiagLine24+0x84>  // b.pmore
   8ab1c:	4b0100c6 	sub	w6, w6, w1
   8ab20:	8b0b00a5 	add	x5, x5, x11
   8ab24:	6b07003f 	cmp	w1, w7
   8ab28:	54fffe41 	b.ne	8aaf0 <DiagLine24+0x50>  // b.any
   8ab2c:	1b013061 	madd	w1, w3, w1, w12
   8ab30:	1b023482 	madd	w2, w4, w2, w13
   8ab34:	29030801 	stp	w1, w2, [x0, #24]
   8ab38:	d65f03c0 	ret
   8ab3c:	d503201f 	nop

000000000008ab40 <WriteChar24>:
   8ab40:	2942b402 	ldp	w2, w13, [x0, #20]
   8ab44:	531e1c21 	ubfiz	w1, w1, #2, #8
   8ab48:	b9401c03 	ldr	w3, [x0, #28]
   8ab4c:	d000004c 	adrp	x12, 94000 <__trunctfdf2+0x1f8>
   8ab50:	29401005 	ldp	w5, w4, [x0]
   8ab54:	2a0203eb 	mov	w11, w2
   8ab58:	1100102e 	add	w14, w1, #0x4
   8ab5c:	911b318c 	add	x12, x12, #0x6cc
   8ab60:	1b037c42 	mul	w2, w2, w3
   8ab64:	0b0d05a3 	add	w3, w13, w13, lsl #1
   8ab68:	aa0480a4 	orr	x4, x5, x4, lsl #32
   8ab6c:	8b0b056b 	add	x11, x11, x11, lsl #1
   8ab70:	8b23c083 	add	x3, x4, w3, sxtw
   8ab74:	0b020442 	add	w2, w2, w2, lsl #1
   8ab78:	8b030043 	add	x3, x2, x3
   8ab7c:	b8615985 	ldr	w5, [x12, w1, uxtw #2]
   8ab80:	52800004 	mov	w4, #0x0                   	// #0
   8ab84:	d503201f 	nop
   8ab88:	12000886 	and	w6, w4, #0x7
   8ab8c:	8b0b006a 	add	x10, x3, x11
   8ab90:	3940b009 	ldrb	w9, [x0, #44]
   8ab94:	11000484 	add	w4, w4, #0x1
   8ab98:	3940b408 	ldrb	w8, [x0, #45]
   8ab9c:	93407cc2 	sxtw	x2, w6
   8aba0:	3940b807 	ldrb	w7, [x0, #46]
   8aba4:	36f80085 	tbz	w5, #31, 8abb4 <WriteChar24+0x74>
   8aba8:	3940a009 	ldrb	w9, [x0, #40]
   8abac:	3940a408 	ldrb	w8, [x0, #41]
   8abb0:	3940a807 	ldrb	w7, [x0, #42]
   8abb4:	8b020442 	add	x2, x2, x2, lsl #1
   8abb8:	71001cdf 	cmp	w6, #0x7
   8abbc:	8b020066 	add	x6, x3, x2
   8abc0:	531f78a5 	lsl	w5, w5, #1
   8abc4:	38226869 	strb	w9, [x3, x2]
   8abc8:	9a830143 	csel	x3, x10, x3, eq  // eq = none
   8abcc:	390004c8 	strb	w8, [x6, #1]
   8abd0:	7100809f 	cmp	w4, #0x20
   8abd4:	390008c7 	strb	w7, [x6, #2]
   8abd8:	54fffd81 	b.ne	8ab88 <WriteChar24+0x48>  // b.any
   8abdc:	11000421 	add	w1, w1, #0x1
   8abe0:	6b0e003f 	cmp	w1, w14
   8abe4:	54fffcc1 	b.ne	8ab7c <WriteChar24+0x3c>  // b.any
   8abe8:	110021ad 	add	w13, w13, #0x8
   8abec:	b900180d 	str	w13, [x0, #24]
   8abf0:	d65f03c0 	ret
   8abf4:	d503201f 	nop

000000000008abf8 <TransparentWriteChar24>:
   8abf8:	2942b402 	ldp	w2, w13, [x0, #20]
   8abfc:	531e1c21 	ubfiz	w1, w1, #2, #8
   8ac00:	b9401c03 	ldr	w3, [x0, #28]
   8ac04:	d000004c 	adrp	x12, 94000 <__trunctfdf2+0x1f8>
   8ac08:	29401005 	ldp	w5, w4, [x0]
   8ac0c:	2a0203ea 	mov	w10, w2
   8ac10:	1100102e 	add	w14, w1, #0x4
   8ac14:	911b318c 	add	x12, x12, #0x6cc
   8ac18:	1b037c42 	mul	w2, w2, w3
   8ac1c:	0b0d05a3 	add	w3, w13, w13, lsl #1
   8ac20:	aa0480a4 	orr	x4, x5, x4, lsl #32
   8ac24:	8b0a054a 	add	x10, x10, x10, lsl #1
   8ac28:	8b23c083 	add	x3, x4, w3, sxtw
   8ac2c:	0b020442 	add	w2, w2, w2, lsl #1
   8ac30:	8b030043 	add	x3, x2, x3
   8ac34:	b8615985 	ldr	w5, [x12, w1, uxtw #2]
   8ac38:	52800002 	mov	w2, #0x0                   	// #0
   8ac3c:	d503201f 	nop
   8ac40:	12000846 	and	w6, w2, #0x7
   8ac44:	8b0a0067 	add	x7, x3, x10
   8ac48:	11000442 	add	w2, w2, #0x1
   8ac4c:	36f80145 	tbz	w5, #31, 8ac74 <TransparentWriteChar24+0x7c>
   8ac50:	93407cc4 	sxtw	x4, w6
   8ac54:	3940a00b 	ldrb	w11, [x0, #40]
   8ac58:	8b040484 	add	x4, x4, x4, lsl #1
   8ac5c:	8b040069 	add	x9, x3, x4
   8ac60:	3824686b 	strb	w11, [x3, x4]
   8ac64:	3940a404 	ldrb	w4, [x0, #41]
   8ac68:	39000524 	strb	w4, [x9, #1]
   8ac6c:	3940a804 	ldrb	w4, [x0, #42]
   8ac70:	39000924 	strb	w4, [x9, #2]
   8ac74:	71001cdf 	cmp	w6, #0x7
   8ac78:	531f78a5 	lsl	w5, w5, #1
   8ac7c:	9a8300e3 	csel	x3, x7, x3, eq  // eq = none
   8ac80:	7100805f 	cmp	w2, #0x20
   8ac84:	54fffde1 	b.ne	8ac40 <TransparentWriteChar24+0x48>  // b.any
   8ac88:	11000421 	add	w1, w1, #0x1
   8ac8c:	6b0e003f 	cmp	w1, w14
   8ac90:	54fffd21 	b.ne	8ac34 <TransparentWriteChar24+0x3c>  // b.any
   8ac94:	110021ad 	add	w13, w13, #0x8
   8ac98:	b900180d 	str	w13, [x0, #24]
   8ac9c:	d65f03c0 	ret

000000000008aca0 <PutImage24>:
   8aca0:	29429407 	ldp	w7, w5, [x0, #20]
   8aca4:	12001c84 	and	w4, w4, #0xff
   8aca8:	b9401c06 	ldr	w6, [x0, #28]
   8acac:	29402009 	ldp	w9, w8, [x0]
   8acb0:	0b0504a5 	add	w5, w5, w5, lsl #1
   8acb4:	1b067ce0 	mul	w0, w7, w6
   8acb8:	aa088126 	orr	x6, x9, x8, lsl #32
   8acbc:	8b25c0c6 	add	x6, x6, w5, sxtw
   8acc0:	0b000400 	add	w0, w0, w0, lsl #1
   8acc4:	8b0000c6 	add	x6, x6, x0
   8acc8:	340003e2 	cbz	w2, 8ad44 <PutImage24+0xa4>
   8accc:	2a0703ea 	mov	w10, w7
   8acd0:	8b0a054a 	add	x10, x10, x10, lsl #1
   8acd4:	cb0a03eb 	neg	x11, x10
   8acd8:	34000361 	cbz	w1, 8ad44 <PutImage24+0xa4>
   8acdc:	51000428 	sub	w8, w1, #0x1
   8ace0:	52800009 	mov	w9, #0x0                   	// #0
   8ace4:	91000508 	add	x8, x8, #0x1
   8ace8:	8b080508 	add	x8, x8, x8, lsl #1
   8acec:	d503201f 	nop
   8acf0:	d2800000 	mov	x0, #0x0                   	// #0
   8acf4:	d503201f 	nop
   8acf8:	38606867 	ldrb	w7, [x3, x0]
   8acfc:	8b000065 	add	x5, x3, x0
   8ad00:	8b0000c1 	add	x1, x6, x0
   8ad04:	382068c7 	strb	w7, [x6, x0]
   8ad08:	91000c00 	add	x0, x0, #0x3
   8ad0c:	394004a7 	ldrb	w7, [x5, #1]
   8ad10:	eb00011f 	cmp	x8, x0
   8ad14:	39000427 	strb	w7, [x1, #1]
   8ad18:	394008a5 	ldrb	w5, [x5, #2]
   8ad1c:	39000825 	strb	w5, [x1, #2]
   8ad20:	54fffec1 	b.ne	8acf8 <PutImage24+0x58>  // b.any
   8ad24:	7100009f 	cmp	w4, #0x0
   8ad28:	8b0b00c0 	add	x0, x6, x11
   8ad2c:	11000529 	add	w9, w9, #0x1
   8ad30:	8b0a00c6 	add	x6, x6, x10
   8ad34:	9a8000c6 	csel	x6, x6, x0, eq  // eq = none
   8ad38:	8b080063 	add	x3, x3, x8
   8ad3c:	6b09005f 	cmp	w2, w9
   8ad40:	54fffd81 	b.ne	8acf0 <PutImage24+0x50>  // b.any
   8ad44:	d65f03c0 	ret

000000000008ad48 <SetPixel32>:
   8ad48:	d10083ff 	sub	sp, sp, #0x20
   8ad4c:	531e7442 	lsl	w2, w2, #2
   8ad50:	29401406 	ldp	w6, w5, [x0]
   8ad54:	b9000be3 	str	w3, [sp, #8]
   8ad58:	b9401404 	ldr	w4, [x0, #20]
   8ad5c:	aa0580c5 	orr	x5, x6, x5, lsl #32
   8ad60:	2a0303e0 	mov	w0, w3
   8ad64:	1b047c44 	mul	w4, w2, w4
   8ad68:	8b2440a4 	add	x4, x5, w4, uxtw
   8ad6c:	8b224084 	add	x4, x4, w2, uxtw
   8ad70:	b8215883 	str	w3, [x4, w1, uxtw #2]
   8ad74:	910083ff 	add	sp, sp, #0x20
   8ad78:	d65f03c0 	ret
   8ad7c:	d503201f 	nop

000000000008ad80 <ClearArea32>:
   8ad80:	b9401406 	ldr	w6, [x0, #20]
   8ad84:	6b020084 	subs	w4, w4, w2
   8ad88:	29401407 	ldp	w7, w5, [x0]
   8ad8c:	531e7442 	lsl	w2, w2, #2
   8ad90:	1b067c46 	mul	w6, w2, w6
   8ad94:	aa0580e5 	orr	x5, x7, x5, lsl #32
   8ad98:	8b2240a2 	add	x2, x5, w2, uxtw
   8ad9c:	8b264046 	add	x6, x2, w6, uxtw
   8ada0:	54000260 	b.eq	8adec <ClearArea32+0x6c>  // b.none
   8ada4:	6b010063 	subs	w3, w3, w1
   8ada8:	54000220 	b.eq	8adec <ClearArea32+0x6c>  // b.none
   8adac:	51000463 	sub	w3, w3, #0x1
   8adb0:	9100c005 	add	x5, x0, #0x30
   8adb4:	91000468 	add	x8, x3, #0x1
   8adb8:	52800007 	mov	w7, #0x0                   	// #0
   8adbc:	d37ef508 	lsl	x8, x8, #2
   8adc0:	aa0603e1 	mov	x1, x6
   8adc4:	8b060103 	add	x3, x8, x6
   8adc8:	b94000a2 	ldr	w2, [x5]
   8adcc:	b8004422 	str	w2, [x1], #4
   8add0:	eb01007f 	cmp	x3, x1
   8add4:	54ffffa1 	b.ne	8adc8 <ClearArea32+0x48>  // b.any
   8add8:	b9401401 	ldr	w1, [x0, #20]
   8addc:	110004e7 	add	w7, w7, #0x1
   8ade0:	6b0400ff 	cmp	w7, w4
   8ade4:	8b0108c6 	add	x6, x6, x1, lsl #2
   8ade8:	54fffec1 	b.ne	8adc0 <ClearArea32+0x40>  // b.any
   8adec:	d65f03c0 	ret

000000000008adf0 <VertLine32>:
   8adf0:	29428c04 	ldp	w4, w3, [x0, #20]
   8adf4:	b9401c06 	ldr	w6, [x0, #28]
   8adf8:	29401407 	ldp	w7, w5, [x0]
   8adfc:	531e7463 	lsl	w3, w3, #2
   8ae00:	1b047cc4 	mul	w4, w6, w4
   8ae04:	aa0580e5 	orr	x5, x7, x5, lsl #32
   8ae08:	8b23c0a3 	add	x3, x5, w3, sxtw
   8ae0c:	531e7484 	lsl	w4, w4, #2
   8ae10:	8b040063 	add	x3, x3, x4
   8ae14:	340001a1 	cbz	w1, 8ae48 <VertLine32+0x58>
   8ae18:	9100a006 	add	x6, x0, #0x28
   8ae1c:	52800004 	mov	w4, #0x0                   	// #0
   8ae20:	7100045f 	cmp	w2, #0x1
   8ae24:	54000180 	b.eq	8ae54 <VertLine32+0x64>  // b.none
   8ae28:	b94000c5 	ldr	w5, [x6]
   8ae2c:	11000484 	add	w4, w4, #0x1
   8ae30:	b9000065 	str	w5, [x3]
   8ae34:	6b04003f 	cmp	w1, w4
   8ae38:	b9401405 	ldr	w5, [x0, #20]
   8ae3c:	cb050863 	sub	x3, x3, x5, lsl #2
   8ae40:	54ffff41 	b.ne	8ae28 <VertLine32+0x38>  // b.any
   8ae44:	b9401c06 	ldr	w6, [x0, #28]
   8ae48:	1b011841 	madd	w1, w2, w1, w6
   8ae4c:	b9001c01 	str	w1, [x0, #28]
   8ae50:	d65f03c0 	ret
   8ae54:	b94000c5 	ldr	w5, [x6]
   8ae58:	11000484 	add	w4, w4, #0x1
   8ae5c:	b9000065 	str	w5, [x3]
   8ae60:	6b04003f 	cmp	w1, w4
   8ae64:	b9401405 	ldr	w5, [x0, #20]
   8ae68:	8b050863 	add	x3, x3, x5, lsl #2
   8ae6c:	54fffec0 	b.eq	8ae44 <VertLine32+0x54>  // b.none
   8ae70:	b94000c5 	ldr	w5, [x6]
   8ae74:	11000484 	add	w4, w4, #0x1
   8ae78:	b9000065 	str	w5, [x3]
   8ae7c:	6b04003f 	cmp	w1, w4
   8ae80:	b9401405 	ldr	w5, [x0, #20]
   8ae84:	8b050863 	add	x3, x3, x5, lsl #2
   8ae88:	54fffe61 	b.ne	8ae54 <VertLine32+0x64>  // b.any
   8ae8c:	17ffffee 	b	8ae44 <VertLine32+0x54>

000000000008ae90 <HorzLine32>:
   8ae90:	29429804 	ldp	w4, w6, [x0, #20]
   8ae94:	b9401c03 	ldr	w3, [x0, #28]
   8ae98:	29401407 	ldp	w7, w5, [x0]
   8ae9c:	1b047c63 	mul	w3, w3, w4
   8aea0:	531e74c4 	lsl	w4, w6, #2
   8aea4:	aa0580e5 	orr	x5, x7, x5, lsl #32
   8aea8:	8b24c0a4 	add	x4, x5, w4, sxtw
   8aeac:	531e7463 	lsl	w3, w3, #2
   8aeb0:	8b040063 	add	x3, x3, x4
   8aeb4:	34000181 	cbz	w1, 8aee4 <HorzLine32+0x54>
   8aeb8:	937e7c47 	sbfiz	x7, x2, #2, #32
   8aebc:	9100a006 	add	x6, x0, #0x28
   8aec0:	52800004 	mov	w4, #0x0                   	// #0
   8aec4:	d503201f 	nop
   8aec8:	b94000c5 	ldr	w5, [x6]
   8aecc:	11000484 	add	w4, w4, #0x1
   8aed0:	b9000065 	str	w5, [x3]
   8aed4:	6b04003f 	cmp	w1, w4
   8aed8:	8b070063 	add	x3, x3, x7
   8aedc:	54ffff61 	b.ne	8aec8 <HorzLine32+0x38>  // b.any
   8aee0:	b9401806 	ldr	w6, [x0, #24]
   8aee4:	1b011841 	madd	w1, w2, w1, w6
   8aee8:	b9001801 	str	w1, [x0, #24]
   8aeec:	d65f03c0 	ret

000000000008aef0 <DiagLine32>:
   8aef0:	2942a405 	ldp	w5, w9, [x0, #20]
   8aef4:	6b02003f 	cmp	w1, w2
   8aef8:	b9401c08 	ldr	w8, [x0, #28]
   8aefc:	1a829022 	csel	w2, w1, w2, ls  // ls = plast
   8af00:	29401c0a 	ldp	w10, w7, [x0]
   8af04:	531e7526 	lsl	w6, w9, #2
   8af08:	1b057d05 	mul	w5, w8, w5
   8af0c:	aa078147 	orr	x7, x10, x7, lsl #32
   8af10:	8b26c0e6 	add	x6, x7, w6, sxtw
   8af14:	531e74a5 	lsl	w5, w5, #2
   8af18:	8b0600a5 	add	x5, x5, x6
   8af1c:	34000261 	cbz	w1, 8af68 <DiagLine32+0x78>
   8af20:	937e7c6a 	sbfiz	x10, x3, #2, #32
   8af24:	9100a009 	add	x9, x0, #0x28
   8af28:	52800007 	mov	w7, #0x0                   	// #0
   8af2c:	52800006 	mov	w6, #0x0                   	// #0
   8af30:	b9400128 	ldr	w8, [x9]
   8af34:	0b0200c6 	add	w6, w6, w2
   8af38:	b90000a8 	str	w8, [x5]
   8af3c:	110004e7 	add	w7, w7, #0x1
   8af40:	6b06003f 	cmp	w1, w6
   8af44:	8b0a00a5 	add	x5, x5, x10
   8af48:	540000a8 	b.hi	8af5c <DiagLine32+0x6c>  // b.pmore
   8af4c:	b9401408 	ldr	w8, [x0, #20]
   8af50:	4b0100c6 	sub	w6, w6, w1
   8af54:	1b087c88 	mul	w8, w4, w8
   8af58:	8b0808a5 	add	x5, x5, x8, lsl #2
   8af5c:	6b07003f 	cmp	w1, w7
   8af60:	54fffe81 	b.ne	8af30 <DiagLine32+0x40>  // b.any
   8af64:	29432009 	ldp	w9, w8, [x0, #24]
   8af68:	1b012461 	madd	w1, w3, w1, w9
   8af6c:	1b042042 	madd	w2, w2, w4, w8
   8af70:	29030801 	stp	w1, w2, [x0, #24]
   8af74:	d65f03c0 	ret

000000000008af78 <WriteChar32>:
   8af78:	29428805 	ldp	w5, w2, [x0, #20]
   8af7c:	531e1c21 	ubfiz	w1, w1, #2, #8
   8af80:	b9401c07 	ldr	w7, [x0, #28]
   8af84:	d0000048 	adrp	x8, 94000 <__trunctfdf2+0x1f8>
   8af88:	29400c04 	ldp	w4, w3, [x0]
   8af8c:	531e7442 	lsl	w2, w2, #2
   8af90:	d10043ff 	sub	sp, sp, #0x10
   8af94:	11001029 	add	w9, w1, #0x4
   8af98:	1b057ce7 	mul	w7, w7, w5
   8af9c:	911b3108 	add	x8, x8, #0x6cc
   8afa0:	aa038083 	orr	x3, x4, x3, lsl #32
   8afa4:	8b22c062 	add	x2, x3, w2, sxtw
   8afa8:	531e74e7 	lsl	w7, w7, #2
   8afac:	8b0200e7 	add	x7, x7, x2
   8afb0:	b8615903 	ldr	w3, [x8, w1, uxtw #2]
   8afb4:	52800002 	mov	w2, #0x0                   	// #0
   8afb8:	1400000e 	b	8aff0 <WriteChar32+0x78>
   8afbc:	b9402c05 	ldr	w5, [x0, #44]
   8afc0:	b9000be5 	str	w5, [sp, #8]
   8afc4:	2a0403e5 	mov	w5, w4
   8afc8:	b9400be6 	ldr	w6, [sp, #8]
   8afcc:	11000442 	add	w2, w2, #0x1
   8afd0:	531f7863 	lsl	w3, w3, #1
   8afd4:	71001c9f 	cmp	w4, #0x7
   8afd8:	b82578e6 	str	w6, [x7, x5, lsl #2]
   8afdc:	54000061 	b.ne	8afe8 <WriteChar32+0x70>  // b.any
   8afe0:	b9401404 	ldr	w4, [x0, #20]
   8afe4:	8b0408e7 	add	x7, x7, x4, lsl #2
   8afe8:	7100805f 	cmp	w2, #0x20
   8afec:	540000c0 	b.eq	8b004 <WriteChar32+0x8c>  // b.none
   8aff0:	12000844 	and	w4, w2, #0x7
   8aff4:	36fffe43 	tbz	w3, #31, 8afbc <WriteChar32+0x44>
   8aff8:	b9402805 	ldr	w5, [x0, #40]
   8affc:	b9000be5 	str	w5, [sp, #8]
   8b000:	17fffff1 	b	8afc4 <WriteChar32+0x4c>
   8b004:	11000421 	add	w1, w1, #0x1
   8b008:	6b09003f 	cmp	w1, w9
   8b00c:	54fffd21 	b.ne	8afb0 <WriteChar32+0x38>  // b.any
   8b010:	b9401801 	ldr	w1, [x0, #24]
   8b014:	11002021 	add	w1, w1, #0x8
   8b018:	b9001801 	str	w1, [x0, #24]
   8b01c:	910043ff 	add	sp, sp, #0x10
   8b020:	d65f03c0 	ret
   8b024:	d503201f 	nop

000000000008b028 <TransparentWriteChar32>:
   8b028:	29428805 	ldp	w5, w2, [x0, #20]
   8b02c:	531e1c21 	ubfiz	w1, w1, #2, #8
   8b030:	b9401c06 	ldr	w6, [x0, #28]
   8b034:	b0000048 	adrp	x8, 94000 <__trunctfdf2+0x1f8>
   8b038:	29400c04 	ldp	w4, w3, [x0]
   8b03c:	531e7442 	lsl	w2, w2, #2
   8b040:	11001029 	add	w9, w1, #0x4
   8b044:	911b3108 	add	x8, x8, #0x6cc
   8b048:	1b057cc6 	mul	w6, w6, w5
   8b04c:	aa038083 	orr	x3, x4, x3, lsl #32
   8b050:	8b22c062 	add	x2, x3, w2, sxtw
   8b054:	531e74c6 	lsl	w6, w6, #2
   8b058:	8b0200c6 	add	x6, x6, x2
   8b05c:	b8615903 	ldr	w3, [x8, w1, uxtw #2]
   8b060:	52800002 	mov	w2, #0x0                   	// #0
   8b064:	d503201f 	nop
   8b068:	12000844 	and	w4, w2, #0x7
   8b06c:	11000442 	add	w2, w2, #0x1
   8b070:	36f80083 	tbz	w3, #31, 8b080 <TransparentWriteChar32+0x58>
   8b074:	2a0403e5 	mov	w5, w4
   8b078:	b9402807 	ldr	w7, [x0, #40]
   8b07c:	b82578c7 	str	w7, [x6, x5, lsl #2]
   8b080:	531f7863 	lsl	w3, w3, #1
   8b084:	71001c9f 	cmp	w4, #0x7
   8b088:	54000061 	b.ne	8b094 <TransparentWriteChar32+0x6c>  // b.any
   8b08c:	b9401404 	ldr	w4, [x0, #20]
   8b090:	8b0408c6 	add	x6, x6, x4, lsl #2
   8b094:	7100805f 	cmp	w2, #0x20
   8b098:	54fffe81 	b.ne	8b068 <TransparentWriteChar32+0x40>  // b.any
   8b09c:	11000421 	add	w1, w1, #0x1
   8b0a0:	6b01013f 	cmp	w9, w1
   8b0a4:	54fffdc1 	b.ne	8b05c <TransparentWriteChar32+0x34>  // b.any
   8b0a8:	b9401801 	ldr	w1, [x0, #24]
   8b0ac:	11002021 	add	w1, w1, #0x8
   8b0b0:	b9001801 	str	w1, [x0, #24]
   8b0b4:	d65f03c0 	ret

000000000008b0b8 <PutImage32>:
   8b0b8:	29429409 	ldp	w9, w5, [x0, #20]
   8b0bc:	12001c84 	and	w4, w4, #0xff
   8b0c0:	b9401c06 	ldr	w6, [x0, #28]
   8b0c4:	29401c08 	ldp	w8, w7, [x0]
   8b0c8:	531e74a5 	lsl	w5, w5, #2
   8b0cc:	1b097cc6 	mul	w6, w6, w9
   8b0d0:	aa078107 	orr	x7, x8, x7, lsl #32
   8b0d4:	8b25c0e5 	add	x5, x7, w5, sxtw
   8b0d8:	531e74c6 	lsl	w6, w6, #2
   8b0dc:	8b0500c6 	add	x6, x6, x5
   8b0e0:	340002e2 	cbz	w2, 8b13c <PutImage32+0x84>
   8b0e4:	340002c1 	cbz	w1, 8b13c <PutImage32+0x84>
   8b0e8:	51000421 	sub	w1, w1, #0x1
   8b0ec:	52800008 	mov	w8, #0x0                   	// #0
   8b0f0:	91000421 	add	x1, x1, #0x1
   8b0f4:	d37ef427 	lsl	x7, x1, #2
   8b0f8:	d2800001 	mov	x1, #0x0                   	// #0
   8b0fc:	d503201f 	nop
   8b100:	b8616865 	ldr	w5, [x3, x1]
   8b104:	b82168c5 	str	w5, [x6, x1]
   8b108:	91001021 	add	x1, x1, #0x4
   8b10c:	eb0100ff 	cmp	x7, x1
   8b110:	54ffff81 	b.ne	8b100 <PutImage32+0x48>  // b.any
   8b114:	b9401401 	ldr	w1, [x0, #20]
   8b118:	7100009f 	cmp	w4, #0x0
   8b11c:	11000508 	add	w8, w8, #0x1
   8b120:	8b070063 	add	x3, x3, x7
   8b124:	d37ef421 	lsl	x1, x1, #2
   8b128:	cb0100c5 	sub	x5, x6, x1
   8b12c:	8b0100c6 	add	x6, x6, x1
   8b130:	9a8500c6 	csel	x6, x6, x5, eq  // eq = none
   8b134:	6b08005f 	cmp	w2, w8
   8b138:	54fffe01 	b.ne	8b0f8 <PutImage32+0x40>  // b.any
   8b13c:	d65f03c0 	ret

000000000008b140 <mailbox_tag_message.constprop.7>:
   8b140:	a9b27bf3 	stp	x19, x30, [sp, #-224]!
   8b144:	128005ec 	mov	w12, #0xffffffd0            	// #-48
   8b148:	2a0c03e1 	mov	w1, w12
   8b14c:	2a0c03eb 	mov	w11, w12
   8b150:	2a0c03e9 	mov	w9, w12
   8b154:	aa0003f3 	mov	x19, x0
   8b158:	910383e8 	add	x8, sp, #0xe0
   8b15c:	9102c3ee 	add	x14, sp, #0xb0
   8b160:	d2800d0d 	mov	x13, #0x68                  	// #104
   8b164:	5280000a 	mov	w10, #0x0                   	// #0
   8b168:	528002e0 	mov	w0, #0x17                  	// #23
   8b16c:	a90123e8 	stp	x8, x8, [sp, #16]
   8b170:	f90013ee 	str	x14, [sp, #32]
   8b174:	29057fec 	stp	w12, wzr, [sp, #40]
   8b178:	f9001bed 	str	x13, [sp, #48]
   8b17c:	b90097ff 	str	wzr, [sp, #148]
   8b180:	a90b0fe2 	stp	x2, x3, [sp, #176]
   8b184:	a90c17e4 	stp	x4, x5, [sp, #192]
   8b188:	a90d1fe6 	stp	x6, x7, [sp, #208]
   8b18c:	d503201f 	nop
   8b190:	36f80089 	tbz	w9, #31, 8b1a0 <mailbox_tag_message.constprop.7+0x60>
   8b194:	11002129 	add	w9, w9, #0x8
   8b198:	5280002a 	mov	w10, #0x1                   	// #1
   8b19c:	2a0903eb 	mov	w11, w9
   8b1a0:	71000400 	subs	w0, w0, #0x1
   8b1a4:	54ffff61 	b.ne	8b190 <mailbox_tag_message.constprop.7+0x50>  // b.any
   8b1a8:	3400004a 	cbz	w10, 8b1b0 <mailbox_tag_message.constprop.7+0x70>
   8b1ac:	b9002beb 	str	w11, [sp, #40]
   8b1b0:	9100e3e0 	add	x0, sp, #0x38
   8b1b4:	910253e4 	add	x4, sp, #0x94
   8b1b8:	14000007 	b	8b1d4 <mailbox_tag_message.constprop.7+0x94>
   8b1bc:	aa0803e2 	mov	x2, x8
   8b1c0:	91002108 	add	x8, x8, #0x8
   8b1c4:	b9400042 	ldr	w2, [x2]
   8b1c8:	b8004402 	str	w2, [x0], #4
   8b1cc:	eb00009f 	cmp	x4, x0
   8b1d0:	54000180 	b.eq	8b200 <mailbox_tag_message.constprop.7+0xc0>  // b.none
   8b1d4:	11002023 	add	w3, w1, #0x8
   8b1d8:	36ffff21 	tbz	w1, #31, 8b1bc <mailbox_tag_message.constprop.7+0x7c>
   8b1dc:	910383e2 	add	x2, sp, #0xe0
   8b1e0:	7100007f 	cmp	w3, #0x0
   8b1e4:	8b21c042 	add	x2, x2, w1, sxtw
   8b1e8:	2a0303e1 	mov	w1, w3
   8b1ec:	54fffe8c 	b.gt	8b1bc <mailbox_tag_message.constprop.7+0x7c>
   8b1f0:	b9400042 	ldr	w2, [x2]
   8b1f4:	b8004402 	str	w2, [x0], #4
   8b1f8:	eb00009f 	cmp	x4, x0
   8b1fc:	54fffec1 	b.ne	8b1d4 <mailbox_tag_message.constprop.7+0x94>  // b.any
   8b200:	9100c3e0 	add	x0, sp, #0x30
   8b204:	97ffd587 	bl	80820 <ARMaddrToGPUaddr>
   8b208:	d0000041 	adrp	x1, 95000 <BitFont+0x934>
   8b20c:	121c6c00 	and	w0, w0, #0xfffffff0
   8b210:	321d0002 	orr	w2, w0, #0x8
   8b214:	52971000 	mov	w0, #0xb880                	// #47232
   8b218:	b94c7821 	ldr	w1, [x1, #3192]
   8b21c:	0b000021 	add	w1, w1, w0
   8b220:	b9403820 	ldr	w0, [x1, #56]
   8b224:	37ffffe0 	tbnz	w0, #31, 8b220 <mailbox_tag_message.constprop.7+0xe0>
   8b228:	b9002022 	str	w2, [x1, #32]
   8b22c:	d503201f 	nop
   8b230:	b9401820 	ldr	w0, [x1, #24]
   8b234:	37f7ffe0 	tbnz	w0, #30, 8b230 <mailbox_tag_message.constprop.7+0xf0>
   8b238:	b9400020 	ldr	w0, [x1]
   8b23c:	12000c00 	and	w0, w0, #0xf
   8b240:	7100201f 	cmp	w0, #0x8
   8b244:	54ffff61 	b.ne	8b230 <mailbox_tag_message.constprop.7+0xf0>  // b.any
   8b248:	b94037e2 	ldr	w2, [sp, #52]
   8b24c:	52b00001 	mov	w1, #0x80000000            	// #-2147483648
   8b250:	52800000 	mov	w0, #0x0                   	// #0
   8b254:	6b01005f 	cmp	w2, w1
   8b258:	54000060 	b.eq	8b264 <mailbox_tag_message.constprop.7+0x124>  // b.none
   8b25c:	a8ce7bf3 	ldp	x19, x30, [sp], #224
   8b260:	d65f03c0 	ret
   8b264:	d2800000 	mov	x0, #0x0                   	// #0
   8b268:	b4000133 	cbz	x19, 8b28c <mailbox_tag_message.constprop.7+0x14c>
   8b26c:	d503201f 	nop
   8b270:	9100c3e1 	add	x1, sp, #0x30
   8b274:	8b000021 	add	x1, x1, x0
   8b278:	b9400821 	ldr	w1, [x1, #8]
   8b27c:	b8206a61 	str	w1, [x19, x0]
   8b280:	91001000 	add	x0, x0, #0x4
   8b284:	f101701f 	cmp	x0, #0x5c
   8b288:	54ffff41 	b.ne	8b270 <mailbox_tag_message.constprop.7+0x130>  // b.any
   8b28c:	52800020 	mov	w0, #0x1                   	// #1
   8b290:	a8ce7bf3 	ldp	x19, x30, [sp], #224
   8b294:	d65f03c0 	ret

000000000008b298 <mailbox_tag_message.constprop.5>:
   8b298:	a9b27bf3 	stp	x19, x30, [sp, #-224]!
   8b29c:	d2800401 	mov	x1, #0x20                  	// #32
   8b2a0:	128000e7 	mov	w7, #0xfffffff8            	// #-8
   8b2a4:	9102c3e8 	add	x8, sp, #0xb0
   8b2a8:	910383e9 	add	x9, sp, #0xe0
   8b2ac:	aa0003f3 	mov	x19, x0
   8b2b0:	9100c3e0 	add	x0, sp, #0x30
   8b2b4:	a90127e9 	stp	x9, x9, [sp, #16]
   8b2b8:	f90013e8 	str	x8, [sp, #32]
   8b2bc:	29057fe7 	stp	w7, wzr, [sp, #40]
   8b2c0:	f9001be1 	str	x1, [sp, #48]
   8b2c4:	29070fe2 	stp	w2, w3, [sp, #56]
   8b2c8:	290817e4 	stp	w4, w5, [sp, #64]
   8b2cc:	29097fe6 	stp	w6, wzr, [sp, #72]
   8b2d0:	a90b8fe2 	stp	x2, x3, [sp, #184]
   8b2d4:	a90c97e4 	stp	x4, x5, [sp, #200]
   8b2d8:	f9006fe6 	str	x6, [sp, #216]
   8b2dc:	97ffd551 	bl	80820 <ARMaddrToGPUaddr>
   8b2e0:	d0000041 	adrp	x1, 95000 <BitFont+0x934>
   8b2e4:	121c6c00 	and	w0, w0, #0xfffffff0
   8b2e8:	321d0002 	orr	w2, w0, #0x8
   8b2ec:	52971000 	mov	w0, #0xb880                	// #47232
   8b2f0:	b94c7821 	ldr	w1, [x1, #3192]
   8b2f4:	0b000021 	add	w1, w1, w0
   8b2f8:	b9403820 	ldr	w0, [x1, #56]
   8b2fc:	37ffffe0 	tbnz	w0, #31, 8b2f8 <mailbox_tag_message.constprop.5+0x60>
   8b300:	b9002022 	str	w2, [x1, #32]
   8b304:	d503201f 	nop
   8b308:	b9401820 	ldr	w0, [x1, #24]
   8b30c:	37f7ffe0 	tbnz	w0, #30, 8b308 <mailbox_tag_message.constprop.5+0x70>
   8b310:	b9400020 	ldr	w0, [x1]
   8b314:	12000c00 	and	w0, w0, #0xf
   8b318:	7100201f 	cmp	w0, #0x8
   8b31c:	54ffff61 	b.ne	8b308 <mailbox_tag_message.constprop.5+0x70>  // b.any
   8b320:	b94037e2 	ldr	w2, [sp, #52]
   8b324:	52b00001 	mov	w1, #0x80000000            	// #-2147483648
   8b328:	52800000 	mov	w0, #0x0                   	// #0
   8b32c:	6b01005f 	cmp	w2, w1
   8b330:	54000060 	b.eq	8b33c <mailbox_tag_message.constprop.5+0xa4>  // b.none
   8b334:	a8ce7bf3 	ldp	x19, x30, [sp], #224
   8b338:	d65f03c0 	ret
   8b33c:	b40000f3 	cbz	x19, 8b358 <mailbox_tag_message.constprop.5+0xc0>
   8b340:	29470fe4 	ldp	w4, w3, [sp, #56]
   8b344:	29000e64 	stp	w4, w3, [x19]
   8b348:	294807e2 	ldp	w2, w1, [sp, #64]
   8b34c:	29010662 	stp	w2, w1, [x19, #8]
   8b350:	b9404be0 	ldr	w0, [sp, #72]
   8b354:	b9001260 	str	w0, [x19, #16]
   8b358:	52800020 	mov	w0, #0x1                   	// #1
   8b35c:	a8ce7bf3 	ldp	x19, x30, [sp], #224
   8b360:	d65f03c0 	ret
   8b364:	d503201f 	nop

000000000008b368 <mailbox_tag_message.constprop.6>:
   8b368:	a9b37bf3 	stp	x19, x30, [sp, #-208]!
   8b36c:	d2800381 	mov	x1, #0x1c                  	// #28
   8b370:	128000e6 	mov	w6, #0xfffffff8            	// #-8
   8b374:	9102c3e7 	add	x7, sp, #0xb0
   8b378:	910343e8 	add	x8, sp, #0xd0
   8b37c:	aa0003f3 	mov	x19, x0
   8b380:	9100c3e0 	add	x0, sp, #0x30
   8b384:	a90123e8 	stp	x8, x8, [sp, #16]
   8b388:	f90013e7 	str	x7, [sp, #32]
   8b38c:	29057fe6 	stp	w6, wzr, [sp, #40]
   8b390:	f9001be1 	str	x1, [sp, #48]
   8b394:	29070fe2 	stp	w2, w3, [sp, #56]
   8b398:	290817e4 	stp	w4, w5, [sp, #64]
   8b39c:	b9004bff 	str	wzr, [sp, #72]
   8b3a0:	a90b0fe2 	stp	x2, x3, [sp, #176]
   8b3a4:	a90c17e4 	stp	x4, x5, [sp, #192]
   8b3a8:	97ffd51e 	bl	80820 <ARMaddrToGPUaddr>
   8b3ac:	d0000041 	adrp	x1, 95000 <BitFont+0x934>
   8b3b0:	121c6c00 	and	w0, w0, #0xfffffff0
   8b3b4:	b94c7821 	ldr	w1, [x1, #3192]
   8b3b8:	321d0002 	orr	w2, w0, #0x8
   8b3bc:	52971000 	mov	w0, #0xb880                	// #47232
   8b3c0:	0b000021 	add	w1, w1, w0
   8b3c4:	d503201f 	nop
   8b3c8:	b9403820 	ldr	w0, [x1, #56]
   8b3cc:	37ffffe0 	tbnz	w0, #31, 8b3c8 <mailbox_tag_message.constprop.6+0x60>
   8b3d0:	b9002022 	str	w2, [x1, #32]
   8b3d4:	d503201f 	nop
   8b3d8:	b9401820 	ldr	w0, [x1, #24]
   8b3dc:	37f7ffe0 	tbnz	w0, #30, 8b3d8 <mailbox_tag_message.constprop.6+0x70>
   8b3e0:	b9400020 	ldr	w0, [x1]
   8b3e4:	12000c00 	and	w0, w0, #0xf
   8b3e8:	7100201f 	cmp	w0, #0x8
   8b3ec:	54ffff61 	b.ne	8b3d8 <mailbox_tag_message.constprop.6+0x70>  // b.any
   8b3f0:	b94037e2 	ldr	w2, [sp, #52]
   8b3f4:	52b00001 	mov	w1, #0x80000000            	// #-2147483648
   8b3f8:	52800000 	mov	w0, #0x0                   	// #0
   8b3fc:	6b01005f 	cmp	w2, w1
   8b400:	54000060 	b.eq	8b40c <mailbox_tag_message.constprop.6+0xa4>  // b.none
   8b404:	a8cd7bf3 	ldp	x19, x30, [sp], #208
   8b408:	d65f03c0 	ret
   8b40c:	52800020 	mov	w0, #0x1                   	// #1
   8b410:	b4ffffb3 	cbz	x19, 8b404 <mailbox_tag_message.constprop.6+0x9c>
   8b414:	29470fe4 	ldp	w4, w3, [sp, #56]
   8b418:	29000e64 	stp	w4, w3, [x19]
   8b41c:	294807e2 	ldp	w2, w1, [sp, #64]
   8b420:	29010662 	stp	w2, w1, [x19, #8]
   8b424:	a8cd7bf3 	ldp	x19, x30, [sp], #208
   8b428:	d65f03c0 	ret
   8b42c:	d503201f 	nop

000000000008b430 <RPi_CpuIdString>:
   8b430:	d0000040 	adrp	x0, 95000 <BitFont+0x934>
   8b434:	79591000 	ldrh	w0, [x0, #3208]
   8b438:	d3443c00 	ubfx	x0, x0, #4, #12
   8b43c:	71301c1f 	cmp	w0, #0xc07
   8b440:	540001a0 	b.eq	8b474 <RPi_CpuIdString+0x44>  // b.none
   8b444:	71340c1f 	cmp	w0, #0xd03
   8b448:	54000100 	b.eq	8b468 <RPi_CpuIdString+0x38>  // b.none
   8b44c:	712dd81f 	cmp	w0, #0xb76
   8b450:	d0000041 	adrp	x1, 95000 <BitFont+0x934>
   8b454:	d0000040 	adrp	x0, 95000 <BitFont+0x934>
   8b458:	911b4021 	add	x1, x1, #0x6d0
   8b45c:	911b8000 	add	x0, x0, #0x6e0
   8b460:	9a810000 	csel	x0, x0, x1, eq  // eq = none
   8b464:	d65f03c0 	ret
   8b468:	d0000040 	adrp	x0, 95000 <BitFont+0x934>
   8b46c:	911bc000 	add	x0, x0, #0x6f0
   8b470:	d65f03c0 	ret
   8b474:	d0000040 	adrp	x0, 95000 <BitFont+0x934>
   8b478:	911c0000 	add	x0, x0, #0x700
   8b47c:	d65f03c0 	ret

000000000008b480 <gpio_setup>:
   8b480:	7100d81f 	cmp	w0, #0x36
   8b484:	52800006 	mov	w6, #0x0                   	// #0
   8b488:	7a479822 	ccmp	w1, #0x7, #0x2, ls  // ls = plast
   8b48c:	54000288 	b.hi	8b4dc <gpio_setup+0x5c>  // b.pmore
   8b490:	529999a2 	mov	w2, #0xcccd                	// #52429
   8b494:	d0000043 	adrp	x3, 95000 <BitFont+0x934>
   8b498:	72b99982 	movk	w2, #0xcccc, lsl #16
   8b49c:	528000e4 	mov	w4, #0x7                   	// #7
   8b4a0:	b94c7865 	ldr	w5, [x3, #3192]
   8b4a4:	52800026 	mov	w6, #0x1                   	// #1
   8b4a8:	9ba27c02 	umull	x2, w0, w2
   8b4ac:	114800a5 	add	w5, w5, #0x200, lsl #12
   8b4b0:	d363fc42 	lsr	x2, x2, #35
   8b4b4:	0b020843 	add	w3, w2, w2, lsl #2
   8b4b8:	2a0203e2 	mov	w2, w2
   8b4bc:	4b030403 	sub	w3, w0, w3, lsl #1
   8b4c0:	b86278a0 	ldr	w0, [x5, x2, lsl #2]
   8b4c4:	0b030463 	add	w3, w3, w3, lsl #1
   8b4c8:	1ac32084 	lsl	w4, w4, w3
   8b4cc:	0a240004 	bic	w4, w0, w4
   8b4d0:	1ac32021 	lsl	w1, w1, w3
   8b4d4:	2a040021 	orr	w1, w1, w4
   8b4d8:	b82278a1 	str	w1, [x5, x2, lsl #2]
   8b4dc:	2a0603e0 	mov	w0, w6
   8b4e0:	d65f03c0 	ret
   8b4e4:	d503201f 	nop

000000000008b4e8 <gpio_output>:
   8b4e8:	12001c21 	and	w1, w1, #0xff
   8b4ec:	7100d41f 	cmp	w0, #0x35
   8b4f0:	54000089 	b.ls	8b500 <gpio_output+0x18>  // b.plast
   8b4f4:	52800001 	mov	w1, #0x0                   	// #0
   8b4f8:	2a0103e0 	mov	w0, w1
   8b4fc:	d65f03c0 	ret
   8b500:	d0000043 	adrp	x3, 95000 <BitFont+0x934>
   8b504:	53057c02 	lsr	w2, w0, #5
   8b508:	91001c45 	add	x5, x2, #0x7
   8b50c:	91002842 	add	x2, x2, #0xa
   8b510:	b94c7864 	ldr	w4, [x3, #3192]
   8b514:	7100003f 	cmp	w1, #0x0
   8b518:	52800023 	mov	w3, #0x1                   	// #1
   8b51c:	2a0303e1 	mov	w1, w3
   8b520:	11480084 	add	w4, w4, #0x200, lsl #12
   8b524:	1ac02060 	lsl	w0, w3, w0
   8b528:	8b050885 	add	x5, x4, x5, lsl #2
   8b52c:	8b020882 	add	x2, x4, x2, lsl #2
   8b530:	9a850042 	csel	x2, x2, x5, eq  // eq = none
   8b534:	b9000040 	str	w0, [x2]
   8b538:	2a0103e0 	mov	w0, w1
   8b53c:	d65f03c0 	ret

000000000008b540 <gpio_input>:
   8b540:	7100d41f 	cmp	w0, #0x35
   8b544:	540001a8 	b.hi	8b578 <gpio_input+0x38>  // b.pmore
   8b548:	d0000043 	adrp	x3, 95000 <BitFont+0x934>
   8b54c:	53057c01 	lsr	w1, w0, #5
   8b550:	91003021 	add	x1, x1, #0xc
   8b554:	52800022 	mov	w2, #0x1                   	// #1
   8b558:	b94c7863 	ldr	w3, [x3, #3192]
   8b55c:	1ac02040 	lsl	w0, w2, w0
   8b560:	11480063 	add	w3, w3, #0x200, lsl #12
   8b564:	8b010861 	add	x1, x3, x1, lsl #2
   8b568:	b9400421 	ldr	w1, [x1, #4]
   8b56c:	6a01001f 	tst	w0, w1
   8b570:	1a9f07e0 	cset	w0, ne  // ne = any
   8b574:	d65f03c0 	ret
   8b578:	52800000 	mov	w0, #0x0                   	// #0
   8b57c:	d65f03c0 	ret

000000000008b580 <gpio_checkEvent>:
   8b580:	7100d41f 	cmp	w0, #0x35
   8b584:	54000188 	b.hi	8b5b4 <gpio_checkEvent+0x34>  // b.pmore
   8b588:	d0000042 	adrp	x2, 95000 <BitFont+0x934>
   8b58c:	53057c03 	lsr	w3, w0, #5
   8b590:	91004063 	add	x3, x3, #0x10
   8b594:	52800021 	mov	w1, #0x1                   	// #1
   8b598:	b94c7842 	ldr	w2, [x2, #3192]
   8b59c:	1ac02020 	lsl	w0, w1, w0
   8b5a0:	11480042 	add	w2, w2, #0x200, lsl #12
   8b5a4:	b8637841 	ldr	w1, [x2, x3, lsl #2]
   8b5a8:	6a01001f 	tst	w0, w1
   8b5ac:	1a9f07e0 	cset	w0, ne  // ne = any
   8b5b0:	d65f03c0 	ret
   8b5b4:	52800000 	mov	w0, #0x0                   	// #0
   8b5b8:	d65f03c0 	ret
   8b5bc:	d503201f 	nop

000000000008b5c0 <gpio_clearEvent>:
   8b5c0:	7100d41f 	cmp	w0, #0x35
   8b5c4:	54000069 	b.ls	8b5d0 <gpio_clearEvent+0x10>  // b.plast
   8b5c8:	52800000 	mov	w0, #0x0                   	// #0
   8b5cc:	d65f03c0 	ret
   8b5d0:	d0000041 	adrp	x1, 95000 <BitFont+0x934>
   8b5d4:	53057c04 	lsr	w4, w0, #5
   8b5d8:	91004084 	add	x4, x4, #0x10
   8b5dc:	52800022 	mov	w2, #0x1                   	// #1
   8b5e0:	b94c7823 	ldr	w3, [x1, #3192]
   8b5e4:	1ac02041 	lsl	w1, w2, w0
   8b5e8:	2a0203e0 	mov	w0, w2
   8b5ec:	11480063 	add	w3, w3, #0x200, lsl #12
   8b5f0:	b8247861 	str	w1, [x3, x4, lsl #2]
   8b5f4:	d65f03c0 	ret

000000000008b5f8 <gpio_edgeDetect>:
   8b5f8:	12001c21 	and	w1, w1, #0xff
   8b5fc:	7100d41f 	cmp	w0, #0x35
   8b600:	12001c42 	and	w2, w2, #0xff
   8b604:	54000089 	b.ls	8b614 <gpio_edgeDetect+0x1c>  // b.plast
   8b608:	52800002 	mov	w2, #0x0                   	// #0
   8b60c:	2a0203e0 	mov	w0, w2
   8b610:	d65f03c0 	ret
   8b614:	d0000046 	adrp	x6, 95000 <BitFont+0x934>
   8b618:	52800024 	mov	w4, #0x1                   	// #1
   8b61c:	1ac02085 	lsl	w5, w4, w0
   8b620:	53057c03 	lsr	w3, w0, #5
   8b624:	b94c78c0 	ldr	w0, [x6, #3192]
   8b628:	11480000 	add	w0, w0, #0x200, lsl #12
   8b62c:	340000e1 	cbz	w1, 8b648 <gpio_edgeDetect+0x50>
   8b630:	34000222 	cbz	w2, 8b674 <gpio_edgeDetect+0x7c>
   8b634:	d37e6864 	ubfiz	x4, x3, #2, #27
   8b638:	9101c084 	add	x4, x4, #0x70
   8b63c:	8b040004 	add	x4, x0, x4
   8b640:	b9000c85 	str	w5, [x4, #12]
   8b644:	17fffff2 	b	8b60c <gpio_edgeDetect+0x14>
   8b648:	d37e6863 	ubfiz	x3, x3, #2, #27
   8b64c:	340000a2 	cbz	w2, 8b660 <gpio_edgeDetect+0x68>
   8b650:	91020061 	add	x1, x3, #0x80
   8b654:	8b010001 	add	x1, x0, x1
   8b658:	b9000825 	str	w5, [x1, #8]
   8b65c:	17ffffec 	b	8b60c <gpio_edgeDetect+0x14>
   8b660:	91014063 	add	x3, x3, #0x50
   8b664:	2a0403e2 	mov	w2, w4
   8b668:	8b030003 	add	x3, x0, x3
   8b66c:	b9000865 	str	w5, [x3, #8]
   8b670:	17ffffe7 	b	8b60c <gpio_edgeDetect+0x14>
   8b674:	d37e6863 	ubfiz	x3, x3, #2, #27
   8b678:	2a0103e2 	mov	w2, w1
   8b67c:	91010063 	add	x3, x3, #0x40
   8b680:	8b030003 	add	x3, x0, x3
   8b684:	b9000c65 	str	w5, [x3, #12]
   8b688:	17ffffe1 	b	8b60c <gpio_edgeDetect+0x14>
   8b68c:	d503201f 	nop

000000000008b690 <gpio_fixResistor>:
   8b690:	7100d81f 	cmp	w0, #0x36
   8b694:	7a429822 	ccmp	w1, #0x2, #0x2, ls  // ls = plast
   8b698:	54000069 	b.ls	8b6a4 <gpio_fixResistor+0x14>  // b.plast
   8b69c:	52800000 	mov	w0, #0x0                   	// #0
   8b6a0:	d65f03c0 	ret
   8b6a4:	d0000042 	adrp	x2, 95000 <BitFont+0x934>
   8b6a8:	b94c7842 	ldr	w2, [x2, #3192]
   8b6ac:	11480046 	add	w6, w2, #0x200, lsl #12
   8b6b0:	11400c42 	add	w2, w2, #0x3, lsl #12
   8b6b4:	b90094c1 	str	w1, [x6, #148]
   8b6b8:	b9400841 	ldr	w1, [x2, #8]
   8b6bc:	b9400444 	ldr	w4, [x2, #4]
   8b6c0:	b9400843 	ldr	w3, [x2, #8]
   8b6c4:	6b03003f 	cmp	w1, w3
   8b6c8:	54ffff81 	b.ne	8b6b8 <gpio_fixResistor+0x28>  // b.any
   8b6cc:	2a0403e5 	mov	w5, w4
   8b6d0:	d29ef9e3 	mov	x3, #0xf7cf                	// #63439
   8b6d4:	aa0180a5 	orr	x5, x5, x1, lsl #32
   8b6d8:	f2bc6a63 	movk	x3, #0xe353, lsl #16
   8b6dc:	f2d374a3 	movk	x3, #0x9ba5, lsl #32
   8b6e0:	d343fca5 	lsr	x5, x5, #3
   8b6e4:	f2e41883 	movk	x3, #0x20c4, lsl #48
   8b6e8:	aa0303e7 	mov	x7, x3
   8b6ec:	9bc37ca5 	umulh	x5, x5, x3
   8b6f0:	d344fca5 	lsr	x5, x5, #4
   8b6f4:	910008a5 	add	x5, x5, #0x2
   8b6f8:	b9400841 	ldr	w1, [x2, #8]
   8b6fc:	b9400444 	ldr	w4, [x2, #4]
   8b700:	b9400843 	ldr	w3, [x2, #8]
   8b704:	6b03003f 	cmp	w1, w3
   8b708:	54ffff81 	b.ne	8b6f8 <gpio_fixResistor+0x68>  // b.any
   8b70c:	2a0403e4 	mov	w4, w4
   8b710:	aa018081 	orr	x1, x4, x1, lsl #32
   8b714:	d343fc21 	lsr	x1, x1, #3
   8b718:	9bc77c21 	umulh	x1, x1, x7
   8b71c:	eb4110bf 	cmp	x5, x1, lsr #4
   8b720:	54fffec8 	b.hi	8b6f8 <gpio_fixResistor+0x68>  // b.pmore
   8b724:	53057c07 	lsr	w7, w0, #5
   8b728:	52800021 	mov	w1, #0x1                   	// #1
   8b72c:	1ac02020 	lsl	w0, w1, w0
   8b730:	8b0708c7 	add	x7, x6, x7, lsl #2
   8b734:	b90098e0 	str	w0, [x7, #152]
   8b738:	b9400840 	ldr	w0, [x2, #8]
   8b73c:	b9400443 	ldr	w3, [x2, #4]
   8b740:	b9400841 	ldr	w1, [x2, #8]
   8b744:	6b01001f 	cmp	w0, w1
   8b748:	54ffff81 	b.ne	8b738 <gpio_fixResistor+0xa8>  // b.any
   8b74c:	2a0303e4 	mov	w4, w3
   8b750:	d29ef9e1 	mov	x1, #0xf7cf                	// #63439
   8b754:	aa008084 	orr	x4, x4, x0, lsl #32
   8b758:	f2bc6a61 	movk	x1, #0xe353, lsl #16
   8b75c:	f2d374a1 	movk	x1, #0x9ba5, lsl #32
   8b760:	d343fc84 	lsr	x4, x4, #3
   8b764:	f2e41881 	movk	x1, #0x20c4, lsl #48
   8b768:	aa0103e5 	mov	x5, x1
   8b76c:	9bc17c84 	umulh	x4, x4, x1
   8b770:	d344fc84 	lsr	x4, x4, #4
   8b774:	91000884 	add	x4, x4, #0x2
   8b778:	b9400840 	ldr	w0, [x2, #8]
   8b77c:	b9400443 	ldr	w3, [x2, #4]
   8b780:	b9400841 	ldr	w1, [x2, #8]
   8b784:	6b01001f 	cmp	w0, w1
   8b788:	54ffff81 	b.ne	8b778 <gpio_fixResistor+0xe8>  // b.any
   8b78c:	2a0303e3 	mov	w3, w3
   8b790:	aa008060 	orr	x0, x3, x0, lsl #32
   8b794:	d343fc00 	lsr	x0, x0, #3
   8b798:	9bc57c00 	umulh	x0, x0, x5
   8b79c:	eb40109f 	cmp	x4, x0, lsr #4
   8b7a0:	54fffec8 	b.hi	8b778 <gpio_fixResistor+0xe8>  // b.pmore
   8b7a4:	b90094df 	str	wzr, [x6, #148]
   8b7a8:	52800020 	mov	w0, #0x1                   	// #1
   8b7ac:	b90098ff 	str	wzr, [x7, #152]
   8b7b0:	d65f03c0 	ret
   8b7b4:	d503201f 	nop

000000000008b7b8 <timer_getTickCount>:
   8b7b8:	d0000040 	adrp	x0, 95000 <BitFont+0x934>
   8b7bc:	b94c7800 	ldr	w0, [x0, #3192]
   8b7c0:	11400c00 	add	w0, w0, #0x3, lsl #12
   8b7c4:	d503201f 	nop
   8b7c8:	b9400801 	ldr	w1, [x0, #8]
   8b7cc:	b9400403 	ldr	w3, [x0, #4]
   8b7d0:	b9400802 	ldr	w2, [x0, #8]
   8b7d4:	6b02003f 	cmp	w1, w2
   8b7d8:	54ffff81 	b.ne	8b7c8 <timer_getTickCount+0x10>  // b.any
   8b7dc:	2a0303e0 	mov	w0, w3
   8b7e0:	d29ef9e2 	mov	x2, #0xf7cf                	// #63439
   8b7e4:	aa018000 	orr	x0, x0, x1, lsl #32
   8b7e8:	f2bc6a62 	movk	x2, #0xe353, lsl #16
   8b7ec:	f2d374a2 	movk	x2, #0x9ba5, lsl #32
   8b7f0:	d343fc00 	lsr	x0, x0, #3
   8b7f4:	f2e41882 	movk	x2, #0x20c4, lsl #48
   8b7f8:	9bc27c00 	umulh	x0, x0, x2
   8b7fc:	d344fc00 	lsr	x0, x0, #4
   8b800:	d65f03c0 	ret
   8b804:	d503201f 	nop

000000000008b808 <timer_getTickCount64>:
   8b808:	d0000040 	adrp	x0, 95000 <BitFont+0x934>
   8b80c:	b94c7801 	ldr	w1, [x0, #3192]
   8b810:	11400c21 	add	w1, w1, #0x3, lsl #12
   8b814:	d503201f 	nop
   8b818:	b9400820 	ldr	w0, [x1, #8]
   8b81c:	b9400423 	ldr	w3, [x1, #4]
   8b820:	b9400822 	ldr	w2, [x1, #8]
   8b824:	6b02001f 	cmp	w0, w2
   8b828:	54ffff81 	b.ne	8b818 <timer_getTickCount64+0x10>  // b.any
   8b82c:	2a0303e3 	mov	w3, w3
   8b830:	aa008060 	orr	x0, x3, x0, lsl #32
   8b834:	d65f03c0 	ret

000000000008b838 <timer_wait>:
   8b838:	d0000041 	adrp	x1, 95000 <BitFont+0x934>
   8b83c:	b94c7821 	ldr	w1, [x1, #3192]
   8b840:	11400c21 	add	w1, w1, #0x3, lsl #12
   8b844:	d503201f 	nop
   8b848:	b9400822 	ldr	w2, [x1, #8]
   8b84c:	b9400424 	ldr	w4, [x1, #4]
   8b850:	b9400823 	ldr	w3, [x1, #8]
   8b854:	6b03005f 	cmp	w2, w3
   8b858:	54ffff81 	b.ne	8b848 <timer_wait+0x10>  // b.any
   8b85c:	2a0403e4 	mov	w4, w4
   8b860:	aa028082 	orr	x2, x4, x2, lsl #32
   8b864:	8b000044 	add	x4, x2, x0
   8b868:	b9400820 	ldr	w0, [x1, #8]
   8b86c:	b9400423 	ldr	w3, [x1, #4]
   8b870:	b9400822 	ldr	w2, [x1, #8]
   8b874:	6b02001f 	cmp	w0, w2
   8b878:	54ffff81 	b.ne	8b868 <timer_wait+0x30>  // b.any
   8b87c:	2a0303e3 	mov	w3, w3
   8b880:	aa008060 	orr	x0, x3, x0, lsl #32
   8b884:	eb00009f 	cmp	x4, x0
   8b888:	54ffff08 	b.hi	8b868 <timer_wait+0x30>  // b.pmore
   8b88c:	d65f03c0 	ret

000000000008b890 <tick_difference>:
   8b890:	cb000020 	sub	x0, x1, x0
   8b894:	d65f03c0 	ret

000000000008b898 <mailbox_write>:
   8b898:	7100241f 	cmp	w0, #0x9
   8b89c:	54000188 	b.hi	8b8cc <mailbox_write+0x34>  // b.pmore
   8b8a0:	d0000042 	adrp	x2, 95000 <BitFont+0x934>
   8b8a4:	121c6c21 	and	w1, w1, #0xfffffff0
   8b8a8:	2a010003 	orr	w3, w0, w1
   8b8ac:	52971000 	mov	w0, #0xb880                	// #47232
   8b8b0:	b94c7842 	ldr	w2, [x2, #3192]
   8b8b4:	0b000042 	add	w2, w2, w0
   8b8b8:	b9403841 	ldr	w1, [x2, #56]
   8b8bc:	37ffffe1 	tbnz	w1, #31, 8b8b8 <mailbox_write+0x20>
   8b8c0:	52800020 	mov	w0, #0x1                   	// #1
   8b8c4:	b9002043 	str	w3, [x2, #32]
   8b8c8:	d65f03c0 	ret
   8b8cc:	52800000 	mov	w0, #0x0                   	// #0
   8b8d0:	d65f03c0 	ret
   8b8d4:	d503201f 	nop

000000000008b8d8 <mailbox_read>:
   8b8d8:	7100241f 	cmp	w0, #0x9
   8b8dc:	540001a8 	b.hi	8b910 <mailbox_read+0x38>  // b.pmore
   8b8e0:	d0000041 	adrp	x1, 95000 <BitFont+0x934>
   8b8e4:	b94c7822 	ldr	w2, [x1, #3192]
   8b8e8:	52971001 	mov	w1, #0xb880                	// #47232
   8b8ec:	0b010042 	add	w2, w2, w1
   8b8f0:	b9401841 	ldr	w1, [x2, #24]
   8b8f4:	37f7ffe1 	tbnz	w1, #30, 8b8f0 <mailbox_read+0x18>
   8b8f8:	b9400041 	ldr	w1, [x2]
   8b8fc:	12000c23 	and	w3, w1, #0xf
   8b900:	6b03001f 	cmp	w0, w3
   8b904:	54ffff61 	b.ne	8b8f0 <mailbox_read+0x18>  // b.any
   8b908:	121c6c20 	and	w0, w1, #0xfffffff0
   8b90c:	d65f03c0 	ret
   8b910:	529bd5a0 	mov	w0, #0xdead                	// #57005
   8b914:	72bfdda0 	movk	w0, #0xfeed, lsl #16
   8b918:	d65f03c0 	ret
   8b91c:	d503201f 	nop

000000000008b920 <mailbox_tag_message>:
   8b920:	a9b153f3 	stp	x19, x20, [sp, #-240]!
   8b924:	12001c33 	and	w19, w1, #0xff
   8b928:	11000e61 	add	w1, w19, #0x3
   8b92c:	910103f4 	add	x20, sp, #0x40
   8b930:	11000a6a 	add	w10, w19, #0x2
   8b934:	531e7421 	lsl	w1, w1, #2
   8b938:	a9017bf5 	stp	x21, x30, [sp, #16]
   8b93c:	910303e9 	add	x9, sp, #0xc0
   8b940:	b90043e1 	str	w1, [sp, #64]
   8b944:	128005e8 	mov	w8, #0xffffffd0            	// #-48
   8b948:	b82ada9f 	str	wzr, [x20, w10, sxtw #2]
   8b94c:	aa0003f5 	mov	x21, x0
   8b950:	9103c3e0 	add	x0, sp, #0xf0
   8b954:	a90203e0 	stp	x0, x0, [sp, #32]
   8b958:	f9001be9 	str	x9, [sp, #48]
   8b95c:	29077fe8 	stp	w8, wzr, [sp, #56]
   8b960:	b90047ff 	str	wzr, [sp, #68]
   8b964:	a90c0fe2 	stp	x2, x3, [sp, #192]
   8b968:	a90d17e4 	stp	x4, x5, [sp, #208]
   8b96c:	a90e1fe6 	stp	x6, x7, [sp, #224]
   8b970:	34000593 	cbz	w19, 8ba20 <mailbox_tag_message+0x100>
   8b974:	2a0803e2 	mov	w2, w8
   8b978:	9103c3e3 	add	x3, sp, #0xf0
   8b97c:	2a0803e5 	mov	w5, w8
   8b980:	2a0803e4 	mov	w4, w8
   8b984:	52800001 	mov	w1, #0x0                   	// #0
   8b988:	52800000 	mov	w0, #0x0                   	// #0
   8b98c:	d503201f 	nop
   8b990:	36f80084 	tbz	w4, #31, 8b9a0 <mailbox_tag_message+0x80>
   8b994:	11002084 	add	w4, w4, #0x8
   8b998:	52800021 	mov	w1, #0x1                   	// #1
   8b99c:	2a0403e5 	mov	w5, w4
   8b9a0:	11000400 	add	w0, w0, #0x1
   8b9a4:	6b00027f 	cmp	w19, w0
   8b9a8:	54ffff41 	b.ne	8b990 <mailbox_tag_message+0x70>  // b.any
   8b9ac:	34000041 	cbz	w1, 8b9b4 <mailbox_tag_message+0x94>
   8b9b0:	b9003be5 	str	w5, [sp, #56]
   8b9b4:	51000661 	sub	w1, w19, #0x1
   8b9b8:	91001280 	add	x0, x20, #0x4
   8b9bc:	aa1403e5 	mov	x5, x20
   8b9c0:	8b214801 	add	x1, x0, w1, uxtw #2
   8b9c4:	14000009 	b	8b9e8 <mailbox_tag_message+0xc8>
   8b9c8:	aa0303e4 	mov	x4, x3
   8b9cc:	eb01001f 	cmp	x0, x1
   8b9d0:	91002063 	add	x3, x3, #0x8
   8b9d4:	b9400084 	ldr	w4, [x4]
   8b9d8:	b90008a4 	str	w4, [x5, #8]
   8b9dc:	aa0003e5 	mov	x5, x0
   8b9e0:	91001000 	add	x0, x0, #0x4
   8b9e4:	540001e0 	b.eq	8ba20 <mailbox_tag_message+0x100>  // b.none
   8b9e8:	11002046 	add	w6, w2, #0x8
   8b9ec:	36fffee2 	tbz	w2, #31, 8b9c8 <mailbox_tag_message+0xa8>
   8b9f0:	9103c3e4 	add	x4, sp, #0xf0
   8b9f4:	710000df 	cmp	w6, #0x0
   8b9f8:	8b22c084 	add	x4, x4, w2, sxtw
   8b9fc:	2a0603e2 	mov	w2, w6
   8ba00:	54fffe4c 	b.gt	8b9c8 <mailbox_tag_message+0xa8>
   8ba04:	b9400084 	ldr	w4, [x4]
   8ba08:	eb01001f 	cmp	x0, x1
   8ba0c:	b90008a4 	str	w4, [x5, #8]
   8ba10:	aa0003e5 	mov	x5, x0
   8ba14:	91001000 	add	x0, x0, #0x4
   8ba18:	54fffe81 	b.ne	8b9e8 <mailbox_tag_message+0xc8>  // b.any
   8ba1c:	d503201f 	nop
   8ba20:	aa1403e0 	mov	x0, x20
   8ba24:	97ffd37f 	bl	80820 <ARMaddrToGPUaddr>
   8ba28:	d0000042 	adrp	x2, 95000 <BitFont+0x934>
   8ba2c:	121c6c00 	and	w0, w0, #0xfffffff0
   8ba30:	321d0001 	orr	w1, w0, #0x8
   8ba34:	52971000 	mov	w0, #0xb880                	// #47232
   8ba38:	b94c7842 	ldr	w2, [x2, #3192]
   8ba3c:	0b000042 	add	w2, w2, w0
   8ba40:	b9403840 	ldr	w0, [x2, #56]
   8ba44:	37ffffe0 	tbnz	w0, #31, 8ba40 <mailbox_tag_message+0x120>
   8ba48:	b9002041 	str	w1, [x2, #32]
   8ba4c:	d503201f 	nop
   8ba50:	b9401840 	ldr	w0, [x2, #24]
   8ba54:	37f7ffe0 	tbnz	w0, #30, 8ba50 <mailbox_tag_message+0x130>
   8ba58:	b9400040 	ldr	w0, [x2]
   8ba5c:	12000c00 	and	w0, w0, #0xf
   8ba60:	7100201f 	cmp	w0, #0x8
   8ba64:	54ffff61 	b.ne	8ba50 <mailbox_tag_message+0x130>  // b.any
   8ba68:	b94047e2 	ldr	w2, [sp, #68]
   8ba6c:	52b00001 	mov	w1, #0x80000000            	// #-2147483648
   8ba70:	52800000 	mov	w0, #0x0                   	// #0
   8ba74:	6b01005f 	cmp	w2, w1
   8ba78:	54000080 	b.eq	8ba88 <mailbox_tag_message+0x168>  // b.none
   8ba7c:	a9417bf5 	ldp	x21, x30, [sp, #16]
   8ba80:	a8cf53f3 	ldp	x19, x20, [sp], #240
   8ba84:	d65f03c0 	ret
   8ba88:	b4000155 	cbz	x21, 8bab0 <mailbox_tag_message+0x190>
   8ba8c:	34000133 	cbz	w19, 8bab0 <mailbox_tag_message+0x190>
   8ba90:	d2800000 	mov	x0, #0x0                   	// #0
   8ba94:	d503201f 	nop
   8ba98:	8b000a81 	add	x1, x20, x0, lsl #2
   8ba9c:	b9400821 	ldr	w1, [x1, #8]
   8baa0:	b8207aa1 	str	w1, [x21, x0, lsl #2]
   8baa4:	91000400 	add	x0, x0, #0x1
   8baa8:	6b00027f 	cmp	w19, w0
   8baac:	54ffff6c 	b.gt	8ba98 <mailbox_tag_message+0x178>
   8bab0:	52800020 	mov	w0, #0x1                   	// #1
   8bab4:	a9417bf5 	ldp	x21, x30, [sp, #16]
   8bab8:	a8cf53f3 	ldp	x19, x20, [sp], #240
   8babc:	d65f03c0 	ret

000000000008bac0 <TimerIrqSetup>:
   8bac0:	a9bb53f3 	stp	x19, x20, [sp, #-80]!
   8bac4:	52968014 	mov	w20, #0xb400                	// #46080
   8bac8:	52800042 	mov	w2, #0x2                   	// #2
   8bacc:	a9015bf5 	stp	x21, x22, [sp, #16]
   8bad0:	d0000055 	adrp	x21, 95000 <BitFont+0x934>
   8bad4:	52800104 	mov	w4, #0x8                   	// #8
   8bad8:	b94c7aa7 	ldr	w7, [x21, #3192]
   8badc:	2a0403e3 	mov	w3, w4
   8bae0:	f90013fe 	str	x30, [sp, #32]
   8bae4:	aa0103f6 	mov	x22, x1
   8bae8:	0b1400e7 	add	w7, w7, w20
   8baec:	a903ffff 	stp	xzr, xzr, [sp, #56]
   8baf0:	52800006 	mov	w6, #0x0                   	// #0
   8baf4:	b9004bff 	str	wzr, [sp, #72]
   8baf8:	52800085 	mov	w5, #0x4                   	// #4
   8bafc:	2a0003f3 	mov	w19, w0
   8bb00:	72a00062 	movk	w2, #0x3, lsl #16
   8bb04:	b94008e8 	ldr	w8, [x7, #8]
   8bb08:	528000a1 	mov	w1, #0x5                   	// #5
   8bb0c:	9100e3e0 	add	x0, sp, #0x38
   8bb10:	12187908 	and	w8, w8, #0xffffff7f
   8bb14:	b90008e8 	str	w8, [x7, #8]
   8bb18:	97fffde0 	bl	8b298 <mailbox_tag_message.constprop.5>
   8bb1c:	b9404be1 	ldr	w1, [sp, #72]
   8bb20:	5289ba63 	mov	w3, #0x4dd3                	// #19923
   8bb24:	72a20c43 	movk	w3, #0x1062, lsl #16
   8bb28:	d2869b62 	mov	x2, #0x34db                	// #13531
   8bb2c:	f2baf6c2 	movk	x2, #0xd7b6, lsl #16
   8bb30:	aa1603e0 	mov	x0, x22
   8bb34:	f2dbd042 	movk	x2, #0xde82, lsl #32
   8bb38:	9ba37c21 	umull	x1, w1, w3
   8bb3c:	f2e86362 	movk	x2, #0x431b, lsl #48
   8bb40:	d364fc21 	lsr	x1, x1, #36
   8bb44:	b9004be1 	str	w1, [sp, #72]
   8bb48:	9ba17e73 	umull	x19, w19, w1
   8bb4c:	9bc27e73 	umulh	x19, x19, x2
   8bb50:	97ffd32c 	bl	80800 <setTimerIrqAddress>
   8bb54:	b94c7aa1 	ldr	w1, [x21, #3192]
   8bb58:	52964002 	mov	w2, #0xb200                	// #45568
   8bb5c:	0b020023 	add	w3, w1, w2
   8bb60:	0b140021 	add	w1, w1, w20
   8bb64:	d352fe73 	lsr	x19, x19, #18
   8bb68:	b9401862 	ldr	w2, [x3, #24]
   8bb6c:	32000042 	orr	w2, w2, #0x1
   8bb70:	b9001862 	str	w2, [x3, #24]
   8bb74:	b9000033 	str	w19, [x1]
   8bb78:	b9400822 	ldr	w2, [x1, #8]
   8bb7c:	321f0042 	orr	w2, w2, #0x2
   8bb80:	b9000822 	str	w2, [x1, #8]
   8bb84:	b9400822 	ldr	w2, [x1, #8]
   8bb88:	121c7442 	and	w2, w2, #0xfffffff3
   8bb8c:	b9000822 	str	w2, [x1, #8]
   8bb90:	b9400822 	ldr	w2, [x1, #8]
   8bb94:	321b0042 	orr	w2, w2, #0x20
   8bb98:	b9000822 	str	w2, [x1, #8]
   8bb9c:	b9400822 	ldr	w2, [x1, #8]
   8bba0:	32190042 	orr	w2, w2, #0x80
   8bba4:	b9000822 	str	w2, [x1, #8]
   8bba8:	a9415bf5 	ldp	x21, x22, [sp, #16]
   8bbac:	f94013fe 	ldr	x30, [sp, #32]
   8bbb0:	a8c553f3 	ldp	x19, x20, [sp], #80
   8bbb4:	d65f03c0 	ret

000000000008bbb8 <set_Activity_LED>:
   8bbb8:	900000a1 	adrp	x1, 9f000 <ModelCheckHasRun>
   8bbbc:	a9bd53f3 	stp	x19, x20, [sp, #-48]!
   8bbc0:	12001c14 	and	w20, w0, #0xff
   8bbc4:	39400020 	ldrb	w0, [x1]
   8bbc8:	91000033 	add	x19, x1, #0x0
   8bbcc:	f9000ffe 	str	x30, [sp, #24]
   8bbd0:	34000140 	cbz	w0, 8bbf8 <set_Activity_LED+0x40>
   8bbd4:	39400661 	ldrb	w1, [x19, #1]
   8bbd8:	d0000042 	adrp	x2, 95000 <BitFont+0x934>
   8bbdc:	b94c9845 	ldr	w5, [x2, #3224]
   8bbe0:	350009a1 	cbnz	w1, 8bd14 <set_Activity_LED+0x15c>
   8bbe4:	7100d4bf 	cmp	w5, #0x35
   8bbe8:	54000429 	b.ls	8bc6c <set_Activity_LED+0xb4>  // b.plast
   8bbec:	f9400ffe 	ldr	x30, [sp, #24]
   8bbf0:	a8c353f3 	ldp	x19, x20, [sp], #48
   8bbf4:	d65f03c0 	ret
   8bbf8:	52800042 	mov	w2, #0x2                   	// #2
   8bbfc:	52800083 	mov	w3, #0x4                   	// #4
   8bc00:	72a00022 	movk	w2, #0x1, lsl #16
   8bc04:	52800005 	mov	w5, #0x0                   	// #0
   8bc08:	52800004 	mov	w4, #0x0                   	// #0
   8bc0c:	910083e0 	add	x0, sp, #0x20
   8bc10:	f9000bf5 	str	x21, [sp, #16]
   8bc14:	52800035 	mov	w21, #0x1                   	// #1
   8bc18:	39000035 	strb	w21, [x1]
   8bc1c:	2a0303e1 	mov	w1, w3
   8bc20:	97fffdd2 	bl	8b368 <mailbox_tag_message.constprop.6>
   8bc24:	72001c00 	ands	w0, w0, #0xff
   8bc28:	540008e0 	b.eq	8bd44 <set_Activity_LED+0x18c>  // b.none
   8bc2c:	b9402fe1 	ldr	w1, [sp, #44]
   8bc30:	12005c20 	and	w0, w1, #0xffffff
   8bc34:	b9002fe0 	str	w0, [sp, #44]
   8bc38:	51000802 	sub	w2, w0, #0x2
   8bc3c:	7100345f 	cmp	w2, #0xd
   8bc40:	54000389 	b.ls	8bcb0 <set_Activity_LED+0xf8>  // b.plast
   8bc44:	52841022 	mov	w2, #0x2081                	// #8321
   8bc48:	72a01402 	movk	w2, #0xa0, lsl #16
   8bc4c:	6b02001f 	cmp	w0, w2
   8bc50:	540003e8 	b.hi	8bccc <set_Activity_LED+0x114>  // b.pmore
   8bc54:	d0000041 	adrp	x1, 95000 <BitFont+0x934>
   8bc58:	528005e0 	mov	w0, #0x2f                  	// #47
   8bc5c:	f9400bf5 	ldr	x21, [sp, #16]
   8bc60:	2a0003e5 	mov	w5, w0
   8bc64:	b90c9820 	str	w0, [x1, #3224]
   8bc68:	3900067f 	strb	wzr, [x19, #1]
   8bc6c:	d0000042 	adrp	x2, 95000 <BitFont+0x934>
   8bc70:	53057ca0 	lsr	w0, w5, #5
   8bc74:	91001c04 	add	x4, x0, #0x7
   8bc78:	91002801 	add	x1, x0, #0xa
   8bc7c:	b94c7843 	ldr	w3, [x2, #3192]
   8bc80:	7100029f 	cmp	w20, #0x0
   8bc84:	52800022 	mov	w2, #0x1                   	// #1
   8bc88:	2a0203e0 	mov	w0, w2
   8bc8c:	11480063 	add	w3, w3, #0x200, lsl #12
   8bc90:	1ac52045 	lsl	w5, w2, w5
   8bc94:	8b040864 	add	x4, x3, x4, lsl #2
   8bc98:	8b010861 	add	x1, x3, x1, lsl #2
   8bc9c:	9a840021 	csel	x1, x1, x4, eq  // eq = none
   8bca0:	f9400ffe 	ldr	x30, [sp, #24]
   8bca4:	b9000025 	str	w5, [x1]
   8bca8:	a8c353f3 	ldp	x19, x20, [sp], #48
   8bcac:	d65f03c0 	ret
   8bcb0:	d0000041 	adrp	x1, 95000 <BitFont+0x934>
   8bcb4:	52800200 	mov	w0, #0x10                  	// #16
   8bcb8:	2a0003e5 	mov	w5, w0
   8bcbc:	3900067f 	strb	wzr, [x19, #1]
   8bcc0:	b90c9820 	str	w0, [x1, #3224]
   8bcc4:	f9400bf5 	ldr	x21, [sp, #16]
   8bcc8:	17ffffe9 	b	8bc6c <set_Activity_LED+0xb4>
   8bccc:	12bfe042 	mov	w2, #0xfdffff              	// #16646143
   8bcd0:	0a020021 	and	w1, w1, w2
   8bcd4:	52841042 	mov	w2, #0x2082                	// #8322
   8bcd8:	72a01402 	movk	w2, #0xa0, lsl #16
   8bcdc:	6b02003f 	cmp	w1, w2
   8bce0:	52841401 	mov	w1, #0x20a0                	// #8352
   8bce4:	72a01401 	movk	w1, #0xa0, lsl #16
   8bce8:	7a411004 	ccmp	w0, w1, #0x4, ne  // ne = any
   8bcec:	52841041 	mov	w1, #0x2082                	// #8322
   8bcf0:	72a01461 	movk	w1, #0xa3, lsl #16
   8bcf4:	7a411004 	ccmp	w0, w1, #0x4, ne  // ne = any
   8bcf8:	d0000041 	adrp	x1, 95000 <BitFont+0x934>
   8bcfc:	540002c1 	b.ne	8bd54 <set_Activity_LED+0x19c>  // b.any
   8bd00:	39000675 	strb	w21, [x19, #1]
   8bd04:	52801040 	mov	w0, #0x82                  	// #130
   8bd08:	f9400bf5 	ldr	x21, [sp, #16]
   8bd0c:	2a0003e5 	mov	w5, w0
   8bd10:	b90c9820 	str	w0, [x1, #3224]
   8bd14:	52900822 	mov	w2, #0x8041                	// #32833
   8bd18:	2a1403e6 	mov	w6, w20
   8bd1c:	52800104 	mov	w4, #0x8                   	// #8
   8bd20:	72a00062 	movk	w2, #0x3, lsl #16
   8bd24:	528000a1 	mov	w1, #0x5                   	// #5
   8bd28:	2a0403e3 	mov	w3, w4
   8bd2c:	d2800000 	mov	x0, #0x0                   	// #0
   8bd30:	97fffd5a 	bl	8b298 <mailbox_tag_message.constprop.5>
   8bd34:	12001c00 	and	w0, w0, #0xff
   8bd38:	f9400ffe 	ldr	x30, [sp, #24]
   8bd3c:	a8c353f3 	ldp	x19, x20, [sp], #48
   8bd40:	d65f03c0 	ret
   8bd44:	f9400bf5 	ldr	x21, [sp, #16]
   8bd48:	f9400ffe 	ldr	x30, [sp, #24]
   8bd4c:	a8c353f3 	ldp	x19, x20, [sp], #48
   8bd50:	d65f03c0 	ret
   8bd54:	528003a0 	mov	w0, #0x1d                  	// #29
   8bd58:	2a0003e5 	mov	w5, w0
   8bd5c:	b90c9820 	str	w0, [x1, #3224]
   8bd60:	3900067f 	strb	wzr, [x19, #1]
   8bd64:	f9400bf5 	ldr	x21, [sp, #16]
   8bd68:	17ffffc1 	b	8bc6c <set_Activity_LED+0xb4>
   8bd6c:	d503201f 	nop

000000000008bd70 <ARM_setmaxspeed>:
   8bd70:	a9bc53f3 	stp	x19, x20, [sp, #-64]!
   8bd74:	52800082 	mov	w2, #0x4                   	// #4
   8bd78:	52800104 	mov	w4, #0x8                   	// #8
   8bd7c:	aa0003f4 	mov	x20, x0
   8bd80:	72a00062 	movk	w2, #0x3, lsl #16
   8bd84:	9100a3e0 	add	x0, sp, #0x28
   8bd88:	52800006 	mov	w6, #0x0                   	// #0
   8bd8c:	2a0403e3 	mov	w3, w4
   8bd90:	52800065 	mov	w5, #0x3                   	// #3
   8bd94:	528000a1 	mov	w1, #0x5                   	// #5
   8bd98:	f9000bfe 	str	x30, [sp, #16]
   8bd9c:	a902ffff 	stp	xzr, xzr, [sp, #40]
   8bda0:	b9003bff 	str	wzr, [sp, #56]
   8bda4:	97fffd3d 	bl	8b298 <mailbox_tag_message.constprop.5>
   8bda8:	72001c1f 	tst	w0, #0xff
   8bdac:	540000c1 	b.ne	8bdc4 <ARM_setmaxspeed+0x54>  // b.any
   8bdb0:	52800013 	mov	w19, #0x0                   	// #0
   8bdb4:	2a1303e0 	mov	w0, w19
   8bdb8:	f9400bfe 	ldr	x30, [sp, #16]
   8bdbc:	a8c453f3 	ldp	x19, x20, [sp], #64
   8bdc0:	d65f03c0 	ret
   8bdc4:	b9403be6 	ldr	w6, [sp, #56]
   8bdc8:	52900042 	mov	w2, #0x8002                	// #32770
   8bdcc:	52800104 	mov	w4, #0x8                   	// #8
   8bdd0:	9100a3e0 	add	x0, sp, #0x28
   8bdd4:	72a00062 	movk	w2, #0x3, lsl #16
   8bdd8:	52800065 	mov	w5, #0x3                   	// #3
   8bddc:	2a0403e3 	mov	w3, w4
   8bde0:	528000a1 	mov	w1, #0x5                   	// #5
   8bde4:	97fffd2d 	bl	8b298 <mailbox_tag_message.constprop.5>
   8bde8:	72001c13 	ands	w19, w0, #0xff
   8bdec:	54fffe20 	b.eq	8bdb0 <ARM_setmaxspeed+0x40>  // b.none
   8bdf0:	b4fffe34 	cbz	x20, 8bdb4 <ARM_setmaxspeed+0x44>
   8bdf4:	b9403be1 	ldr	w1, [sp, #56]
   8bdf8:	d0000040 	adrp	x0, 95000 <BitFont+0x934>
   8bdfc:	911c4000 	add	x0, x0, #0x710
   8be00:	d63f0280 	blr	x20
   8be04:	17ffffec 	b	8bdb4 <ARM_setmaxspeed+0x44>

000000000008be08 <displaySmartStart>:
   8be08:	b4000540 	cbz	x0, 8beb0 <displaySmartStart+0xa8>
   8be0c:	d0000041 	adrp	x1, 95000 <BitFont+0x934>
   8be10:	a9bf7bf3 	stp	x19, x30, [sp, #-16]!
   8be14:	aa0003f3 	mov	x19, x0
   8be18:	39723023 	ldrb	w3, [x1, #3212]
   8be1c:	d0000040 	adrp	x0, 95000 <BitFont+0x934>
   8be20:	911cc000 	add	x0, x0, #0x730
   8be24:	12000c61 	and	w1, w3, #0xf
   8be28:	d3441062 	ubfx	x2, x3, #4, #1
   8be2c:	d3451c63 	ubfx	x3, x3, #5, #3
   8be30:	11000442 	add	w2, w2, #0x1
   8be34:	531b6842 	lsl	w2, w2, #5
   8be38:	d63f0260 	blr	x19
   8be3c:	d0000040 	adrp	x0, 95000 <BitFont+0x934>
   8be40:	79591002 	ldrh	w2, [x0, #3208]
   8be44:	d3443c42 	ubfx	x2, x2, #4, #12
   8be48:	71301c5f 	cmp	w2, #0xc07
   8be4c:	54000340 	b.eq	8beb4 <displaySmartStart+0xac>  // b.none
   8be50:	71340c5f 	cmp	w2, #0xd03
   8be54:	540001c0 	b.eq	8be8c <displaySmartStart+0x84>  // b.none
   8be58:	aa1303e4 	mov	x4, x19
   8be5c:	d0000043 	adrp	x3, 95000 <BitFont+0x934>
   8be60:	a8c17bf3 	ldp	x19, x30, [sp], #16
   8be64:	712dd85f 	cmp	w2, #0xb76
   8be68:	b94c8063 	ldr	w3, [x3, #3200]
   8be6c:	d0000040 	adrp	x0, 95000 <BitFont+0x934>
   8be70:	d0000041 	adrp	x1, 95000 <BitFont+0x934>
   8be74:	911b4000 	add	x0, x0, #0x6d0
   8be78:	911b8021 	add	x1, x1, #0x6e0
   8be7c:	9a800021 	csel	x1, x1, x0, eq  // eq = none
   8be80:	d0000040 	adrp	x0, 95000 <BitFont+0x934>
   8be84:	911de000 	add	x0, x0, #0x778
   8be88:	d61f0080 	br	x4
   8be8c:	aa1303e4 	mov	x4, x19
   8be90:	d0000043 	adrp	x3, 95000 <BitFont+0x934>
   8be94:	a8c17bf3 	ldp	x19, x30, [sp], #16
   8be98:	d0000041 	adrp	x1, 95000 <BitFont+0x934>
   8be9c:	b94c8063 	ldr	w3, [x3, #3200]
   8bea0:	911bc021 	add	x1, x1, #0x6f0
   8bea4:	d0000040 	adrp	x0, 95000 <BitFont+0x934>
   8bea8:	911de000 	add	x0, x0, #0x778
   8beac:	d61f0080 	br	x4
   8beb0:	d65f03c0 	ret
   8beb4:	aa1303e4 	mov	x4, x19
   8beb8:	d0000043 	adrp	x3, 95000 <BitFont+0x934>
   8bebc:	a8c17bf3 	ldp	x19, x30, [sp], #16
   8bec0:	d0000041 	adrp	x1, 95000 <BitFont+0x934>
   8bec4:	b94c8063 	ldr	w3, [x3, #3200]
   8bec8:	911c0021 	add	x1, x1, #0x700
   8becc:	d0000040 	adrp	x0, 95000 <BitFont+0x934>
   8bed0:	911de000 	add	x0, x0, #0x778
   8bed4:	d61f0080 	br	x4

000000000008bed8 <miniuart_init>:
   8bed8:	a9bc53f3 	stp	x19, x20, [sp, #-64]!
   8bedc:	52800042 	mov	w2, #0x2                   	// #2
   8bee0:	2a0003f4 	mov	w20, w0
   8bee4:	52800104 	mov	w4, #0x8                   	// #8
   8bee8:	72a00062 	movk	w2, #0x3, lsl #16
   8beec:	52800006 	mov	w6, #0x0                   	// #0
   8bef0:	2a0403e3 	mov	w3, w4
   8bef4:	52800085 	mov	w5, #0x4                   	// #4
   8bef8:	528000a1 	mov	w1, #0x5                   	// #5
   8befc:	9100a3e0 	add	x0, sp, #0x28
   8bf00:	f9000bfe 	str	x30, [sp, #16]
   8bf04:	a902ffff 	stp	xzr, xzr, [sp, #40]
   8bf08:	531d7294 	lsl	w20, w20, #3
   8bf0c:	b9003bff 	str	wzr, [sp, #56]
   8bf10:	97fffce2 	bl	8b298 <mailbox_tag_message.constprop.5>
   8bf14:	b9403bf3 	ldr	w19, [sp, #56]
   8bf18:	529fffe0 	mov	w0, #0xffff                	// #65535
   8bf1c:	1ad40a73 	udiv	w19, w19, w20
   8bf20:	51000673 	sub	w19, w19, #0x1
   8bf24:	6b00027f 	cmp	w19, w0
   8bf28:	540000a9 	b.ls	8bf3c <miniuart_init+0x64>  // b.plast
   8bf2c:	52800000 	mov	w0, #0x0                   	// #0
   8bf30:	f9400bfe 	ldr	x30, [sp, #16]
   8bf34:	a8c453f3 	ldp	x19, x20, [sp], #64
   8bf38:	d65f03c0 	ret
   8bf3c:	d5033fbf 	dmb	sy
   8bf40:	d0000054 	adrp	x20, 95000 <BitFont+0x934>
   8bf44:	52800021 	mov	w1, #0x1                   	// #1
   8bf48:	b94c7a80 	ldr	w0, [x20, #3192]
   8bf4c:	11485400 	add	w0, w0, #0x215, lsl #12
   8bf50:	11001000 	add	w0, w0, #0x4
   8bf54:	97ffd239 	bl	80838 <PUT32>
   8bf58:	b94c7a81 	ldr	w1, [x20, #3192]
   8bf5c:	11485420 	add	w0, w1, #0x215, lsl #12
   8bf60:	11480021 	add	w1, w1, #0x200, lsl #12
   8bf64:	11010000 	add	w0, w0, #0x40
   8bf68:	b9402002 	ldr	w2, [x0, #32]
   8bf6c:	121f7842 	and	w2, w2, #0xfffffffe
   8bf70:	b9002002 	str	w2, [x0, #32]
   8bf74:	b9402002 	ldr	w2, [x0, #32]
   8bf78:	121e7842 	and	w2, w2, #0xfffffffd
   8bf7c:	b9002002 	str	w2, [x0, #32]
   8bf80:	b9400c02 	ldr	w2, [x0, #12]
   8bf84:	32000042 	orr	w2, w2, #0x1
   8bf88:	b9000c02 	str	w2, [x0, #12]
   8bf8c:	b9401002 	ldr	w2, [x0, #16]
   8bf90:	121e7842 	and	w2, w2, #0xfffffffd
   8bf94:	b9001002 	str	w2, [x0, #16]
   8bf98:	b9400802 	ldr	w2, [x0, #8]
   8bf9c:	321f0042 	orr	w2, w2, #0x2
   8bfa0:	b9000802 	str	w2, [x0, #8]
   8bfa4:	b9400802 	ldr	w2, [x0, #8]
   8bfa8:	321e0042 	orr	w2, w2, #0x4
   8bfac:	b9000802 	str	w2, [x0, #8]
   8bfb0:	b9402802 	ldr	w2, [x0, #40]
   8bfb4:	33003e62 	bfxil	w2, w19, #0, #16
   8bfb8:	b9002802 	str	w2, [x0, #40]
   8bfbc:	b9400422 	ldr	w2, [x1, #4]
   8bfc0:	12117042 	and	w2, w2, #0xffff8fff
   8bfc4:	32130042 	orr	w2, w2, #0x2000
   8bfc8:	b9000422 	str	w2, [x1, #4]
   8bfcc:	b9400422 	ldr	w2, [x1, #4]
   8bfd0:	120e7042 	and	w2, w2, #0xfffc7fff
   8bfd4:	32100042 	orr	w2, w2, #0x10000
   8bfd8:	b9000422 	str	w2, [x1, #4]
   8bfdc:	b9402001 	ldr	w1, [x0, #32]
   8bfe0:	32000021 	orr	w1, w1, #0x1
   8bfe4:	b9002001 	str	w1, [x0, #32]
   8bfe8:	b9402001 	ldr	w1, [x0, #32]
   8bfec:	321f0021 	orr	w1, w1, #0x2
   8bff0:	b9002001 	str	w1, [x0, #32]
   8bff4:	d5033fbf 	dmb	sy
   8bff8:	52800020 	mov	w0, #0x1                   	// #1
   8bffc:	f9400bfe 	ldr	x30, [sp, #16]
   8c000:	a8c453f3 	ldp	x19, x20, [sp], #64
   8c004:	d65f03c0 	ret

000000000008c008 <miniuart_getc>:
   8c008:	d5033fbf 	dmb	sy
   8c00c:	b0000040 	adrp	x0, 95000 <BitFont+0x934>
   8c010:	b94c7801 	ldr	w1, [x0, #3192]
   8c014:	11485421 	add	w1, w1, #0x215, lsl #12
   8c018:	11010021 	add	w1, w1, #0x40
   8c01c:	d503201f 	nop
   8c020:	b9401420 	ldr	w0, [x1, #20]
   8c024:	3607ffe0 	tbz	w0, #0, 8c020 <miniuart_getc+0x18>
   8c028:	b9400020 	ldr	w0, [x1]
   8c02c:	d65f03c0 	ret

000000000008c030 <miniuart_putc>:
   8c030:	12001c00 	and	w0, w0, #0xff
   8c034:	d5033fbf 	dmb	sy
   8c038:	b0000041 	adrp	x1, 95000 <BitFont+0x934>
   8c03c:	b94c7822 	ldr	w2, [x1, #3192]
   8c040:	11485442 	add	w2, w2, #0x215, lsl #12
   8c044:	11010042 	add	w2, w2, #0x40
   8c048:	b9401441 	ldr	w1, [x2, #20]
   8c04c:	362fffe1 	tbz	w1, #5, 8c048 <miniuart_putc+0x18>
   8c050:	b9400041 	ldr	w1, [x2]
   8c054:	33001c01 	bfxil	w1, w0, #0, #8
   8c058:	b9000041 	str	w1, [x2]
   8c05c:	d5033fbf 	dmb	sy
   8c060:	d65f03c0 	ret
   8c064:	d503201f 	nop

000000000008c068 <miniuart_puts>:
   8c068:	39400003 	ldrb	w3, [x0]
   8c06c:	34000223 	cbz	w3, 8c0b0 <miniuart_puts+0x48>
   8c070:	b0000044 	adrp	x4, 95000 <BitFont+0x934>
   8c074:	528a0805 	mov	w5, #0x5040                	// #20544
   8c078:	9131e084 	add	x4, x4, #0xc78
   8c07c:	72a00425 	movk	w5, #0x21, lsl #16
   8c080:	91000400 	add	x0, x0, #0x1
   8c084:	d5033fbf 	dmb	sy
   8c088:	b9400082 	ldr	w2, [x4]
   8c08c:	0b050042 	add	w2, w2, w5
   8c090:	b9401441 	ldr	w1, [x2, #20]
   8c094:	362fffe1 	tbz	w1, #5, 8c090 <miniuart_puts+0x28>
   8c098:	b9400041 	ldr	w1, [x2]
   8c09c:	33001c61 	bfxil	w1, w3, #0, #8
   8c0a0:	b9000041 	str	w1, [x2]
   8c0a4:	d5033fbf 	dmb	sy
   8c0a8:	39400003 	ldrb	w3, [x0]
   8c0ac:	35fffea3 	cbnz	w3, 8c080 <miniuart_puts+0x18>
   8c0b0:	d65f03c0 	ret
   8c0b4:	d503201f 	nop

000000000008c0b8 <pl011_uart_init>:
   8c0b8:	a9bc53f3 	stp	x19, x20, [sp, #-64]!
   8c0bc:	2a0003f3 	mov	w19, w0
   8c0c0:	a9017bf5 	stp	x21, x30, [sp, #16]
   8c0c4:	a902ffff 	stp	xzr, xzr, [sp, #40]
   8c0c8:	b9003bff 	str	wzr, [sp, #56]
   8c0cc:	d5033fbf 	dmb	sy
   8c0d0:	b0000055 	adrp	x21, 95000 <BitFont+0x934>
   8c0d4:	52900042 	mov	w2, #0x8002                	// #32770
   8c0d8:	52812014 	mov	w20, #0x900                 	// #2304
   8c0dc:	52800104 	mov	w4, #0x8                   	// #8
   8c0e0:	b94c7aa7 	ldr	w7, [x21, #3192]
   8c0e4:	72a007b4 	movk	w20, #0x3d, lsl #16
   8c0e8:	2a0403e3 	mov	w3, w4
   8c0ec:	9100a3e0 	add	x0, sp, #0x28
   8c0f0:	114804e8 	add	w8, w7, #0x201, lsl #12
   8c0f4:	114800e7 	add	w7, w7, #0x200, lsl #12
   8c0f8:	72a00062 	movk	w2, #0x3, lsl #16
   8c0fc:	2a1403e6 	mov	w6, w20
   8c100:	52800045 	mov	w5, #0x2                   	// #2
   8c104:	528000a1 	mov	w1, #0x5                   	// #5
   8c108:	b900311f 	str	wzr, [x8, #48]
   8c10c:	b94004e8 	ldr	w8, [x7, #4]
   8c110:	12117108 	and	w8, w8, #0xffff8fff
   8c114:	32120108 	orr	w8, w8, #0x4000
   8c118:	b90004e8 	str	w8, [x7, #4]
   8c11c:	b94004e8 	ldr	w8, [x7, #4]
   8c120:	120e7108 	and	w8, w8, #0xfffc7fff
   8c124:	320f0108 	orr	w8, w8, #0x20000
   8c128:	b90004e8 	str	w8, [x7, #4]
   8c12c:	97fffc5b 	bl	8b298 <mailbox_tag_message.constprop.5>
   8c130:	531c6e62 	lsl	w2, w19, #4
   8c134:	b94c7aa1 	ldr	w1, [x21, #3192]
   8c138:	53017e64 	lsr	w4, w19, #1
   8c13c:	11480421 	add	w1, w1, #0x201, lsl #12
   8c140:	1ac20a82 	udiv	w2, w20, w2
   8c144:	b9402423 	ldr	w3, [x1, #36]
   8c148:	1b13fc40 	mneg	w0, w2, w19
   8c14c:	33003c43 	bfxil	w3, w2, #0, #16
   8c150:	b9002423 	str	w3, [x1, #36]
   8c154:	0b001280 	add	w0, w20, w0, lsl #4
   8c158:	b9402822 	ldr	w2, [x1, #40]
   8c15c:	0b000880 	add	w0, w4, w0, lsl #2
   8c160:	1ad30800 	udiv	w0, w0, w19
   8c164:	33001402 	bfxil	w2, w0, #0, #6
   8c168:	b9002822 	str	w2, [x1, #40]
   8c16c:	b9402c20 	ldr	w0, [x1, #44]
   8c170:	321b0400 	orr	w0, w0, #0x60
   8c174:	b9002c20 	str	w0, [x1, #44]
   8c178:	b9402c20 	ldr	w0, [x1, #44]
   8c17c:	121e7800 	and	w0, w0, #0xfffffffd
   8c180:	b9002c20 	str	w0, [x1, #44]
   8c184:	b9402c20 	ldr	w0, [x1, #44]
   8c188:	121c7800 	and	w0, w0, #0xfffffff7
   8c18c:	b9002c20 	str	w0, [x1, #44]
   8c190:	b9402c20 	ldr	w0, [x1, #44]
   8c194:	121b7800 	and	w0, w0, #0xffffffef
   8c198:	b9002c20 	str	w0, [x1, #44]
   8c19c:	b9403020 	ldr	w0, [x1, #48]
   8c1a0:	32000000 	orr	w0, w0, #0x1
   8c1a4:	b9003020 	str	w0, [x1, #48]
   8c1a8:	b9403020 	ldr	w0, [x1, #48]
   8c1ac:	32170000 	orr	w0, w0, #0x200
   8c1b0:	b9003020 	str	w0, [x1, #48]
   8c1b4:	b9403020 	ldr	w0, [x1, #48]
   8c1b8:	32180000 	orr	w0, w0, #0x100
   8c1bc:	b9003020 	str	w0, [x1, #48]
   8c1c0:	d5033fbf 	dmb	sy
   8c1c4:	52800020 	mov	w0, #0x1                   	// #1
   8c1c8:	a9417bf5 	ldp	x21, x30, [sp, #16]
   8c1cc:	a8c453f3 	ldp	x19, x20, [sp], #64
   8c1d0:	d65f03c0 	ret
   8c1d4:	d503201f 	nop

000000000008c1d8 <pl011_uart_getc>:
   8c1d8:	d5033fbf 	dmb	sy
   8c1dc:	b0000040 	adrp	x0, 95000 <BitFont+0x934>
   8c1e0:	b94c7801 	ldr	w1, [x0, #3192]
   8c1e4:	11480421 	add	w1, w1, #0x201, lsl #12
   8c1e8:	b9401820 	ldr	w0, [x1, #24]
   8c1ec:	3727ffe0 	tbnz	w0, #4, 8c1e8 <pl011_uart_getc+0x10>
   8c1f0:	b9400020 	ldr	w0, [x1]
   8c1f4:	d65f03c0 	ret

000000000008c1f8 <pl011_uart_putc>:
   8c1f8:	12001c00 	and	w0, w0, #0xff
   8c1fc:	d5033fbf 	dmb	sy
   8c200:	b0000041 	adrp	x1, 95000 <BitFont+0x934>
   8c204:	b94c7822 	ldr	w2, [x1, #3192]
   8c208:	11480442 	add	w2, w2, #0x201, lsl #12
   8c20c:	d503201f 	nop
   8c210:	b9401841 	ldr	w1, [x2, #24]
   8c214:	372fffe1 	tbnz	w1, #5, 8c210 <pl011_uart_putc+0x18>
   8c218:	b9400041 	ldr	w1, [x2]
   8c21c:	33001c01 	bfxil	w1, w0, #0, #8
   8c220:	b9000041 	str	w1, [x2]
   8c224:	d5033fbf 	dmb	sy
   8c228:	d65f03c0 	ret
   8c22c:	d503201f 	nop

000000000008c230 <pl011_uart_puts>:
   8c230:	39400003 	ldrb	w3, [x0]
   8c234:	340001e3 	cbz	w3, 8c270 <pl011_uart_puts+0x40>
   8c238:	b0000044 	adrp	x4, 95000 <BitFont+0x934>
   8c23c:	9131e084 	add	x4, x4, #0xc78
   8c240:	91000400 	add	x0, x0, #0x1
   8c244:	d5033fbf 	dmb	sy
   8c248:	b9400082 	ldr	w2, [x4]
   8c24c:	11480442 	add	w2, w2, #0x201, lsl #12
   8c250:	b9401841 	ldr	w1, [x2, #24]
   8c254:	372fffe1 	tbnz	w1, #5, 8c250 <pl011_uart_puts+0x20>
   8c258:	b9400041 	ldr	w1, [x2]
   8c25c:	33001c61 	bfxil	w1, w3, #0, #8
   8c260:	b9000041 	str	w1, [x2]
   8c264:	d5033fbf 	dmb	sy
   8c268:	39400003 	ldrb	w3, [x0]
   8c26c:	35fffea3 	cbnz	w3, 8c240 <pl011_uart_puts+0x10>
   8c270:	d65f03c0 	ret
   8c274:	d503201f 	nop

000000000008c278 <Embedded_Console_WriteChar>:
   8c278:	12001c01 	and	w1, w0, #0xff
   8c27c:	7100283f 	cmp	w1, #0xa
   8c280:	540002c0 	b.eq	8c2d8 <Embedded_Console_WriteChar+0x60>  // b.none
   8c284:	7100343f 	cmp	w1, #0xd
   8c288:	540004a0 	b.eq	8c31c <Embedded_Console_WriteChar+0xa4>  // b.none
   8c28c:	7100243f 	cmp	w1, #0x9
   8c290:	54000300 	b.eq	8c2f0 <Embedded_Console_WriteChar+0x78>  // b.none
   8c294:	a9bf7bf3 	stp	x19, x30, [sp, #-16]!
   8c298:	f0000093 	adrp	x19, 9f000 <ModelCheckHasRun>
   8c29c:	91000273 	add	x19, x19, #0x0
   8c2a0:	91001273 	add	x19, x19, #0x4
   8c2a4:	aa1303e0 	mov	x0, x19
   8c2a8:	29440e64 	ldp	w4, w3, [x19, #32]
   8c2ac:	294b8a65 	ldp	w5, w2, [x19, #92]
   8c2b0:	531d7084 	lsl	w4, w4, #3
   8c2b4:	531c6c63 	lsl	w3, w3, #4
   8c2b8:	29030e64 	stp	w4, w3, [x19, #24]
   8c2bc:	aa0280a2 	orr	x2, x5, x2, lsl #32
   8c2c0:	d63f0040 	blr	x2
   8c2c4:	b9402260 	ldr	w0, [x19, #32]
   8c2c8:	11000400 	add	w0, w0, #0x1
   8c2cc:	b9002260 	str	w0, [x19, #32]
   8c2d0:	a8c17bf3 	ldp	x19, x30, [sp], #16
   8c2d4:	d65f03c0 	ret
   8c2d8:	f0000080 	adrp	x0, 9f000 <ModelCheckHasRun>
   8c2dc:	91000000 	add	x0, x0, #0x0
   8c2e0:	b9402801 	ldr	w1, [x0, #40]
   8c2e4:	11000421 	add	w1, w1, #0x1
   8c2e8:	2904841f 	stp	wzr, w1, [x0, #36]
   8c2ec:	d65f03c0 	ret
   8c2f0:	f0000081 	adrp	x1, 9f000 <ModelCheckHasRun>
   8c2f4:	91000021 	add	x1, x1, #0x0
   8c2f8:	b9402420 	ldr	w0, [x1, #36]
   8c2fc:	11001400 	add	w0, w0, #0x5
   8c300:	6b0003e2 	negs	w2, w0
   8c304:	12000403 	and	w3, w0, #0x3
   8c308:	12000442 	and	w2, w2, #0x3
   8c30c:	5a824462 	csneg	w2, w3, w2, mi  // mi = first
   8c310:	4b020000 	sub	w0, w0, w2
   8c314:	b9002420 	str	w0, [x1, #36]
   8c318:	d65f03c0 	ret
   8c31c:	f0000080 	adrp	x0, 9f000 <ModelCheckHasRun>
   8c320:	b900241f 	str	wzr, [x0, #36]
   8c324:	d65f03c0 	ret

000000000008c328 <WriteText>:
   8c328:	b4000742 	cbz	x2, 8c410 <WriteText+0xe8>
   8c32c:	a9bd53f3 	stp	x19, x20, [sp, #-48]!
   8c330:	2a0003e3 	mov	w3, w0
   8c334:	aa0203f3 	mov	x19, x2
   8c338:	a9015bf5 	stp	x21, x22, [sp, #16]
   8c33c:	f0000095 	adrp	x21, 9f000 <ModelCheckHasRun>
   8c340:	910002b5 	add	x21, x21, #0x0
   8c344:	aa0203e0 	mov	x0, x2
   8c348:	f90013fe 	str	x30, [sp, #32]
   8c34c:	290486a3 	stp	w3, w1, [x21, #36]
   8c350:	9400040c 	bl	8d380 <strlen>
   8c354:	b40003c0 	cbz	x0, 8c3cc <WriteText+0xa4>
   8c358:	8b000276 	add	x22, x19, x0
   8c35c:	14000010 	b	8c39c <WriteText+0x74>
   8c360:	7100247f 	cmp	w3, #0x9
   8c364:	54000440 	b.eq	8c3ec <WriteText+0xc4>  // b.none
   8c368:	29440e84 	ldp	w4, w3, [x20, #32]
   8c36c:	294b8a85 	ldp	w5, w2, [x20, #92]
   8c370:	531d7084 	lsl	w4, w4, #3
   8c374:	531c6c63 	lsl	w3, w3, #4
   8c378:	29030e84 	stp	w4, w3, [x20, #24]
   8c37c:	aa0280a2 	orr	x2, x5, x2, lsl #32
   8c380:	d63f0040 	blr	x2
   8c384:	b9402280 	ldr	w0, [x20, #32]
   8c388:	11000400 	add	w0, w0, #0x1
   8c38c:	b9002280 	str	w0, [x20, #32]
   8c390:	91000673 	add	x19, x19, #0x1
   8c394:	eb1302df 	cmp	x22, x19
   8c398:	540001a0 	b.eq	8c3cc <WriteText+0xa4>  // b.none
   8c39c:	39400263 	ldrb	w3, [x19]
   8c3a0:	7100287f 	cmp	w3, #0xa
   8c3a4:	540001c0 	b.eq	8c3dc <WriteText+0xb4>  // b.none
   8c3a8:	910012b4 	add	x20, x21, #0x4
   8c3ac:	2a0303e1 	mov	w1, w3
   8c3b0:	aa1403e0 	mov	x0, x20
   8c3b4:	7100347f 	cmp	w3, #0xd
   8c3b8:	54fffd41 	b.ne	8c360 <WriteText+0x38>  // b.any
   8c3bc:	b90026bf 	str	wzr, [x21, #36]
   8c3c0:	91000673 	add	x19, x19, #0x1
   8c3c4:	eb1302df 	cmp	x22, x19
   8c3c8:	54fffea1 	b.ne	8c39c <WriteText+0x74>  // b.any
   8c3cc:	a9415bf5 	ldp	x21, x22, [sp, #16]
   8c3d0:	f94013fe 	ldr	x30, [sp, #32]
   8c3d4:	a8c353f3 	ldp	x19, x20, [sp], #48
   8c3d8:	d65f03c0 	ret
   8c3dc:	b9402aa1 	ldr	w1, [x21, #40]
   8c3e0:	11000421 	add	w1, w1, #0x1
   8c3e4:	290486bf 	stp	wzr, w1, [x21, #36]
   8c3e8:	17ffffea 	b	8c390 <WriteText+0x68>
   8c3ec:	b94026a1 	ldr	w1, [x21, #36]
   8c3f0:	11001421 	add	w1, w1, #0x5
   8c3f4:	6b0103e2 	negs	w2, w1
   8c3f8:	12000423 	and	w3, w1, #0x3
   8c3fc:	12000442 	and	w2, w2, #0x3
   8c400:	5a824462 	csneg	w2, w3, w2, mi  // mi = first
   8c404:	4b020021 	sub	w1, w1, w2
   8c408:	b90026a1 	str	w1, [x21, #36]
   8c40c:	17ffffe1 	b	8c390 <WriteText+0x68>
   8c410:	d65f03c0 	ret
   8c414:	d503201f 	nop

000000000008c418 <SetDCPenColor>:
   8c418:	d10083ff 	sub	sp, sp, #0x20
   8c41c:	aa0003e2 	mov	x2, x0
   8c420:	52800000 	mov	w0, #0x0                   	// #0
   8c424:	b9000be1 	str	w1, [sp, #8]
   8c428:	b4000062 	cbz	x2, 8c434 <SetDCPenColor+0x1c>
   8c42c:	b9402840 	ldr	w0, [x2, #40]
   8c430:	b9002841 	str	w1, [x2, #40]
   8c434:	910083ff 	add	sp, sp, #0x20
   8c438:	d65f03c0 	ret
   8c43c:	d503201f 	nop

000000000008c440 <SetDCBrushColor>:
   8c440:	d10083ff 	sub	sp, sp, #0x20
   8c444:	aa0003e2 	mov	x2, x0
   8c448:	52800000 	mov	w0, #0x0                   	// #0
   8c44c:	b9000be1 	str	w1, [sp, #8]
   8c450:	b4000062 	cbz	x2, 8c45c <SetDCBrushColor+0x1c>
   8c454:	b9403040 	ldr	w0, [x2, #48]
   8c458:	b9003041 	str	w1, [x2, #48]
   8c45c:	910083ff 	add	sp, sp, #0x20
   8c460:	d65f03c0 	ret
   8c464:	d503201f 	nop

000000000008c468 <SetTextColor>:
   8c468:	d10083ff 	sub	sp, sp, #0x20
   8c46c:	2a0103e2 	mov	w2, w1
   8c470:	b9000be1 	str	w1, [sp, #8]
   8c474:	b9001be1 	str	w1, [sp, #24]
   8c478:	aa0003e1 	mov	x1, x0
   8c47c:	52800000 	mov	w0, #0x0                   	// #0
   8c480:	b4000061 	cbz	x1, 8c48c <SetTextColor+0x24>
   8c484:	b9402820 	ldr	w0, [x1, #40]
   8c488:	b9002822 	str	w2, [x1, #40]
   8c48c:	910083ff 	add	sp, sp, #0x20
   8c490:	d65f03c0 	ret
   8c494:	d503201f 	nop

000000000008c498 <MoveToEx>:
   8c498:	aa0003e4 	mov	x4, x0
   8c49c:	52800000 	mov	w0, #0x0                   	// #0
   8c4a0:	b5000044 	cbnz	x4, 8c4a8 <MoveToEx+0x10>
   8c4a4:	d65f03c0 	ret
   8c4a8:	b40000a3 	cbz	x3, 8c4bc <MoveToEx+0x24>
   8c4ac:	b9401880 	ldr	w0, [x4, #24]
   8c4b0:	b9000060 	str	w0, [x3]
   8c4b4:	b9401c80 	ldr	w0, [x4, #28]
   8c4b8:	b9000460 	str	w0, [x3, #4]
   8c4bc:	52800020 	mov	w0, #0x1                   	// #1
   8c4c0:	29030881 	stp	w1, w2, [x4, #24]
   8c4c4:	d65f03c0 	ret

000000000008c4c8 <LineTo>:
   8c4c8:	b5000060 	cbnz	x0, 8c4d4 <LineTo+0xc>
   8c4cc:	52800000 	mov	w0, #0x0                   	// #0
   8c4d0:	d65f03c0 	ret
   8c4d4:	29430c05 	ldp	w5, w3, [x0, #24]
   8c4d8:	f81f0ffe 	str	x30, [sp, #-16]!
   8c4dc:	6b0100bf 	cmp	w5, w1
   8c4e0:	540001ac 	b.gt	8c514 <LineTo+0x4c>
   8c4e4:	4b050025 	sub	w5, w1, w5
   8c4e8:	6b03005f 	cmp	w2, w3
   8c4ec:	5400030a 	b.ge	8c54c <LineTo+0x84>  // b.tcont
   8c4f0:	4b020061 	sub	w1, w3, w2
   8c4f4:	12800002 	mov	w2, #0xffffffff            	// #-1
   8c4f8:	35000445 	cbnz	w5, 8c580 <LineTo+0xb8>
   8c4fc:	29488c04 	ldp	w4, w3, [x0, #68]
   8c500:	aa038083 	orr	x3, x4, x3, lsl #32
   8c504:	d63f0060 	blr	x3
   8c508:	52800020 	mov	w0, #0x1                   	// #1
   8c50c:	f84107fe 	ldr	x30, [sp], #16
   8c510:	d65f03c0 	ret
   8c514:	4b0100a5 	sub	w5, w5, w1
   8c518:	6b03005f 	cmp	w2, w3
   8c51c:	540002ca 	b.ge	8c574 <LineTo+0xac>  // b.tcont
   8c520:	4b020061 	sub	w1, w3, w2
   8c524:	12800002 	mov	w2, #0xffffffff            	// #-1
   8c528:	2a0203e4 	mov	w4, w2
   8c52c:	294a9807 	ldp	w7, w6, [x0, #84]
   8c530:	2a0203e3 	mov	w3, w2
   8c534:	2a0103e2 	mov	w2, w1
   8c538:	2a0503e1 	mov	w1, w5
   8c53c:	aa0680e5 	orr	x5, x7, x6, lsl #32
   8c540:	d63f00a0 	blr	x5
   8c544:	52800020 	mov	w0, #0x1                   	// #1
   8c548:	17fffff1 	b	8c50c <LineTo+0x44>
   8c54c:	4b030041 	sub	w1, w2, w3
   8c550:	52800022 	mov	w2, #0x1                   	// #1
   8c554:	34fffd45 	cbz	w5, 8c4fc <LineTo+0x34>
   8c558:	350001a1 	cbnz	w1, 8c58c <LineTo+0xc4>
   8c55c:	29498c04 	ldp	w4, w3, [x0, #76]
   8c560:	2a0503e1 	mov	w1, w5
   8c564:	aa038083 	orr	x3, x4, x3, lsl #32
   8c568:	d63f0060 	blr	x3
   8c56c:	52800020 	mov	w0, #0x1                   	// #1
   8c570:	17ffffe7 	b	8c50c <LineTo+0x44>
   8c574:	4b030041 	sub	w1, w2, w3
   8c578:	12800002 	mov	w2, #0xffffffff            	// #-1
   8c57c:	17fffff7 	b	8c558 <LineTo+0x90>
   8c580:	2a0203e4 	mov	w4, w2
   8c584:	52800022 	mov	w2, #0x1                   	// #1
   8c588:	17ffffe9 	b	8c52c <LineTo+0x64>
   8c58c:	52800024 	mov	w4, #0x1                   	// #1
   8c590:	17ffffe7 	b	8c52c <LineTo+0x64>
   8c594:	d503201f 	nop

000000000008c598 <TextOut>:
   8c598:	7100009f 	cmp	w4, #0x0
   8c59c:	fa401864 	ccmp	x3, #0x0, #0x4, ne  // ne = any
   8c5a0:	54000061 	b.ne	8c5ac <TextOut+0x14>  // b.any
   8c5a4:	52800000 	mov	w0, #0x0                   	// #0
   8c5a8:	d65f03c0 	ret
   8c5ac:	a9bd53f3 	stp	x19, x20, [sp, #-48]!
   8c5b0:	7100009f 	cmp	w4, #0x0
   8c5b4:	2a0103f4 	mov	w20, w1
   8c5b8:	a9027bf7 	stp	x23, x30, [sp, #32]
   8c5bc:	2a0203f7 	mov	w23, w2
   8c5c0:	5400024d 	b.le	8c608 <TextOut+0x70>
   8c5c4:	f0000093 	adrp	x19, 9f000 <ModelCheckHasRun>
   8c5c8:	91000273 	add	x19, x19, #0x0
   8c5cc:	91001273 	add	x19, x19, #0x4
   8c5d0:	a9015bf5 	stp	x21, x22, [sp, #16]
   8c5d4:	aa0303f5 	mov	x21, x3
   8c5d8:	0b040c36 	add	w22, w1, w4, lsl #3
   8c5dc:	d503201f 	nop
   8c5e0:	29035e74 	stp	w20, w23, [x19, #24]
   8c5e4:	aa1303e0 	mov	x0, x19
   8c5e8:	294b8a63 	ldp	w3, w2, [x19, #92]
   8c5ec:	11002294 	add	w20, w20, #0x8
   8c5f0:	384016a1 	ldrb	w1, [x21], #1
   8c5f4:	aa028062 	orr	x2, x3, x2, lsl #32
   8c5f8:	d63f0040 	blr	x2
   8c5fc:	6b16029f 	cmp	w20, w22
   8c600:	54ffff01 	b.ne	8c5e0 <TextOut+0x48>  // b.any
   8c604:	a9415bf5 	ldp	x21, x22, [sp, #16]
   8c608:	52800020 	mov	w0, #0x1                   	// #1
   8c60c:	a9427bf7 	ldp	x23, x30, [sp, #32]
   8c610:	a8c353f3 	ldp	x19, x20, [sp], #48
   8c614:	d65f03c0 	ret

000000000008c618 <TransparentTextOut>:
   8c618:	b4000342 	cbz	x2, 8c680 <TransparentTextOut+0x68>
   8c61c:	a9bd53f3 	stp	x19, x20, [sp, #-48]!
   8c620:	f0000093 	adrp	x19, 9f000 <ModelCheckHasRun>
   8c624:	91000273 	add	x19, x19, #0x0
   8c628:	a9015bf5 	stp	x21, x22, [sp, #16]
   8c62c:	2a0003f5 	mov	w21, w0
   8c630:	2a0103f6 	mov	w22, w1
   8c634:	f90013fe 	str	x30, [sp, #32]
   8c638:	aa0203f4 	mov	x20, x2
   8c63c:	91001273 	add	x19, x19, #0x4
   8c640:	39400040 	ldrb	w0, [x2]
   8c644:	34000140 	cbz	w0, 8c66c <TransparentTextOut+0x54>
   8c648:	29035a75 	stp	w21, w22, [x19, #24]
   8c64c:	aa1303e0 	mov	x0, x19
   8c650:	294c8e62 	ldp	w2, w3, [x19, #100]
   8c654:	110022b5 	add	w21, w21, #0x8
   8c658:	38401681 	ldrb	w1, [x20], #1
   8c65c:	aa038043 	orr	x3, x2, x3, lsl #32
   8c660:	d63f0060 	blr	x3
   8c664:	39400280 	ldrb	w0, [x20]
   8c668:	35ffff00 	cbnz	w0, 8c648 <TransparentTextOut+0x30>
   8c66c:	52800020 	mov	w0, #0x1                   	// #1
   8c670:	a9415bf5 	ldp	x21, x22, [sp, #16]
   8c674:	f94013fe 	ldr	x30, [sp, #32]
   8c678:	a8c353f3 	ldp	x19, x20, [sp], #48
   8c67c:	d65f03c0 	ret
   8c680:	52800000 	mov	w0, #0x0                   	// #0
   8c684:	d65f03c0 	ret

000000000008c688 <BmpOut>:
   8c688:	b5000060 	cbnz	x0, 8c694 <BmpOut+0xc>
   8c68c:	52800000 	mov	w0, #0x0                   	// #0
   8c690:	d65f03c0 	ret
   8c694:	f81f0ffe 	str	x30, [sp, #-16]!
   8c698:	0b040047 	add	w7, w2, w4
   8c69c:	2a0303e8 	mov	w8, w3
   8c6a0:	29031c01 	stp	w1, w7, [x0, #24]
   8c6a4:	294da40a 	ldp	w10, w9, [x0, #108]
   8c6a8:	aa0503e3 	mov	x3, x5
   8c6ac:	2a0403e2 	mov	w2, w4
   8c6b0:	2a0803e1 	mov	w1, w8
   8c6b4:	52800024 	mov	w4, #0x1                   	// #1
   8c6b8:	aa098145 	orr	x5, x10, x9, lsl #32
   8c6bc:	d63f00a0 	blr	x5
   8c6c0:	52800020 	mov	w0, #0x1                   	// #1
   8c6c4:	f84107fe 	ldr	x30, [sp], #16
   8c6c8:	d65f03c0 	ret
   8c6cc:	d503201f 	nop

000000000008c6d0 <CvtBmpLine>:
   8c6d0:	b5000060 	cbnz	x0, 8c6dc <CvtBmpLine+0xc>
   8c6d4:	52800000 	mov	w0, #0x0                   	// #0
   8c6d8:	d65f03c0 	ret
   8c6dc:	d2820210 	mov	x16, #0x1010                	// #4112
   8c6e0:	cb3063ff 	sub	sp, sp, x16
   8c6e4:	f90003fe 	str	x30, [sp]
   8c6e8:	29030801 	stp	w1, w2, [x0, #24]
   8c6ec:	b9401001 	ldr	w1, [x0, #16]
   8c6f0:	6b04003f 	cmp	w1, w4
   8c6f4:	540000e0 	b.eq	8c710 <CvtBmpLine+0x40>  // b.none
   8c6f8:	7100603f 	cmp	w1, #0x18
   8c6fc:	540009a0 	b.eq	8c830 <CvtBmpLine+0x160>  // b.none
   8c700:	7100803f 	cmp	w1, #0x20
   8c704:	54000720 	b.eq	8c7e8 <CvtBmpLine+0x118>  // b.none
   8c708:	7100403f 	cmp	w1, #0x10
   8c70c:	540001a0 	b.eq	8c740 <CvtBmpLine+0x70>  // b.none
   8c710:	294d9406 	ldp	w6, w5, [x0, #108]
   8c714:	2a0303e1 	mov	w1, w3
   8c718:	52800024 	mov	w4, #0x1                   	// #1
   8c71c:	910043e3 	add	x3, sp, #0x10
   8c720:	52800022 	mov	w2, #0x1                   	// #1
   8c724:	aa0580c5 	orr	x5, x6, x5, lsl #32
   8c728:	d63f00a0 	blr	x5
   8c72c:	52800020 	mov	w0, #0x1                   	// #1
   8c730:	d2820210 	mov	x16, #0x1010                	// #4112
   8c734:	f94003fe 	ldr	x30, [sp]
   8c738:	8b3063ff 	add	sp, sp, x16
   8c73c:	d65f03c0 	ret
   8c740:	7100609f 	cmp	w4, #0x18
   8c744:	540009a0 	b.eq	8c878 <CvtBmpLine+0x1a8>  // b.none
   8c748:	34fffe43 	cbz	w3, 8c710 <CvtBmpLine+0x40>
   8c74c:	51000466 	sub	w6, w3, #0x1
   8c750:	910043e1 	add	x1, sp, #0x10
   8c754:	910004c6 	add	x6, x6, #0x1
   8c758:	aa0503e8 	mov	x8, x5
   8c75c:	8b060426 	add	x6, x1, x6, lsl #1
   8c760:	aa0103e2 	mov	x2, x1
   8c764:	38404504 	ldrb	w4, [x8], #4
   8c768:	38402447 	ldrb	w7, [x2], #2
   8c76c:	53037c84 	lsr	w4, w4, #3
   8c770:	eb0200df 	cmp	x6, x2
   8c774:	33001087 	bfxil	w7, w4, #0, #5
   8c778:	39000027 	strb	w7, [x1]
   8c77c:	aa0203e1 	mov	x1, x2
   8c780:	54ffff01 	b.ne	8c760 <CvtBmpLine+0x90>  // b.any
   8c784:	aa0503e7 	mov	x7, x5
   8c788:	910043e1 	add	x1, sp, #0x10
   8c78c:	d503201f 	nop
   8c790:	910010e7 	add	x7, x7, #0x4
   8c794:	aa0103e2 	mov	x2, x1
   8c798:	385fd0e4 	ldurb	w4, [x7, #-3]
   8c79c:	78402448 	ldrh	w8, [x2], #2
   8c7a0:	53027c84 	lsr	w4, w4, #2
   8c7a4:	eb0200df 	cmp	x6, x2
   8c7a8:	331b1488 	bfi	w8, w4, #5, #6
   8c7ac:	79000028 	strh	w8, [x1]
   8c7b0:	aa0203e1 	mov	x1, x2
   8c7b4:	54fffee1 	b.ne	8c790 <CvtBmpLine+0xc0>  // b.any
   8c7b8:	910043e1 	add	x1, sp, #0x10
   8c7bc:	d503201f 	nop
   8c7c0:	910010a5 	add	x5, x5, #0x4
   8c7c4:	385fe0a2 	ldurb	w2, [x5, #-2]
   8c7c8:	39400424 	ldrb	w4, [x1, #1]
   8c7cc:	91000821 	add	x1, x1, #0x2
   8c7d0:	53037c42 	lsr	w2, w2, #3
   8c7d4:	331d1044 	bfi	w4, w2, #3, #5
   8c7d8:	381ff024 	sturb	w4, [x1, #-1]
   8c7dc:	eb0100df 	cmp	x6, x1
   8c7e0:	54ffff01 	b.ne	8c7c0 <CvtBmpLine+0xf0>  // b.any
   8c7e4:	17ffffcb 	b	8c710 <CvtBmpLine+0x40>
   8c7e8:	7100409f 	cmp	w4, #0x10
   8c7ec:	54000e40 	b.eq	8c9b4 <CvtBmpLine+0x2e4>  // b.none
   8c7f0:	34fff903 	cbz	w3, 8c710 <CvtBmpLine+0x40>
   8c7f4:	51000466 	sub	w6, w3, #0x1
   8c7f8:	910043e1 	add	x1, sp, #0x10
   8c7fc:	910004c6 	add	x6, x6, #0x1
   8c800:	8b060826 	add	x6, x1, x6, lsl #2
   8c804:	d503201f 	nop
   8c808:	91000ca5 	add	x5, x5, #0x3
   8c80c:	385fd0a2 	ldurb	w2, [x5, #-3]
   8c810:	38004422 	strb	w2, [x1], #4
   8c814:	385fe0a4 	ldurb	w4, [x5, #-2]
   8c818:	385ff0a2 	ldurb	w2, [x5, #-1]
   8c81c:	eb0100df 	cmp	x6, x1
   8c820:	381fd024 	sturb	w4, [x1, #-3]
   8c824:	381fe022 	sturb	w2, [x1, #-2]
   8c828:	54ffff01 	b.ne	8c808 <CvtBmpLine+0x138>  // b.any
   8c82c:	17ffffb9 	b	8c710 <CvtBmpLine+0x40>
   8c830:	7100409f 	cmp	w4, #0x10
   8c834:	540007a0 	b.eq	8c928 <CvtBmpLine+0x258>  // b.none
   8c838:	34fff6c3 	cbz	w3, 8c710 <CvtBmpLine+0x40>
   8c83c:	51000464 	sub	w4, w3, #0x1
   8c840:	aa0503e1 	mov	x1, x5
   8c844:	91000484 	add	x4, x4, #0x1
   8c848:	910043e2 	add	x2, sp, #0x10
   8c84c:	8b0408a5 	add	x5, x5, x4, lsl #2
   8c850:	91001021 	add	x1, x1, #0x4
   8c854:	385fc024 	ldurb	w4, [x1, #-4]
   8c858:	38003444 	strb	w4, [x2], #3
   8c85c:	eb05003f 	cmp	x1, x5
   8c860:	385fd026 	ldurb	w6, [x1, #-3]
   8c864:	385fe024 	ldurb	w4, [x1, #-2]
   8c868:	381fe046 	sturb	w6, [x2, #-2]
   8c86c:	381ff044 	sturb	w4, [x2, #-1]
   8c870:	54ffff01 	b.ne	8c850 <CvtBmpLine+0x180>  // b.any
   8c874:	17ffffa7 	b	8c710 <CvtBmpLine+0x40>
   8c878:	34fff4c3 	cbz	w3, 8c710 <CvtBmpLine+0x40>
   8c87c:	51000466 	sub	w6, w3, #0x1
   8c880:	910043e1 	add	x1, sp, #0x10
   8c884:	910004ca 	add	x10, x6, #0x1
   8c888:	aa0503e7 	mov	x7, x5
   8c88c:	d37ff949 	lsl	x9, x10, #1
   8c890:	8b090028 	add	x8, x1, x9
   8c894:	d503201f 	nop
   8c898:	aa0103e2 	mov	x2, x1
   8c89c:	384034e4 	ldrb	w4, [x7], #3
   8c8a0:	38402446 	ldrb	w6, [x2], #2
   8c8a4:	53037c84 	lsr	w4, w4, #3
   8c8a8:	eb08005f 	cmp	x2, x8
   8c8ac:	33001086 	bfxil	w6, w4, #0, #5
   8c8b0:	39000026 	strb	w6, [x1]
   8c8b4:	aa0203e1 	mov	x1, x2
   8c8b8:	54ffff01 	b.ne	8c898 <CvtBmpLine+0x1c8>  // b.any
   8c8bc:	aa0503e6 	mov	x6, x5
   8c8c0:	910043e1 	add	x1, sp, #0x10
   8c8c4:	d503201f 	nop
   8c8c8:	91000cc6 	add	x6, x6, #0x3
   8c8cc:	aa0103e2 	mov	x2, x1
   8c8d0:	385fe0c4 	ldurb	w4, [x6, #-2]
   8c8d4:	78402447 	ldrh	w7, [x2], #2
   8c8d8:	53027c84 	lsr	w4, w4, #2
   8c8dc:	eb02011f 	cmp	x8, x2
   8c8e0:	331b1487 	bfi	w7, w4, #5, #6
   8c8e4:	79000027 	strh	w7, [x1]
   8c8e8:	aa0203e1 	mov	x1, x2
   8c8ec:	54fffee1 	b.ne	8c8c8 <CvtBmpLine+0x1f8>  // b.any
   8c8f0:	8b0a0126 	add	x6, x9, x10
   8c8f4:	aa0503e2 	mov	x2, x5
   8c8f8:	8b0600a6 	add	x6, x5, x6
   8c8fc:	910043e1 	add	x1, sp, #0x10
   8c900:	91000c42 	add	x2, x2, #0x3
   8c904:	385ff044 	ldurb	w4, [x2, #-1]
   8c908:	39400425 	ldrb	w5, [x1, #1]
   8c90c:	eb0200df 	cmp	x6, x2
   8c910:	91000821 	add	x1, x1, #0x2
   8c914:	53037c84 	lsr	w4, w4, #3
   8c918:	331d1085 	bfi	w5, w4, #3, #5
   8c91c:	381ff025 	sturb	w5, [x1, #-1]
   8c920:	54ffff01 	b.ne	8c900 <CvtBmpLine+0x230>  // b.any
   8c924:	17ffff7b 	b	8c710 <CvtBmpLine+0x40>
   8c928:	34ffef43 	cbz	w3, 8c710 <CvtBmpLine+0x40>
   8c92c:	51000466 	sub	w6, w3, #0x1
   8c930:	aa0503e1 	mov	x1, x5
   8c934:	910004c6 	add	x6, x6, #0x1
   8c938:	910043e4 	add	x4, sp, #0x10
   8c93c:	8b0604a6 	add	x6, x5, x6, lsl #1
   8c940:	38402422 	ldrb	w2, [x1], #2
   8c944:	eb06003f 	cmp	x1, x6
   8c948:	531d1042 	ubfiz	w2, w2, #3, #5
   8c94c:	38003482 	strb	w2, [x4], #3
   8c950:	54ffff81 	b.ne	8c940 <CvtBmpLine+0x270>  // b.any
   8c954:	aa0503e1 	mov	x1, x5
   8c958:	910043e7 	add	x7, sp, #0x10
   8c95c:	d503201f 	nop
   8c960:	39400422 	ldrb	w2, [x1, #1]
   8c964:	91000ce7 	add	x7, x7, #0x3
   8c968:	38402424 	ldrb	w4, [x1], #2
   8c96c:	d37d0842 	ubfiz	x2, x2, #3, #3
   8c970:	eb06003f 	cmp	x1, x6
   8c974:	d3451c84 	ubfx	x4, x4, #5, #3
   8c978:	aa040042 	orr	x2, x2, x4
   8c97c:	531e1442 	ubfiz	w2, w2, #2, #6
   8c980:	381fe0e2 	sturb	w2, [x7, #-2]
   8c984:	54fffee1 	b.ne	8c960 <CvtBmpLine+0x290>  // b.any
   8c988:	910043e2 	add	x2, sp, #0x10
   8c98c:	d503201f 	nop
   8c990:	394004a1 	ldrb	w1, [x5, #1]
   8c994:	91000c42 	add	x2, x2, #0x3
   8c998:	910008a5 	add	x5, x5, #0x2
   8c99c:	eb0600bf 	cmp	x5, x6
   8c9a0:	d3431c21 	ubfx	x1, x1, #3, #5
   8c9a4:	531d1021 	ubfiz	w1, w1, #3, #5
   8c9a8:	381ff041 	sturb	w1, [x2, #-1]
   8c9ac:	54ffff21 	b.ne	8c990 <CvtBmpLine+0x2c0>  // b.any
   8c9b0:	17ffff58 	b	8c710 <CvtBmpLine+0x40>
   8c9b4:	34ffeae3 	cbz	w3, 8c710 <CvtBmpLine+0x40>
   8c9b8:	51000464 	sub	w4, w3, #0x1
   8c9bc:	aa0503e1 	mov	x1, x5
   8c9c0:	91000488 	add	x8, x4, #0x1
   8c9c4:	910043e4 	add	x4, sp, #0x10
   8c9c8:	8b0804a7 	add	x7, x5, x8, lsl #1
   8c9cc:	d503201f 	nop
   8c9d0:	38402422 	ldrb	w2, [x1], #2
   8c9d4:	eb07003f 	cmp	x1, x7
   8c9d8:	531d1042 	ubfiz	w2, w2, #3, #5
   8c9dc:	38004482 	strb	w2, [x4], #4
   8c9e0:	54ffff81 	b.ne	8c9d0 <CvtBmpLine+0x300>  // b.any
   8c9e4:	aa0503e1 	mov	x1, x5
   8c9e8:	910043e6 	add	x6, sp, #0x10
   8c9ec:	d503201f 	nop
   8c9f0:	39400422 	ldrb	w2, [x1, #1]
   8c9f4:	910010c6 	add	x6, x6, #0x4
   8c9f8:	38402424 	ldrb	w4, [x1], #2
   8c9fc:	d37d0842 	ubfiz	x2, x2, #3, #3
   8ca00:	eb07003f 	cmp	x1, x7
   8ca04:	d3451c84 	ubfx	x4, x4, #5, #3
   8ca08:	aa040042 	orr	x2, x2, x4
   8ca0c:	531e1442 	ubfiz	w2, w2, #2, #6
   8ca10:	381fd0c2 	sturb	w2, [x6, #-3]
   8ca14:	54fffee1 	b.ne	8c9f0 <CvtBmpLine+0x320>  // b.any
   8ca18:	910043e1 	add	x1, sp, #0x10
   8ca1c:	8b080824 	add	x4, x1, x8, lsl #2
   8ca20:	aa0103e2 	mov	x2, x1
   8ca24:	d503201f 	nop
   8ca28:	394004a1 	ldrb	w1, [x5, #1]
   8ca2c:	91001042 	add	x2, x2, #0x4
   8ca30:	eb04005f 	cmp	x2, x4
   8ca34:	910008a5 	add	x5, x5, #0x2
   8ca38:	d3431c21 	ubfx	x1, x1, #3, #5
   8ca3c:	531d1021 	ubfiz	w1, w1, #3, #5
   8ca40:	381fe041 	sturb	w1, [x2, #-2]
   8ca44:	54ffff21 	b.ne	8ca28 <CvtBmpLine+0x358>  // b.any
   8ca48:	17ffff32 	b	8c710 <CvtBmpLine+0x40>
   8ca4c:	d503201f 	nop

000000000008ca50 <Rectangle>:
   8ca50:	b5000060 	cbnz	x0, 8ca5c <Rectangle+0xc>
   8ca54:	52800000 	mov	w0, #0x0                   	// #0
   8ca58:	d65f03c0 	ret
   8ca5c:	f81f0ffe 	str	x30, [sp, #-16]!
   8ca60:	29479406 	ldp	w6, w5, [x0, #60]
   8ca64:	aa0580c5 	orr	x5, x6, x5, lsl #32
   8ca68:	d63f00a0 	blr	x5
   8ca6c:	52800020 	mov	w0, #0x1                   	// #1
   8ca70:	f84107fe 	ldr	x30, [sp], #16
   8ca74:	d65f03c0 	ret

000000000008ca78 <SetPixel>:
   8ca78:	d10083ff 	sub	sp, sp, #0x20
   8ca7c:	b9000be3 	str	w3, [sp, #8]
   8ca80:	b5000080 	cbnz	x0, 8ca90 <SetPixel+0x18>
   8ca84:	12800000 	mov	w0, #0xffffffff            	// #-1
   8ca88:	910083ff 	add	sp, sp, #0x20
   8ca8c:	d65f03c0 	ret
   8ca90:	29469005 	ldp	w5, w4, [x0, #52]
   8ca94:	f94007e3 	ldr	x3, [sp, #8]
   8ca98:	910083ff 	add	sp, sp, #0x20
   8ca9c:	aa0480a4 	orr	x4, x5, x4, lsl #32
   8caa0:	d61f0080 	br	x4
   8caa4:	d503201f 	nop

000000000008caa8 <PiConsole_Init>:
   8caa8:	d10483ff 	sub	sp, sp, #0x120
   8caac:	7100001f 	cmp	w0, #0x0
   8cab0:	7a401824 	ccmp	w1, #0x0, #0x4, ne  // ne = any
   8cab4:	a90953f3 	stp	x19, x20, [sp, #144]
   8cab8:	2a0003f4 	mov	w20, w0
   8cabc:	2a0203f3 	mov	w19, w2
   8cac0:	a90a5bf5 	stp	x21, x22, [sp, #160]
   8cac4:	2a0103f5 	mov	w21, w1
   8cac8:	a90b7bf7 	stp	x23, x30, [sp, #176]
   8cacc:	aa0303f7 	mov	x23, x3
   8cad0:	54000b80 	b.eq	8cc40 <PiConsole_Init+0x198>  // b.none
   8cad4:	35000193 	cbnz	w19, 8cb04 <PiConsole_Init+0x5c>
   8cad8:	528000a2 	mov	w2, #0x5                   	// #5
   8cadc:	52800084 	mov	w4, #0x4                   	// #4
   8cae0:	72a00082 	movk	w2, #0x4, lsl #16
   8cae4:	2a0403e3 	mov	w3, w4
   8cae8:	2a0403e1 	mov	w1, w4
   8caec:	52800005 	mov	w5, #0x0                   	// #0
   8caf0:	910303e0 	add	x0, sp, #0xc0
   8caf4:	97fffa1d 	bl	8b368 <mailbox_tag_message.constprop.6>
   8caf8:	72001c1f 	tst	w0, #0xff
   8cafc:	54000520 	b.eq	8cba0 <PiConsole_Init+0xf8>  // b.none
   8cb00:	b940cff3 	ldr	w19, [sp, #204]
   8cb04:	52800109 	mov	w9, #0x8                   	// #8
   8cb08:	52800025 	mov	w5, #0x1                   	// #1
   8cb0c:	529000a3 	mov	w3, #0x8005                	// #32773
   8cb10:	52800101 	mov	w1, #0x8                   	// #8
   8cb14:	52800088 	mov	w8, #0x4                   	// #4
   8cb18:	72a00089 	movk	w9, #0x4, lsl #16
   8cb1c:	5280020a 	mov	w10, #0x10                  	// #16
   8cb20:	72a00085 	movk	w5, #0x4, lsl #16
   8cb24:	72a00083 	movk	w3, #0x4, lsl #16
   8cb28:	b90003e1 	str	w1, [sp]
   8cb2c:	b9000be1 	str	w1, [sp, #8]
   8cb30:	52900087 	mov	w7, #0x8004                	// #32772
   8cb34:	b90013f4 	str	w20, [sp, #16]
   8cb38:	52900062 	mov	w2, #0x8003                	// #32771
   8cb3c:	b9001bf5 	str	w21, [sp, #24]
   8cb40:	2a0103e4 	mov	w4, w1
   8cb44:	b90023e3 	str	w3, [sp, #32]
   8cb48:	910303e0 	add	x0, sp, #0xc0
   8cb4c:	b9002be8 	str	w8, [sp, #40]
   8cb50:	2a0103e3 	mov	w3, w1
   8cb54:	b90033e8 	str	w8, [sp, #48]
   8cb58:	72a00087 	movk	w7, #0x4, lsl #16
   8cb5c:	b9003bf3 	str	w19, [sp, #56]
   8cb60:	72a00082 	movk	w2, #0x4, lsl #16
   8cb64:	b90043e5 	str	w5, [sp, #64]
   8cb68:	2a1503e6 	mov	w6, w21
   8cb6c:	b9004be1 	str	w1, [sp, #72]
   8cb70:	2a1403e5 	mov	w5, w20
   8cb74:	b90053e8 	str	w8, [sp, #80]
   8cb78:	528002e1 	mov	w1, #0x17                  	// #23
   8cb7c:	b9005bea 	str	w10, [sp, #88]
   8cb80:	b90063ff 	str	wzr, [sp, #96]
   8cb84:	b9006be9 	str	w9, [sp, #104]
   8cb88:	b90073e8 	str	w8, [sp, #112]
   8cb8c:	b9007bff 	str	wzr, [sp, #120]
   8cb90:	b90083ff 	str	wzr, [sp, #128]
   8cb94:	97fff96b 	bl	8b140 <mailbox_tag_message.constprop.7>
   8cb98:	72001c16 	ands	w22, w0, #0xff
   8cb9c:	54000101 	b.ne	8cbbc <PiConsole_Init+0x114>  // b.any
   8cba0:	52800016 	mov	w22, #0x0                   	// #0
   8cba4:	2a1603e0 	mov	w0, w22
   8cba8:	a94953f3 	ldp	x19, x20, [sp, #144]
   8cbac:	a94a5bf5 	ldp	x21, x22, [sp, #160]
   8cbb0:	a94b7bf7 	ldp	x23, x30, [sp, #176]
   8cbb4:	910483ff 	add	sp, sp, #0x120
   8cbb8:	d65f03c0 	ret
   8cbbc:	b94107e0 	ldr	w0, [sp, #260]
   8cbc0:	97ffcf1b 	bl	8082c <GPUaddrToARMaddr>
   8cbc4:	f0000082 	adrp	x2, 9f000 <ModelCheckHasRun>
   8cbc8:	91000042 	add	x2, x2, #0x0
   8cbcc:	91001041 	add	x1, x2, #0x4
   8cbd0:	b9411be4 	ldr	w4, [sp, #280]
   8cbd4:	12800005 	mov	w5, #0xffffffff            	// #-1
   8cbd8:	32089fe3 	mov	w3, #0xff00ff00            	// #-16711936
   8cbdc:	b9000440 	str	w0, [x2, #4]
   8cbe0:	7100627f 	cmp	w19, #0x18
   8cbe4:	2900d03f 	stp	wzr, w20, [x1, #4]
   8cbe8:	2901cc35 	stp	w21, w19, [x1, #12]
   8cbec:	b9001424 	str	w4, [x1, #20]
   8cbf0:	29057c25 	stp	w5, wzr, [x1, #40]
   8cbf4:	b9003023 	str	w3, [x1, #48]
   8cbf8:	54000b20 	b.eq	8cd5c <PiConsole_Init+0x2b4>  // b.none
   8cbfc:	7100827f 	cmp	w19, #0x20
   8cc00:	540008a0 	b.eq	8cd14 <PiConsole_Init+0x26c>  // b.none
   8cc04:	7100427f 	cmp	w19, #0x10
   8cc08:	540003e0 	b.eq	8cc84 <PiConsole_Init+0x1dc>  // b.none
   8cc0c:	b4fffcd7 	cbz	x23, 8cba4 <PiConsole_Init+0xfc>
   8cc10:	2a1303e3 	mov	w3, w19
   8cc14:	2a1503e2 	mov	w2, w21
   8cc18:	2a1403e1 	mov	w1, w20
   8cc1c:	b0000040 	adrp	x0, 95000 <BitFont+0x934>
   8cc20:	911ee000 	add	x0, x0, #0x7b8
   8cc24:	d63f02e0 	blr	x23
   8cc28:	2a1603e0 	mov	w0, w22
   8cc2c:	a94953f3 	ldp	x19, x20, [sp, #144]
   8cc30:	a94a5bf5 	ldp	x21, x22, [sp, #160]
   8cc34:	a94b7bf7 	ldp	x23, x30, [sp, #176]
   8cc38:	910483ff 	add	sp, sp, #0x120
   8cc3c:	d65f03c0 	ret
   8cc40:	52800062 	mov	w2, #0x3                   	// #3
   8cc44:	52800006 	mov	w6, #0x0                   	// #0
   8cc48:	72a00082 	movk	w2, #0x4, lsl #16
   8cc4c:	52800005 	mov	w5, #0x0                   	// #0
   8cc50:	52800004 	mov	w4, #0x0                   	// #0
   8cc54:	52800103 	mov	w3, #0x8                   	// #8
   8cc58:	528000a1 	mov	w1, #0x5                   	// #5
   8cc5c:	910303e0 	add	x0, sp, #0xc0
   8cc60:	97fff98e 	bl	8b298 <mailbox_tag_message.constprop.5>
   8cc64:	72001c1f 	tst	w0, #0xff
   8cc68:	54fff9c0 	b.eq	8cba0 <PiConsole_Init+0xf8>  // b.none
   8cc6c:	35000074 	cbnz	w20, 8cc78 <PiConsole_Init+0x1d0>
   8cc70:	b940cff4 	ldr	w20, [sp, #204]
   8cc74:	35fff315 	cbnz	w21, 8cad4 <PiConsole_Init+0x2c>
   8cc78:	b940d3f5 	ldr	w21, [sp, #208]
   8cc7c:	35fff453 	cbnz	w19, 8cb04 <PiConsole_Init+0x5c>
   8cc80:	17ffff96 	b	8cad8 <PiConsole_Init+0x30>
   8cc84:	d0ffffe9 	adrp	x9, 8a000 <init_page_table+0x108>
   8cc88:	d0ffffe8 	adrp	x8, 8a000 <init_page_table+0x108>
   8cc8c:	d0ffffe7 	adrp	x7, 8a000 <init_page_table+0x108>
   8cc90:	d0ffffe6 	adrp	x6, 8a000 <init_page_table+0x108>
   8cc94:	d0ffffe5 	adrp	x5, 8a000 <init_page_table+0x108>
   8cc98:	d0ffffe3 	adrp	x3, 8a000 <init_page_table+0x108>
   8cc9c:	d0ffffe2 	adrp	x2, 8a000 <init_page_table+0x108>
   8cca0:	d0ffffe0 	adrp	x0, 8a000 <init_page_table+0x108>
   8cca4:	91066129 	add	x9, x9, #0x198
   8cca8:	9107e108 	add	x8, x8, #0x1f8
   8ccac:	910cc0e7 	add	x7, x7, #0x330
   8ccb0:	9112e0c6 	add	x6, x6, #0x4b8
   8ccb4:	911660a5 	add	x5, x5, #0x598
   8ccb8:	91194063 	add	x3, x3, #0x650
   8ccbc:	911d2042 	add	x2, x2, #0x748
   8ccc0:	91202000 	add	x0, x0, #0x808
   8ccc4:	53017c84 	lsr	w4, w4, #1
   8ccc8:	d360fd30 	lsr	x16, x9, #32
   8cccc:	d360fd0f 	lsr	x15, x8, #32
   8ccd0:	d360fcee 	lsr	x14, x7, #32
   8ccd4:	d360fccd 	lsr	x13, x6, #32
   8ccd8:	d360fcac 	lsr	x12, x5, #32
   8ccdc:	d360fc6b 	lsr	x11, x3, #32
   8cce0:	d360fc4a 	lsr	x10, x2, #32
   8cce4:	b9001424 	str	w4, [x1, #20]
   8cce8:	2906c029 	stp	w9, w16, [x1, #52]
   8ccec:	d360fc09 	lsr	x9, x0, #32
   8ccf0:	2907bc28 	stp	w8, w15, [x1, #60]
   8ccf4:	2908b827 	stp	w7, w14, [x1, #68]
   8ccf8:	2909b426 	stp	w6, w13, [x1, #76]
   8ccfc:	290ab025 	stp	w5, w12, [x1, #84]
   8cd00:	290bac23 	stp	w3, w11, [x1, #92]
   8cd04:	290ca822 	stp	w2, w10, [x1, #100]
   8cd08:	b9006c20 	str	w0, [x1, #108]
   8cd0c:	b9007029 	str	w9, [x1, #112]
   8cd10:	17ffffbf 	b	8cc0c <PiConsole_Init+0x164>
   8cd14:	d0ffffe9 	adrp	x9, 8a000 <init_page_table+0x108>
   8cd18:	d0ffffe8 	adrp	x8, 8a000 <init_page_table+0x108>
   8cd1c:	d0ffffe7 	adrp	x7, 8a000 <init_page_table+0x108>
   8cd20:	d0ffffe6 	adrp	x6, 8a000 <init_page_table+0x108>
   8cd24:	d0ffffe5 	adrp	x5, 8a000 <init_page_table+0x108>
   8cd28:	d0ffffe3 	adrp	x3, 8a000 <init_page_table+0x108>
   8cd2c:	f0ffffe2 	adrp	x2, 8b000 <WriteChar32+0x88>
   8cd30:	f0ffffe0 	adrp	x0, 8b000 <WriteChar32+0x88>
   8cd34:	91352129 	add	x9, x9, #0xd48
   8cd38:	91360108 	add	x8, x8, #0xd80
   8cd3c:	9137c0e7 	add	x7, x7, #0xdf0
   8cd40:	913a40c6 	add	x6, x6, #0xe90
   8cd44:	913bc0a5 	add	x5, x5, #0xef0
   8cd48:	913de063 	add	x3, x3, #0xf78
   8cd4c:	9100a042 	add	x2, x2, #0x28
   8cd50:	9102e000 	add	x0, x0, #0xb8
   8cd54:	53027c84 	lsr	w4, w4, #2
   8cd58:	17ffffdc 	b	8ccc8 <PiConsole_Init+0x220>
   8cd5c:	52955560 	mov	w0, #0xaaab                	// #43691
   8cd60:	d0ffffe9 	adrp	x9, 8a000 <init_page_table+0x108>
   8cd64:	72b55540 	movk	w0, #0xaaaa, lsl #16
   8cd68:	d0ffffe8 	adrp	x8, 8a000 <init_page_table+0x108>
   8cd6c:	d0ffffe7 	adrp	x7, 8a000 <init_page_table+0x108>
   8cd70:	d0ffffe6 	adrp	x6, 8a000 <init_page_table+0x108>
   8cd74:	9ba07c84 	umull	x4, w4, w0
   8cd78:	d0ffffe5 	adrp	x5, 8a000 <init_page_table+0x108>
   8cd7c:	d0ffffe3 	adrp	x3, 8a000 <init_page_table+0x108>
   8cd80:	d0ffffe2 	adrp	x2, 8a000 <init_page_table+0x108>
   8cd84:	d0ffffe0 	adrp	x0, 8a000 <init_page_table+0x108>
   8cd88:	91224129 	add	x9, x9, #0x890
   8cd8c:	91238108 	add	x8, x8, #0x8e0
   8cd90:	9125e0e7 	add	x7, x7, #0x978
   8cd94:	9128c0c6 	add	x6, x6, #0xa30
   8cd98:	912a80a5 	add	x5, x5, #0xaa0
   8cd9c:	912d0063 	add	x3, x3, #0xb40
   8cda0:	912fe042 	add	x2, x2, #0xbf8
   8cda4:	91328000 	add	x0, x0, #0xca0
   8cda8:	d361fc84 	lsr	x4, x4, #33
   8cdac:	17ffffc7 	b	8ccc8 <PiConsole_Init+0x220>

000000000008cdb0 <GetConsoleDC>:
   8cdb0:	f0000080 	adrp	x0, 9f000 <ModelCheckHasRun>
   8cdb4:	91000000 	add	x0, x0, #0x0
   8cdb8:	91001000 	add	x0, x0, #0x4
   8cdbc:	d65f03c0 	ret

000000000008cdc0 <GetConsole_FrameBuffer>:
   8cdc0:	f0000080 	adrp	x0, 9f000 <ModelCheckHasRun>
   8cdc4:	b9400400 	ldr	w0, [x0, #4]
   8cdc8:	d65f03c0 	ret
   8cdcc:	d503201f 	nop

000000000008cdd0 <GetConsole_Width>:
   8cdd0:	f0000080 	adrp	x0, 9f000 <ModelCheckHasRun>
   8cdd4:	b9400c00 	ldr	w0, [x0, #12]
   8cdd8:	d65f03c0 	ret
   8cddc:	d503201f 	nop

000000000008cde0 <GetConsole_Height>:
   8cde0:	f0000080 	adrp	x0, 9f000 <ModelCheckHasRun>
   8cde4:	b9401000 	ldr	w0, [x0, #16]
   8cde8:	d65f03c0 	ret
   8cdec:	d503201f 	nop

000000000008cdf0 <WhereXY>:
   8cdf0:	b4000080 	cbz	x0, 8ce00 <WhereXY+0x10>
   8cdf4:	f0000082 	adrp	x2, 9f000 <ModelCheckHasRun>
   8cdf8:	b9402442 	ldr	w2, [x2, #36]
   8cdfc:	b9000002 	str	w2, [x0]
   8ce00:	b4000081 	cbz	x1, 8ce10 <WhereXY+0x20>
   8ce04:	f0000080 	adrp	x0, 9f000 <ModelCheckHasRun>
   8ce08:	b9402800 	ldr	w0, [x0, #40]
   8ce0c:	b9000020 	str	w0, [x1]
   8ce10:	d65f03c0 	ret
   8ce14:	d503201f 	nop

000000000008ce18 <GotoXY>:
   8ce18:	f0000082 	adrp	x2, 9f000 <ModelCheckHasRun>
   8ce1c:	91000042 	add	x2, x2, #0x0
   8ce20:	29048440 	stp	w0, w1, [x2, #36]
   8ce24:	d65f03c0 	ret

000000000008ce28 <_sbrk>:
   8ce28:	f0000082 	adrp	x2, 9f000 <ModelCheckHasRun>
   8ce2c:	91000042 	add	x2, x2, #0x0
   8ce30:	f00000c3 	adrp	x3, a7000 <__EL1_stack_core3+0x130>
   8ce34:	913b4063 	add	x3, x3, #0xed0
   8ce38:	f9403c41 	ldr	x1, [x2, #120]
   8ce3c:	f100003f 	cmp	x1, #0x0
   8ce40:	9a810061 	csel	x1, x3, x1, eq  // eq = none
   8ce44:	8b20c023 	add	x3, x1, w0, sxtw
   8ce48:	aa0103e0 	mov	x0, x1
   8ce4c:	f9003c43 	str	x3, [x2, #120]
   8ce50:	d65f03c0 	ret
   8ce54:	00000000 	.inst	0x00000000 ; undefined

000000000008ce58 <__locale_mb_cur_max>:
   8ce58:	b0000040 	adrp	x0, 95000 <BitFont+0x934>
   8ce5c:	b0000041 	adrp	x1, 95000 <BitFont+0x934>
   8ce60:	91328021 	add	x1, x1, #0xca0
   8ce64:	f9473000 	ldr	x0, [x0, #3680]
   8ce68:	f9402400 	ldr	x0, [x0, #72]
   8ce6c:	f100001f 	cmp	x0, #0x0
   8ce70:	9a800020 	csel	x0, x1, x0, eq  // eq = none
   8ce74:	39458000 	ldrb	w0, [x0, #352]
   8ce78:	d65f03c0 	ret
   8ce7c:	00000000 	.inst	0x00000000 ; undefined

000000000008ce80 <__locale_ctype_ptr_l>:
   8ce80:	f9407c00 	ldr	x0, [x0, #248]
   8ce84:	d65f03c0 	ret

000000000008ce88 <__locale_ctype_ptr>:
   8ce88:	b0000040 	adrp	x0, 95000 <BitFont+0x934>
   8ce8c:	b0000041 	adrp	x1, 95000 <BitFont+0x934>
   8ce90:	91328021 	add	x1, x1, #0xca0
   8ce94:	f9473000 	ldr	x0, [x0, #3680]
   8ce98:	f9402400 	ldr	x0, [x0, #72]
   8ce9c:	f100001f 	cmp	x0, #0x0
   8cea0:	9a800020 	csel	x0, x1, x0, eq  // eq = none
   8cea4:	f9407c00 	ldr	x0, [x0, #248]
   8cea8:	d65f03c0 	ret
   8ceac:	00000000 	.inst	0x00000000 ; undefined

000000000008ceb0 <mbstowcs>:
   8ceb0:	a9be7bfd 	stp	x29, x30, [sp, #-32]!
   8ceb4:	b0000044 	adrp	x4, 95000 <BitFont+0x934>
   8ceb8:	aa0203e3 	mov	x3, x2
   8cebc:	910003fd 	mov	x29, sp
   8cec0:	aa0103e2 	mov	x2, x1
   8cec4:	aa0003e1 	mov	x1, x0
   8cec8:	f9473080 	ldr	x0, [x4, #3680]
   8cecc:	910063e4 	add	x4, sp, #0x18
   8ced0:	b9001bff 	str	wzr, [sp, #24]
   8ced4:	94000003 	bl	8cee0 <_mbstowcs_r>
   8ced8:	a8c27bfd 	ldp	x29, x30, [sp], #32
   8cedc:	d65f03c0 	ret

000000000008cee0 <_mbstowcs_r>:
   8cee0:	a9ba7bfd 	stp	x29, x30, [sp, #-96]!
   8cee4:	910003fd 	mov	x29, sp
   8cee8:	a90153f3 	stp	x19, x20, [sp, #16]
   8ceec:	aa0103f3 	mov	x19, x1
   8cef0:	aa0203f4 	mov	x20, x2
   8cef4:	a9025bf5 	stp	x21, x22, [sp, #32]
   8cef8:	a9046bf9 	stp	x25, x26, [sp, #64]
   8cefc:	aa0403f9 	mov	x25, x4
   8cf00:	f9002bfb 	str	x27, [sp, #80]
   8cf04:	aa0003fb 	mov	x27, x0
   8cf08:	b4000621 	cbz	x1, 8cfcc <_mbstowcs_r+0xec>
   8cf0c:	aa0303f5 	mov	x21, x3
   8cf10:	b4000643 	cbz	x3, 8cfd8 <_mbstowcs_r+0xf8>
   8cf14:	a90363f7 	stp	x23, x24, [sp, #48]
   8cf18:	b000005a 	adrp	x26, 95000 <BitFont+0x934>
   8cf1c:	b0000058 	adrp	x24, 95000 <BitFont+0x934>
   8cf20:	9139835a 	add	x26, x26, #0xe60
   8cf24:	91328318 	add	x24, x24, #0xca0
   8cf28:	d2800016 	mov	x22, #0x0                   	// #0
   8cf2c:	d503201f 	nop
   8cf30:	f9400340 	ldr	x0, [x26]
   8cf34:	f9402400 	ldr	x0, [x0, #72]
   8cf38:	f100001f 	cmp	x0, #0x0
   8cf3c:	9a800300 	csel	x0, x24, x0, eq  // eq = none
   8cf40:	f9407417 	ldr	x23, [x0, #232]
   8cf44:	97ffffc5 	bl	8ce58 <__locale_mb_cur_max>
   8cf48:	aa1903e4 	mov	x4, x25
   8cf4c:	93407c03 	sxtw	x3, w0
   8cf50:	aa1403e2 	mov	x2, x20
   8cf54:	aa1303e1 	mov	x1, x19
   8cf58:	aa1b03e0 	mov	x0, x27
   8cf5c:	d63f02e0 	blr	x23
   8cf60:	7100001f 	cmp	w0, #0x0
   8cf64:	5400020b 	b.lt	8cfa4 <_mbstowcs_r+0xc4>  // b.tstop
   8cf68:	540000e0 	b.eq	8cf84 <_mbstowcs_r+0xa4>  // b.none
   8cf6c:	8b20c294 	add	x20, x20, w0, sxtw
   8cf70:	910006d6 	add	x22, x22, #0x1
   8cf74:	b4fffdf3 	cbz	x19, 8cf30 <_mbstowcs_r+0x50>
   8cf78:	91001273 	add	x19, x19, #0x4
   8cf7c:	f10006b5 	subs	x21, x21, #0x1
   8cf80:	54fffd81 	b.ne	8cf30 <_mbstowcs_r+0x50>  // b.any
   8cf84:	a94363f7 	ldp	x23, x24, [sp, #48]
   8cf88:	aa1603e0 	mov	x0, x22
   8cf8c:	a94153f3 	ldp	x19, x20, [sp, #16]
   8cf90:	a9425bf5 	ldp	x21, x22, [sp, #32]
   8cf94:	a9446bf9 	ldp	x25, x26, [sp, #64]
   8cf98:	f9402bfb 	ldr	x27, [sp, #80]
   8cf9c:	a8c67bfd 	ldp	x29, x30, [sp], #96
   8cfa0:	d65f03c0 	ret
   8cfa4:	a94363f7 	ldp	x23, x24, [sp, #48]
   8cfa8:	b900033f 	str	wzr, [x25]
   8cfac:	92800016 	mov	x22, #0xffffffffffffffff    	// #-1
   8cfb0:	aa1603e0 	mov	x0, x22
   8cfb4:	a94153f3 	ldp	x19, x20, [sp, #16]
   8cfb8:	a9425bf5 	ldp	x21, x22, [sp, #32]
   8cfbc:	a9446bf9 	ldp	x25, x26, [sp, #64]
   8cfc0:	f9402bfb 	ldr	x27, [sp, #80]
   8cfc4:	a8c67bfd 	ldp	x29, x30, [sp], #96
   8cfc8:	d65f03c0 	ret
   8cfcc:	d2800035 	mov	x21, #0x1                   	// #1
   8cfd0:	a90363f7 	stp	x23, x24, [sp, #48]
   8cfd4:	17ffffd1 	b	8cf18 <_mbstowcs_r+0x38>
   8cfd8:	d2800016 	mov	x22, #0x0                   	// #0
   8cfdc:	17ffffeb 	b	8cf88 <_mbstowcs_r+0xa8>

000000000008cfe0 <__ascii_mbtowc>:
   8cfe0:	d10043ff 	sub	sp, sp, #0x10
   8cfe4:	f100003f 	cmp	x1, #0x0
   8cfe8:	910033e0 	add	x0, sp, #0xc
   8cfec:	9a810001 	csel	x1, x0, x1, eq  // eq = none
   8cff0:	b4000122 	cbz	x2, 8d014 <__ascii_mbtowc+0x34>
   8cff4:	b4000163 	cbz	x3, 8d020 <__ascii_mbtowc+0x40>
   8cff8:	39400040 	ldrb	w0, [x2]
   8cffc:	b9000020 	str	w0, [x1]
   8d000:	39400040 	ldrb	w0, [x2]
   8d004:	7100001f 	cmp	w0, #0x0
   8d008:	1a9f07e0 	cset	w0, ne  // ne = any
   8d00c:	910043ff 	add	sp, sp, #0x10
   8d010:	d65f03c0 	ret
   8d014:	52800000 	mov	w0, #0x0                   	// #0
   8d018:	910043ff 	add	sp, sp, #0x10
   8d01c:	d65f03c0 	ret
   8d020:	12800020 	mov	w0, #0xfffffffe            	// #-2
   8d024:	17fffffa 	b	8d00c <__ascii_mbtowc+0x2c>

000000000008d028 <modf>:
   8d028:	9e660004 	fmov	x4, d0
   8d02c:	d360fc81 	lsr	x1, x4, #32
   8d030:	53147823 	ubfx	w3, w1, #20, #11
   8d034:	510ffc62 	sub	w2, w3, #0x3ff
   8d038:	71004c5f 	cmp	w2, #0x13
   8d03c:	540001cc 	b.gt	8d074 <modf+0x4c>
   8d040:	37f80442 	tbnz	w2, #31, 8d0c8 <modf+0xa0>
   8d044:	12bffe03 	mov	w3, #0xfffff               	// #1048575
   8d048:	1ac22862 	asr	w2, w3, w2
   8d04c:	0a010043 	and	w3, w2, w1
   8d050:	2a040064 	orr	w4, w3, w4
   8d054:	350002e4 	cbnz	w4, 8d0b0 <modf+0x88>
   8d058:	12010021 	and	w1, w1, #0x80000000
   8d05c:	d2800002 	mov	x2, #0x0                   	// #0
   8d060:	fd000000 	str	d0, [x0]
   8d064:	b3607c22 	bfi	x2, x1, #32, #32
   8d068:	92607c40 	and	x0, x2, #0xffffffff00000000
   8d06c:	9e670000 	fmov	d0, x0
   8d070:	d65f03c0 	ret
   8d074:	7100cc5f 	cmp	w2, #0x33
   8d078:	54ffff0c 	b.gt	8d058 <modf+0x30>
   8d07c:	51104c63 	sub	w3, w3, #0x413
   8d080:	12800002 	mov	w2, #0xffffffff            	// #-1
   8d084:	1ac32443 	lsr	w3, w2, w3
   8d088:	6a04007f 	tst	w3, w4
   8d08c:	54fffe60 	b.eq	8d058 <modf+0x30>  // b.none
   8d090:	d2800002 	mov	x2, #0x0                   	// #0
   8d094:	0a230083 	bic	w3, w4, w3
   8d098:	b3607c22 	bfi	x2, x1, #32, #32
   8d09c:	b3407c62 	bfxil	x2, x3, #0, #32
   8d0a0:	9e670041 	fmov	d1, x2
   8d0a4:	f9000002 	str	x2, [x0]
   8d0a8:	1e613800 	fsub	d0, d0, d1
   8d0ac:	d65f03c0 	ret
   8d0b0:	0a220022 	bic	w2, w1, w2
   8d0b4:	9e670041 	fmov	d1, x2
   8d0b8:	5f605421 	shl	d1, d1, #32
   8d0bc:	1e613800 	fsub	d0, d0, d1
   8d0c0:	fd000001 	str	d1, [x0]
   8d0c4:	d65f03c0 	ret
   8d0c8:	12010021 	and	w1, w1, #0x80000000
   8d0cc:	d2800002 	mov	x2, #0x0                   	// #0
   8d0d0:	b3607c22 	bfi	x2, x1, #32, #32
   8d0d4:	92607c42 	and	x2, x2, #0xffffffff00000000
   8d0d8:	f9000002 	str	x2, [x0]
   8d0dc:	d65f03c0 	ret

000000000008d0e0 <strchr>:
   8d0e0:	52808024 	mov	w4, #0x401                 	// #1025
   8d0e4:	72a80204 	movk	w4, #0x4010, lsl #16
   8d0e8:	4e010c20 	dup	v0.16b, w1
   8d0ec:	927be802 	and	x2, x0, #0xffffffffffffffe0
   8d0f0:	4e040c90 	dup	v16.4s, w4
   8d0f4:	f2401003 	ands	x3, x0, #0x1f
   8d0f8:	4eb08607 	add	v7.4s, v16.4s, v16.4s
   8d0fc:	540002a0 	b.eq	8d150 <strchr+0x70>  // b.none
   8d100:	4cdfa041 	ld1	{v1.16b, v2.16b}, [x2], #32
   8d104:	cb0303e3 	neg	x3, x3
   8d108:	4e209823 	cmeq	v3.16b, v1.16b, #0
   8d10c:	6e208c25 	cmeq	v5.16b, v1.16b, v0.16b
   8d110:	4e209844 	cmeq	v4.16b, v2.16b, #0
   8d114:	6e208c46 	cmeq	v6.16b, v2.16b, v0.16b
   8d118:	4e271c63 	and	v3.16b, v3.16b, v7.16b
   8d11c:	4e271c84 	and	v4.16b, v4.16b, v7.16b
   8d120:	4e301ca5 	and	v5.16b, v5.16b, v16.16b
   8d124:	4e301cc6 	and	v6.16b, v6.16b, v16.16b
   8d128:	4ea51c71 	orr	v17.16b, v3.16b, v5.16b
   8d12c:	4ea61c92 	orr	v18.16b, v4.16b, v6.16b
   8d130:	d37ff863 	lsl	x3, x3, #1
   8d134:	4e32be31 	addp	v17.16b, v17.16b, v18.16b
   8d138:	92800005 	mov	x5, #0xffffffffffffffff    	// #-1
   8d13c:	4e32be31 	addp	v17.16b, v17.16b, v18.16b
   8d140:	9ac324a3 	lsr	x3, x5, x3
   8d144:	4e083e25 	mov	x5, v17.d[0]
   8d148:	8a2300a3 	bic	x3, x5, x3
   8d14c:	b50002a3 	cbnz	x3, 8d1a0 <strchr+0xc0>
   8d150:	4cdfa041 	ld1	{v1.16b, v2.16b}, [x2], #32
   8d154:	4e209823 	cmeq	v3.16b, v1.16b, #0
   8d158:	6e208c25 	cmeq	v5.16b, v1.16b, v0.16b
   8d15c:	4e209844 	cmeq	v4.16b, v2.16b, #0
   8d160:	6e208c46 	cmeq	v6.16b, v2.16b, v0.16b
   8d164:	4ea51c71 	orr	v17.16b, v3.16b, v5.16b
   8d168:	4ea61c92 	orr	v18.16b, v4.16b, v6.16b
   8d16c:	4eb21e31 	orr	v17.16b, v17.16b, v18.16b
   8d170:	4ef1be31 	addp	v17.2d, v17.2d, v17.2d
   8d174:	4e083e23 	mov	x3, v17.d[0]
   8d178:	b4fffec3 	cbz	x3, 8d150 <strchr+0x70>
   8d17c:	4e271c63 	and	v3.16b, v3.16b, v7.16b
   8d180:	4e271c84 	and	v4.16b, v4.16b, v7.16b
   8d184:	4e301ca5 	and	v5.16b, v5.16b, v16.16b
   8d188:	4e301cc6 	and	v6.16b, v6.16b, v16.16b
   8d18c:	4ea51c71 	orr	v17.16b, v3.16b, v5.16b
   8d190:	4ea61c92 	orr	v18.16b, v4.16b, v6.16b
   8d194:	4e32be31 	addp	v17.16b, v17.16b, v18.16b
   8d198:	4e32be31 	addp	v17.16b, v17.16b, v18.16b
   8d19c:	4e083e23 	mov	x3, v17.d[0]
   8d1a0:	dac00063 	rbit	x3, x3
   8d1a4:	d1008042 	sub	x2, x2, #0x20
   8d1a8:	dac01063 	clz	x3, x3
   8d1ac:	f240007f 	tst	x3, #0x1
   8d1b0:	8b430440 	add	x0, x2, x3, lsr #1
   8d1b4:	9a9f0000 	csel	x0, x0, xzr, eq  // eq = none
   8d1b8:	d65f03c0 	ret
   8d1bc:	00000000 	.inst	0x00000000 ; undefined

000000000008d1c0 <strcpy>:
   8d1c0:	92402c29 	and	x9, x1, #0xfff
   8d1c4:	b200c3ec 	mov	x12, #0x101010101010101     	// #72340172838076673
   8d1c8:	92400c31 	and	x17, x1, #0xf
   8d1cc:	f13fc13f 	cmp	x9, #0xff0
   8d1d0:	cb1103e8 	neg	x8, x17
   8d1d4:	540008cc 	b.gt	8d2ec <strcpy+0x12c>
   8d1d8:	a9401424 	ldp	x4, x5, [x1]
   8d1dc:	cb0c0088 	sub	x8, x4, x12
   8d1e0:	b200d889 	orr	x9, x4, #0x7f7f7f7f7f7f7f7f
   8d1e4:	ea290106 	bics	x6, x8, x9
   8d1e8:	540001c1 	b.ne	8d220 <strcpy+0x60>  // b.any
   8d1ec:	cb0c00aa 	sub	x10, x5, x12
   8d1f0:	b200d8ab 	orr	x11, x5, #0x7f7f7f7f7f7f7f7f
   8d1f4:	ea2b0147 	bics	x7, x10, x11
   8d1f8:	54000440 	b.eq	8d280 <strcpy+0xc0>  // b.none
   8d1fc:	dac00ce7 	rev	x7, x7
   8d200:	dac010ef 	clz	x15, x7
   8d204:	d2800709 	mov	x9, #0x38                  	// #56
   8d208:	8b4f0c03 	add	x3, x0, x15, lsr #3
   8d20c:	cb0f012f 	sub	x15, x9, x15
   8d210:	9acf20a5 	lsl	x5, x5, x15
   8d214:	f8001065 	stur	x5, [x3, #1]
   8d218:	f9000004 	str	x4, [x0]
   8d21c:	d65f03c0 	ret
   8d220:	dac00cc6 	rev	x6, x6
   8d224:	dac010cf 	clz	x15, x6
   8d228:	8b4f0c03 	add	x3, x0, x15, lsr #3
   8d22c:	f10061e9 	subs	x9, x15, #0x18
   8d230:	540000ab 	b.lt	8d244 <strcpy+0x84>  // b.tstop
   8d234:	9ac92485 	lsr	x5, x4, x9
   8d238:	b81fd065 	stur	w5, [x3, #-3]
   8d23c:	b9000004 	str	w4, [x0]
   8d240:	d65f03c0 	ret
   8d244:	b400004f 	cbz	x15, 8d24c <strcpy+0x8c>
   8d248:	79000004 	strh	w4, [x0]
   8d24c:	3900007f 	strb	wzr, [x3]
   8d250:	d65f03c0 	ret
   8d254:	d503201f 	nop
   8d258:	d503201f 	nop
   8d25c:	d503201f 	nop
   8d260:	d503201f 	nop
   8d264:	d503201f 	nop
   8d268:	d503201f 	nop
   8d26c:	d503201f 	nop
   8d270:	d503201f 	nop
   8d274:	d503201f 	nop
   8d278:	d503201f 	nop
   8d27c:	d503201f 	nop
   8d280:	d1004231 	sub	x17, x17, #0x10
   8d284:	a9001404 	stp	x4, x5, [x0]
   8d288:	cb110022 	sub	x2, x1, x17
   8d28c:	cb110003 	sub	x3, x0, x17
   8d290:	14000002 	b	8d298 <strcpy+0xd8>
   8d294:	a8811464 	stp	x4, x5, [x3], #16
   8d298:	a8c11444 	ldp	x4, x5, [x2], #16
   8d29c:	cb0c0088 	sub	x8, x4, x12
   8d2a0:	b200d889 	orr	x9, x4, #0x7f7f7f7f7f7f7f7f
   8d2a4:	cb0c00aa 	sub	x10, x5, x12
   8d2a8:	b200d8ab 	orr	x11, x5, #0x7f7f7f7f7f7f7f7f
   8d2ac:	8a290106 	bic	x6, x8, x9
   8d2b0:	ea2b0147 	bics	x7, x10, x11
   8d2b4:	fa4008c0 	ccmp	x6, #0x0, #0x0, eq  // eq = none
   8d2b8:	54fffee0 	b.eq	8d294 <strcpy+0xd4>  // b.none
   8d2bc:	f10000df 	cmp	x6, #0x0
   8d2c0:	9a8710c6 	csel	x6, x6, x7, ne  // ne = any
   8d2c4:	dac00cc6 	rev	x6, x6
   8d2c8:	dac010cf 	clz	x15, x6
   8d2cc:	910121e8 	add	x8, x15, #0x48
   8d2d0:	910021ef 	add	x15, x15, #0x8
   8d2d4:	9a8811ef 	csel	x15, x15, x8, ne  // ne = any
   8d2d8:	8b4f0c42 	add	x2, x2, x15, lsr #3
   8d2dc:	8b4f0c63 	add	x3, x3, x15, lsr #3
   8d2e0:	a97e1444 	ldp	x4, x5, [x2, #-32]
   8d2e4:	a93f1464 	stp	x4, x5, [x3, #-16]
   8d2e8:	d65f03c0 	ret
   8d2ec:	927cec22 	and	x2, x1, #0xfffffffffffffff0
   8d2f0:	a9401444 	ldp	x4, x5, [x2]
   8d2f4:	d37df108 	lsl	x8, x8, #3
   8d2f8:	f2400a3f 	tst	x17, #0x7
   8d2fc:	da9f03e9 	csetm	x9, ne  // ne = any
   8d300:	9ac82529 	lsr	x9, x9, x8
   8d304:	aa090084 	orr	x4, x4, x9
   8d308:	aa0900ae 	orr	x14, x5, x9
   8d30c:	f100223f 	cmp	x17, #0x8
   8d310:	da9fb084 	csinv	x4, x4, xzr, lt  // lt = tstop
   8d314:	9a8eb0a5 	csel	x5, x5, x14, lt  // lt = tstop
   8d318:	cb0c0088 	sub	x8, x4, x12
   8d31c:	b200d889 	orr	x9, x4, #0x7f7f7f7f7f7f7f7f
   8d320:	cb0c00aa 	sub	x10, x5, x12
   8d324:	b200d8ab 	orr	x11, x5, #0x7f7f7f7f7f7f7f7f
   8d328:	8a290106 	bic	x6, x8, x9
   8d32c:	ea2b0147 	bics	x7, x10, x11
   8d330:	fa4008c0 	ccmp	x6, #0x0, #0x0, eq  // eq = none
   8d334:	54fff520 	b.eq	8d1d8 <strcpy+0x18>  // b.none
   8d338:	d37df228 	lsl	x8, x17, #3
   8d33c:	cb110fe9 	neg	x9, x17, lsl #3
   8d340:	9ac8248d 	lsr	x13, x4, x8
   8d344:	9ac920ab 	lsl	x11, x5, x9
   8d348:	9ac824a5 	lsr	x5, x5, x8
   8d34c:	aa0d016b 	orr	x11, x11, x13
   8d350:	f100223f 	cmp	x17, #0x8
   8d354:	9a85b164 	csel	x4, x11, x5, lt  // lt = tstop
   8d358:	cb0c0088 	sub	x8, x4, x12
   8d35c:	b200d889 	orr	x9, x4, #0x7f7f7f7f7f7f7f7f
   8d360:	cb0c00aa 	sub	x10, x5, x12
   8d364:	b200d8ab 	orr	x11, x5, #0x7f7f7f7f7f7f7f7f
   8d368:	8a290106 	bic	x6, x8, x9
   8d36c:	b5fff5a6 	cbnz	x6, 8d220 <strcpy+0x60>
   8d370:	8a2b0147 	bic	x7, x10, x11
   8d374:	17ffffa2 	b	8d1fc <strcpy+0x3c>
	...

000000000008d380 <strlen>:
   8d380:	92402c04 	and	x4, x0, #0xfff
   8d384:	b200c3e8 	mov	x8, #0x101010101010101     	// #72340172838076673
   8d388:	f13fc09f 	cmp	x4, #0xff0
   8d38c:	5400082c 	b.gt	8d490 <strlen+0x110>
   8d390:	a9400c02 	ldp	x2, x3, [x0]
   8d394:	cb080044 	sub	x4, x2, x8
   8d398:	b200d845 	orr	x5, x2, #0x7f7f7f7f7f7f7f7f
   8d39c:	cb080066 	sub	x6, x3, x8
   8d3a0:	b200d867 	orr	x7, x3, #0x7f7f7f7f7f7f7f7f
   8d3a4:	ea250084 	bics	x4, x4, x5
   8d3a8:	8a2700c5 	bic	x5, x6, x7
   8d3ac:	fa4008a0 	ccmp	x5, #0x0, #0x0, eq  // eq = none
   8d3b0:	54000100 	b.eq	8d3d0 <strlen+0x50>  // b.none
   8d3b4:	9a853084 	csel	x4, x4, x5, cc  // cc = lo, ul, last
   8d3b8:	d2800100 	mov	x0, #0x8                   	// #8
   8d3bc:	dac00c84 	rev	x4, x4
   8d3c0:	dac01084 	clz	x4, x4
   8d3c4:	9a8033e0 	csel	x0, xzr, x0, cc  // cc = lo, ul, last
   8d3c8:	8b440c00 	add	x0, x0, x4, lsr #3
   8d3cc:	d65f03c0 	ret
   8d3d0:	927cec01 	and	x1, x0, #0xfffffffffffffff0
   8d3d4:	d1004021 	sub	x1, x1, #0x10
   8d3d8:	a9c20c22 	ldp	x2, x3, [x1, #32]!
   8d3dc:	cb080044 	sub	x4, x2, x8
   8d3e0:	cb080066 	sub	x6, x3, x8
   8d3e4:	aa060085 	orr	x5, x4, x6
   8d3e8:	ea081cbf 	tst	x5, x8, lsl #7
   8d3ec:	54000101 	b.ne	8d40c <strlen+0x8c>  // b.any
   8d3f0:	a9410c22 	ldp	x2, x3, [x1, #16]
   8d3f4:	cb080044 	sub	x4, x2, x8
   8d3f8:	cb080066 	sub	x6, x3, x8
   8d3fc:	aa060085 	orr	x5, x4, x6
   8d400:	ea081cbf 	tst	x5, x8, lsl #7
   8d404:	54fffea0 	b.eq	8d3d8 <strlen+0x58>  // b.none
   8d408:	91004021 	add	x1, x1, #0x10
   8d40c:	b200d845 	orr	x5, x2, #0x7f7f7f7f7f7f7f7f
   8d410:	b200d867 	orr	x7, x3, #0x7f7f7f7f7f7f7f7f
   8d414:	ea250084 	bics	x4, x4, x5
   8d418:	8a2700c5 	bic	x5, x6, x7
   8d41c:	fa4008a0 	ccmp	x5, #0x0, #0x0, eq  // eq = none
   8d420:	54000120 	b.eq	8d444 <strlen+0xc4>  // b.none
   8d424:	9a853084 	csel	x4, x4, x5, cc  // cc = lo, ul, last
   8d428:	cb000020 	sub	x0, x1, x0
   8d42c:	dac00c84 	rev	x4, x4
   8d430:	91002005 	add	x5, x0, #0x8
   8d434:	dac01084 	clz	x4, x4
   8d438:	9a853000 	csel	x0, x0, x5, cc  // cc = lo, ul, last
   8d43c:	8b440c00 	add	x0, x0, x4, lsr #3
   8d440:	d65f03c0 	ret
   8d444:	a9c10c22 	ldp	x2, x3, [x1, #16]!
   8d448:	cb080044 	sub	x4, x2, x8
   8d44c:	b200d845 	orr	x5, x2, #0x7f7f7f7f7f7f7f7f
   8d450:	cb080066 	sub	x6, x3, x8
   8d454:	b200d867 	orr	x7, x3, #0x7f7f7f7f7f7f7f7f
   8d458:	ea250084 	bics	x4, x4, x5
   8d45c:	8a2700c5 	bic	x5, x6, x7
   8d460:	fa4008a0 	ccmp	x5, #0x0, #0x0, eq  // eq = none
   8d464:	54fffe01 	b.ne	8d424 <strlen+0xa4>  // b.any
   8d468:	a9c10c22 	ldp	x2, x3, [x1, #16]!
   8d46c:	cb080044 	sub	x4, x2, x8
   8d470:	b200d845 	orr	x5, x2, #0x7f7f7f7f7f7f7f7f
   8d474:	cb080066 	sub	x6, x3, x8
   8d478:	b200d867 	orr	x7, x3, #0x7f7f7f7f7f7f7f7f
   8d47c:	ea250084 	bics	x4, x4, x5
   8d480:	8a2700c5 	bic	x5, x6, x7
   8d484:	fa4008a0 	ccmp	x5, #0x0, #0x0, eq  // eq = none
   8d488:	54fffde0 	b.eq	8d444 <strlen+0xc4>  // b.none
   8d48c:	17ffffe6 	b	8d424 <strlen+0xa4>
   8d490:	927cec01 	and	x1, x0, #0xfffffffffffffff0
   8d494:	a9400c22 	ldp	x2, x3, [x1]
   8d498:	d37df004 	lsl	x4, x0, #3
   8d49c:	92800007 	mov	x7, #0xffffffffffffffff    	// #-1
   8d4a0:	9ac420e4 	lsl	x4, x7, x4
   8d4a4:	b201c084 	orr	x4, x4, #0x8080808080808080
   8d4a8:	aa240042 	orn	x2, x2, x4
   8d4ac:	aa240065 	orn	x5, x3, x4
   8d4b0:	f27d001f 	tst	x0, #0x8
   8d4b4:	9a870042 	csel	x2, x2, x7, eq  // eq = none
   8d4b8:	9a850063 	csel	x3, x3, x5, eq  // eq = none
   8d4bc:	17ffffc8 	b	8d3dc <strlen+0x5c>
   8d4c0:	d503201f 	nop
   8d4c4:	d503201f 	nop
   8d4c8:	d503201f 	nop
   8d4cc:	d503201f 	nop
   8d4d0:	d503201f 	nop
   8d4d4:	d503201f 	nop
   8d4d8:	d503201f 	nop

000000000008d4dc <strncmp>:
   8d4dc:	b40006c2 	cbz	x2, 8d5b4 <strncmp+0xd8>
   8d4e0:	ca010008 	eor	x8, x0, x1
   8d4e4:	b200c3eb 	mov	x11, #0x101010101010101     	// #72340172838076673
   8d4e8:	f240091f 	tst	x8, #0x7
   8d4ec:	540006a1 	b.ne	8d5c0 <strncmp+0xe4>  // b.any
   8d4f0:	f2400808 	ands	x8, x0, #0x7
   8d4f4:	54000401 	b.ne	8d574 <strncmp+0x98>  // b.any
   8d4f8:	d100044d 	sub	x13, x2, #0x1
   8d4fc:	d343fdad 	lsr	x13, x13, #3
   8d500:	f8408403 	ldr	x3, [x0], #8
   8d504:	f8408424 	ldr	x4, [x1], #8
   8d508:	f10005ad 	subs	x13, x13, #0x1
   8d50c:	cb0b0068 	sub	x8, x3, x11
   8d510:	b200d869 	orr	x9, x3, #0x7f7f7f7f7f7f7f7f
   8d514:	ca040066 	eor	x6, x3, x4
   8d518:	da9f50cf 	csinv	x15, x6, xzr, pl  // pl = nfrst
   8d51c:	ea290105 	bics	x5, x8, x9
   8d520:	fa4009e0 	ccmp	x15, #0x0, #0x0, eq  // eq = none
   8d524:	54fffee0 	b.eq	8d500 <strncmp+0x24>  // b.none
   8d528:	b6f8012d 	tbz	x13, #63, 8d54c <strncmp+0x70>
   8d52c:	f2400842 	ands	x2, x2, #0x7
   8d530:	540000e0 	b.eq	8d54c <strncmp+0x70>  // b.none
   8d534:	d37df042 	lsl	x2, x2, #3
   8d538:	9280000e 	mov	x14, #0xffffffffffffffff    	// #-1
   8d53c:	9ac221ce 	lsl	x14, x14, x2
   8d540:	8a2e0063 	bic	x3, x3, x14
   8d544:	8a2e0084 	bic	x4, x4, x14
   8d548:	aa0e00a5 	orr	x5, x5, x14
   8d54c:	aa0500c7 	orr	x7, x6, x5
   8d550:	dac00ce7 	rev	x7, x7
   8d554:	dac00c63 	rev	x3, x3
   8d558:	dac010ec 	clz	x12, x7
   8d55c:	dac00c84 	rev	x4, x4
   8d560:	9acc2063 	lsl	x3, x3, x12
   8d564:	9acc2084 	lsl	x4, x4, x12
   8d568:	d378fc63 	lsr	x3, x3, #56
   8d56c:	cb44e060 	sub	x0, x3, x4, lsr #56
   8d570:	d65f03c0 	ret
   8d574:	927df000 	and	x0, x0, #0xfffffffffffffff8
   8d578:	927df021 	and	x1, x1, #0xfffffffffffffff8
   8d57c:	f8408403 	ldr	x3, [x0], #8
   8d580:	cb080fea 	neg	x10, x8, lsl #3
   8d584:	f8408424 	ldr	x4, [x1], #8
   8d588:	92800009 	mov	x9, #0xffffffffffffffff    	// #-1
   8d58c:	d100044d 	sub	x13, x2, #0x1
   8d590:	9aca2529 	lsr	x9, x9, x10
   8d594:	924009aa 	and	x10, x13, #0x7
   8d598:	d343fdad 	lsr	x13, x13, #3
   8d59c:	8b080042 	add	x2, x2, x8
   8d5a0:	8b08014a 	add	x10, x10, x8
   8d5a4:	aa090063 	orr	x3, x3, x9
   8d5a8:	aa090084 	orr	x4, x4, x9
   8d5ac:	8b4a0dad 	add	x13, x13, x10, lsr #3
   8d5b0:	17ffffd6 	b	8d508 <strncmp+0x2c>
   8d5b4:	d2800000 	mov	x0, #0x0                   	// #0
   8d5b8:	d65f03c0 	ret
   8d5bc:	d503201f 	nop
   8d5c0:	d1000442 	sub	x2, x2, #0x1
   8d5c4:	38401403 	ldrb	w3, [x0], #1
   8d5c8:	38401424 	ldrb	w4, [x1], #1
   8d5cc:	f1000442 	subs	x2, x2, #0x1
   8d5d0:	7a412860 	ccmp	w3, #0x1, #0x0, cs  // cs = hs, nlast
   8d5d4:	7a442060 	ccmp	w3, w4, #0x0, cs  // cs = hs, nlast
   8d5d8:	54ffff60 	b.eq	8d5c4 <strncmp+0xe8>  // b.none
   8d5dc:	cb040060 	sub	x0, x3, x4
   8d5e0:	d65f03c0 	ret
   8d5e4:	00000000 	.inst	0x00000000 ; undefined

000000000008d5e8 <strncpy>:
   8d5e8:	aa000023 	orr	x3, x1, x0
   8d5ec:	f240087f 	tst	x3, #0x7
   8d5f0:	aa0003e3 	mov	x3, x0
   8d5f4:	fa470840 	ccmp	x2, #0x7, #0x0, eq  // eq = none
   8d5f8:	54000248 	b.hi	8d640 <strncpy+0x58>  // b.pmore
   8d5fc:	b4000202 	cbz	x2, 8d63c <strncpy+0x54>
   8d600:	39400024 	ldrb	w4, [x1]
   8d604:	d1000442 	sub	x2, x2, #0x1
   8d608:	38001464 	strb	w4, [x3], #1
   8d60c:	aa0203e5 	mov	x5, x2
   8d610:	34000324 	cbz	w4, 8d674 <strncpy+0x8c>
   8d614:	8b020024 	add	x4, x1, x2
   8d618:	d2800026 	mov	x6, #0x1                   	// #1
   8d61c:	14000006 	b	8d634 <strncpy+0x4c>
   8d620:	38616881 	ldrb	w1, [x4, x1]
   8d624:	d1000445 	sub	x5, x2, #0x1
   8d628:	38001461 	strb	w1, [x3], #1
   8d62c:	aa0503e2 	mov	x2, x5
   8d630:	34000221 	cbz	w1, 8d674 <strncpy+0x8c>
   8d634:	cb0200c1 	sub	x1, x6, x2
   8d638:	b5ffff42 	cbnz	x2, 8d620 <strncpy+0x38>
   8d63c:	d65f03c0 	ret
   8d640:	b207dbe6 	mov	x6, #0xfefefefefefefefe    	// #-72340172838076674
   8d644:	f29fdfe6 	movk	x6, #0xfeff
   8d648:	f9400025 	ldr	x5, [x1]
   8d64c:	8b0600a4 	add	x4, x5, x6
   8d650:	8a250084 	bic	x4, x4, x5
   8d654:	f201c09f 	tst	x4, #0x8080808080808080
   8d658:	54fffd41 	b.ne	8d600 <strncpy+0x18>  // b.any
   8d65c:	f8008465 	str	x5, [x3], #8
   8d660:	d1002042 	sub	x2, x2, #0x8
   8d664:	f1001c5f 	cmp	x2, #0x7
   8d668:	91002021 	add	x1, x1, #0x8
   8d66c:	54fffee8 	b.hi	8d648 <strncpy+0x60>  // b.pmore
   8d670:	17ffffe3 	b	8d5fc <strncpy+0x14>
   8d674:	8b050061 	add	x1, x3, x5
   8d678:	b4fffe25 	cbz	x5, 8d63c <strncpy+0x54>
   8d67c:	d503201f 	nop
   8d680:	3800147f 	strb	wzr, [x3], #1
   8d684:	eb01007f 	cmp	x3, x1
   8d688:	54ffffc1 	b.ne	8d680 <strncpy+0x98>  // b.any
   8d68c:	d65f03c0 	ret
	...
   8d6c0:	d503201f 	nop
   8d6c4:	d503201f 	nop
   8d6c8:	d503201f 	nop
   8d6cc:	d503201f 	nop
   8d6d0:	d503201f 	nop
   8d6d4:	d503201f 	nop
   8d6d8:	d503201f 	nop
   8d6dc:	aa0103e0 	mov	x0, x1
   8d6e0:	d65f03c0 	ret

000000000008d6e4 <strnlen>:
   8d6e4:	b4ffffc1 	cbz	x1, 8d6dc <strncpy+0xf4>
   8d6e8:	b200c3ec 	mov	x12, #0x101010101010101     	// #72340172838076673
   8d6ec:	927cec02 	and	x2, x0, #0xfffffffffffffff0
   8d6f0:	f2400c08 	ands	x8, x0, #0xf
   8d6f4:	54000361 	b.ne	8d760 <strnlen+0x7c>  // b.any
   8d6f8:	d100042e 	sub	x14, x1, #0x1
   8d6fc:	d344fdce 	lsr	x14, x14, #4
   8d700:	a8c11043 	ldp	x3, x4, [x2], #16
   8d704:	cb0c0068 	sub	x8, x3, x12
   8d708:	b200d869 	orr	x9, x3, #0x7f7f7f7f7f7f7f7f
   8d70c:	cb0c008a 	sub	x10, x4, x12
   8d710:	b200d88b 	orr	x11, x4, #0x7f7f7f7f7f7f7f7f
   8d714:	8a290106 	bic	x6, x8, x9
   8d718:	8a2b0147 	bic	x7, x10, x11
   8d71c:	f10005ce 	subs	x14, x14, #0x1
   8d720:	aa0700c8 	orr	x8, x6, x7
   8d724:	fa405900 	ccmp	x8, #0x0, #0x0, pl  // pl = nfrst
   8d728:	54fffec0 	b.eq	8d700 <strnlen+0x1c>  // b.none
   8d72c:	aa0700c8 	orr	x8, x6, x7
   8d730:	b4fffd68 	cbz	x8, 8d6dc <strncpy+0xf4>
   8d734:	cb000040 	sub	x0, x2, x0
   8d738:	b4000066 	cbz	x6, 8d744 <strnlen+0x60>
   8d73c:	d1002000 	sub	x0, x0, #0x8
   8d740:	aa0603e7 	mov	x7, x6
   8d744:	d1002000 	sub	x0, x0, #0x8
   8d748:	dac00ce7 	rev	x7, x7
   8d74c:	dac010ed 	clz	x13, x7
   8d750:	8b4d0c00 	add	x0, x0, x13, lsr #3
   8d754:	eb01001f 	cmp	x0, x1
   8d758:	9a819000 	csel	x0, x0, x1, ls  // ls = plast
   8d75c:	d65f03c0 	ret
   8d760:	d100042e 	sub	x14, x1, #0x1
   8d764:	cb0803eb 	neg	x11, x8
   8d768:	f100211f 	cmp	x8, #0x8
   8d76c:	92400dca 	and	x10, x14, #0xf
   8d770:	d344fdce 	lsr	x14, x14, #4
   8d774:	92800009 	mov	x9, #0xffffffffffffffff    	// #-1
   8d778:	a8c11043 	ldp	x3, x4, [x2], #16
   8d77c:	d37df16b 	lsl	x11, x11, #3
   8d780:	8b08014a 	add	x10, x10, x8
   8d784:	9acb2529 	lsr	x9, x9, x11
   8d788:	8b4a11ce 	add	x14, x14, x10, lsr #4
   8d78c:	aa090063 	orr	x3, x3, x9
   8d790:	aa090085 	orr	x5, x4, x9
   8d794:	da9fd063 	csinv	x3, x3, xzr, le
   8d798:	9a85d084 	csel	x4, x4, x5, le
   8d79c:	17ffffda 	b	8d704 <strnlen+0x20>

000000000008d7a0 <sulp>:
   8d7a0:	a9be7bfd 	stp	x29, x30, [sp, #-32]!
   8d7a4:	9e670000 	fmov	d0, x0
   8d7a8:	910003fd 	mov	x29, sp
   8d7ac:	a90153f3 	stp	x19, x20, [sp, #16]
   8d7b0:	2a0103f4 	mov	w20, w1
   8d7b4:	aa0003f3 	mov	x19, x0
   8d7b8:	94000d40 	bl	90cb8 <__ulp>
   8d7bc:	34000174 	cbz	w20, 8d7e8 <sulp+0x48>
   8d7c0:	d374fa73 	ubfx	x19, x19, #52, #11
   8d7c4:	52800d60 	mov	w0, #0x6b                  	// #107
   8d7c8:	4b130000 	sub	w0, w0, w19
   8d7cc:	7100001f 	cmp	w0, #0x0
   8d7d0:	540000cd 	b.le	8d7e8 <sulp+0x48>
   8d7d4:	52a7fe01 	mov	w1, #0x3ff00000            	// #1072693248
   8d7d8:	0b005020 	add	w0, w1, w0, lsl #20
   8d7dc:	9e670001 	fmov	d1, x0
   8d7e0:	5f605421 	shl	d1, d1, #32
   8d7e4:	1e610800 	fmul	d0, d0, d1
   8d7e8:	a94153f3 	ldp	x19, x20, [sp, #16]
   8d7ec:	a8c27bfd 	ldp	x29, x30, [sp], #32
   8d7f0:	d65f03c0 	ret
   8d7f4:	00000000 	.inst	0x00000000 ; undefined

000000000008d7f8 <_strtod_l>:
   8d7f8:	a9b17bfd 	stp	x29, x30, [sp, #-240]!
   8d7fc:	910003fd 	mov	x29, sp
   8d800:	a90153f3 	stp	x19, x20, [sp, #16]
   8d804:	aa0003f4 	mov	x20, x0
   8d808:	aa0303e0 	mov	x0, x3
   8d80c:	a9025bf5 	stp	x21, x22, [sp, #32]
   8d810:	d2800013 	mov	x19, #0x0                   	// #0
   8d814:	a90363f7 	stp	x23, x24, [sp, #48]
   8d818:	aa0203f7 	mov	x23, x2
   8d81c:	a9046bf9 	stp	x25, x26, [sp, #64]
   8d820:	a90573fb 	stp	x27, x28, [sp, #80]
   8d824:	aa0103fc 	mov	x28, x1
   8d828:	f90053e3 	str	x3, [sp, #160]
   8d82c:	f90073ff 	str	xzr, [sp, #224]
   8d830:	940009c6 	bl	8ff48 <__localeconv_l>
   8d834:	aa0003f8 	mov	x24, x0
   8d838:	f9400000 	ldr	x0, [x0]
   8d83c:	97fffed1 	bl	8d380 <strlen>
   8d840:	f9006ffc 	str	x28, [sp, #216]
   8d844:	f94053e3 	ldr	x3, [sp, #160]
   8d848:	aa1c03e1 	mov	x1, x28
   8d84c:	39400035 	ldrb	w21, [x1]
   8d850:	aa0103f9 	mov	x25, x1
   8d854:	710036bf 	cmp	w21, #0xd
   8d858:	540013a9 	b.ls	8dacc <_strtod_l+0x2d4>  // b.plast
   8d85c:	7100aebf 	cmp	w21, #0x2b
   8d860:	54001480 	b.eq	8daf0 <_strtod_l+0x2f8>  // b.none
   8d864:	7100b6bf 	cmp	w21, #0x2d
   8d868:	54001061 	b.ne	8da74 <_strtod_l+0x27c>  // b.any
   8d86c:	52800036 	mov	w22, #0x1                   	// #1
   8d870:	91000427 	add	x7, x1, #0x1
   8d874:	f9006fe7 	str	x7, [sp, #216]
   8d878:	39400435 	ldrb	w21, [x1, #1]
   8d87c:	34000e95 	cbz	w21, 8da4c <_strtod_l+0x254>
   8d880:	b900a3ff 	str	wzr, [sp, #160]
   8d884:	aa0703f9 	mov	x25, x7
   8d888:	7100c2bf 	cmp	w21, #0x30
   8d88c:	54001000 	b.eq	8da8c <_strtod_l+0x294>  // b.none
   8d890:	5100c2a3 	sub	w3, w21, #0x30
   8d894:	93407c08 	sxtw	x8, w0
   8d898:	7100247f 	cmp	w3, #0x9
   8d89c:	f9400301 	ldr	x1, [x24]
   8d8a0:	54005828 	b.hi	8e3a4 <_strtod_l+0xbac>  // b.pmore
   8d8a4:	91000722 	add	x2, x25, #0x1
   8d8a8:	5280001a 	mov	w26, #0x0                   	// #0
   8d8ac:	5280001b 	mov	w27, #0x0                   	// #0
   8d8b0:	52800018 	mov	w24, #0x0                   	// #0
   8d8b4:	14000009 	b	8d8d8 <_strtod_l+0xe0>
   8d8b8:	f9006fe2 	str	x2, [sp, #216]
   8d8bc:	aa0203e0 	mov	x0, x2
   8d8c0:	0b05047b 	add	w27, w3, w5, lsl #1
   8d8c4:	11000718 	add	w24, w24, #0x1
   8d8c8:	38401455 	ldrb	w21, [x2], #1
   8d8cc:	5100c2a3 	sub	w3, w21, #0x30
   8d8d0:	7100247f 	cmp	w3, #0x9
   8d8d4:	540001a8 	b.hi	8d908 <_strtod_l+0x110>  // b.pmore
   8d8d8:	0b1a0b44 	add	w4, w26, w26, lsl #2
   8d8dc:	0b1b0b65 	add	w5, w27, w27, lsl #2
   8d8e0:	7100231f 	cmp	w24, #0x8
   8d8e4:	54fffead 	b.le	8d8b8 <_strtod_l+0xc0>
   8d8e8:	f9006fe2 	str	x2, [sp, #216]
   8d8ec:	aa0203e0 	mov	x0, x2
   8d8f0:	0b04047a 	add	w26, w3, w4, lsl #1
   8d8f4:	11000718 	add	w24, w24, #0x1
   8d8f8:	38401455 	ldrb	w21, [x2], #1
   8d8fc:	5100c2a3 	sub	w3, w21, #0x30
   8d900:	7100247f 	cmp	w3, #0x9
   8d904:	54fffea9 	b.ls	8d8d8 <_strtod_l+0xe0>  // b.plast
   8d908:	aa0803e2 	mov	x2, x8
   8d90c:	f90057e8 	str	x8, [sp, #168]
   8d910:	97fffef3 	bl	8d4dc <strncmp>
   8d914:	f94057e8 	ldr	x8, [sp, #168]
   8d918:	34001920 	cbz	w0, 8dc3c <_strtod_l+0x444>
   8d91c:	121a7ab5 	and	w21, w21, #0xffffffdf
   8d920:	710116bf 	cmp	w21, #0x45
   8d924:	54000ea0 	b.eq	8daf8 <_strtod_l+0x300>  // b.none
   8d928:	2a1803e3 	mov	w3, w24
   8d92c:	52800006 	mov	w6, #0x0                   	// #0
   8d930:	52800005 	mov	w5, #0x0                   	// #0
   8d934:	1e630360 	ucvtf	d0, w27
   8d938:	7100031f 	cmp	w24, #0x0
   8d93c:	4b0600a1 	sub	w1, w5, w6
   8d940:	b900abe1 	str	w1, [sp, #168]
   8d944:	1a831318 	csel	w24, w24, w3, ne  // ne = any
   8d948:	7100407f 	cmp	w3, #0x10
   8d94c:	52800200 	mov	w0, #0x10                  	// #16
   8d950:	1a80d060 	csel	w0, w3, w0, le
   8d954:	9e660013 	fmov	x19, d0
   8d958:	7100247f 	cmp	w3, #0x9
   8d95c:	5400010d 	b.le	8d97c <_strtod_l+0x184>
   8d960:	90000041 	adrp	x1, 95000 <BitFont+0x934>
   8d964:	51002402 	sub	w2, w0, #0x9
   8d968:	912c4021 	add	x1, x1, #0xb10
   8d96c:	1e630341 	ucvtf	d1, w26
   8d970:	fc62d822 	ldr	d2, [x1, w2, sxtw #3]
   8d974:	1f420400 	fmadd	d0, d0, d2, d1
   8d978:	9e660013 	fmov	x19, d0
   8d97c:	71003c7f 	cmp	w3, #0xf
   8d980:	5400180c 	b.gt	8dc80 <_strtod_l+0x488>
   8d984:	4b0600a1 	sub	w1, w5, w6
   8d988:	7100003f 	cmp	w1, #0x0
   8d98c:	54001240 	b.eq	8dbd4 <_strtod_l+0x3dc>  // b.none
   8d990:	4b0600a1 	sub	w1, w5, w6
   8d994:	54005e0d 	b.le	8e554 <_strtod_l+0xd5c>
   8d998:	7100583f 	cmp	w1, #0x16
   8d99c:	540063ed 	b.le	8e618 <_strtod_l+0xe20>
   8d9a0:	4b0600a2 	sub	w2, w5, w6
   8d9a4:	4b000060 	sub	w0, w3, w0
   8d9a8:	528004a1 	mov	w1, #0x25                  	// #37
   8d9ac:	4b030021 	sub	w1, w1, w3
   8d9b0:	0b020000 	add	w0, w0, w2
   8d9b4:	6b02003f 	cmp	w1, w2
   8d9b8:	540016eb 	b.lt	8dc94 <_strtod_l+0x49c>  // b.tstop
   8d9bc:	528001e1 	mov	w1, #0xf                   	// #15
   8d9c0:	90000040 	adrp	x0, 95000 <BitFont+0x934>
   8d9c4:	4b030023 	sub	w3, w1, w3
   8d9c8:	912c4000 	add	x0, x0, #0xb10
   8d9cc:	b940abe1 	ldr	w1, [sp, #168]
   8d9d0:	9e670262 	fmov	d2, x19
   8d9d4:	fc63d800 	ldr	d0, [x0, w3, sxtw #3]
   8d9d8:	4b03003c 	sub	w28, w1, w3
   8d9dc:	1e620800 	fmul	d0, d0, d2
   8d9e0:	fc7cd801 	ldr	d1, [x0, w28, sxtw #3]
   8d9e4:	1e610800 	fmul	d0, d0, d1
   8d9e8:	b4000077 	cbz	x23, 8d9f4 <_strtod_l+0x1fc>
   8d9ec:	f9406fe0 	ldr	x0, [sp, #216]
   8d9f0:	f90002e0 	str	x0, [x23]
   8d9f4:	1e614001 	fneg	d1, d0
   8d9f8:	710002df 	cmp	w22, #0x0
   8d9fc:	1e601c20 	fcsel	d0, d1, d0, ne  // ne = any
   8da00:	a94153f3 	ldp	x19, x20, [sp, #16]
   8da04:	a9425bf5 	ldp	x21, x22, [sp, #32]
   8da08:	a94363f7 	ldp	x23, x24, [sp, #48]
   8da0c:	a9446bf9 	ldp	x25, x26, [sp, #64]
   8da10:	a94573fb 	ldp	x27, x28, [sp, #80]
   8da14:	a8cf7bfd 	ldp	x29, x30, [sp], #240
   8da18:	d65f03c0 	ret
   8da1c:	52800006 	mov	w6, #0x0                   	// #0
   8da20:	52800018 	mov	w24, #0x0                   	// #0
   8da24:	5280001a 	mov	w26, #0x0                   	// #0
   8da28:	5280001b 	mov	w27, #0x0                   	// #0
   8da2c:	52800023 	mov	w3, #0x1                   	// #1
   8da30:	121a7aa1 	and	w1, w21, #0xffffffdf
   8da34:	7101143f 	cmp	w1, #0x45
   8da38:	54005a81 	b.ne	8e588 <_strtod_l+0xd90>  // b.any
   8da3c:	b940a3e2 	ldr	w2, [sp, #160]
   8da40:	2a000301 	orr	w1, w24, w0
   8da44:	2a020021 	orr	w1, w1, w2
   8da48:	35000601 	cbnz	w1, 8db08 <_strtod_l+0x310>
   8da4c:	2f00e400 	movi	d0, #0x0
   8da50:	b4fffd97 	cbz	x23, 8da00 <_strtod_l+0x208>
   8da54:	f90002fc 	str	x28, [x23]
   8da58:	a94153f3 	ldp	x19, x20, [sp, #16]
   8da5c:	a9425bf5 	ldp	x21, x22, [sp, #32]
   8da60:	a94363f7 	ldp	x23, x24, [sp, #48]
   8da64:	a9446bf9 	ldp	x25, x26, [sp, #64]
   8da68:	a94573fb 	ldp	x27, x28, [sp, #80]
   8da6c:	a8cf7bfd 	ldp	x29, x30, [sp], #240
   8da70:	d65f03c0 	ret
   8da74:	710082bf 	cmp	w21, #0x20
   8da78:	54000360 	b.eq	8dae4 <_strtod_l+0x2ec>  // b.none
   8da7c:	b900a3ff 	str	wzr, [sp, #160]
   8da80:	52800016 	mov	w22, #0x0                   	// #0
   8da84:	7100c2bf 	cmp	w21, #0x30
   8da88:	54fff041 	b.ne	8d890 <_strtod_l+0x98>  // b.any
   8da8c:	39400721 	ldrb	w1, [x25, #1]
   8da90:	7101603f 	cmp	w1, #0x58
   8da94:	54004ea0 	b.eq	8e468 <_strtod_l+0xc70>  // b.none
   8da98:	7101e03f 	cmp	w1, #0x78
   8da9c:	91000721 	add	x1, x25, #0x1
   8daa0:	54004e40 	b.eq	8e468 <_strtod_l+0xc70>  // b.none
   8daa4:	d503201f 	nop
   8daa8:	f9006fe1 	str	x1, [sp, #216]
   8daac:	aa0103f9 	mov	x25, x1
   8dab0:	38401435 	ldrb	w21, [x1], #1
   8dab4:	7100c2bf 	cmp	w21, #0x30
   8dab8:	54ffff80 	b.eq	8daa8 <_strtod_l+0x2b0>  // b.none
   8dabc:	34000bd5 	cbz	w21, 8dc34 <_strtod_l+0x43c>
   8dac0:	52800021 	mov	w1, #0x1                   	// #1
   8dac4:	b900a3e1 	str	w1, [sp, #160]
   8dac8:	17ffff72 	b	8d890 <_strtod_l+0x98>
   8dacc:	710026bf 	cmp	w21, #0x9
   8dad0:	540000a2 	b.cs	8dae4 <_strtod_l+0x2ec>  // b.hs, b.nlast
   8dad4:	35fffd55 	cbnz	w21, 8da7c <_strtod_l+0x284>
   8dad8:	2f00e400 	movi	d0, #0x0
   8dadc:	b5fffbd7 	cbnz	x23, 8da54 <_strtod_l+0x25c>
   8dae0:	17ffffc8 	b	8da00 <_strtod_l+0x208>
   8dae4:	91000421 	add	x1, x1, #0x1
   8dae8:	f9006fe1 	str	x1, [sp, #216]
   8daec:	17ffff58 	b	8d84c <_strtod_l+0x54>
   8daf0:	52800016 	mov	w22, #0x0                   	// #0
   8daf4:	17ffff5f 	b	8d870 <_strtod_l+0x78>
   8daf8:	2a1803e4 	mov	w4, w24
   8dafc:	52800000 	mov	w0, #0x0                   	// #0
   8db00:	52800006 	mov	w6, #0x0                   	// #0
   8db04:	52800003 	mov	w3, #0x0                   	// #0
   8db08:	f9406ffc 	ldr	x28, [sp, #216]
   8db0c:	91000781 	add	x1, x28, #0x1
   8db10:	f9006fe1 	str	x1, [sp, #216]
   8db14:	39400795 	ldrb	w21, [x28, #1]
   8db18:	7100aebf 	cmp	w21, #0x2b
   8db1c:	54004a20 	b.eq	8e460 <_strtod_l+0xc68>  // b.none
   8db20:	52800009 	mov	w9, #0x0                   	// #0
   8db24:	7100b6bf 	cmp	w21, #0x2d
   8db28:	540000a1 	b.ne	8db3c <_strtod_l+0x344>  // b.any
   8db2c:	52800029 	mov	w9, #0x1                   	// #1
   8db30:	91000b81 	add	x1, x28, #0x2
   8db34:	f9006fe1 	str	x1, [sp, #216]
   8db38:	39400b95 	ldrb	w21, [x28, #2]
   8db3c:	5100c2a1 	sub	w1, w21, #0x30
   8db40:	7100243f 	cmp	w1, #0x9
   8db44:	540031a8 	b.hi	8e178 <_strtod_l+0x980>  // b.pmore
   8db48:	7100c2bf 	cmp	w21, #0x30
   8db4c:	540000e1 	b.ne	8db68 <_strtod_l+0x370>  // b.any
   8db50:	f9406fe1 	ldr	x1, [sp, #216]
   8db54:	91000421 	add	x1, x1, #0x1
   8db58:	f9006fe1 	str	x1, [sp, #216]
   8db5c:	38401435 	ldrb	w21, [x1], #1
   8db60:	7100c2bf 	cmp	w21, #0x30
   8db64:	54ffffa0 	b.eq	8db58 <_strtod_l+0x360>  // b.none
   8db68:	5100c6a1 	sub	w1, w21, #0x31
   8db6c:	52800005 	mov	w5, #0x0                   	// #0
   8db70:	7100203f 	cmp	w1, #0x8
   8db74:	54003e49 	b.ls	8e33c <_strtod_l+0xb44>  // b.plast
   8db78:	35006a18 	cbnz	w24, 8e8b8 <_strtod_l+0x10c0>
   8db7c:	b940a3e1 	ldr	w1, [sp, #160]
   8db80:	2a000020 	orr	w0, w1, w0
   8db84:	35000580 	cbnz	w0, 8dc34 <_strtod_l+0x43c>
   8db88:	35fff623 	cbnz	w3, 8da4c <_strtod_l+0x254>
   8db8c:	71013abf 	cmp	w21, #0x4e
   8db90:	540000c0 	b.eq	8dba8 <_strtod_l+0x3b0>  // b.none
   8db94:	5400024d 	b.le	8dbdc <_strtod_l+0x3e4>
   8db98:	7101a6bf 	cmp	w21, #0x69
   8db9c:	54000240 	b.eq	8dbe4 <_strtod_l+0x3ec>  // b.none
   8dba0:	7101babf 	cmp	w21, #0x6e
   8dba4:	54fff541 	b.ne	8da4c <_strtod_l+0x254>  // b.any
   8dba8:	90000041 	adrp	x1, 95000 <BitFont+0x934>
   8dbac:	910363e0 	add	x0, sp, #0xd8
   8dbb0:	91220021 	add	x1, x1, #0x880
   8dbb4:	94000847 	bl	8fcd0 <__match>
   8dbb8:	34fff4a0 	cbz	w0, 8da4c <_strtod_l+0x254>
   8dbbc:	f9406fe0 	ldr	x0, [sp, #216]
   8dbc0:	39400000 	ldrb	w0, [x0]
   8dbc4:	7100a01f 	cmp	w0, #0x28
   8dbc8:	54005e40 	b.eq	8e790 <_strtod_l+0xf98>  // b.none
   8dbcc:	b26db3e0 	mov	x0, #0xfffffffffff80000    	// #-524288
   8dbd0:	b3607c13 	bfi	x19, x0, #32, #32
   8dbd4:	9e670260 	fmov	d0, x19
   8dbd8:	17ffff84 	b	8d9e8 <_strtod_l+0x1f0>
   8dbdc:	710126bf 	cmp	w21, #0x49
   8dbe0:	54fff361 	b.ne	8da4c <_strtod_l+0x254>  // b.any
   8dbe4:	90000041 	adrp	x1, 95000 <BitFont+0x934>
   8dbe8:	910363e0 	add	x0, sp, #0xd8
   8dbec:	9121c021 	add	x1, x1, #0x870
   8dbf0:	94000838 	bl	8fcd0 <__match>
   8dbf4:	34fff2c0 	cbz	w0, 8da4c <_strtod_l+0x254>
   8dbf8:	f9406fe2 	ldr	x2, [sp, #216]
   8dbfc:	90000041 	adrp	x1, 95000 <BitFont+0x934>
   8dc00:	910363e0 	add	x0, sp, #0xd8
   8dc04:	9121e021 	add	x1, x1, #0x878
   8dc08:	d1000442 	sub	x2, x2, #0x1
   8dc0c:	f9006fe2 	str	x2, [sp, #216]
   8dc10:	94000830 	bl	8fcd0 <__match>
   8dc14:	35000080 	cbnz	w0, 8dc24 <_strtod_l+0x42c>
   8dc18:	f9406fe0 	ldr	x0, [sp, #216]
   8dc1c:	91000400 	add	x0, x0, #0x1
   8dc20:	f9006fe0 	str	x0, [sp, #216]
   8dc24:	d2affe00 	mov	x0, #0x7ff00000            	// #2146435072
   8dc28:	b3607c13 	bfi	x19, x0, #32, #32
   8dc2c:	9e670260 	fmov	d0, x19
   8dc30:	17ffff6e 	b	8d9e8 <_strtod_l+0x1f0>
   8dc34:	2f00e400 	movi	d0, #0x0
   8dc38:	17ffff6c 	b	8d9e8 <_strtod_l+0x1f0>
   8dc3c:	f9406fe1 	ldr	x1, [sp, #216]
   8dc40:	2a1803e4 	mov	w4, w24
   8dc44:	52800006 	mov	w6, #0x0                   	// #0
   8dc48:	8b080022 	add	x2, x1, x8
   8dc4c:	f9006fe2 	str	x2, [sp, #216]
   8dc50:	38686835 	ldrb	w21, [x1, x8]
   8dc54:	5100c2a3 	sub	w3, w21, #0x30
   8dc58:	7100247f 	cmp	w3, #0x9
   8dc5c:	54ffee88 	b.hi	8da2c <_strtod_l+0x234>  // b.pmore
   8dc60:	11000400 	add	w0, w0, #0x1
   8dc64:	2a0303f5 	mov	w21, w3
   8dc68:	f9406fe9 	ldr	x9, [sp, #216]
   8dc6c:	350043a3 	cbnz	w3, 8e4e0 <_strtod_l+0xce8>
   8dc70:	91000521 	add	x1, x9, #0x1
   8dc74:	f9006fe1 	str	x1, [sp, #216]
   8dc78:	39400535 	ldrb	w21, [x9, #1]
   8dc7c:	17fffff6 	b	8dc54 <_strtod_l+0x45c>
   8dc80:	4b000060 	sub	w0, w3, w0
   8dc84:	4b0600a1 	sub	w1, w5, w6
   8dc88:	0b010000 	add	w0, w0, w1
   8dc8c:	7100001f 	cmp	w0, #0x0
   8dc90:	540027ad 	b.le	8e184 <_strtod_l+0x98c>
   8dc94:	72000c02 	ands	w2, w0, #0xf
   8dc98:	540000e0 	b.eq	8dcb4 <_strtod_l+0x4bc>  // b.none
   8dc9c:	90000041 	adrp	x1, 95000 <BitFont+0x934>
   8dca0:	912c4021 	add	x1, x1, #0xb10
   8dca4:	9e670261 	fmov	d1, x19
   8dca8:	fc62d820 	ldr	d0, [x1, w2, sxtw #3]
   8dcac:	1e610800 	fmul	d0, d0, d1
   8dcb0:	9e660013 	fmov	x19, d0
   8dcb4:	721c6c00 	ands	w0, w0, #0xfffffff0
   8dcb8:	54002ea1 	b.ne	8e28c <_strtod_l+0xa94>  // b.any
   8dcbc:	5280001a 	mov	w26, #0x0                   	// #0
   8dcc0:	2a1b03e4 	mov	w4, w27
   8dcc4:	2a1803e2 	mov	w2, w24
   8dcc8:	aa1903e1 	mov	x1, x25
   8dccc:	aa1403e0 	mov	x0, x20
   8dcd0:	b900a3e6 	str	w6, [sp, #160]
   8dcd4:	b900bbe5 	str	w5, [sp, #184]
   8dcd8:	940009e8 	bl	90478 <__s2b>
   8dcdc:	f9005be0 	str	x0, [sp, #176]
   8dce0:	b4003f60 	cbz	x0, 8e4cc <_strtod_l+0xcd4>
   8dce4:	b940abe0 	ldr	w0, [sp, #168]
   8dce8:	d2800019 	mov	x25, #0x0                   	// #0
   8dcec:	b940bbe5 	ldr	w5, [sp, #184]
   8dcf0:	d2800015 	mov	x21, #0x0                   	// #0
   8dcf4:	7100001f 	cmp	w0, #0x0
   8dcf8:	6d072fea 	stp	d10, d11, [sp, #112]
   8dcfc:	1a9fa000 	csel	w0, w0, wzr, ge  // ge = tcont
   8dd00:	b900bbe0 	str	w0, [sp, #184]
   8dd04:	b26a67e0 	mov	x0, #0xffffffc00000        	// #281474972516352
   8dd08:	f2e83be0 	movk	x0, #0x41df, lsl #48
   8dd0c:	9e67000a 	fmov	d10, x0
   8dd10:	90000040 	adrp	x0, 95000 <BitFont+0x934>
   8dd14:	6d0837ec 	stp	d12, d13, [sp, #128]
   8dd18:	b940a3e6 	ldr	w6, [sp, #160]
   8dd1c:	fd442c0c 	ldr	d12, [x0, #2136]
   8dd20:	90000040 	adrp	x0, 95000 <BitFont+0x934>
   8dd24:	4b0500c5 	sub	w5, w6, w5
   8dd28:	6d0627e8 	stp	d8, d9, [sp, #96]
   8dd2c:	fd44300b 	ldr	d11, [x0, #2144]
   8dd30:	90000040 	adrp	x0, 95000 <BitFont+0x934>
   8dd34:	1a9fb0a1 	csel	w1, w5, wzr, lt  // lt = tstop
   8dd38:	b900a3e1 	str	w1, [sp, #160]
   8dd3c:	fd44340d 	ldr	d13, [x0, #2152]
   8dd40:	6d093fee 	stp	d14, d15, [sp, #144]
   8dd44:	d503201f 	nop
   8dd48:	aa1403e0 	mov	x0, x20
   8dd4c:	f9405bfb 	ldr	x27, [sp, #176]
   8dd50:	b9400b61 	ldr	w1, [x27, #8]
   8dd54:	94000961 	bl	902d8 <_Balloc>
   8dd58:	aa0003f8 	mov	x24, x0
   8dd5c:	b4001b20 	cbz	x0, 8e0c0 <_strtod_l+0x8c8>
   8dd60:	b9801762 	ldrsw	x2, [x27, #20]
   8dd64:	9e670269 	fmov	d9, x19
   8dd68:	91004361 	add	x1, x27, #0x10
   8dd6c:	91004300 	add	x0, x24, #0x10
   8dd70:	91000842 	add	x2, x2, #0x2
   8dd74:	d37ef442 	lsl	x2, x2, #2
   8dd78:	94000882 	bl	8ff80 <memcpy>
   8dd7c:	9e670260 	fmov	d0, x19
   8dd80:	9103a3e2 	add	x2, sp, #0xe8
   8dd84:	910353e1 	add	x1, sp, #0xd4
   8dd88:	aa1403e0 	mov	x0, x20
   8dd8c:	94000c2d 	bl	90e40 <__d2b>
   8dd90:	f90073e0 	str	x0, [sp, #224]
   8dd94:	b4001520 	cbz	x0, 8e038 <_strtod_l+0x840>
   8dd98:	52800021 	mov	w1, #0x1                   	// #1
   8dd9c:	aa1403e0 	mov	x0, x20
   8dda0:	94000a3e 	bl	90698 <__i2b>
   8dda4:	aa0003f5 	mov	x21, x0
   8dda8:	b40018c0 	cbz	x0, 8e0c0 <_strtod_l+0x8c8>
   8ddac:	b940d7e0 	ldr	w0, [sp, #212]
   8ddb0:	37f81740 	tbnz	w0, #31, 8e098 <_strtod_l+0x8a0>
   8ddb4:	b940a3e1 	ldr	w1, [sp, #160]
   8ddb8:	b940bbe3 	ldr	w3, [sp, #184]
   8ddbc:	0b01001c 	add	w28, w0, w1
   8ddc0:	b940ebe2 	ldr	w2, [sp, #232]
   8ddc4:	4b1a0000 	sub	w0, w0, w26
   8ddc8:	528006c1 	mov	w1, #0x36                  	// #54
   8ddcc:	0b020000 	add	w0, w0, w2
   8ddd0:	4b020021 	sub	w1, w1, w2
   8ddd4:	51000400 	sub	w0, w0, #0x1
   8ddd8:	310ff81f 	cmn	w0, #0x3fe
   8dddc:	54000dca 	b.ge	8df94 <_strtod_l+0x79c>  // b.tcont
   8dde0:	12807fa2 	mov	w2, #0xfffffc02            	// #-1022
   8dde4:	4b000042 	sub	w2, w2, w0
   8dde8:	4b020021 	sub	w1, w1, w2
   8ddec:	71007c5f 	cmp	w2, #0x1f
   8ddf0:	540017cc 	b.gt	8e0e8 <_strtod_l+0x8f0>
   8ddf4:	52800020 	mov	w0, #0x1                   	// #1
   8ddf8:	1ac22000 	lsl	w0, w0, w2
   8ddfc:	2917ffe0 	stp	w0, wzr, [sp, #188]
   8de00:	0b010384 	add	w4, w28, w1
   8de04:	0b010063 	add	w3, w3, w1
   8de08:	6b04039f 	cmp	w28, w4
   8de0c:	0b03035b 	add	w27, w26, w3
   8de10:	1a84d380 	csel	w0, w28, w4, le
   8de14:	6b1b001f 	cmp	w0, w27
   8de18:	1a9bd000 	csel	w0, w0, w27, le
   8de1c:	7100001f 	cmp	w0, #0x0
   8de20:	5400008d 	b.le	8de30 <_strtod_l+0x638>
   8de24:	4b000084 	sub	w4, w4, w0
   8de28:	4b00037b 	sub	w27, w27, w0
   8de2c:	4b00039c 	sub	w28, w28, w0
   8de30:	b940a3e2 	ldr	w2, [sp, #160]
   8de34:	7100005f 	cmp	w2, #0x0
   8de38:	54000c2c 	b.gt	8dfbc <_strtod_l+0x7c4>
   8de3c:	7100009f 	cmp	w4, #0x0
   8de40:	54000f0c 	b.gt	8e020 <_strtod_l+0x828>
   8de44:	b940abe0 	ldr	w0, [sp, #168]
   8de48:	7100001f 	cmp	w0, #0x0
   8de4c:	540012ec 	b.gt	8e0a8 <_strtod_l+0x8b0>
   8de50:	7100037f 	cmp	w27, #0x0
   8de54:	540013ac 	b.gt	8e0c8 <_strtod_l+0x8d0>
   8de58:	7100039f 	cmp	w28, #0x0
   8de5c:	540000ed 	b.le	8de78 <_strtod_l+0x680>
   8de60:	aa1503e1 	mov	x1, x21
   8de64:	2a1c03e2 	mov	w2, w28
   8de68:	aa1403e0 	mov	x0, x20
   8de6c:	94000ad1 	bl	909b0 <__lshift>
   8de70:	aa0003f5 	mov	x21, x0
   8de74:	b4001260 	cbz	x0, 8e0c0 <_strtod_l+0x8c8>
   8de78:	f94073e1 	ldr	x1, [sp, #224]
   8de7c:	aa1803e2 	mov	x2, x24
   8de80:	aa1403e0 	mov	x0, x20
   8de84:	94000b2b 	bl	90b30 <__mdiff>
   8de88:	aa0003f9 	mov	x25, x0
   8de8c:	b40011a0 	cbz	x0, 8e0c0 <_strtod_l+0x8c8>
   8de90:	b9401001 	ldr	w1, [x0, #16]
   8de94:	b900101f 	str	wzr, [x0, #16]
   8de98:	2a0103fb 	mov	w27, w1
   8de9c:	aa1503e1 	mov	x1, x21
   8dea0:	94000b10 	bl	90ae0 <__mcmp>
   8dea4:	7100001f 	cmp	w0, #0x0
   8dea8:	54003c6b 	b.lt	8e634 <_strtod_l+0xe3c>  // b.tstop
   8deac:	54004300 	b.eq	8e70c <_strtod_l+0xf14>  // b.none
   8deb0:	aa1503e1 	mov	x1, x21
   8deb4:	aa1903e0 	mov	x0, x25
   8deb8:	94000c2a 	bl	90f60 <__ratio>
   8debc:	1e601001 	fmov	d1, #2.000000000000000000e+00
   8dec0:	1e612010 	fcmpe	d0, d1
   8dec4:	540006e8 	b.hi	8dfa0 <_strtod_l+0x7a8>  // b.pmore
   8dec8:	340011db 	cbz	w27, 8e100 <_strtod_l+0x908>
   8decc:	d2e7fe00 	mov	x0, #0x3ff0000000000000    	// #4607182418800017408
   8ded0:	1e6e100e 	fmov	d14, #1.000000000000000000e+00
   8ded4:	d360fe62 	lsr	x2, x19, #32
   8ded8:	52affc03 	mov	w3, #0x7fe00000            	// #2145386496
   8dedc:	120c2841 	and	w1, w2, #0x7ff00000
   8dee0:	6b03003f 	cmp	w1, w3
   8dee4:	540011e0 	b.eq	8e120 <_strtod_l+0x928>  // b.none
   8dee8:	7100035f 	cmp	w26, #0x0
   8deec:	52a0d402 	mov	w2, #0x6a00000             	// #111149056
   8def0:	7a421022 	ccmp	w1, w2, #0x2, ne  // ne = any
   8def4:	540001e8 	b.hi	8df30 <_strtod_l+0x738>  // b.pmore
   8def8:	1e6a21d0 	fcmpe	d14, d10
   8defc:	54000108 	b.hi	8df1c <_strtod_l+0x724>  // b.pmore
   8df00:	1e7901c0 	fcvtzu	w0, d14
   8df04:	1e6e100e 	fmov	d14, #1.000000000000000000e+00
   8df08:	35001be0 	cbnz	w0, 8e284 <_strtod_l+0xa8c>
   8df0c:	1e6141c1 	fneg	d1, d14
   8df10:	7100037f 	cmp	w27, #0x0
   8df14:	1e6e0c20 	fcsel	d0, d1, d14, eq  // eq = none
   8df18:	9e660000 	fmov	x0, d0
   8df1c:	d360fc02 	lsr	x2, x0, #32
   8df20:	52a0d603 	mov	w3, #0x6b00000             	// #112197632
   8df24:	0b030042 	add	w2, w2, w3
   8df28:	4b010042 	sub	w2, w2, w1
   8df2c:	b3607c40 	bfi	x0, x2, #32, #32
   8df30:	1e604120 	fmov	d0, d9
   8df34:	9e670008 	fmov	d8, x0
   8df38:	b900bfe1 	str	w1, [sp, #188]
   8df3c:	94000b5f 	bl	90cb8 <__ulp>
   8df40:	1f402500 	fmadd	d0, d8, d0, d9
   8df44:	b940bfe1 	ldr	w1, [sp, #188]
   8df48:	9e660013 	fmov	x19, d0
   8df4c:	d360fe60 	lsr	x0, x19, #32
   8df50:	120c2800 	and	w0, w0, #0x7ff00000
   8df54:	7100035f 	cmp	w26, #0x0
   8df58:	7a410000 	ccmp	w0, w1, #0x0, eq  // eq = none
   8df5c:	540026e0 	b.eq	8e438 <_strtod_l+0xc40>  // b.none
   8df60:	f94073e1 	ldr	x1, [sp, #224]
   8df64:	aa1403e0 	mov	x0, x20
   8df68:	94000900 	bl	90368 <_Bfree>
   8df6c:	aa1803e1 	mov	x1, x24
   8df70:	aa1403e0 	mov	x0, x20
   8df74:	940008fd 	bl	90368 <_Bfree>
   8df78:	aa1503e1 	mov	x1, x21
   8df7c:	aa1403e0 	mov	x0, x20
   8df80:	940008fa 	bl	90368 <_Bfree>
   8df84:	aa1903e1 	mov	x1, x25
   8df88:	aa1403e0 	mov	x0, x20
   8df8c:	940008f7 	bl	90368 <_Bfree>
   8df90:	17ffff6e 	b	8dd48 <_strtod_l+0x550>
   8df94:	52800020 	mov	w0, #0x1                   	// #1
   8df98:	2917ffe0 	stp	w0, wzr, [sp, #188]
   8df9c:	17ffff99 	b	8de00 <_strtod_l+0x608>
   8dfa0:	1e6c100e 	fmov	d14, #5.000000000000000000e-01
   8dfa4:	7100037f 	cmp	w27, #0x0
   8dfa8:	1e6e080e 	fmul	d14, d0, d14
   8dfac:	1e6141c1 	fneg	d1, d14
   8dfb0:	1e6e0c20 	fcsel	d0, d1, d14, eq  // eq = none
   8dfb4:	9e660000 	fmov	x0, d0
   8dfb8:	17ffffc7 	b	8ded4 <_strtod_l+0x6dc>
   8dfbc:	aa1503e1 	mov	x1, x21
   8dfc0:	aa1403e0 	mov	x0, x20
   8dfc4:	b900c7e4 	str	w4, [sp, #196]
   8dfc8:	94000a32 	bl	90890 <__pow5mult>
   8dfcc:	b940c7e4 	ldr	w4, [sp, #196]
   8dfd0:	aa0003f5 	mov	x21, x0
   8dfd4:	b4000760 	cbz	x0, 8e0c0 <_strtod_l+0x8c8>
   8dfd8:	f94073e2 	ldr	x2, [sp, #224]
   8dfdc:	aa0003e1 	mov	x1, x0
   8dfe0:	aa1403e0 	mov	x0, x20
   8dfe4:	b900c7e4 	str	w4, [sp, #196]
   8dfe8:	940009b8 	bl	906c8 <__multiply>
   8dfec:	aa0003e2 	mov	x2, x0
   8dff0:	b940c7e4 	ldr	w4, [sp, #196]
   8dff4:	b4000660 	cbz	x0, 8e0c0 <_strtod_l+0x8c8>
   8dff8:	f94073e1 	ldr	x1, [sp, #224]
   8dffc:	aa1403e0 	mov	x0, x20
   8e000:	b900c7e4 	str	w4, [sp, #196]
   8e004:	f90067e2 	str	x2, [sp, #200]
   8e008:	940008d8 	bl	90368 <_Bfree>
   8e00c:	f94067e2 	ldr	x2, [sp, #200]
   8e010:	f90073e2 	str	x2, [sp, #224]
   8e014:	b940c7e4 	ldr	w4, [sp, #196]
   8e018:	7100009f 	cmp	w4, #0x0
   8e01c:	54fff14d 	b.le	8de44 <_strtod_l+0x64c>
   8e020:	f94073e1 	ldr	x1, [sp, #224]
   8e024:	2a0403e2 	mov	w2, w4
   8e028:	aa1403e0 	mov	x0, x20
   8e02c:	94000a61 	bl	909b0 <__lshift>
   8e030:	f90073e0 	str	x0, [sp, #224]
   8e034:	b5fff080 	cbnz	x0, 8de44 <_strtod_l+0x64c>
   8e038:	52800441 	mov	w1, #0x22                  	// #34
   8e03c:	d2effe13 	mov	x19, #0x7ff0000000000000    	// #9218868437227405312
   8e040:	b9000281 	str	w1, [x20]
   8e044:	aa0003e1 	mov	x1, x0
   8e048:	aa1403e0 	mov	x0, x20
   8e04c:	940008c7 	bl	90368 <_Bfree>
   8e050:	aa1803e1 	mov	x1, x24
   8e054:	aa1403e0 	mov	x0, x20
   8e058:	940008c4 	bl	90368 <_Bfree>
   8e05c:	aa1503e1 	mov	x1, x21
   8e060:	aa1403e0 	mov	x0, x20
   8e064:	940008c1 	bl	90368 <_Bfree>
   8e068:	f9405be1 	ldr	x1, [sp, #176]
   8e06c:	aa1403e0 	mov	x0, x20
   8e070:	940008be 	bl	90368 <_Bfree>
   8e074:	aa1903e1 	mov	x1, x25
   8e078:	aa1403e0 	mov	x0, x20
   8e07c:	940008bb 	bl	90368 <_Bfree>
   8e080:	9e670260 	fmov	d0, x19
   8e084:	6d4627e8 	ldp	d8, d9, [sp, #96]
   8e088:	6d472fea 	ldp	d10, d11, [sp, #112]
   8e08c:	6d4837ec 	ldp	d12, d13, [sp, #128]
   8e090:	6d493fee 	ldp	d14, d15, [sp, #144]
   8e094:	17fffe55 	b	8d9e8 <_strtod_l+0x1f0>
   8e098:	b940bbe1 	ldr	w1, [sp, #184]
   8e09c:	b940a3fc 	ldr	w28, [sp, #160]
   8e0a0:	4b000023 	sub	w3, w1, w0
   8e0a4:	17ffff47 	b	8ddc0 <_strtod_l+0x5c8>
   8e0a8:	b940bbe2 	ldr	w2, [sp, #184]
   8e0ac:	aa1803e1 	mov	x1, x24
   8e0b0:	aa1403e0 	mov	x0, x20
   8e0b4:	940009f7 	bl	90890 <__pow5mult>
   8e0b8:	aa0003f8 	mov	x24, x0
   8e0bc:	b5ffeca0 	cbnz	x0, 8de50 <_strtod_l+0x658>
   8e0c0:	f94073e0 	ldr	x0, [sp, #224]
   8e0c4:	17ffffdd 	b	8e038 <_strtod_l+0x840>
   8e0c8:	aa1803e1 	mov	x1, x24
   8e0cc:	2a1b03e2 	mov	w2, w27
   8e0d0:	aa1403e0 	mov	x0, x20
   8e0d4:	94000a37 	bl	909b0 <__lshift>
   8e0d8:	aa0003f8 	mov	x24, x0
   8e0dc:	b5ffebe0 	cbnz	x0, 8de58 <_strtod_l+0x660>
   8e0e0:	f94073e0 	ldr	x0, [sp, #224]
   8e0e4:	17ffffd5 	b	8e038 <_strtod_l+0x840>
   8e0e8:	128083a2 	mov	w2, #0xfffffbe2            	// #-1054
   8e0ec:	4b000040 	sub	w0, w2, w0
   8e0f0:	52800022 	mov	w2, #0x1                   	// #1
   8e0f4:	1ac02040 	lsl	w0, w2, w0
   8e0f8:	291783e2 	stp	w2, w0, [sp, #188]
   8e0fc:	17ffff41 	b	8de00 <_strtod_l+0x608>
   8e100:	9e660120 	fmov	x0, d9
   8e104:	f240cc1f 	tst	x0, #0xfffffffffffff
   8e108:	54000a60 	b.eq	8e254 <_strtod_l+0xa5c>  // b.none
   8e10c:	f100041f 	cmp	x0, #0x1
   8e110:	540036c0 	b.eq	8e7e8 <_strtod_l+0xff0>  // b.none
   8e114:	d2f7fe00 	mov	x0, #0xbff0000000000000    	// #-4616189618054758400
   8e118:	1e6e100e 	fmov	d14, #1.000000000000000000e+00
   8e11c:	17ffff6e 	b	8ded4 <_strtod_l+0x6dc>
   8e120:	52bf9603 	mov	w3, #0xfcb00000            	// #-55574528
   8e124:	0b020062 	add	w2, w3, w2
   8e128:	9e670008 	fmov	d8, x0
   8e12c:	b900bfe1 	str	w1, [sp, #188]
   8e130:	b3607c53 	bfi	x19, x2, #32, #32
   8e134:	9e67026f 	fmov	d15, x19
   8e138:	9e670260 	fmov	d0, x19
   8e13c:	94000adf 	bl	90cb8 <__ulp>
   8e140:	1f403d00 	fmadd	d0, d8, d0, d15
   8e144:	12b06c00 	mov	w0, #0x7c9fffff            	// #2090860543
   8e148:	b940bfe1 	ldr	w1, [sp, #188]
   8e14c:	9e660013 	fmov	x19, d0
   8e150:	d360fe62 	lsr	x2, x19, #32
   8e154:	120c2843 	and	w3, w2, #0x7ff00000
   8e158:	6b00007f 	cmp	w3, w0
   8e15c:	540008c9 	b.ls	8e274 <_strtod_l+0xa7c>  // b.plast
   8e160:	9e660120 	fmov	x0, d9
   8e164:	92f00213 	mov	x19, #0x7fefffffffffffff    	// #9218868437227405311
   8e168:	eb13001f 	cmp	x0, x19
   8e16c:	54ffefa1 	b.ne	8df60 <_strtod_l+0x768>  // b.any
   8e170:	f94073e0 	ldr	x0, [sp, #224]
   8e174:	17ffffb1 	b	8e038 <_strtod_l+0x840>
   8e178:	52800005 	mov	w5, #0x0                   	// #0
   8e17c:	f9006ffc 	str	x28, [sp, #216]
   8e180:	17fffe7e 	b	8db78 <_strtod_l+0x380>
   8e184:	54ffd9c0 	b.eq	8dcbc <_strtod_l+0x4c4>  // b.none
   8e188:	4b0003e0 	neg	w0, w0
   8e18c:	72000c02 	ands	w2, w0, #0xf
   8e190:	540000e0 	b.eq	8e1ac <_strtod_l+0x9b4>  // b.none
   8e194:	f0000021 	adrp	x1, 95000 <BitFont+0x934>
   8e198:	912c4021 	add	x1, x1, #0xb10
   8e19c:	9e670261 	fmov	d1, x19
   8e1a0:	fc62d820 	ldr	d0, [x1, w2, sxtw #3]
   8e1a4:	1e601820 	fdiv	d0, d1, d0
   8e1a8:	9e660013 	fmov	x19, d0
   8e1ac:	13047c00 	asr	w0, w0, #4
   8e1b0:	34ffd860 	cbz	w0, 8dcbc <_strtod_l+0x4c4>
   8e1b4:	71007c1f 	cmp	w0, #0x1f
   8e1b8:	5400046c 	b.gt	8e244 <_strtod_l+0xa4c>
   8e1bc:	52800d42 	mov	w2, #0x6a                  	// #106
   8e1c0:	721c001a 	ands	w26, w0, #0x10
   8e1c4:	f0000021 	adrp	x1, 95000 <BitFont+0x934>
   8e1c8:	9122e021 	add	x1, x1, #0x8b8
   8e1cc:	1a82035a 	csel	w26, w26, w2, eq  // eq = none
   8e1d0:	9e670260 	fmov	d0, x19
   8e1d4:	52800002 	mov	w2, #0x0                   	// #0
   8e1d8:	36000080 	tbz	w0, #0, 8e1e8 <_strtod_l+0x9f0>
   8e1dc:	fd400021 	ldr	d1, [x1]
   8e1e0:	52800022 	mov	w2, #0x1                   	// #1
   8e1e4:	1e610800 	fmul	d0, d0, d1
   8e1e8:	13017c00 	asr	w0, w0, #1
   8e1ec:	91002021 	add	x1, x1, #0x8
   8e1f0:	35ffff40 	cbnz	w0, 8e1d8 <_strtod_l+0x9e0>
   8e1f4:	9e660000 	fmov	x0, d0
   8e1f8:	7100005f 	cmp	w2, #0x0
   8e1fc:	9a800273 	csel	x19, x19, x0, eq  // eq = none
   8e200:	340001da 	cbz	w26, 8e238 <_strtod_l+0xa40>
   8e204:	d360fe64 	lsr	x4, x19, #32
   8e208:	52800d60 	mov	w0, #0x6b                  	// #107
   8e20c:	53147881 	ubfx	w1, w4, #20, #11
   8e210:	4b010000 	sub	w0, w0, w1
   8e214:	7100001f 	cmp	w0, #0x0
   8e218:	5400010d 	b.le	8e238 <_strtod_l+0xa40>
   8e21c:	71007c1f 	cmp	w0, #0x1f
   8e220:	5400320d 	b.le	8e860 <_strtod_l+0x1068>
   8e224:	92607e73 	and	x19, x19, #0xffffffff00000000
   8e228:	7100d01f 	cmp	w0, #0x34
   8e22c:	5400324d 	b.le	8e874 <_strtod_l+0x107c>
   8e230:	d2a06e00 	mov	x0, #0x3700000             	// #57671680
   8e234:	b3607c13 	bfi	x19, x0, #32, #32
   8e238:	9e670260 	fmov	d0, x19
   8e23c:	1e602008 	fcmp	d0, #0.0
   8e240:	54ffd401 	b.ne	8dcc0 <_strtod_l+0x4c8>  // b.any
   8e244:	52800440 	mov	w0, #0x22                  	// #34
   8e248:	2f00e400 	movi	d0, #0x0
   8e24c:	b9000280 	str	w0, [x20]
   8e250:	17fffde6 	b	8d9e8 <_strtod_l+0x1f0>
   8e254:	1e6e1001 	fmov	d1, #1.000000000000000000e+00
   8e258:	1e612010 	fcmpe	d0, d1
   8e25c:	540018e4 	b.mi	8e578 <_strtod_l+0xd80>  // b.first
   8e260:	1e6c100e 	fmov	d14, #5.000000000000000000e-01
   8e264:	1e6e080e 	fmul	d14, d0, d14
   8e268:	1e6141c1 	fneg	d1, d14
   8e26c:	9e660020 	fmov	x0, d1
   8e270:	17ffff19 	b	8ded4 <_strtod_l+0x6dc>
   8e274:	52a06a00 	mov	w0, #0x3500000             	// #55574528
   8e278:	0b020000 	add	w0, w0, w2
   8e27c:	b3607c13 	bfi	x19, x0, #32, #32
   8e280:	17ffff34 	b	8df50 <_strtod_l+0x758>
   8e284:	1e63000e 	ucvtf	d14, w0
   8e288:	17ffff21 	b	8df0c <_strtod_l+0x714>
   8e28c:	7104d01f 	cmp	w0, #0x134
   8e290:	540011ec 	b.gt	8e4cc <_strtod_l+0xcd4>
   8e294:	13047c00 	asr	w0, w0, #4
   8e298:	7100041f 	cmp	w0, #0x1
   8e29c:	5400294d 	b.le	8e7c4 <_strtod_l+0xfcc>
   8e2a0:	f0000024 	adrp	x4, 95000 <BitFont+0x934>
   8e2a4:	912b8084 	add	x4, x4, #0xae0
   8e2a8:	9e670260 	fmov	d0, x19
   8e2ac:	d2800021 	mov	x1, #0x1                   	// #1
   8e2b0:	52800008 	mov	w8, #0x0                   	// #0
   8e2b4:	d503201f 	nop
   8e2b8:	36000080 	tbz	w0, #0, 8e2c8 <_strtod_l+0xad0>
   8e2bc:	fc617881 	ldr	d1, [x4, x1, lsl #3]
   8e2c0:	52800028 	mov	w8, #0x1                   	// #1
   8e2c4:	1e610800 	fmul	d0, d0, d1
   8e2c8:	13017c00 	asr	w0, w0, #1
   8e2cc:	2a0103e2 	mov	w2, w1
   8e2d0:	7100041f 	cmp	w0, #0x1
   8e2d4:	91000421 	add	x1, x1, #0x1
   8e2d8:	54ffff01 	b.ne	8e2b8 <_strtod_l+0xac0>  // b.any
   8e2dc:	9e660000 	fmov	x0, d0
   8e2e0:	7100011f 	cmp	w8, #0x0
   8e2e4:	9a800273 	csel	x19, x19, x0, eq  // eq = none
   8e2e8:	f0000020 	adrp	x0, 95000 <BitFont+0x934>
   8e2ec:	912ba000 	add	x0, x0, #0xae8
   8e2f0:	d360fe61 	lsr	x1, x19, #32
   8e2f4:	52bf9604 	mov	w4, #0xfcb00000            	// #-55574528
   8e2f8:	0b040021 	add	w1, w1, w4
   8e2fc:	52af9404 	mov	w4, #0x7ca00000            	// #2090860544
   8e300:	fc62d800 	ldr	d0, [x0, w2, sxtw #3]
   8e304:	b3607c33 	bfi	x19, x1, #32, #32
   8e308:	9e670261 	fmov	d1, x19
   8e30c:	1e610800 	fmul	d0, d0, d1
   8e310:	9e660013 	fmov	x19, d0
   8e314:	d360fe61 	lsr	x1, x19, #32
   8e318:	120c2820 	and	w0, w1, #0x7ff00000
   8e31c:	6b04001f 	cmp	w0, w4
   8e320:	54000d68 	b.hi	8e4cc <_strtod_l+0xcd4>  // b.pmore
   8e324:	52af9202 	mov	w2, #0x7c900000            	// #2089811968
   8e328:	6b02001f 	cmp	w0, w2
   8e32c:	54002149 	b.ls	8e754 <_strtod_l+0xf5c>  // b.plast
   8e330:	92f00213 	mov	x19, #0x7fefffffffffffff    	// #9218868437227405311
   8e334:	5280001a 	mov	w26, #0x0                   	// #0
   8e338:	17fffe62 	b	8dcc0 <_strtod_l+0x4c8>
   8e33c:	f9406fea 	ldr	x10, [sp, #216]
   8e340:	5100c2a5 	sub	w5, w21, #0x30
   8e344:	91000541 	add	x1, x10, #0x1
   8e348:	f9006fe1 	str	x1, [sp, #216]
   8e34c:	39400555 	ldrb	w21, [x10, #1]
   8e350:	5100c2a1 	sub	w1, w21, #0x30
   8e354:	7100243f 	cmp	w1, #0x9
   8e358:	54000208 	b.hi	8e398 <_strtod_l+0xba0>  // b.pmore
   8e35c:	91000941 	add	x1, x10, #0x2
   8e360:	0b0508a5 	add	w5, w5, w5, lsl #2
   8e364:	f9006fe1 	str	x1, [sp, #216]
   8e368:	aa0103e8 	mov	x8, x1
   8e36c:	0b0506a5 	add	w5, w21, w5, lsl #1
   8e370:	38401435 	ldrb	w21, [x1], #1
   8e374:	5100c0a5 	sub	w5, w5, #0x30
   8e378:	5100c2a2 	sub	w2, w21, #0x30
   8e37c:	7100245f 	cmp	w2, #0x9
   8e380:	54ffff09 	b.ls	8e360 <_strtod_l+0xb68>  // b.plast
   8e384:	cb0a0108 	sub	x8, x8, x10
   8e388:	5289c3e1 	mov	w1, #0x4e1f                	// #19999
   8e38c:	f100211f 	cmp	x8, #0x8
   8e390:	7a41d0a0 	ccmp	w5, w1, #0x0, le
   8e394:	1a81d0a5 	csel	w5, w5, w1, le
   8e398:	7100013f 	cmp	w9, #0x0
   8e39c:	5a8504a5 	cneg	w5, w5, ne  // ne = any
   8e3a0:	17fffdf6 	b	8db78 <_strtod_l+0x380>
   8e3a4:	aa0803e2 	mov	x2, x8
   8e3a8:	aa1903e0 	mov	x0, x25
   8e3ac:	f90057e8 	str	x8, [sp, #168]
   8e3b0:	97fffc4b 	bl	8d4dc <strncmp>
   8e3b4:	2a0003e4 	mov	w4, w0
   8e3b8:	f94057e8 	ldr	x8, [sp, #168]
   8e3bc:	350026e0 	cbnz	w0, 8e898 <_strtod_l+0x10a0>
   8e3c0:	f9406fe0 	ldr	x0, [sp, #216]
   8e3c4:	52800022 	mov	w2, #0x1                   	// #1
   8e3c8:	8b080001 	add	x1, x0, x8
   8e3cc:	f9006fe1 	str	x1, [sp, #216]
   8e3d0:	4b010042 	sub	w2, w2, w1
   8e3d4:	38686815 	ldrb	w21, [x0, x8]
   8e3d8:	52800000 	mov	w0, #0x0                   	// #0
   8e3dc:	7100c2bf 	cmp	w21, #0x30
   8e3e0:	54000101 	b.ne	8e400 <_strtod_l+0xc08>  // b.any
   8e3e4:	d503201f 	nop
   8e3e8:	0b010040 	add	w0, w2, w1
   8e3ec:	91000421 	add	x1, x1, #0x1
   8e3f0:	f9006fe1 	str	x1, [sp, #216]
   8e3f4:	39400035 	ldrb	w21, [x1]
   8e3f8:	7100c2bf 	cmp	w21, #0x30
   8e3fc:	54ffff60 	b.eq	8e3e8 <_strtod_l+0xbf0>  // b.none
   8e400:	5100c6a1 	sub	w1, w21, #0x31
   8e404:	7100203f 	cmp	w1, #0x8
   8e408:	54ffb0a8 	b.hi	8da1c <_strtod_l+0x224>  // b.pmore
   8e40c:	f9406fe9 	ldr	x9, [sp, #216]
   8e410:	5100c2b5 	sub	w21, w21, #0x30
   8e414:	11000406 	add	w6, w0, #0x1
   8e418:	52800038 	mov	w24, #0x1                   	// #1
   8e41c:	aa0903f9 	mov	x25, x9
   8e420:	5280001a 	mov	w26, #0x0                   	// #0
   8e424:	5280001b 	mov	w27, #0x0                   	// #0
   8e428:	0b1b0b7b 	add	w27, w27, w27, lsl #2
   8e42c:	52800000 	mov	w0, #0x0                   	// #0
   8e430:	0b1b06bb 	add	w27, w21, w27, lsl #1
   8e434:	17fffe0f 	b	8dc70 <_strtod_l+0x478>
   8e438:	1e7801c0 	fcvtzs	w0, d14
   8e43c:	1e620000 	scvtf	d0, w0
   8e440:	1e6039ce 	fsub	d14, d14, d0
   8e444:	3500039b 	cbnz	w27, 8e4b4 <_strtod_l+0xcbc>
   8e448:	f240ce7f 	tst	x19, #0xfffffffffffff
   8e44c:	54000341 	b.ne	8e4b4 <_strtod_l+0xcbc>  // b.any
   8e450:	1e6d21d0 	fcmpe	d14, d13
   8e454:	54ffd865 	b.pl	8df60 <_strtod_l+0x768>  // b.nfrst
   8e458:	f94073e0 	ldr	x0, [sp, #224]
   8e45c:	17fffefa 	b	8e044 <_strtod_l+0x84c>
   8e460:	52800009 	mov	w9, #0x0                   	// #0
   8e464:	17fffdb3 	b	8db30 <_strtod_l+0x338>
   8e468:	aa0303e6 	mov	x6, x3
   8e46c:	f0000022 	adrp	x2, 95000 <BitFont+0x934>
   8e470:	2a1603e5 	mov	w5, w22
   8e474:	91222042 	add	x2, x2, #0x888
   8e478:	910383e4 	add	x4, sp, #0xe0
   8e47c:	910353e3 	add	x3, sp, #0xd4
   8e480:	910363e1 	add	x1, sp, #0xd8
   8e484:	aa1403e0 	mov	x0, x20
   8e488:	94000424 	bl	8f518 <__gethex>
   8e48c:	2a0003f5 	mov	w21, w0
   8e490:	72000818 	ands	w24, w0, #0x7
   8e494:	54ffbd00 	b.eq	8dc34 <_strtod_l+0x43c>  // b.none
   8e498:	71001b1f 	cmp	w24, #0x6
   8e49c:	540007a1 	b.ne	8e590 <_strtod_l+0xd98>  // b.any
   8e4a0:	91000727 	add	x7, x25, #0x1
   8e4a4:	2f00e400 	movi	d0, #0x0
   8e4a8:	b4ffaad7 	cbz	x23, 8da00 <_strtod_l+0x208>
   8e4ac:	f90002e7 	str	x7, [x23]
   8e4b0:	17fffd54 	b	8da00 <_strtod_l+0x208>
   8e4b4:	1e6c21d0 	fcmpe	d14, d12
   8e4b8:	54fffd04 	b.mi	8e458 <_strtod_l+0xc60>  // b.first
   8e4bc:	1e6b21d0 	fcmpe	d14, d11
   8e4c0:	54ffd50d 	b.le	8df60 <_strtod_l+0x768>
   8e4c4:	f94073e0 	ldr	x0, [sp, #224]
   8e4c8:	17fffedf 	b	8e044 <_strtod_l+0x84c>
   8e4cc:	52800441 	mov	w1, #0x22                  	// #34
   8e4d0:	d2effe00 	mov	x0, #0x7ff0000000000000    	// #9218868437227405312
   8e4d4:	9e670000 	fmov	d0, x0
   8e4d8:	b9000281 	str	w1, [x20]
   8e4dc:	17fffd43 	b	8d9e8 <_strtod_l+0x1f0>
   8e4e0:	0b0000c6 	add	w6, w6, w0
   8e4e4:	7100041f 	cmp	w0, #0x1
   8e4e8:	11000701 	add	w1, w24, #0x1
   8e4ec:	54001d00 	b.eq	8e88c <_strtod_l+0x1094>  // b.none
   8e4f0:	0b180000 	add	w0, w0, w24
   8e4f4:	51000408 	sub	w8, w0, #0x1
   8e4f8:	14000005 	b	8e50c <_strtod_l+0xd14>
   8e4fc:	531f78bb 	lsl	w27, w5, #1
   8e500:	6b02011f 	cmp	w8, w2
   8e504:	2a0203f8 	mov	w24, w2
   8e508:	54000140 	b.eq	8e530 <_strtod_l+0xd38>  // b.none
   8e50c:	0b1a0b41 	add	w1, w26, w26, lsl #2
   8e510:	11000702 	add	w2, w24, #0x1
   8e514:	0b1b0b65 	add	w5, w27, w27, lsl #2
   8e518:	7100231f 	cmp	w24, #0x8
   8e51c:	531f7821 	lsl	w1, w1, #1
   8e520:	54fffeed 	b.le	8e4fc <_strtod_l+0xd04>
   8e524:	7100445f 	cmp	w2, #0x11
   8e528:	1a9ab03a 	csel	w26, w1, w26, lt  // lt = tstop
   8e52c:	17fffff5 	b	8e500 <_strtod_l+0xd08>
   8e530:	2a0003f8 	mov	w24, w0
   8e534:	7100211f 	cmp	w8, #0x8
   8e538:	54fff78d 	b.le	8e428 <_strtod_l+0xc30>
   8e53c:	0b1a0b41 	add	w1, w26, w26, lsl #2
   8e540:	7100471f 	cmp	w24, #0x11
   8e544:	52800000 	mov	w0, #0x0                   	// #0
   8e548:	0b010463 	add	w3, w3, w1, lsl #1
   8e54c:	1a9ab07a 	csel	w26, w3, w26, lt  // lt = tstop
   8e550:	17fffdc8 	b	8dc70 <_strtod_l+0x478>
   8e554:	3100583f 	cmn	w1, #0x16
   8e558:	54ffb94b 	b.lt	8dc80 <_strtod_l+0x488>  // b.tstop
   8e55c:	4b0500c5 	sub	w5, w6, w5
   8e560:	f0000020 	adrp	x0, 95000 <BitFont+0x934>
   8e564:	912c4000 	add	x0, x0, #0xb10
   8e568:	9e670260 	fmov	d0, x19
   8e56c:	fc65d801 	ldr	d1, [x0, w5, sxtw #3]
   8e570:	1e611800 	fdiv	d0, d0, d1
   8e574:	17fffd1d 	b	8d9e8 <_strtod_l+0x1f0>
   8e578:	1e7c1001 	fmov	d1, #-5.000000000000000000e-01
   8e57c:	1e6c100e 	fmov	d14, #5.000000000000000000e-01
   8e580:	9e660020 	fmov	x0, d1
   8e584:	17fffe54 	b	8ded4 <_strtod_l+0x6dc>
   8e588:	52800005 	mov	w5, #0x0                   	// #0
   8e58c:	17fffd7b 	b	8db78 <_strtod_l+0x380>
   8e590:	f94073e2 	ldr	x2, [sp, #224]
   8e594:	b40000e2 	cbz	x2, 8e5b0 <_strtod_l+0xdb8>
   8e598:	528006a1 	mov	w1, #0x35                  	// #53
   8e59c:	9103a3e0 	add	x0, sp, #0xe8
   8e5a0:	94000a92 	bl	90fe8 <__copybits>
   8e5a4:	f94073e1 	ldr	x1, [sp, #224]
   8e5a8:	aa1403e0 	mov	x0, x20
   8e5ac:	9400076f 	bl	90368 <_Bfree>
   8e5b0:	71000f1f 	cmp	w24, #0x3
   8e5b4:	54000e40 	b.eq	8e77c <_strtod_l+0xf84>  // b.none
   8e5b8:	5400018c 	b.gt	8e5e8 <_strtod_l+0xdf0>
   8e5bc:	7100071f 	cmp	w24, #0x1
   8e5c0:	540001c0 	b.eq	8e5f8 <_strtod_l+0xe00>  // b.none
   8e5c4:	f94077f3 	ldr	x19, [sp, #232]
   8e5c8:	71000b1f 	cmp	w24, #0x2
   8e5cc:	9a9f0273 	csel	x19, x19, xzr, eq  // eq = none
   8e5d0:	361fb035 	tbz	w21, #3, 8dbd4 <_strtod_l+0x3dc>
   8e5d4:	d360fe60 	lsr	x0, x19, #32
   8e5d8:	32010000 	orr	w0, w0, #0x80000000
   8e5dc:	b3607c13 	bfi	x19, x0, #32, #32
   8e5e0:	9e670260 	fmov	d0, x19
   8e5e4:	17fffd01 	b	8d9e8 <_strtod_l+0x1f0>
   8e5e8:	7100131f 	cmp	w24, #0x4
   8e5ec:	54000ce0 	b.eq	8e788 <_strtod_l+0xf90>  // b.none
   8e5f0:	7100171f 	cmp	w24, #0x5
   8e5f4:	54fffee1 	b.ne	8e5d0 <_strtod_l+0xdd8>  // b.any
   8e5f8:	295d07e2 	ldp	w2, w1, [sp, #232]
   8e5fc:	b940d7e0 	ldr	w0, [sp, #212]
   8e600:	120b7821 	and	w1, w1, #0xffefffff
   8e604:	1110cc00 	add	w0, w0, #0x433
   8e608:	b3407c53 	bfxil	x19, x2, #0, #32
   8e60c:	2a005020 	orr	w0, w1, w0, lsl #20
   8e610:	b3607c13 	bfi	x19, x0, #32, #32
   8e614:	17ffffef 	b	8e5d0 <_strtod_l+0xdd8>
   8e618:	b940abe1 	ldr	w1, [sp, #168]
   8e61c:	f0000020 	adrp	x0, 95000 <BitFont+0x934>
   8e620:	912c4000 	add	x0, x0, #0xb10
   8e624:	9e670261 	fmov	d1, x19
   8e628:	fc61d800 	ldr	d0, [x0, w1, sxtw #3]
   8e62c:	1e610800 	fmul	d0, d0, d1
   8e630:	17fffcee 	b	8d9e8 <_strtod_l+0x1f0>
   8e634:	3500033b 	cbnz	w27, 8e698 <_strtod_l+0xea0>
   8e638:	9e660120 	fmov	x0, d9
   8e63c:	f240cc1f 	tst	x0, #0xfffffffffffff
   8e640:	540002c1 	b.ne	8e698 <_strtod_l+0xea0>  // b.any
   8e644:	d360fe64 	lsr	x4, x19, #32
   8e648:	52a0d600 	mov	w0, #0x6b00000             	// #112197632
   8e64c:	120c2881 	and	w1, w4, #0x7ff00000
   8e650:	6b00003f 	cmp	w1, w0
   8e654:	54000229 	b.ls	8e698 <_strtod_l+0xea0>  // b.plast
   8e658:	b9401b20 	ldr	w0, [x25, #24]
   8e65c:	35000080 	cbnz	w0, 8e66c <_strtod_l+0xe74>
   8e660:	b9401720 	ldr	w0, [x25, #20]
   8e664:	7100041f 	cmp	w0, #0x1
   8e668:	5400018d 	b.le	8e698 <_strtod_l+0xea0>
   8e66c:	52800022 	mov	w2, #0x1                   	// #1
   8e670:	aa1903e1 	mov	x1, x25
   8e674:	aa1403e0 	mov	x0, x20
   8e678:	f90053e4 	str	x4, [sp, #160]
   8e67c:	940008cd 	bl	909b0 <__lshift>
   8e680:	aa0003f9 	mov	x25, x0
   8e684:	aa1503e1 	mov	x1, x21
   8e688:	94000916 	bl	90ae0 <__mcmp>
   8e68c:	7100001f 	cmp	w0, #0x0
   8e690:	f94053e4 	ldr	x4, [sp, #160]
   8e694:	540001ec 	b.gt	8e6d0 <_strtod_l+0xed8>
   8e698:	f94073e0 	ldr	x0, [sp, #224]
   8e69c:	34ffcd5a 	cbz	w26, 8e044 <_strtod_l+0x84c>
   8e6a0:	d2e72a01 	mov	x1, #0x3950000000000000    	// #4129800858298744832
   8e6a4:	9e670020 	fmov	d0, x1
   8e6a8:	1e600920 	fmul	d0, d9, d0
   8e6ac:	9e660013 	fmov	x19, d0
   8e6b0:	b5ffccb3 	cbnz	x19, 8e044 <_strtod_l+0x84c>
   8e6b4:	52800441 	mov	w1, #0x22                  	// #34
   8e6b8:	b9000281 	str	w1, [x20]
   8e6bc:	17fffe62 	b	8e044 <_strtod_l+0x84c>
   8e6c0:	9e660120 	fmov	x0, d9
   8e6c4:	f240cc1f 	tst	x0, #0xfffffffffffff
   8e6c8:	540002c1 	b.ne	8e720 <_strtod_l+0xf28>  // b.any
   8e6cc:	d360fe64 	lsr	x4, x19, #32
   8e6d0:	f94073e0 	ldr	x0, [sp, #224]
   8e6d4:	120c2884 	and	w4, w4, #0x7ff00000
   8e6d8:	aa0003e1 	mov	x1, x0
   8e6dc:	34000b7a 	cbz	w26, 8e848 <_strtod_l+0x1050>
   8e6e0:	52a0d602 	mov	w2, #0x6b00000             	// #112197632
   8e6e4:	6b02009f 	cmp	w4, w2
   8e6e8:	54000b0c 	b.gt	8e848 <_strtod_l+0x1050>
   8e6ec:	52a06e02 	mov	w2, #0x3700000             	// #57671680
   8e6f0:	6b02009f 	cmp	w4, w2
   8e6f4:	54fffd6c 	b.gt	8e6a0 <_strtod_l+0xea8>
   8e6f8:	aa0103e0 	mov	x0, x1
   8e6fc:	d2800013 	mov	x19, #0x0                   	// #0
   8e700:	52800441 	mov	w1, #0x22                  	// #34
   8e704:	b9000281 	str	w1, [x20]
   8e708:	17fffe4f 	b	8e044 <_strtod_l+0x84c>
   8e70c:	34fffdbb 	cbz	w27, 8e6c0 <_strtod_l+0xec8>
   8e710:	d360fe61 	lsr	x1, x19, #32
   8e714:	aa2103e0 	mvn	x0, x1
   8e718:	f2404c1f 	tst	x0, #0xfffff
   8e71c:	540006a0 	b.eq	8e7f0 <_strtod_l+0xff8>  // b.none
   8e720:	b940c3e1 	ldr	w1, [sp, #192]
   8e724:	34000221 	cbz	w1, 8e768 <_strtod_l+0xf70>
   8e728:	d360fe60 	lsr	x0, x19, #32
   8e72c:	6a00003f 	tst	w1, w0
   8e730:	54fffb40 	b.eq	8e698 <_strtod_l+0xea0>  // b.none
   8e734:	340004db 	cbz	w27, 8e7cc <_strtod_l+0xfd4>
   8e738:	aa1303e0 	mov	x0, x19
   8e73c:	2a1a03e1 	mov	w1, w26
   8e740:	97fffc18 	bl	8d7a0 <sulp>
   8e744:	1e602929 	fadd	d9, d9, d0
   8e748:	f94073e0 	ldr	x0, [sp, #224]
   8e74c:	9e660133 	fmov	x19, d9
   8e750:	17ffffd3 	b	8e69c <_strtod_l+0xea4>
   8e754:	52a06a00 	mov	w0, #0x3500000             	// #55574528
   8e758:	0b010001 	add	w1, w0, w1
   8e75c:	5280001a 	mov	w26, #0x0                   	// #0
   8e760:	b3607c33 	bfi	x19, x1, #32, #32
   8e764:	17fffd57 	b	8dcc0 <_strtod_l+0x4c8>
   8e768:	b940bfe0 	ldr	w0, [sp, #188]
   8e76c:	6a13001f 	tst	w0, w19
   8e770:	54fffe21 	b.ne	8e734 <_strtod_l+0xf3c>  // b.any
   8e774:	f94073e0 	ldr	x0, [sp, #224]
   8e778:	17ffffc9 	b	8e69c <_strtod_l+0xea4>
   8e77c:	d2affe00 	mov	x0, #0x7ff00000            	// #2146435072
   8e780:	b3607c13 	bfi	x19, x0, #32, #32
   8e784:	17ffff93 	b	8e5d0 <_strtod_l+0xdd8>
   8e788:	92f00013 	mov	x19, #0x7fffffffffffffff    	// #9223372036854775807
   8e78c:	17ffff91 	b	8e5d0 <_strtod_l+0xdd8>
   8e790:	910363e0 	add	x0, sp, #0xd8
   8e794:	f0000021 	adrp	x1, 95000 <BitFont+0x934>
   8e798:	9103a3e2 	add	x2, sp, #0xe8
   8e79c:	91228021 	add	x1, x1, #0x8a0
   8e7a0:	9400055e 	bl	8fd18 <__hexnan>
   8e7a4:	7100141f 	cmp	w0, #0x5
   8e7a8:	54ffa121 	b.ne	8dbcc <_strtod_l+0x3d4>  // b.any
   8e7ac:	295d03e1 	ldp	w1, w0, [sp, #232]
   8e7b0:	320c2800 	orr	w0, w0, #0x7ff00000
   8e7b4:	b3607c13 	bfi	x19, x0, #32, #32
   8e7b8:	b3407c33 	bfxil	x19, x1, #0, #32
   8e7bc:	9e670260 	fmov	d0, x19
   8e7c0:	17fffc8a 	b	8d9e8 <_strtod_l+0x1f0>
   8e7c4:	52800002 	mov	w2, #0x0                   	// #0
   8e7c8:	17fffec8 	b	8e2e8 <_strtod_l+0xaf0>
   8e7cc:	aa1303e0 	mov	x0, x19
   8e7d0:	2a1a03e1 	mov	w1, w26
   8e7d4:	97fffbf3 	bl	8d7a0 <sulp>
   8e7d8:	1e603929 	fsub	d9, d9, d0
   8e7dc:	1e602128 	fcmp	d9, #0.0
   8e7e0:	9e660133 	fmov	x19, d9
   8e7e4:	54fff5a1 	b.ne	8e698 <_strtod_l+0xea0>  // b.any
   8e7e8:	f94073e1 	ldr	x1, [sp, #224]
   8e7ec:	17ffffc3 	b	8e6f8 <_strtod_l+0xf00>
   8e7f0:	2a1303e3 	mov	w3, w19
   8e7f4:	12800002 	mov	w2, #0xffffffff            	// #-1
   8e7f8:	3400011a 	cbz	w26, 8e818 <_strtod_l+0x1020>
   8e7fc:	120c2820 	and	w0, w1, #0x7ff00000
   8e800:	52800d64 	mov	w4, #0x6b                  	// #107
   8e804:	52a0d405 	mov	w5, #0x6a00000             	// #111149056
   8e808:	6b05001f 	cmp	w0, w5
   8e80c:	4b405080 	sub	w0, w4, w0, lsr #20
   8e810:	1ac02040 	lsl	w0, w2, w0
   8e814:	1a829002 	csel	w2, w0, w2, ls  // ls = plast
   8e818:	6b02007f 	cmp	w3, w2
   8e81c:	54fff821 	b.ne	8e720 <_strtod_l+0xf28>  // b.any
   8e820:	9e660122 	fmov	x2, d9
   8e824:	92f00200 	mov	x0, #0x7fefffffffffffff    	// #9218868437227405311
   8e828:	eb00005f 	cmp	x2, x0
   8e82c:	f94073e0 	ldr	x0, [sp, #224]
   8e830:	54ffc040 	b.eq	8e038 <_strtod_l+0x840>  // b.none
   8e834:	120c2833 	and	w19, w1, #0x7ff00000
   8e838:	11440273 	add	w19, w19, #0x100, lsl #12
   8e83c:	d3607e73 	lsl	x19, x19, #32
   8e840:	9e670269 	fmov	d9, x19
   8e844:	17ffff96 	b	8e69c <_strtod_l+0xea4>
   8e848:	51440084 	sub	w4, w4, #0x100, lsl #12
   8e84c:	32004c81 	orr	w1, w4, #0xfffff
   8e850:	b3607c33 	bfi	x19, x1, #32, #32
   8e854:	b2407e73 	orr	x19, x19, #0xffffffff
   8e858:	9e670269 	fmov	d9, x19
   8e85c:	17ffff90 	b	8e69c <_strtod_l+0xea4>
   8e860:	12800001 	mov	w1, #0xffffffff            	// #-1
   8e864:	1ac02020 	lsl	w0, w1, w0
   8e868:	0a130000 	and	w0, w0, w19
   8e86c:	b3407c13 	bfxil	x19, x0, #0, #32
   8e870:	17fffe72 	b	8e238 <_strtod_l+0xa40>
   8e874:	51008000 	sub	w0, w0, #0x20
   8e878:	12800001 	mov	w1, #0xffffffff            	// #-1
   8e87c:	1ac02020 	lsl	w0, w1, w0
   8e880:	0a040004 	and	w4, w0, w4
   8e884:	b3607c93 	bfi	x19, x4, #32, #32
   8e888:	17fffe6c 	b	8e238 <_strtod_l+0xa40>
   8e88c:	2a1803e8 	mov	w8, w24
   8e890:	2a0103f8 	mov	w24, w1
   8e894:	17ffff28 	b	8e534 <_strtod_l+0xd3c>
   8e898:	52800004 	mov	w4, #0x0                   	// #0
   8e89c:	5280001a 	mov	w26, #0x0                   	// #0
   8e8a0:	5280001b 	mov	w27, #0x0                   	// #0
   8e8a4:	52800000 	mov	w0, #0x0                   	// #0
   8e8a8:	52800006 	mov	w6, #0x0                   	// #0
   8e8ac:	52800018 	mov	w24, #0x0                   	// #0
   8e8b0:	52800003 	mov	w3, #0x0                   	// #0
   8e8b4:	17fffc5f 	b	8da30 <_strtod_l+0x238>
   8e8b8:	2a1803e3 	mov	w3, w24
   8e8bc:	2a0403f8 	mov	w24, w4
   8e8c0:	17fffc1d 	b	8d934 <_strtod_l+0x13c>
   8e8c4:	00000000 	.inst	0x00000000 ; undefined

000000000008e8c8 <strtod>:
   8e8c8:	f0000024 	adrp	x4, 95000 <BitFont+0x934>
   8e8cc:	aa0103e2 	mov	x2, x1
   8e8d0:	aa0003e1 	mov	x1, x0
   8e8d4:	f0000023 	adrp	x3, 95000 <BitFont+0x934>
   8e8d8:	f9473084 	ldr	x4, [x4, #3680]
   8e8dc:	91328063 	add	x3, x3, #0xca0
   8e8e0:	aa0403e0 	mov	x0, x4
   8e8e4:	f9402484 	ldr	x4, [x4, #72]
   8e8e8:	f100009f 	cmp	x4, #0x0
   8e8ec:	9a840063 	csel	x3, x3, x4, eq  // eq = none
   8e8f0:	17fffbc2 	b	8d7f8 <_strtod_l>
   8e8f4:	00000000 	.inst	0x00000000 ; undefined

000000000008e8f8 <strtof>:
   8e8f8:	a9be7bfd 	stp	x29, x30, [sp, #-32]!
   8e8fc:	aa0103e2 	mov	x2, x1
   8e900:	aa0003e1 	mov	x1, x0
   8e904:	910003fd 	mov	x29, sp
   8e908:	f9000bf3 	str	x19, [sp, #16]
   8e90c:	f0000033 	adrp	x19, 95000 <BitFont+0x934>
   8e910:	f0000023 	adrp	x3, 95000 <BitFont+0x934>
   8e914:	91328063 	add	x3, x3, #0xca0
   8e918:	f9473264 	ldr	x4, [x19, #3680]
   8e91c:	aa0403e0 	mov	x0, x4
   8e920:	f9402484 	ldr	x4, [x4, #72]
   8e924:	f100009f 	cmp	x4, #0x0
   8e928:	9a840063 	csel	x3, x3, x4, eq  // eq = none
   8e92c:	97fffbb3 	bl	8d7f8 <_strtod_l>
   8e930:	1e602000 	fcmp	d0, d0
   8e934:	54000266 	b.vs	8e980 <strtof+0x88>
   8e938:	1e624002 	fcvt	s2, d0
   8e93c:	12b01000 	mov	w0, #0x7f7fffff            	// #2139095039
   8e940:	1e270001 	fmov	s1, w0
   8e944:	1e20c043 	fabs	s3, s2
   8e948:	1e212060 	fcmp	s3, s1
   8e94c:	5400012d 	b.le	8e970 <strtof+0x78>
   8e950:	1e60c001 	fabs	d1, d0
   8e954:	92f00200 	mov	x0, #0x7fefffffffffffff    	// #9218868437227405311
   8e958:	9e670000 	fmov	d0, x0
   8e95c:	1e602020 	fcmp	d1, d0
   8e960:	5400008c 	b.gt	8e970 <strtof+0x78>
   8e964:	f9473260 	ldr	x0, [x19, #3680]
   8e968:	52800441 	mov	w1, #0x22                  	// #34
   8e96c:	b9000001 	str	w1, [x0]
   8e970:	1e204040 	fmov	s0, s2
   8e974:	f9400bf3 	ldr	x19, [sp, #16]
   8e978:	a8c27bfd 	ldp	x29, x30, [sp], #32
   8e97c:	d65f03c0 	ret
   8e980:	f9400bf3 	ldr	x19, [sp, #16]
   8e984:	d2800000 	mov	x0, #0x0                   	// #0
   8e988:	a8c27bfd 	ldp	x29, x30, [sp], #32
   8e98c:	140009d3 	b	910d8 <nanf>

000000000008e990 <_strtol_l.isra.0>:
   8e990:	a9bb7bfd 	stp	x29, x30, [sp, #-80]!
   8e994:	910003fd 	mov	x29, sp
   8e998:	a90153f3 	stp	x19, x20, [sp, #16]
   8e99c:	a9025bf5 	stp	x21, x22, [sp, #32]
   8e9a0:	aa0103f5 	mov	x21, x1
   8e9a4:	aa0203f6 	mov	x22, x2
   8e9a8:	a90363f7 	stp	x23, x24, [sp, #48]
   8e9ac:	aa0003f7 	mov	x23, x0
   8e9b0:	2a0303f8 	mov	w24, w3
   8e9b4:	a9046bf9 	stp	x25, x26, [sp, #64]
   8e9b8:	aa0403fa 	mov	x26, x4
   8e9bc:	aa0103f9 	mov	x25, x1
   8e9c0:	14000002 	b	8e9c8 <_strtol_l.isra.0+0x38>
   8e9c4:	aa1403f9 	mov	x25, x20
   8e9c8:	aa1903f4 	mov	x20, x25
   8e9cc:	aa1a03e0 	mov	x0, x26
   8e9d0:	38401693 	ldrb	w19, [x20], #1
   8e9d4:	97fff92b 	bl	8ce80 <__locale_ctype_ptr_l>
   8e9d8:	8b330000 	add	x0, x0, w19, uxtb
   8e9dc:	39400400 	ldrb	w0, [x0, #1]
   8e9e0:	371fff20 	tbnz	w0, #3, 8e9c4 <_strtol_l.isra.0+0x34>
   8e9e4:	7100b67f 	cmp	w19, #0x2d
   8e9e8:	54000940 	b.eq	8eb10 <_strtol_l.isra.0+0x180>  // b.none
   8e9ec:	7100ae7f 	cmp	w19, #0x2b
   8e9f0:	54000160 	b.eq	8ea1c <_strtol_l.isra.0+0x8c>  // b.none
   8e9f4:	2a1303e2 	mov	w2, w19
   8e9f8:	52800008 	mov	w8, #0x0                   	// #0
   8e9fc:	721b7b1f 	tst	w24, #0xffffffef
   8ea00:	54000181 	b.ne	8ea30 <_strtol_l.isra.0+0xa0>  // b.any
   8ea04:	7100c05f 	cmp	w2, #0x30
   8ea08:	54000900 	b.eq	8eb28 <_strtol_l.isra.0+0x198>  // b.none
   8ea0c:	35000138 	cbnz	w24, 8ea30 <_strtol_l.isra.0+0xa0>
   8ea10:	d2800146 	mov	x6, #0xa                   	// #10
   8ea14:	2a0603f8 	mov	w24, w6
   8ea18:	14000007 	b	8ea34 <_strtol_l.isra.0+0xa4>
   8ea1c:	39400282 	ldrb	w2, [x20]
   8ea20:	52800008 	mov	w8, #0x0                   	// #0
   8ea24:	91000b34 	add	x20, x25, #0x2
   8ea28:	721b7b1f 	tst	w24, #0xffffffef
   8ea2c:	54fffec0 	b.eq	8ea04 <_strtol_l.isra.0+0x74>  // b.none
   8ea30:	93407f06 	sxtw	x6, w24
   8ea34:	7100011f 	cmp	w8, #0x0
   8ea38:	92f00007 	mov	x7, #0x7fffffffffffffff    	// #9223372036854775807
   8ea3c:	da8700e7 	cinv	x7, x7, ne  // ne = any
   8ea40:	52800004 	mov	w4, #0x0                   	// #0
   8ea44:	d2800000 	mov	x0, #0x0                   	// #0
   8ea48:	9ac608e3 	udiv	x3, x7, x6
   8ea4c:	1b069c65 	msub	w5, w3, w6, w7
   8ea50:	5100c041 	sub	w1, w2, #0x30
   8ea54:	7100243f 	cmp	w1, #0x9
   8ea58:	540000a9 	b.ls	8ea6c <_strtol_l.isra.0+0xdc>  // b.plast
   8ea5c:	51010441 	sub	w1, w2, #0x41
   8ea60:	7100643f 	cmp	w1, #0x19
   8ea64:	54000208 	b.hi	8eaa4 <_strtol_l.isra.0+0x114>  // b.pmore
   8ea68:	5100dc41 	sub	w1, w2, #0x37
   8ea6c:	6b01031f 	cmp	w24, w1
   8ea70:	5400028d 	b.le	8eac0 <_strtol_l.isra.0+0x130>
   8ea74:	7100009f 	cmp	w4, #0x0
   8ea78:	12800004 	mov	w4, #0xffffffff            	// #-1
   8ea7c:	fa40a060 	ccmp	x3, x0, #0x0, ge  // ge = tcont
   8ea80:	540000e3 	b.cc	8ea9c <_strtol_l.isra.0+0x10c>  // b.lo, b.ul, b.last
   8ea84:	eb00007f 	cmp	x3, x0
   8ea88:	7a4100a0 	ccmp	w5, w1, #0x0, eq  // eq = none
   8ea8c:	5400008b 	b.lt	8ea9c <_strtol_l.isra.0+0x10c>  // b.tstop
   8ea90:	93407c21 	sxtw	x1, w1
   8ea94:	52800024 	mov	w4, #0x1                   	// #1
   8ea98:	9b060400 	madd	x0, x0, x6, x1
   8ea9c:	38401682 	ldrb	w2, [x20], #1
   8eaa0:	17ffffec 	b	8ea50 <_strtol_l.isra.0+0xc0>
   8eaa4:	51018441 	sub	w1, w2, #0x61
   8eaa8:	7100643f 	cmp	w1, #0x19
   8eaac:	540000a8 	b.hi	8eac0 <_strtol_l.isra.0+0x130>  // b.pmore
   8eab0:	51015c41 	sub	w1, w2, #0x57
   8eab4:	6b01031f 	cmp	w24, w1
   8eab8:	54fffdec 	b.gt	8ea74 <_strtol_l.isra.0+0xe4>
   8eabc:	d503201f 	nop
   8eac0:	3100049f 	cmn	w4, #0x1
   8eac4:	54000180 	b.eq	8eaf4 <_strtol_l.isra.0+0x164>  // b.none
   8eac8:	7100011f 	cmp	w8, #0x0
   8eacc:	da800400 	cneg	x0, x0, ne  // ne = any
   8ead0:	b4000076 	cbz	x22, 8eadc <_strtol_l.isra.0+0x14c>
   8ead4:	35000264 	cbnz	w4, 8eb20 <_strtol_l.isra.0+0x190>
   8ead8:	f90002d5 	str	x21, [x22]
   8eadc:	a94153f3 	ldp	x19, x20, [sp, #16]
   8eae0:	a9425bf5 	ldp	x21, x22, [sp, #32]
   8eae4:	a94363f7 	ldp	x23, x24, [sp, #48]
   8eae8:	a9446bf9 	ldp	x25, x26, [sp, #64]
   8eaec:	a8c57bfd 	ldp	x29, x30, [sp], #80
   8eaf0:	d65f03c0 	ret
   8eaf4:	52800440 	mov	w0, #0x22                  	// #34
   8eaf8:	b90002e0 	str	w0, [x23]
   8eafc:	aa0703e0 	mov	x0, x7
   8eb00:	b4fffef6 	cbz	x22, 8eadc <_strtol_l.isra.0+0x14c>
   8eb04:	d1000695 	sub	x21, x20, #0x1
   8eb08:	aa0703e0 	mov	x0, x7
   8eb0c:	17fffff3 	b	8ead8 <_strtol_l.isra.0+0x148>
   8eb10:	39400282 	ldrb	w2, [x20]
   8eb14:	52800028 	mov	w8, #0x1                   	// #1
   8eb18:	91000b34 	add	x20, x25, #0x2
   8eb1c:	17ffffb8 	b	8e9fc <_strtol_l.isra.0+0x6c>
   8eb20:	aa0003e7 	mov	x7, x0
   8eb24:	17fffff8 	b	8eb04 <_strtol_l.isra.0+0x174>
   8eb28:	39400280 	ldrb	w0, [x20]
   8eb2c:	121a7800 	and	w0, w0, #0xffffffdf
   8eb30:	12001c00 	and	w0, w0, #0xff
   8eb34:	7101601f 	cmp	w0, #0x58
   8eb38:	540000c1 	b.ne	8eb50 <_strtol_l.isra.0+0x1c0>  // b.any
   8eb3c:	39400682 	ldrb	w2, [x20, #1]
   8eb40:	d2800206 	mov	x6, #0x10                  	// #16
   8eb44:	91000a94 	add	x20, x20, #0x2
   8eb48:	2a0603f8 	mov	w24, w6
   8eb4c:	17ffffba 	b	8ea34 <_strtol_l.isra.0+0xa4>
   8eb50:	35fff718 	cbnz	w24, 8ea30 <_strtol_l.isra.0+0xa0>
   8eb54:	d2800106 	mov	x6, #0x8                   	// #8
   8eb58:	2a0603f8 	mov	w24, w6
   8eb5c:	17ffffb6 	b	8ea34 <_strtol_l.isra.0+0xa4>

000000000008eb60 <strtol>:
   8eb60:	f0000025 	adrp	x5, 95000 <BitFont+0x934>
   8eb64:	2a0203e3 	mov	w3, w2
   8eb68:	aa0103e2 	mov	x2, x1
   8eb6c:	aa0003e1 	mov	x1, x0
   8eb70:	f94730a5 	ldr	x5, [x5, #3680]
   8eb74:	f0000024 	adrp	x4, 95000 <BitFont+0x934>
   8eb78:	91328084 	add	x4, x4, #0xca0
   8eb7c:	aa0503e0 	mov	x0, x5
   8eb80:	f94024a5 	ldr	x5, [x5, #72]
   8eb84:	f10000bf 	cmp	x5, #0x0
   8eb88:	9a850084 	csel	x4, x4, x5, eq  // eq = none
   8eb8c:	17ffff81 	b	8e990 <_strtol_l.isra.0>

000000000008eb90 <strtold>:
   8eb90:	a9be7bfd 	stp	x29, x30, [sp, #-32]!
   8eb94:	f0000023 	adrp	x3, 95000 <BitFont+0x934>
   8eb98:	aa0103e2 	mov	x2, x1
   8eb9c:	910003fd 	mov	x29, sp
   8eba0:	f9473066 	ldr	x6, [x3, #3680]
   8eba4:	aa0003e1 	mov	x1, x0
   8eba8:	f0000025 	adrp	x5, 95000 <BitFont+0x934>
   8ebac:	913280a5 	add	x5, x5, #0xca0
   8ebb0:	aa0603e0 	mov	x0, x6
   8ebb4:	910043e4 	add	x4, sp, #0x10
   8ebb8:	f94024c6 	ldr	x6, [x6, #72]
   8ebbc:	52800003 	mov	w3, #0x0                   	// #0
   8ebc0:	f10000df 	cmp	x6, #0x0
   8ebc4:	9a8600a5 	csel	x5, x5, x6, eq  // eq = none
   8ebc8:	940000ac 	bl	8ee78 <_strtorx_l>
   8ebcc:	3dc007e0 	ldr	q0, [sp, #16]
   8ebd0:	a8c27bfd 	ldp	x29, x30, [sp], #32
   8ebd4:	d65f03c0 	ret

000000000008ebd8 <_strtoll_l.isra.0>:
   8ebd8:	a9bb7bfd 	stp	x29, x30, [sp, #-80]!
   8ebdc:	910003fd 	mov	x29, sp
   8ebe0:	a90153f3 	stp	x19, x20, [sp, #16]
   8ebe4:	a9025bf5 	stp	x21, x22, [sp, #32]
   8ebe8:	aa0103f5 	mov	x21, x1
   8ebec:	aa0203f6 	mov	x22, x2
   8ebf0:	a90363f7 	stp	x23, x24, [sp, #48]
   8ebf4:	aa0003f7 	mov	x23, x0
   8ebf8:	2a0303f8 	mov	w24, w3
   8ebfc:	a9046bf9 	stp	x25, x26, [sp, #64]
   8ec00:	aa0403fa 	mov	x26, x4
   8ec04:	aa0103f9 	mov	x25, x1
   8ec08:	14000002 	b	8ec10 <_strtoll_l.isra.0+0x38>
   8ec0c:	aa1403f9 	mov	x25, x20
   8ec10:	aa1903f4 	mov	x20, x25
   8ec14:	aa1a03e0 	mov	x0, x26
   8ec18:	38401693 	ldrb	w19, [x20], #1
   8ec1c:	97fff899 	bl	8ce80 <__locale_ctype_ptr_l>
   8ec20:	8b330000 	add	x0, x0, w19, uxtb
   8ec24:	39400400 	ldrb	w0, [x0, #1]
   8ec28:	371fff20 	tbnz	w0, #3, 8ec0c <_strtoll_l.isra.0+0x34>
   8ec2c:	7100b67f 	cmp	w19, #0x2d
   8ec30:	54000940 	b.eq	8ed58 <_strtoll_l.isra.0+0x180>  // b.none
   8ec34:	7100ae7f 	cmp	w19, #0x2b
   8ec38:	54000160 	b.eq	8ec64 <_strtoll_l.isra.0+0x8c>  // b.none
   8ec3c:	2a1303e2 	mov	w2, w19
   8ec40:	52800008 	mov	w8, #0x0                   	// #0
   8ec44:	721b7b1f 	tst	w24, #0xffffffef
   8ec48:	54000181 	b.ne	8ec78 <_strtoll_l.isra.0+0xa0>  // b.any
   8ec4c:	7100c05f 	cmp	w2, #0x30
   8ec50:	54000900 	b.eq	8ed70 <_strtoll_l.isra.0+0x198>  // b.none
   8ec54:	35000138 	cbnz	w24, 8ec78 <_strtoll_l.isra.0+0xa0>
   8ec58:	d2800146 	mov	x6, #0xa                   	// #10
   8ec5c:	2a0603f8 	mov	w24, w6
   8ec60:	14000007 	b	8ec7c <_strtoll_l.isra.0+0xa4>
   8ec64:	39400282 	ldrb	w2, [x20]
   8ec68:	52800008 	mov	w8, #0x0                   	// #0
   8ec6c:	91000b34 	add	x20, x25, #0x2
   8ec70:	721b7b1f 	tst	w24, #0xffffffef
   8ec74:	54fffec0 	b.eq	8ec4c <_strtoll_l.isra.0+0x74>  // b.none
   8ec78:	93407f06 	sxtw	x6, w24
   8ec7c:	7100011f 	cmp	w8, #0x0
   8ec80:	92f00007 	mov	x7, #0x7fffffffffffffff    	// #9223372036854775807
   8ec84:	da8700e7 	cinv	x7, x7, ne  // ne = any
   8ec88:	52800004 	mov	w4, #0x0                   	// #0
   8ec8c:	d2800000 	mov	x0, #0x0                   	// #0
   8ec90:	9ac608e3 	udiv	x3, x7, x6
   8ec94:	1b069c65 	msub	w5, w3, w6, w7
   8ec98:	5100c041 	sub	w1, w2, #0x30
   8ec9c:	7100243f 	cmp	w1, #0x9
   8eca0:	540000a9 	b.ls	8ecb4 <_strtoll_l.isra.0+0xdc>  // b.plast
   8eca4:	51010441 	sub	w1, w2, #0x41
   8eca8:	7100643f 	cmp	w1, #0x19
   8ecac:	54000208 	b.hi	8ecec <_strtoll_l.isra.0+0x114>  // b.pmore
   8ecb0:	5100dc41 	sub	w1, w2, #0x37
   8ecb4:	6b01031f 	cmp	w24, w1
   8ecb8:	5400028d 	b.le	8ed08 <_strtoll_l.isra.0+0x130>
   8ecbc:	7100009f 	cmp	w4, #0x0
   8ecc0:	12800004 	mov	w4, #0xffffffff            	// #-1
   8ecc4:	fa40a060 	ccmp	x3, x0, #0x0, ge  // ge = tcont
   8ecc8:	540000e3 	b.cc	8ece4 <_strtoll_l.isra.0+0x10c>  // b.lo, b.ul, b.last
   8eccc:	eb00007f 	cmp	x3, x0
   8ecd0:	7a4100a0 	ccmp	w5, w1, #0x0, eq  // eq = none
   8ecd4:	5400008b 	b.lt	8ece4 <_strtoll_l.isra.0+0x10c>  // b.tstop
   8ecd8:	93407c21 	sxtw	x1, w1
   8ecdc:	52800024 	mov	w4, #0x1                   	// #1
   8ece0:	9b060400 	madd	x0, x0, x6, x1
   8ece4:	38401682 	ldrb	w2, [x20], #1
   8ece8:	17ffffec 	b	8ec98 <_strtoll_l.isra.0+0xc0>
   8ecec:	51018441 	sub	w1, w2, #0x61
   8ecf0:	7100643f 	cmp	w1, #0x19
   8ecf4:	540000a8 	b.hi	8ed08 <_strtoll_l.isra.0+0x130>  // b.pmore
   8ecf8:	51015c41 	sub	w1, w2, #0x57
   8ecfc:	6b01031f 	cmp	w24, w1
   8ed00:	54fffdec 	b.gt	8ecbc <_strtoll_l.isra.0+0xe4>
   8ed04:	d503201f 	nop
   8ed08:	3100049f 	cmn	w4, #0x1
   8ed0c:	54000180 	b.eq	8ed3c <_strtoll_l.isra.0+0x164>  // b.none
   8ed10:	7100011f 	cmp	w8, #0x0
   8ed14:	da800400 	cneg	x0, x0, ne  // ne = any
   8ed18:	b4000076 	cbz	x22, 8ed24 <_strtoll_l.isra.0+0x14c>
   8ed1c:	35000264 	cbnz	w4, 8ed68 <_strtoll_l.isra.0+0x190>
   8ed20:	f90002d5 	str	x21, [x22]
   8ed24:	a94153f3 	ldp	x19, x20, [sp, #16]
   8ed28:	a9425bf5 	ldp	x21, x22, [sp, #32]
   8ed2c:	a94363f7 	ldp	x23, x24, [sp, #48]
   8ed30:	a9446bf9 	ldp	x25, x26, [sp, #64]
   8ed34:	a8c57bfd 	ldp	x29, x30, [sp], #80
   8ed38:	d65f03c0 	ret
   8ed3c:	52800440 	mov	w0, #0x22                  	// #34
   8ed40:	b90002e0 	str	w0, [x23]
   8ed44:	aa0703e0 	mov	x0, x7
   8ed48:	b4fffef6 	cbz	x22, 8ed24 <_strtoll_l.isra.0+0x14c>
   8ed4c:	d1000695 	sub	x21, x20, #0x1
   8ed50:	aa0703e0 	mov	x0, x7
   8ed54:	17fffff3 	b	8ed20 <_strtoll_l.isra.0+0x148>
   8ed58:	39400282 	ldrb	w2, [x20]
   8ed5c:	52800028 	mov	w8, #0x1                   	// #1
   8ed60:	91000b34 	add	x20, x25, #0x2
   8ed64:	17ffffb8 	b	8ec44 <_strtoll_l.isra.0+0x6c>
   8ed68:	aa0003e7 	mov	x7, x0
   8ed6c:	17fffff8 	b	8ed4c <_strtoll_l.isra.0+0x174>
   8ed70:	39400280 	ldrb	w0, [x20]
   8ed74:	121a7800 	and	w0, w0, #0xffffffdf
   8ed78:	12001c00 	and	w0, w0, #0xff
   8ed7c:	7101601f 	cmp	w0, #0x58
   8ed80:	540000c1 	b.ne	8ed98 <_strtoll_l.isra.0+0x1c0>  // b.any
   8ed84:	39400682 	ldrb	w2, [x20, #1]
   8ed88:	d2800206 	mov	x6, #0x10                  	// #16
   8ed8c:	91000a94 	add	x20, x20, #0x2
   8ed90:	2a0603f8 	mov	w24, w6
   8ed94:	17ffffba 	b	8ec7c <_strtoll_l.isra.0+0xa4>
   8ed98:	35fff718 	cbnz	w24, 8ec78 <_strtoll_l.isra.0+0xa0>
   8ed9c:	d2800106 	mov	x6, #0x8                   	// #8
   8eda0:	2a0603f8 	mov	w24, w6
   8eda4:	17ffffb6 	b	8ec7c <_strtoll_l.isra.0+0xa4>

000000000008eda8 <strtoll>:
   8eda8:	f0000025 	adrp	x5, 95000 <BitFont+0x934>
   8edac:	2a0203e3 	mov	w3, w2
   8edb0:	aa0103e2 	mov	x2, x1
   8edb4:	aa0003e1 	mov	x1, x0
   8edb8:	f94730a5 	ldr	x5, [x5, #3680]
   8edbc:	f0000024 	adrp	x4, 95000 <BitFont+0x934>
   8edc0:	91328084 	add	x4, x4, #0xca0
   8edc4:	aa0503e0 	mov	x0, x5
   8edc8:	f94024a5 	ldr	x5, [x5, #72]
   8edcc:	f10000bf 	cmp	x5, #0x0
   8edd0:	9a850084 	csel	x4, x4, x5, eq  // eq = none
   8edd4:	17ffff81 	b	8ebd8 <_strtoll_l.isra.0>

000000000008edd8 <ULtox>:
   8edd8:	12000864 	and	w4, w3, #0x7
   8eddc:	71000c9f 	cmp	w4, #0x3
   8ede0:	54000280 	b.eq	8ee30 <ULtox+0x58>  // b.none
   8ede4:	540001cd 	b.le	8ee1c <ULtox+0x44>
   8ede8:	7100149f 	cmp	w4, #0x5
   8edec:	540002c0 	b.eq	8ee44 <ULtox+0x6c>  // b.none
   8edf0:	5400036b 	b.lt	8ee5c <ULtox+0x84>  // b.tstop
   8edf4:	7100189f 	cmp	w4, #0x6
   8edf8:	54000081 	b.ne	8ee08 <ULtox+0x30>  // b.any
   8edfc:	f900001f 	str	xzr, [x0]
   8ee00:	7900101f 	strh	wzr, [x0, #8]
   8ee04:	d503201f 	nop
   8ee08:	36180083 	tbz	w3, #3, 8ee18 <ULtox+0x40>
   8ee0c:	79401001 	ldrh	w1, [x0, #8]
   8ee10:	32114021 	orr	w1, w1, #0xffff8000
   8ee14:	79001001 	strh	w1, [x0, #8]
   8ee18:	d65f03c0 	ret
   8ee1c:	7100049f 	cmp	w4, #0x1
   8ee20:	54000120 	b.eq	8ee44 <ULtox+0x6c>  // b.none
   8ee24:	5400026c 	b.gt	8ee70 <ULtox+0x98>
   8ee28:	34fffea4 	cbz	w4, 8edfc <ULtox+0x24>
   8ee2c:	17fffff7 	b	8ee08 <ULtox+0x30>
   8ee30:	d2f00002 	mov	x2, #0x8000000000000000    	// #-9223372036854775808
   8ee34:	528fffe1 	mov	w1, #0x7fff                	// #32767
   8ee38:	f9000002 	str	x2, [x0]
   8ee3c:	79001001 	strh	w1, [x0, #8]
   8ee40:	17fffff2 	b	8ee08 <ULtox+0x30>
   8ee44:	528807c4 	mov	w4, #0x403e                	// #16446
   8ee48:	0b040042 	add	w2, w2, w4
   8ee4c:	79001002 	strh	w2, [x0, #8]
   8ee50:	29400422 	ldp	w2, w1, [x1]
   8ee54:	29000402 	stp	w2, w1, [x0]
   8ee58:	17ffffec 	b	8ee08 <ULtox+0x30>
   8ee5c:	d2f80002 	mov	x2, #0xc000000000000000    	// #-4611686018427387904
   8ee60:	12800001 	mov	w1, #0xffffffff            	// #-1
   8ee64:	f9000002 	str	x2, [x0]
   8ee68:	79001001 	strh	w1, [x0, #8]
   8ee6c:	17ffffe7 	b	8ee08 <ULtox+0x30>
   8ee70:	7900101f 	strh	wzr, [x0, #8]
   8ee74:	17fffff7 	b	8ee50 <ULtox+0x78>

000000000008ee78 <_strtorx_l>:
   8ee78:	a9bb7bfd 	stp	x29, x30, [sp, #-80]!
   8ee7c:	7100047f 	cmp	w3, #0x1
   8ee80:	910003fd 	mov	x29, sp
   8ee84:	f9000bf3 	str	x19, [sp, #16]
   8ee88:	aa0403f3 	mov	x19, x4
   8ee8c:	540002e0 	b.eq	8eee8 <_strtorx_l+0x70>  // b.none
   8ee90:	f0000024 	adrp	x4, 95000 <BitFont+0x934>
   8ee94:	91392084 	add	x4, x4, #0xe48
   8ee98:	2a0303e7 	mov	w7, w3
   8ee9c:	9100e3e3 	add	x3, sp, #0x38
   8eea0:	a9402488 	ldp	x8, x9, [x4]
   8eea4:	a903a7e8 	stp	x8, x9, [sp, #56]
   8eea8:	b9401084 	ldr	w4, [x4, #16]
   8eeac:	290893e7 	stp	w7, w4, [sp, #68]
   8eeb0:	aa0503e6 	mov	x6, x5
   8eeb4:	9100b3e4 	add	x4, sp, #0x2c
   8eeb8:	9100c3e5 	add	x5, sp, #0x30
   8eebc:	94000a1b 	bl	91728 <_strtodg_l>
   8eec0:	b9402fe2 	ldr	w2, [sp, #44]
   8eec4:	2a0003e5 	mov	w5, w0
   8eec8:	2a0003e3 	mov	w3, w0
   8eecc:	9100c3e1 	add	x1, sp, #0x30
   8eed0:	aa1303e0 	mov	x0, x19
   8eed4:	97ffffc1 	bl	8edd8 <ULtox>
   8eed8:	2a0503e0 	mov	w0, w5
   8eedc:	f9400bf3 	ldr	x19, [sp, #16]
   8eee0:	a8c57bfd 	ldp	x29, x30, [sp], #80
   8eee4:	d65f03c0 	ret
   8eee8:	f0000023 	adrp	x3, 95000 <BitFont+0x934>
   8eeec:	91392063 	add	x3, x3, #0xe48
   8eef0:	17fffff0 	b	8eeb0 <_strtorx_l+0x38>
   8eef4:	00000000 	.inst	0x00000000 ; undefined

000000000008eef8 <_strtoul_l.isra.0>:
   8eef8:	a9bb7bfd 	stp	x29, x30, [sp, #-80]!
   8eefc:	910003fd 	mov	x29, sp
   8ef00:	a90153f3 	stp	x19, x20, [sp, #16]
   8ef04:	a9025bf5 	stp	x21, x22, [sp, #32]
   8ef08:	aa0103f5 	mov	x21, x1
   8ef0c:	aa0203f6 	mov	x22, x2
   8ef10:	a90363f7 	stp	x23, x24, [sp, #48]
   8ef14:	aa0003f7 	mov	x23, x0
   8ef18:	2a0303f8 	mov	w24, w3
   8ef1c:	a9046bf9 	stp	x25, x26, [sp, #64]
   8ef20:	aa0403fa 	mov	x26, x4
   8ef24:	aa0103f9 	mov	x25, x1
   8ef28:	14000002 	b	8ef30 <_strtoul_l.isra.0+0x38>
   8ef2c:	aa1403f9 	mov	x25, x20
   8ef30:	aa1903f4 	mov	x20, x25
   8ef34:	aa1a03e0 	mov	x0, x26
   8ef38:	38401693 	ldrb	w19, [x20], #1
   8ef3c:	97fff7d1 	bl	8ce80 <__locale_ctype_ptr_l>
   8ef40:	8b330000 	add	x0, x0, w19, uxtb
   8ef44:	39400400 	ldrb	w0, [x0, #1]
   8ef48:	371fff20 	tbnz	w0, #3, 8ef2c <_strtoul_l.isra.0+0x34>
   8ef4c:	7100b67f 	cmp	w19, #0x2d
   8ef50:	54000980 	b.eq	8f080 <_strtoul_l.isra.0+0x188>  // b.none
   8ef54:	7100ae7f 	cmp	w19, #0x2b
   8ef58:	540001c0 	b.eq	8ef90 <_strtoul_l.isra.0+0x98>  // b.none
   8ef5c:	2a1303e2 	mov	w2, w19
   8ef60:	52800007 	mov	w7, #0x0                   	// #0
   8ef64:	721b7b1f 	tst	w24, #0xffffffef
   8ef68:	54000201 	b.ne	8efa8 <_strtoul_l.isra.0+0xb0>  // b.any
   8ef6c:	7100c05f 	cmp	w2, #0x30
   8ef70:	54000900 	b.eq	8f090 <_strtoul_l.isra.0+0x198>  // b.none
   8ef74:	350001b8 	cbnz	w24, 8efa8 <_strtoul_l.isra.0+0xb0>
   8ef78:	b201e7e3 	mov	x3, #0x9999999999999999    	// #-7378697629483820647
   8ef7c:	d2800146 	mov	x6, #0xa                   	// #10
   8ef80:	528000a5 	mov	w5, #0x5                   	// #5
   8ef84:	2a0603f8 	mov	w24, w6
   8ef88:	f2e33323 	movk	x3, #0x1999, lsl #48
   8ef8c:	1400000c 	b	8efbc <_strtoul_l.isra.0+0xc4>
   8ef90:	39400282 	ldrb	w2, [x20]
   8ef94:	52800007 	mov	w7, #0x0                   	// #0
   8ef98:	91000b34 	add	x20, x25, #0x2
   8ef9c:	721b7b1f 	tst	w24, #0xffffffef
   8efa0:	54fffe60 	b.eq	8ef6c <_strtoul_l.isra.0+0x74>  // b.none
   8efa4:	d503201f 	nop
   8efa8:	93407f06 	sxtw	x6, w24
   8efac:	92800003 	mov	x3, #0xffffffffffffffff    	// #-1
   8efb0:	9ac60863 	udiv	x3, x3, x6
   8efb4:	9b067c65 	mul	x5, x3, x6
   8efb8:	2a2503e5 	mvn	w5, w5
   8efbc:	52800004 	mov	w4, #0x0                   	// #0
   8efc0:	d2800000 	mov	x0, #0x0                   	// #0
   8efc4:	d503201f 	nop
   8efc8:	5100c041 	sub	w1, w2, #0x30
   8efcc:	7100243f 	cmp	w1, #0x9
   8efd0:	540000a9 	b.ls	8efe4 <_strtoul_l.isra.0+0xec>  // b.plast
   8efd4:	51010441 	sub	w1, w2, #0x41
   8efd8:	7100643f 	cmp	w1, #0x19
   8efdc:	54000208 	b.hi	8f01c <_strtoul_l.isra.0+0x124>  // b.pmore
   8efe0:	5100dc41 	sub	w1, w2, #0x37
   8efe4:	6b01031f 	cmp	w24, w1
   8efe8:	5400028d 	b.le	8f038 <_strtoul_l.isra.0+0x140>
   8efec:	7100009f 	cmp	w4, #0x0
   8eff0:	12800004 	mov	w4, #0xffffffff            	// #-1
   8eff4:	fa43a002 	ccmp	x0, x3, #0x2, ge  // ge = tcont
   8eff8:	540000e8 	b.hi	8f014 <_strtoul_l.isra.0+0x11c>  // b.pmore
   8effc:	eb03001f 	cmp	x0, x3
   8f000:	7a450024 	ccmp	w1, w5, #0x4, eq  // eq = none
   8f004:	5400008c 	b.gt	8f014 <_strtoul_l.isra.0+0x11c>
   8f008:	93407c21 	sxtw	x1, w1
   8f00c:	52800024 	mov	w4, #0x1                   	// #1
   8f010:	9b060400 	madd	x0, x0, x6, x1
   8f014:	38401682 	ldrb	w2, [x20], #1
   8f018:	17ffffec 	b	8efc8 <_strtoul_l.isra.0+0xd0>
   8f01c:	51018441 	sub	w1, w2, #0x61
   8f020:	7100643f 	cmp	w1, #0x19
   8f024:	540000a8 	b.hi	8f038 <_strtoul_l.isra.0+0x140>  // b.pmore
   8f028:	51015c41 	sub	w1, w2, #0x57
   8f02c:	6b01031f 	cmp	w24, w1
   8f030:	54fffdec 	b.gt	8efec <_strtoul_l.isra.0+0xf4>
   8f034:	d503201f 	nop
   8f038:	37f80184 	tbnz	w4, #31, 8f068 <_strtoul_l.isra.0+0x170>
   8f03c:	710000ff 	cmp	w7, #0x0
   8f040:	da800400 	cneg	x0, x0, ne  // ne = any
   8f044:	b4000076 	cbz	x22, 8f050 <_strtoul_l.isra.0+0x158>
   8f048:	35000184 	cbnz	w4, 8f078 <_strtoul_l.isra.0+0x180>
   8f04c:	f90002d5 	str	x21, [x22]
   8f050:	a94153f3 	ldp	x19, x20, [sp, #16]
   8f054:	a9425bf5 	ldp	x21, x22, [sp, #32]
   8f058:	a94363f7 	ldp	x23, x24, [sp, #48]
   8f05c:	a9446bf9 	ldp	x25, x26, [sp, #64]
   8f060:	a8c57bfd 	ldp	x29, x30, [sp], #80
   8f064:	d65f03c0 	ret
   8f068:	52800440 	mov	w0, #0x22                  	// #34
   8f06c:	b90002e0 	str	w0, [x23]
   8f070:	92800000 	mov	x0, #0xffffffffffffffff    	// #-1
   8f074:	b4fffef6 	cbz	x22, 8f050 <_strtoul_l.isra.0+0x158>
   8f078:	d1000695 	sub	x21, x20, #0x1
   8f07c:	17fffff4 	b	8f04c <_strtoul_l.isra.0+0x154>
   8f080:	39400282 	ldrb	w2, [x20]
   8f084:	52800027 	mov	w7, #0x1                   	// #1
   8f088:	91000b34 	add	x20, x25, #0x2
   8f08c:	17ffffb6 	b	8ef64 <_strtoul_l.isra.0+0x6c>
   8f090:	39400280 	ldrb	w0, [x20]
   8f094:	121a7800 	and	w0, w0, #0xffffffdf
   8f098:	12001c00 	and	w0, w0, #0xff
   8f09c:	7101601f 	cmp	w0, #0x58
   8f0a0:	54000101 	b.ne	8f0c0 <_strtoul_l.isra.0+0x1c8>  // b.any
   8f0a4:	39400682 	ldrb	w2, [x20, #1]
   8f0a8:	d2800206 	mov	x6, #0x10                  	// #16
   8f0ac:	91000a94 	add	x20, x20, #0x2
   8f0b0:	2a0603f8 	mov	w24, w6
   8f0b4:	528001e5 	mov	w5, #0xf                   	// #15
   8f0b8:	92fe0003 	mov	x3, #0xfffffffffffffff     	// #1152921504606846975
   8f0bc:	17ffffc0 	b	8efbc <_strtoul_l.isra.0+0xc4>
   8f0c0:	35fff758 	cbnz	w24, 8efa8 <_strtoul_l.isra.0+0xb0>
   8f0c4:	d2800106 	mov	x6, #0x8                   	// #8
   8f0c8:	528000e5 	mov	w5, #0x7                   	// #7
   8f0cc:	2a0603f8 	mov	w24, w6
   8f0d0:	92fc0003 	mov	x3, #0x1fffffffffffffff    	// #2305843009213693951
   8f0d4:	17ffffba 	b	8efbc <_strtoul_l.isra.0+0xc4>

000000000008f0d8 <strtoul>:
   8f0d8:	d0000025 	adrp	x5, 95000 <BitFont+0x934>
   8f0dc:	2a0203e3 	mov	w3, w2
   8f0e0:	aa0103e2 	mov	x2, x1
   8f0e4:	aa0003e1 	mov	x1, x0
   8f0e8:	f94730a5 	ldr	x5, [x5, #3680]
   8f0ec:	d0000024 	adrp	x4, 95000 <BitFont+0x934>
   8f0f0:	91328084 	add	x4, x4, #0xca0
   8f0f4:	aa0503e0 	mov	x0, x5
   8f0f8:	f94024a5 	ldr	x5, [x5, #72]
   8f0fc:	f10000bf 	cmp	x5, #0x0
   8f100:	9a850084 	csel	x4, x4, x5, eq  // eq = none
   8f104:	17ffff7d 	b	8eef8 <_strtoul_l.isra.0>

000000000008f108 <_strtoull_l.isra.0>:
   8f108:	a9bb7bfd 	stp	x29, x30, [sp, #-80]!
   8f10c:	910003fd 	mov	x29, sp
   8f110:	a90153f3 	stp	x19, x20, [sp, #16]
   8f114:	a9025bf5 	stp	x21, x22, [sp, #32]
   8f118:	aa0103f5 	mov	x21, x1
   8f11c:	aa0203f6 	mov	x22, x2
   8f120:	a90363f7 	stp	x23, x24, [sp, #48]
   8f124:	aa0003f7 	mov	x23, x0
   8f128:	2a0303f8 	mov	w24, w3
   8f12c:	a9046bf9 	stp	x25, x26, [sp, #64]
   8f130:	aa0403fa 	mov	x26, x4
   8f134:	aa0103f9 	mov	x25, x1
   8f138:	14000002 	b	8f140 <_strtoull_l.isra.0+0x38>
   8f13c:	aa1403f9 	mov	x25, x20
   8f140:	aa1903f4 	mov	x20, x25
   8f144:	aa1a03e0 	mov	x0, x26
   8f148:	38401693 	ldrb	w19, [x20], #1
   8f14c:	97fff74d 	bl	8ce80 <__locale_ctype_ptr_l>
   8f150:	8b330000 	add	x0, x0, w19, uxtb
   8f154:	39400400 	ldrb	w0, [x0, #1]
   8f158:	371fff20 	tbnz	w0, #3, 8f13c <_strtoull_l.isra.0+0x34>
   8f15c:	7100b67f 	cmp	w19, #0x2d
   8f160:	54000980 	b.eq	8f290 <_strtoull_l.isra.0+0x188>  // b.none
   8f164:	7100ae7f 	cmp	w19, #0x2b
   8f168:	540001c0 	b.eq	8f1a0 <_strtoull_l.isra.0+0x98>  // b.none
   8f16c:	2a1303e2 	mov	w2, w19
   8f170:	52800007 	mov	w7, #0x0                   	// #0
   8f174:	721b7b1f 	tst	w24, #0xffffffef
   8f178:	54000201 	b.ne	8f1b8 <_strtoull_l.isra.0+0xb0>  // b.any
   8f17c:	7100c05f 	cmp	w2, #0x30
   8f180:	54000900 	b.eq	8f2a0 <_strtoull_l.isra.0+0x198>  // b.none
   8f184:	350001b8 	cbnz	w24, 8f1b8 <_strtoull_l.isra.0+0xb0>
   8f188:	b201e7e3 	mov	x3, #0x9999999999999999    	// #-7378697629483820647
   8f18c:	d2800146 	mov	x6, #0xa                   	// #10
   8f190:	528000a5 	mov	w5, #0x5                   	// #5
   8f194:	2a0603f8 	mov	w24, w6
   8f198:	f2e33323 	movk	x3, #0x1999, lsl #48
   8f19c:	1400000c 	b	8f1cc <_strtoull_l.isra.0+0xc4>
   8f1a0:	39400282 	ldrb	w2, [x20]
   8f1a4:	52800007 	mov	w7, #0x0                   	// #0
   8f1a8:	91000b34 	add	x20, x25, #0x2
   8f1ac:	721b7b1f 	tst	w24, #0xffffffef
   8f1b0:	54fffe60 	b.eq	8f17c <_strtoull_l.isra.0+0x74>  // b.none
   8f1b4:	d503201f 	nop
   8f1b8:	93407f06 	sxtw	x6, w24
   8f1bc:	92800003 	mov	x3, #0xffffffffffffffff    	// #-1
   8f1c0:	9ac60863 	udiv	x3, x3, x6
   8f1c4:	9b067c65 	mul	x5, x3, x6
   8f1c8:	2a2503e5 	mvn	w5, w5
   8f1cc:	52800004 	mov	w4, #0x0                   	// #0
   8f1d0:	d2800000 	mov	x0, #0x0                   	// #0
   8f1d4:	d503201f 	nop
   8f1d8:	5100c041 	sub	w1, w2, #0x30
   8f1dc:	7100243f 	cmp	w1, #0x9
   8f1e0:	540000a9 	b.ls	8f1f4 <_strtoull_l.isra.0+0xec>  // b.plast
   8f1e4:	51010441 	sub	w1, w2, #0x41
   8f1e8:	7100643f 	cmp	w1, #0x19
   8f1ec:	54000208 	b.hi	8f22c <_strtoull_l.isra.0+0x124>  // b.pmore
   8f1f0:	5100dc41 	sub	w1, w2, #0x37
   8f1f4:	6b01031f 	cmp	w24, w1
   8f1f8:	5400028d 	b.le	8f248 <_strtoull_l.isra.0+0x140>
   8f1fc:	7100009f 	cmp	w4, #0x0
   8f200:	12800004 	mov	w4, #0xffffffff            	// #-1
   8f204:	fa43a002 	ccmp	x0, x3, #0x2, ge  // ge = tcont
   8f208:	540000e8 	b.hi	8f224 <_strtoull_l.isra.0+0x11c>  // b.pmore
   8f20c:	eb03001f 	cmp	x0, x3
   8f210:	7a450024 	ccmp	w1, w5, #0x4, eq  // eq = none
   8f214:	5400008c 	b.gt	8f224 <_strtoull_l.isra.0+0x11c>
   8f218:	93407c21 	sxtw	x1, w1
   8f21c:	52800024 	mov	w4, #0x1                   	// #1
   8f220:	9b060400 	madd	x0, x0, x6, x1
   8f224:	38401682 	ldrb	w2, [x20], #1
   8f228:	17ffffec 	b	8f1d8 <_strtoull_l.isra.0+0xd0>
   8f22c:	51018441 	sub	w1, w2, #0x61
   8f230:	7100643f 	cmp	w1, #0x19
   8f234:	540000a8 	b.hi	8f248 <_strtoull_l.isra.0+0x140>  // b.pmore
   8f238:	51015c41 	sub	w1, w2, #0x57
   8f23c:	6b01031f 	cmp	w24, w1
   8f240:	54fffdec 	b.gt	8f1fc <_strtoull_l.isra.0+0xf4>
   8f244:	d503201f 	nop
   8f248:	37f80184 	tbnz	w4, #31, 8f278 <_strtoull_l.isra.0+0x170>
   8f24c:	710000ff 	cmp	w7, #0x0
   8f250:	da800400 	cneg	x0, x0, ne  // ne = any
   8f254:	b4000076 	cbz	x22, 8f260 <_strtoull_l.isra.0+0x158>
   8f258:	35000184 	cbnz	w4, 8f288 <_strtoull_l.isra.0+0x180>
   8f25c:	f90002d5 	str	x21, [x22]
   8f260:	a94153f3 	ldp	x19, x20, [sp, #16]
   8f264:	a9425bf5 	ldp	x21, x22, [sp, #32]
   8f268:	a94363f7 	ldp	x23, x24, [sp, #48]
   8f26c:	a9446bf9 	ldp	x25, x26, [sp, #64]
   8f270:	a8c57bfd 	ldp	x29, x30, [sp], #80
   8f274:	d65f03c0 	ret
   8f278:	52800440 	mov	w0, #0x22                  	// #34
   8f27c:	b90002e0 	str	w0, [x23]
   8f280:	92800000 	mov	x0, #0xffffffffffffffff    	// #-1
   8f284:	b4fffef6 	cbz	x22, 8f260 <_strtoull_l.isra.0+0x158>
   8f288:	d1000695 	sub	x21, x20, #0x1
   8f28c:	17fffff4 	b	8f25c <_strtoull_l.isra.0+0x154>
   8f290:	39400282 	ldrb	w2, [x20]
   8f294:	52800027 	mov	w7, #0x1                   	// #1
   8f298:	91000b34 	add	x20, x25, #0x2
   8f29c:	17ffffb6 	b	8f174 <_strtoull_l.isra.0+0x6c>
   8f2a0:	39400280 	ldrb	w0, [x20]
   8f2a4:	121a7800 	and	w0, w0, #0xffffffdf
   8f2a8:	12001c00 	and	w0, w0, #0xff
   8f2ac:	7101601f 	cmp	w0, #0x58
   8f2b0:	54000101 	b.ne	8f2d0 <_strtoull_l.isra.0+0x1c8>  // b.any
   8f2b4:	39400682 	ldrb	w2, [x20, #1]
   8f2b8:	d2800206 	mov	x6, #0x10                  	// #16
   8f2bc:	91000a94 	add	x20, x20, #0x2
   8f2c0:	2a0603f8 	mov	w24, w6
   8f2c4:	528001e5 	mov	w5, #0xf                   	// #15
   8f2c8:	92fe0003 	mov	x3, #0xfffffffffffffff     	// #1152921504606846975
   8f2cc:	17ffffc0 	b	8f1cc <_strtoull_l.isra.0+0xc4>
   8f2d0:	35fff758 	cbnz	w24, 8f1b8 <_strtoull_l.isra.0+0xb0>
   8f2d4:	d2800106 	mov	x6, #0x8                   	// #8
   8f2d8:	528000e5 	mov	w5, #0x7                   	// #7
   8f2dc:	2a0603f8 	mov	w24, w6
   8f2e0:	92fc0003 	mov	x3, #0x1fffffffffffffff    	// #2305843009213693951
   8f2e4:	17ffffba 	b	8f1cc <_strtoull_l.isra.0+0xc4>

000000000008f2e8 <strtoull>:
   8f2e8:	d0000025 	adrp	x5, 95000 <BitFont+0x934>
   8f2ec:	2a0203e3 	mov	w3, w2
   8f2f0:	aa0103e2 	mov	x2, x1
   8f2f4:	aa0003e1 	mov	x1, x0
   8f2f8:	f94730a5 	ldr	x5, [x5, #3680]
   8f2fc:	d0000024 	adrp	x4, 95000 <BitFont+0x934>
   8f300:	91328084 	add	x4, x4, #0xca0
   8f304:	aa0503e0 	mov	x0, x5
   8f308:	f94024a5 	ldr	x5, [x5, #72]
   8f30c:	f10000bf 	cmp	x5, #0x0
   8f310:	9a850084 	csel	x4, x4, x5, eq  // eq = none
   8f314:	17ffff7d 	b	8f108 <_strtoull_l.isra.0>

000000000008f318 <wcscpy>:
   8f318:	b9400022 	ldr	w2, [x1]
   8f31c:	aa0003e3 	mov	x3, x0
   8f320:	b900001f 	str	wzr, [x0]
   8f324:	34000082 	cbz	w2, 8f334 <wcscpy+0x1c>
   8f328:	b8004462 	str	w2, [x3], #4
   8f32c:	b8404c22 	ldr	w2, [x1, #4]!
   8f330:	35ffffc2 	cbnz	w2, 8f328 <wcscpy+0x10>
   8f334:	b900007f 	str	wzr, [x3]
   8f338:	d65f03c0 	ret
   8f33c:	00000000 	.inst	0x00000000 ; undefined

000000000008f340 <wctob>:
   8f340:	3100041f 	cmn	w0, #0x1
   8f344:	540003c0 	b.eq	8f3bc <wctob+0x7c>  // b.none
   8f348:	a9bd7bfd 	stp	x29, x30, [sp, #-48]!
   8f34c:	d2800102 	mov	x2, #0x8                   	// #8
   8f350:	52800001 	mov	w1, #0x0                   	// #0
   8f354:	910003fd 	mov	x29, sp
   8f358:	f9000bf3 	str	x19, [sp, #16]
   8f35c:	2a0003f3 	mov	w19, w0
   8f360:	9100a3e0 	add	x0, sp, #0x28
   8f364:	94000367 	bl	90100 <memset>
   8f368:	d0000020 	adrp	x0, 95000 <BitFont+0x934>
   8f36c:	d0000025 	adrp	x5, 95000 <BitFont+0x934>
   8f370:	913280a5 	add	x5, x5, #0xca0
   8f374:	9100a3e3 	add	x3, sp, #0x28
   8f378:	f9473004 	ldr	x4, [x0, #3680]
   8f37c:	2a1303e2 	mov	w2, w19
   8f380:	910083e1 	add	x1, sp, #0x20
   8f384:	aa0403e0 	mov	x0, x4
   8f388:	f9402484 	ldr	x4, [x4, #72]
   8f38c:	f100009f 	cmp	x4, #0x0
   8f390:	9a8400a4 	csel	x4, x5, x4, eq  // eq = none
   8f394:	f9407084 	ldr	x4, [x4, #224]
   8f398:	d63f0080 	blr	x4
   8f39c:	7100041f 	cmp	w0, #0x1
   8f3a0:	540000a1 	b.ne	8f3b4 <wctob+0x74>  // b.any
   8f3a4:	394083e0 	ldrb	w0, [sp, #32]
   8f3a8:	f9400bf3 	ldr	x19, [sp, #16]
   8f3ac:	a8c37bfd 	ldp	x29, x30, [sp], #48
   8f3b0:	d65f03c0 	ret
   8f3b4:	12800000 	mov	w0, #0xffffffff            	// #-1
   8f3b8:	17fffffc 	b	8f3a8 <wctob+0x68>
   8f3bc:	12800000 	mov	w0, #0xffffffff            	// #-1
   8f3c0:	d65f03c0 	ret
   8f3c4:	00000000 	.inst	0x00000000 ; undefined

000000000008f3c8 <__ascii_wctomb>:
   8f3c8:	aa0003e3 	mov	x3, x0
   8f3cc:	b4000141 	cbz	x1, 8f3f4 <__ascii_wctomb+0x2c>
   8f3d0:	7103fc5f 	cmp	w2, #0xff
   8f3d4:	54000088 	b.hi	8f3e4 <__ascii_wctomb+0x1c>  // b.pmore
   8f3d8:	52800020 	mov	w0, #0x1                   	// #1
   8f3dc:	39000022 	strb	w2, [x1]
   8f3e0:	d65f03c0 	ret
   8f3e4:	52801141 	mov	w1, #0x8a                  	// #138
   8f3e8:	12800000 	mov	w0, #0xffffffff            	// #-1
   8f3ec:	b9000061 	str	w1, [x3]
   8f3f0:	d65f03c0 	ret
   8f3f4:	52800000 	mov	w0, #0x0                   	// #0
   8f3f8:	d65f03c0 	ret
   8f3fc:	00000000 	.inst	0x00000000 ; undefined

000000000008f400 <rshift>:
   8f400:	b9401402 	ldr	w2, [x0, #20]
   8f404:	13057c23 	asr	w3, w1, #5
   8f408:	6b03005f 	cmp	w2, w3
   8f40c:	5400056d 	b.le	8f4b8 <rshift+0xb8>
   8f410:	93407c44 	sxtw	x4, w2
   8f414:	93407c68 	sxtw	x8, w3
   8f418:	91006006 	add	x6, x0, #0x18
   8f41c:	72001021 	ands	w1, w1, #0x1f
   8f420:	8b0408c9 	add	x9, x6, x4, lsl #2
   8f424:	8b0808c3 	add	x3, x6, x8, lsl #2
   8f428:	540004e0 	b.eq	8f4c4 <rshift+0xc4>  // b.none
   8f42c:	b86878c5 	ldr	w5, [x6, x8, lsl #2]
   8f430:	91001063 	add	x3, x3, #0x4
   8f434:	5280040a 	mov	w10, #0x20                  	// #32
   8f438:	eb03013f 	cmp	x9, x3
   8f43c:	4b01014a 	sub	w10, w10, w1
   8f440:	1ac124a5 	lsr	w5, w5, w1
   8f444:	54000329 	b.ls	8f4a8 <rshift+0xa8>  // b.plast
   8f448:	aa0603e7 	mov	x7, x6
   8f44c:	d503201f 	nop
   8f450:	b9400062 	ldr	w2, [x3]
   8f454:	1aca2042 	lsl	w2, w2, w10
   8f458:	2a050042 	orr	w2, w2, w5
   8f45c:	b80044e2 	str	w2, [x7], #4
   8f460:	b8404462 	ldr	w2, [x3], #4
   8f464:	eb03013f 	cmp	x9, x3
   8f468:	1ac12445 	lsr	w5, w2, w1
   8f46c:	54ffff28 	b.hi	8f450 <rshift+0x50>  // b.pmore
   8f470:	cb080081 	sub	x1, x4, x8
   8f474:	d37ef421 	lsl	x1, x1, #2
   8f478:	d1001421 	sub	x1, x1, #0x5
   8f47c:	d342fc21 	lsr	x1, x1, #2
   8f480:	91000421 	add	x1, x1, #0x1
   8f484:	8b0108c2 	add	x2, x6, x1, lsl #2
   8f488:	b82178c5 	str	w5, [x6, x1, lsl #2]
   8f48c:	340003a5 	cbz	w5, 8f500 <rshift+0x100>
   8f490:	91001042 	add	x2, x2, #0x4
   8f494:	cb060046 	sub	x6, x2, x6
   8f498:	9342fcc6 	asr	x6, x6, #2
   8f49c:	b9001406 	str	w6, [x0, #20]
   8f4a0:	340000e6 	cbz	w6, 8f4bc <rshift+0xbc>
   8f4a4:	d65f03c0 	ret
   8f4a8:	b9001805 	str	w5, [x0, #24]
   8f4ac:	aa0603e2 	mov	x2, x6
   8f4b0:	35ffff05 	cbnz	w5, 8f490 <rshift+0x90>
   8f4b4:	d503201f 	nop
   8f4b8:	b900141f 	str	wzr, [x0, #20]
   8f4bc:	b900181f 	str	wzr, [x0, #24]
   8f4c0:	d65f03c0 	ret
   8f4c4:	eb03013f 	cmp	x9, x3
   8f4c8:	54ffff89 	b.ls	8f4b8 <rshift+0xb8>  // b.plast
   8f4cc:	cb080082 	sub	x2, x4, x8
   8f4d0:	d2800001 	mov	x1, #0x0                   	// #0
   8f4d4:	d37ef442 	lsl	x2, x2, #2
   8f4d8:	d1000442 	sub	x2, x2, #0x1
   8f4dc:	d342fc42 	lsr	x2, x2, #2
   8f4e0:	91000444 	add	x4, x2, #0x1
   8f4e4:	d503201f 	nop
   8f4e8:	b8617865 	ldr	w5, [x3, x1, lsl #2]
   8f4ec:	eb02003f 	cmp	x1, x2
   8f4f0:	b82178c5 	str	w5, [x6, x1, lsl #2]
   8f4f4:	91000421 	add	x1, x1, #0x1
   8f4f8:	54ffff81 	b.ne	8f4e8 <rshift+0xe8>  // b.any
   8f4fc:	8b0408c2 	add	x2, x6, x4, lsl #2
   8f500:	cb060046 	sub	x6, x2, x6
   8f504:	9342fcc6 	asr	x6, x6, #2
   8f508:	b9001406 	str	w6, [x0, #20]
   8f50c:	34fffd86 	cbz	w6, 8f4bc <rshift+0xbc>
   8f510:	d65f03c0 	ret
   8f514:	00000000 	.inst	0x00000000 ; undefined

000000000008f518 <__gethex>:
   8f518:	a9b47bfd 	stp	x29, x30, [sp, #-192]!
   8f51c:	910003fd 	mov	x29, sp
   8f520:	fd0033e8 	str	d8, [sp, #96]
   8f524:	9e670008 	fmov	d8, x0
   8f528:	aa0603e0 	mov	x0, x6
   8f52c:	a90153f3 	stp	x19, x20, [sp, #16]
   8f530:	aa0203f4 	mov	x20, x2
   8f534:	a9025bf5 	stp	x21, x22, [sp, #32]
   8f538:	a90363f7 	stp	x23, x24, [sp, #48]
   8f53c:	a9046bf9 	stp	x25, x26, [sp, #64]
   8f540:	aa0103fa 	mov	x26, x1
   8f544:	a90573fb 	stp	x27, x28, [sp, #80]
   8f548:	f90043e4 	str	x4, [sp, #128]
   8f54c:	f9004be3 	str	x3, [sp, #144]
   8f550:	b9009be5 	str	w5, [sp, #152]
   8f554:	9400027d 	bl	8ff48 <__localeconv_l>
   8f558:	f9400013 	ldr	x19, [x0]
   8f55c:	aa1303e0 	mov	x0, x19
   8f560:	97fff788 	bl	8d380 <strlen>
   8f564:	8b000262 	add	x2, x19, x0
   8f568:	aa0003f7 	mov	x23, x0
   8f56c:	f9400340 	ldr	x0, [x26]
   8f570:	385ff055 	ldurb	w21, [x2, #-1]
   8f574:	39400801 	ldrb	w1, [x0, #2]
   8f578:	7100c03f 	cmp	w1, #0x30
   8f57c:	54002ea1 	b.ne	8fb50 <__gethex+0x638>  // b.any
   8f580:	91000c00 	add	x0, x0, #0x3
   8f584:	52800022 	mov	w2, #0x1                   	// #1
   8f588:	4b000042 	sub	w2, w2, w0
   8f58c:	d503201f 	nop
   8f590:	0b000043 	add	w3, w2, w0
   8f594:	aa0003fb 	mov	x27, x0
   8f598:	38401401 	ldrb	w1, [x0], #1
   8f59c:	7100c03f 	cmp	w1, #0x30
   8f5a0:	54ffff80 	b.eq	8f590 <__gethex+0x78>  // b.none
   8f5a4:	d000003c 	adrp	x28, 95000 <BitFont+0x934>
   8f5a8:	9127a39c 	add	x28, x28, #0x9e8
   8f5ac:	3861cb80 	ldrb	w0, [x28, w1, sxtw]
   8f5b0:	34001780 	cbz	w0, 8f8a0 <__gethex+0x388>
   8f5b4:	39400360 	ldrb	w0, [x27]
   8f5b8:	52800007 	mov	w7, #0x0                   	// #0
   8f5bc:	d2800018 	mov	x24, #0x0                   	// #0
   8f5c0:	3860cb80 	ldrb	w0, [x28, w0, sxtw]
   8f5c4:	aa1b03f9 	mov	x25, x27
   8f5c8:	340000a0 	cbz	w0, 8f5dc <__gethex+0xc4>
   8f5cc:	d503201f 	nop
   8f5d0:	38401f20 	ldrb	w0, [x25, #1]!
   8f5d4:	3860cb80 	ldrb	w0, [x28, w0, sxtw]
   8f5d8:	35ffffc0 	cbnz	w0, 8f5d0 <__gethex+0xb8>
   8f5dc:	aa1703e2 	mov	x2, x23
   8f5e0:	aa1303e1 	mov	x1, x19
   8f5e4:	aa1903e0 	mov	x0, x25
   8f5e8:	b9007be3 	str	w3, [sp, #120]
   8f5ec:	b9008be7 	str	w7, [sp, #136]
   8f5f0:	97fff7bb 	bl	8d4dc <strncmp>
   8f5f4:	b9407be3 	ldr	w3, [sp, #120]
   8f5f8:	2a0003f6 	mov	w22, w0
   8f5fc:	b9408be7 	ldr	w7, [sp, #136]
   8f600:	34000d60 	cbz	w0, 8f7ac <__gethex+0x294>
   8f604:	cb180324 	sub	x4, x25, x24
   8f608:	f100031f 	cmp	x24, #0x0
   8f60c:	39400320 	ldrb	w0, [x25]
   8f610:	4b040be4 	neg	w4, w4, lsl #2
   8f614:	1a9f1096 	csel	w22, w4, wzr, ne  // ne = any
   8f618:	7101401f 	cmp	w0, #0x50
   8f61c:	54000d60 	b.eq	8f7c8 <__gethex+0x2b0>  // b.none
   8f620:	7101c01f 	cmp	w0, #0x70
   8f624:	aa1903f8 	mov	x24, x25
   8f628:	54000d00 	b.eq	8f7c8 <__gethex+0x2b0>  // b.none
   8f62c:	f9000359 	str	x25, [x26]
   8f630:	35001107 	cbnz	w7, 8f850 <__gethex+0x338>
   8f634:	cb1b0300 	sub	x0, x24, x27
   8f638:	52800001 	mov	w1, #0x0                   	// #0
   8f63c:	51000400 	sub	w0, w0, #0x1
   8f640:	71001c1f 	cmp	w0, #0x7
   8f644:	540000ad 	b.le	8f658 <__gethex+0x140>
   8f648:	13017c00 	asr	w0, w0, #1
   8f64c:	11000421 	add	w1, w1, #0x1
   8f650:	71001c1f 	cmp	w0, #0x7
   8f654:	54ffffac 	b.gt	8f648 <__gethex+0x130>
   8f658:	9e660100 	fmov	x0, d8
   8f65c:	9400031f 	bl	902d8 <_Balloc>
   8f660:	9100600a 	add	x10, x0, #0x18
   8f664:	f9003fea 	str	x10, [sp, #120]
   8f668:	aa0003f9 	mov	x25, x0
   8f66c:	eb18037f 	cmp	x27, x24
   8f670:	540028a2 	b.cs	8fb84 <__gethex+0x66c>  // b.hs, b.nlast
   8f674:	d280002b 	mov	x11, #0x1                   	// #1
   8f678:	5280001a 	mov	w26, #0x0                   	// #0
   8f67c:	cb17016b 	sub	x11, x11, x23
   8f680:	52800008 	mov	w8, #0x0                   	// #0
   8f684:	1400000d 	b	8f6b8 <__gethex+0x1a0>
   8f688:	7100835f 	cmp	w26, #0x20
   8f68c:	54000fa0 	b.eq	8f880 <__gethex+0x368>  // b.none
   8f690:	2a1a03e1 	mov	w1, w26
   8f694:	1100135a 	add	w26, w26, #0x4
   8f698:	385ff300 	ldurb	w0, [x24, #-1]
   8f69c:	aa0903f8 	mov	x24, x9
   8f6a0:	eb1b031f 	cmp	x24, x27
   8f6a4:	3860cb80 	ldrb	w0, [x28, w0, sxtw]
   8f6a8:	12000c00 	and	w0, w0, #0xf
   8f6ac:	1ac12000 	lsl	w0, w0, w1
   8f6b0:	2a000108 	orr	w8, w8, w0
   8f6b4:	54000329 	b.ls	8f718 <__gethex+0x200>  // b.plast
   8f6b8:	385ff300 	ldurb	w0, [x24, #-1]
   8f6bc:	d1000709 	sub	x9, x24, #0x1
   8f6c0:	91001143 	add	x3, x10, #0x4
   8f6c4:	6b15001f 	cmp	w0, w21
   8f6c8:	54fffe01 	b.ne	8f688 <__gethex+0x170>  // b.any
   8f6cc:	8b0b012c 	add	x12, x9, x11
   8f6d0:	eb1b019f 	cmp	x12, x27
   8f6d4:	54fffda3 	b.cc	8f688 <__gethex+0x170>  // b.lo, b.ul, b.last
   8f6d8:	aa0c03e0 	mov	x0, x12
   8f6dc:	aa1703e2 	mov	x2, x23
   8f6e0:	aa1303e1 	mov	x1, x19
   8f6e4:	f90047ec 	str	x12, [sp, #136]
   8f6e8:	b9009fe8 	str	w8, [sp, #156]
   8f6ec:	a90a2be9 	stp	x9, x10, [sp, #160]
   8f6f0:	a90b2fe3 	stp	x3, x11, [sp, #176]
   8f6f4:	97fff77a 	bl	8d4dc <strncmp>
   8f6f8:	b9409fe8 	ldr	w8, [sp, #156]
   8f6fc:	f94047ec 	ldr	x12, [sp, #136]
   8f700:	a94a2be9 	ldp	x9, x10, [sp, #160]
   8f704:	a94b2fe3 	ldp	x3, x11, [sp, #176]
   8f708:	35fffc00 	cbnz	w0, 8f688 <__gethex+0x170>
   8f70c:	aa0c03f8 	mov	x24, x12
   8f710:	eb1b031f 	cmp	x24, x27
   8f714:	54fffd28 	b.hi	8f6b8 <__gethex+0x1a0>  // b.pmore
   8f718:	f9403fe0 	ldr	x0, [sp, #120]
   8f71c:	b9000148 	str	w8, [x10]
   8f720:	cb000063 	sub	x3, x3, x0
   8f724:	2a0803e0 	mov	w0, w8
   8f728:	9342fc63 	asr	x3, x3, #2
   8f72c:	b9001723 	str	w3, [x25, #20]
   8f730:	531b6873 	lsl	w19, w3, #5
   8f734:	94000399 	bl	90598 <__hi0bits>
   8f738:	b9400298 	ldr	w24, [x20]
   8f73c:	4b000273 	sub	w19, w19, w0
   8f740:	6b18027f 	cmp	w19, w24
   8f744:	540010ec 	b.gt	8f960 <__gethex+0x448>
   8f748:	5280001a 	mov	w26, #0x0                   	// #0
   8f74c:	54001d6b 	b.lt	8faf8 <__gethex+0x5e0>  // b.tstop
   8f750:	b9400a80 	ldr	w0, [x20, #8]
   8f754:	6b16001f 	cmp	w0, w22
   8f758:	5400208b 	b.lt	8fb68 <__gethex+0x650>  // b.tstop
   8f75c:	b9400680 	ldr	w0, [x20, #4]
   8f760:	6b16001f 	cmp	w0, w22
   8f764:	54000ccd 	b.le	8f8fc <__gethex+0x3e4>
   8f768:	4b160016 	sub	w22, w0, w22
   8f76c:	6b16031f 	cmp	w24, w22
   8f770:	5400126c 	b.gt	8f9bc <__gethex+0x4a4>
   8f774:	b9400e81 	ldr	w1, [x20, #12]
   8f778:	7100083f 	cmp	w1, #0x2
   8f77c:	54002260 	b.eq	8fbc8 <__gethex+0x6b0>  // b.none
   8f780:	71000c3f 	cmp	w1, #0x3
   8f784:	540024e0 	b.eq	8fc20 <__gethex+0x708>  // b.none
   8f788:	7100043f 	cmp	w1, #0x1
   8f78c:	54002360 	b.eq	8fbf8 <__gethex+0x6e0>  // b.none
   8f790:	9e660100 	fmov	x0, d8
   8f794:	aa1903e1 	mov	x1, x25
   8f798:	52800a13 	mov	w19, #0x50                  	// #80
   8f79c:	940002f3 	bl	90368 <_Bfree>
   8f7a0:	f94043e0 	ldr	x0, [sp, #128]
   8f7a4:	f900001f 	str	xzr, [x0]
   8f7a8:	1400002d 	b	8f85c <__gethex+0x344>
   8f7ac:	b4001bb8 	cbz	x24, 8fb20 <__gethex+0x608>
   8f7b0:	cb180324 	sub	x4, x25, x24
   8f7b4:	39400320 	ldrb	w0, [x25]
   8f7b8:	4b040bf6 	neg	w22, w4, lsl #2
   8f7bc:	7101401f 	cmp	w0, #0x50
   8f7c0:	54fff301 	b.ne	8f620 <__gethex+0x108>  // b.any
   8f7c4:	d503201f 	nop
   8f7c8:	39400720 	ldrb	w0, [x25, #1]
   8f7cc:	7100ac1f 	cmp	w0, #0x2b
   8f7d0:	54001900 	b.eq	8faf0 <__gethex+0x5d8>  // b.none
   8f7d4:	7100b41f 	cmp	w0, #0x2d
   8f7d8:	54000b00 	b.eq	8f938 <__gethex+0x420>  // b.none
   8f7dc:	3860cb80 	ldrb	w0, [x28, w0, sxtw]
   8f7e0:	91000728 	add	x8, x25, #0x1
   8f7e4:	52800009 	mov	w9, #0x0                   	// #0
   8f7e8:	aa1903f8 	mov	x24, x25
   8f7ec:	51000401 	sub	w1, w0, #0x1
   8f7f0:	12001c21 	and	w1, w1, #0xff
   8f7f4:	7100603f 	cmp	w1, #0x18
   8f7f8:	54fff1a8 	b.hi	8f62c <__gethex+0x114>  // b.pmore
   8f7fc:	39400501 	ldrb	w1, [x8, #1]
   8f800:	51004000 	sub	w0, w0, #0x10
   8f804:	91000508 	add	x8, x8, #0x1
   8f808:	14000005 	b	8f81c <__gethex+0x304>
   8f80c:	0b000800 	add	w0, w0, w0, lsl #2
   8f810:	38401d01 	ldrb	w1, [x8, #1]!
   8f814:	0b000440 	add	w0, w2, w0, lsl #1
   8f818:	51004000 	sub	w0, w0, #0x10
   8f81c:	3861cb82 	ldrb	w2, [x28, w1, sxtw]
   8f820:	51000441 	sub	w1, w2, #0x1
   8f824:	12001c21 	and	w1, w1, #0xff
   8f828:	7100603f 	cmp	w1, #0x18
   8f82c:	54ffff09 	b.ls	8f80c <__gethex+0x2f4>  // b.plast
   8f830:	7100013f 	cmp	w9, #0x0
   8f834:	aa1903f8 	mov	x24, x25
   8f838:	aa0803f9 	mov	x25, x8
   8f83c:	f9000359 	str	x25, [x26]
   8f840:	5a800400 	cneg	w0, w0, ne  // ne = any
   8f844:	0b0002d6 	add	w22, w22, w0
   8f848:	34ffef67 	cbz	w7, 8f634 <__gethex+0x11c>
   8f84c:	d503201f 	nop
   8f850:	7100007f 	cmp	w3, #0x0
   8f854:	528000d3 	mov	w19, #0x6                   	// #6
   8f858:	1a9313f3 	csel	w19, wzr, w19, ne  // ne = any
   8f85c:	2a1303e0 	mov	w0, w19
   8f860:	fd4033e8 	ldr	d8, [sp, #96]
   8f864:	a94153f3 	ldp	x19, x20, [sp, #16]
   8f868:	a9425bf5 	ldp	x21, x22, [sp, #32]
   8f86c:	a94363f7 	ldp	x23, x24, [sp, #48]
   8f870:	a9446bf9 	ldp	x25, x26, [sp, #64]
   8f874:	a94573fb 	ldp	x27, x28, [sp, #80]
   8f878:	a8cc7bfd 	ldp	x29, x30, [sp], #192
   8f87c:	d65f03c0 	ret
   8f880:	aa0a03e0 	mov	x0, x10
   8f884:	52800001 	mov	w1, #0x0                   	// #0
   8f888:	aa0303ea 	mov	x10, x3
   8f88c:	5280009a 	mov	w26, #0x4                   	// #4
   8f890:	b8008408 	str	w8, [x0], #8
   8f894:	52800008 	mov	w8, #0x0                   	// #0
   8f898:	aa0003e3 	mov	x3, x0
   8f89c:	17ffff7f 	b	8f698 <__gethex+0x180>
   8f8a0:	aa1703e2 	mov	x2, x23
   8f8a4:	aa1303e1 	mov	x1, x19
   8f8a8:	aa1b03e0 	mov	x0, x27
   8f8ac:	b9007be3 	str	w3, [sp, #120]
   8f8b0:	97fff70b 	bl	8d4dc <strncmp>
   8f8b4:	b9407be3 	ldr	w3, [sp, #120]
   8f8b8:	35000a60 	cbnz	w0, 8fa04 <__gethex+0x4ec>
   8f8bc:	38776b61 	ldrb	w1, [x27, x23]
   8f8c0:	8b170379 	add	x25, x27, x23
   8f8c4:	3861cb80 	ldrb	w0, [x28, w1, sxtw]
   8f8c8:	34000a20 	cbz	w0, 8fa0c <__gethex+0x4f4>
   8f8cc:	aa1903fb 	mov	x27, x25
   8f8d0:	7100c03f 	cmp	w1, #0x30
   8f8d4:	540000a1 	b.ne	8f8e8 <__gethex+0x3d0>  // b.any
   8f8d8:	38401f60 	ldrb	w0, [x27, #1]!
   8f8dc:	7100c01f 	cmp	w0, #0x30
   8f8e0:	54ffffc0 	b.eq	8f8d8 <__gethex+0x3c0>  // b.none
   8f8e4:	3860cb80 	ldrb	w0, [x28, w0, sxtw]
   8f8e8:	7100001f 	cmp	w0, #0x0
   8f8ec:	aa1903f8 	mov	x24, x25
   8f8f0:	1a9f17e7 	cset	w7, eq  // eq = none
   8f8f4:	52800023 	mov	w3, #0x1                   	// #1
   8f8f8:	17ffff33 	b	8f5c4 <__gethex+0xac>
   8f8fc:	52800033 	mov	w19, #0x1                   	// #1
   8f900:	3400013a 	cbz	w26, 8f924 <__gethex+0x40c>
   8f904:	b9400e80 	ldr	w0, [x20, #12]
   8f908:	7100081f 	cmp	w0, #0x2
   8f90c:	540008c0 	b.eq	8fa24 <__gethex+0x50c>  // b.none
   8f910:	71000c1f 	cmp	w0, #0x3
   8f914:	54000900 	b.eq	8fa34 <__gethex+0x51c>  // b.none
   8f918:	7100041f 	cmp	w0, #0x1
   8f91c:	54000dc0 	b.eq	8fad4 <__gethex+0x5bc>  // b.none
   8f920:	321c0273 	orr	w19, w19, #0x10
   8f924:	f94043e0 	ldr	x0, [sp, #128]
   8f928:	f9000019 	str	x25, [x0]
   8f92c:	f9404be0 	ldr	x0, [sp, #144]
   8f930:	b9000016 	str	w22, [x0]
   8f934:	17ffffca 	b	8f85c <__gethex+0x344>
   8f938:	52800029 	mov	w9, #0x1                   	// #1
   8f93c:	39400b20 	ldrb	w0, [x25, #2]
   8f940:	91000b28 	add	x8, x25, #0x2
   8f944:	aa1903f8 	mov	x24, x25
   8f948:	3860cb80 	ldrb	w0, [x28, w0, sxtw]
   8f94c:	51000401 	sub	w1, w0, #0x1
   8f950:	12001c21 	and	w1, w1, #0xff
   8f954:	7100603f 	cmp	w1, #0x18
   8f958:	54ffe6a8 	b.hi	8f62c <__gethex+0x114>  // b.pmore
   8f95c:	17ffffa8 	b	8f7fc <__gethex+0x2e4>
   8f960:	4b180273 	sub	w19, w19, w24
   8f964:	aa1903e0 	mov	x0, x25
   8f968:	2a1303e1 	mov	w1, w19
   8f96c:	940005b9 	bl	91050 <__any_on>
   8f970:	2a0003fa 	mov	w26, w0
   8f974:	340001a0 	cbz	w0, 8f9a8 <__gethex+0x490>
   8f978:	51000661 	sub	w1, w19, #0x1
   8f97c:	52800020 	mov	w0, #0x1                   	// #1
   8f980:	f9403fe3 	ldr	x3, [sp, #120]
   8f984:	13057c22 	asr	w2, w1, #5
   8f988:	2a0003fa 	mov	w26, w0
   8f98c:	1ac12000 	lsl	w0, w0, w1
   8f990:	b862d862 	ldr	w2, [x3, w2, sxtw #2]
   8f994:	6a02001f 	tst	w0, w2
   8f998:	54000080 	b.eq	8f9a8 <__gethex+0x490>  // b.none
   8f99c:	6b1a003f 	cmp	w1, w26
   8f9a0:	5400108c 	b.gt	8fbb0 <__gethex+0x698>
   8f9a4:	5280005a 	mov	w26, #0x2                   	// #2
   8f9a8:	0b1302d6 	add	w22, w22, w19
   8f9ac:	2a1303e1 	mov	w1, w19
   8f9b0:	aa1903e0 	mov	x0, x25
   8f9b4:	97fffe93 	bl	8f400 <rshift>
   8f9b8:	17ffff66 	b	8f750 <__gethex+0x238>
   8f9bc:	510006db 	sub	w27, w22, #0x1
   8f9c0:	35000eba 	cbnz	w26, 8fb94 <__gethex+0x67c>
   8f9c4:	35000edb 	cbnz	w27, 8fb9c <__gethex+0x684>
   8f9c8:	f9403fe4 	ldr	x4, [sp, #120]
   8f9cc:	13057f60 	asr	w0, w27, #5
   8f9d0:	52800022 	mov	w2, #0x1                   	// #1
   8f9d4:	321f0343 	orr	w3, w26, #0x2
   8f9d8:	1adb2042 	lsl	w2, w2, w27
   8f9dc:	2a1603e1 	mov	w1, w22
   8f9e0:	b860d884 	ldr	w4, [x4, w0, sxtw #2]
   8f9e4:	4b160318 	sub	w24, w24, w22
   8f9e8:	aa1903e0 	mov	x0, x25
   8f9ec:	52800053 	mov	w19, #0x2                   	// #2
   8f9f0:	6a04005f 	tst	w2, w4
   8f9f4:	1a9a107a 	csel	w26, w3, w26, ne  // ne = any
   8f9f8:	97fffe82 	bl	8f400 <rshift>
   8f9fc:	b9400696 	ldr	w22, [x20, #4]
   8fa00:	17ffffc0 	b	8f900 <__gethex+0x3e8>
   8fa04:	39400361 	ldrb	w1, [x27]
   8fa08:	aa1b03f9 	mov	x25, x27
   8fa0c:	7101403f 	cmp	w1, #0x50
   8fa10:	54000a60 	b.eq	8fb5c <__gethex+0x644>  // b.none
   8fa14:	7101c03f 	cmp	w1, #0x70
   8fa18:	54000a20 	b.eq	8fb5c <__gethex+0x644>  // b.none
   8fa1c:	f9000359 	str	x25, [x26]
   8fa20:	17ffff8c 	b	8f850 <__gethex+0x338>
   8fa24:	b9409be1 	ldr	w1, [sp, #152]
   8fa28:	52800020 	mov	w0, #0x1                   	// #1
   8fa2c:	4b010000 	sub	w0, w0, w1
   8fa30:	b9009be0 	str	w0, [sp, #152]
   8fa34:	b9409be0 	ldr	w0, [sp, #152]
   8fa38:	34fff740 	cbz	w0, 8f920 <__gethex+0x408>
   8fa3c:	b9401737 	ldr	w23, [x25, #20]
   8fa40:	f9403fe3 	ldr	x3, [sp, #120]
   8fa44:	937e7efa 	sbfiz	x26, x23, #2, #32
   8fa48:	aa0303e0 	mov	x0, x3
   8fa4c:	8b1a0062 	add	x2, x3, x26
   8fa50:	14000004 	b	8fa60 <__gethex+0x548>
   8fa54:	b800441f 	str	wzr, [x0], #4
   8fa58:	eb00005f 	cmp	x2, x0
   8fa5c:	54000e89 	b.ls	8fc2c <__gethex+0x714>  // b.plast
   8fa60:	b9400001 	ldr	w1, [x0]
   8fa64:	3100043f 	cmn	w1, #0x1
   8fa68:	54ffff60 	b.eq	8fa54 <__gethex+0x53c>  // b.none
   8fa6c:	11000421 	add	w1, w1, #0x1
   8fa70:	b9000001 	str	w1, [x0]
   8fa74:	71000a7f 	cmp	w19, #0x2
   8fa78:	54000ee0 	b.eq	8fc54 <__gethex+0x73c>  // b.none
   8fa7c:	b9401720 	ldr	w0, [x25, #20]
   8fa80:	6b17001f 	cmp	w0, w23
   8fa84:	5400016c 	b.gt	8fab0 <__gethex+0x598>
   8fa88:	72001317 	ands	w23, w24, #0x1f
   8fa8c:	52800433 	mov	w19, #0x21                  	// #33
   8fa90:	54fff4a0 	b.eq	8f924 <__gethex+0x40c>  // b.none
   8fa94:	8b1a0060 	add	x0, x3, x26
   8fa98:	b85fc000 	ldur	w0, [x0, #-4]
   8fa9c:	940002bf 	bl	90598 <__hi0bits>
   8faa0:	52800401 	mov	w1, #0x20                  	// #32
   8faa4:	4b170037 	sub	w23, w1, w23
   8faa8:	6b17001f 	cmp	w0, w23
   8faac:	54fff3ca 	b.ge	8f924 <__gethex+0x40c>  // b.tcont
   8fab0:	aa1903e0 	mov	x0, x25
   8fab4:	52800021 	mov	w1, #0x1                   	// #1
   8fab8:	97fffe52 	bl	8f400 <rshift>
   8fabc:	110006d6 	add	w22, w22, #0x1
   8fac0:	b9400a80 	ldr	w0, [x20, #8]
   8fac4:	6b16001f 	cmp	w0, w22
   8fac8:	5400050b 	b.lt	8fb68 <__gethex+0x650>  // b.tstop
   8facc:	52800433 	mov	w19, #0x21                  	// #33
   8fad0:	17ffff95 	b	8f924 <__gethex+0x40c>
   8fad4:	360ff27a 	tbz	w26, #1, 8f920 <__gethex+0x408>
   8fad8:	f9403fe0 	ldr	x0, [sp, #120]
   8fadc:	b9400000 	ldr	w0, [x0]
   8fae0:	2a000340 	orr	w0, w26, w0
   8fae4:	3707fac0 	tbnz	w0, #0, 8fa3c <__gethex+0x524>
   8fae8:	321c0273 	orr	w19, w19, #0x10
   8faec:	17ffff8e 	b	8f924 <__gethex+0x40c>
   8faf0:	52800009 	mov	w9, #0x0                   	// #0
   8faf4:	17ffff92 	b	8f93c <__gethex+0x424>
   8faf8:	9e660100 	fmov	x0, d8
   8fafc:	4b130313 	sub	w19, w24, w19
   8fb00:	aa1903e1 	mov	x1, x25
   8fb04:	2a1303e2 	mov	w2, w19
   8fb08:	4b1302d6 	sub	w22, w22, w19
   8fb0c:	940003a9 	bl	909b0 <__lshift>
   8fb10:	aa0003f9 	mov	x25, x0
   8fb14:	91006000 	add	x0, x0, #0x18
   8fb18:	f9003fe0 	str	x0, [sp, #120]
   8fb1c:	17ffff0d 	b	8f750 <__gethex+0x238>
   8fb20:	38776b20 	ldrb	w0, [x25, x23]
   8fb24:	8b170322 	add	x2, x25, x23
   8fb28:	aa0203f9 	mov	x25, x2
   8fb2c:	3860cb81 	ldrb	w1, [x28, w0, sxtw]
   8fb30:	34ffd741 	cbz	w1, 8f618 <__gethex+0x100>
   8fb34:	d503201f 	nop
   8fb38:	38401f20 	ldrb	w0, [x25, #1]!
   8fb3c:	3860cb81 	ldrb	w1, [x28, w0, sxtw]
   8fb40:	35ffffc1 	cbnz	w1, 8fb38 <__gethex+0x620>
   8fb44:	cb020322 	sub	x2, x25, x2
   8fb48:	4b020bf6 	neg	w22, w2, lsl #2
   8fb4c:	17fffeb3 	b	8f618 <__gethex+0x100>
   8fb50:	9100081b 	add	x27, x0, #0x2
   8fb54:	52800003 	mov	w3, #0x0                   	// #0
   8fb58:	17fffe93 	b	8f5a4 <__gethex+0x8c>
   8fb5c:	52800016 	mov	w22, #0x0                   	// #0
   8fb60:	52800027 	mov	w7, #0x1                   	// #1
   8fb64:	17ffff19 	b	8f7c8 <__gethex+0x2b0>
   8fb68:	9e660100 	fmov	x0, d8
   8fb6c:	aa1903e1 	mov	x1, x25
   8fb70:	52801473 	mov	w19, #0xa3                  	// #163
   8fb74:	940001fd 	bl	90368 <_Bfree>
   8fb78:	f94043e0 	ldr	x0, [sp, #128]
   8fb7c:	f900001f 	str	xzr, [x0]
   8fb80:	17ffff37 	b	8f85c <__gethex+0x344>
   8fb84:	91007003 	add	x3, x0, #0x1c
   8fb88:	52800008 	mov	w8, #0x0                   	// #0
   8fb8c:	f9403fea 	ldr	x10, [sp, #120]
   8fb90:	17fffee2 	b	8f718 <__gethex+0x200>
   8fb94:	5280003a 	mov	w26, #0x1                   	// #1
   8fb98:	17ffff8c 	b	8f9c8 <__gethex+0x4b0>
   8fb9c:	2a1b03e1 	mov	w1, w27
   8fba0:	aa1903e0 	mov	x0, x25
   8fba4:	9400052b 	bl	91050 <__any_on>
   8fba8:	2a0003fa 	mov	w26, w0
   8fbac:	17ffff87 	b	8f9c8 <__gethex+0x4b0>
   8fbb0:	51000a61 	sub	w1, w19, #0x2
   8fbb4:	aa1903e0 	mov	x0, x25
   8fbb8:	5280007a 	mov	w26, #0x3                   	// #3
   8fbbc:	94000525 	bl	91050 <__any_on>
   8fbc0:	35ffef40 	cbnz	w0, 8f9a8 <__gethex+0x490>
   8fbc4:	17ffff78 	b	8f9a4 <__gethex+0x48c>
   8fbc8:	b9409be1 	ldr	w1, [sp, #152]
   8fbcc:	35ffde21 	cbnz	w1, 8f790 <__gethex+0x278>
   8fbd0:	f9404be1 	ldr	x1, [sp, #144]
   8fbd4:	52800c53 	mov	w19, #0x62                  	// #98
   8fbd8:	b9000020 	str	w0, [x1]
   8fbdc:	52800020 	mov	w0, #0x1                   	// #1
   8fbe0:	f9403fe1 	ldr	x1, [sp, #120]
   8fbe4:	b9001720 	str	w0, [x25, #20]
   8fbe8:	b9000020 	str	w0, [x1]
   8fbec:	f94043e0 	ldr	x0, [sp, #128]
   8fbf0:	f9000019 	str	x25, [x0]
   8fbf4:	17ffff1a 	b	8f85c <__gethex+0x344>
   8fbf8:	6b16031f 	cmp	w24, w22
   8fbfc:	54ffdca1 	b.ne	8f790 <__gethex+0x278>  // b.any
   8fc00:	7100071f 	cmp	w24, #0x1
   8fc04:	54fffe60 	b.eq	8fbd0 <__gethex+0x6b8>  // b.none
   8fc08:	51000701 	sub	w1, w24, #0x1
   8fc0c:	aa1903e0 	mov	x0, x25
   8fc10:	94000510 	bl	91050 <__any_on>
   8fc14:	34ffdbe0 	cbz	w0, 8f790 <__gethex+0x278>
   8fc18:	b9400680 	ldr	w0, [x20, #4]
   8fc1c:	17ffffed 	b	8fbd0 <__gethex+0x6b8>
   8fc20:	b9409be1 	ldr	w1, [sp, #152]
   8fc24:	34ffdb61 	cbz	w1, 8f790 <__gethex+0x278>
   8fc28:	17ffffea 	b	8fbd0 <__gethex+0x6b8>
   8fc2c:	b9400f21 	ldr	w1, [x25, #12]
   8fc30:	b9401720 	ldr	w0, [x25, #20]
   8fc34:	6b01001f 	cmp	w0, w1
   8fc38:	5400028a 	b.ge	8fc88 <__gethex+0x770>  // b.tcont
   8fc3c:	8b20cb21 	add	x1, x25, w0, sxtw #2
   8fc40:	11000400 	add	w0, w0, #0x1
   8fc44:	b9001720 	str	w0, [x25, #20]
   8fc48:	52800020 	mov	w0, #0x1                   	// #1
   8fc4c:	b9001820 	str	w0, [x1, #24]
   8fc50:	17ffff89 	b	8fa74 <__gethex+0x55c>
   8fc54:	b9400280 	ldr	w0, [x20]
   8fc58:	52800453 	mov	w19, #0x22                  	// #34
   8fc5c:	51000400 	sub	w0, w0, #0x1
   8fc60:	6b18001f 	cmp	w0, w24
   8fc64:	54ffe601 	b.ne	8f924 <__gethex+0x40c>  // b.any
   8fc68:	13057f00 	asr	w0, w24, #5
   8fc6c:	52800037 	mov	w23, #0x1                   	// #1
   8fc70:	1ad822f7 	lsl	w23, w23, w24
   8fc74:	b860d860 	ldr	w0, [x3, w0, sxtw #2]
   8fc78:	6a0002ff 	tst	w23, w0
   8fc7c:	1a9f17f3 	cset	w19, eq  // eq = none
   8fc80:	11008673 	add	w19, w19, #0x21
   8fc84:	17ffff28 	b	8f924 <__gethex+0x40c>
   8fc88:	9e660100 	fmov	x0, d8
   8fc8c:	b9400b21 	ldr	w1, [x25, #8]
   8fc90:	11000421 	add	w1, w1, #0x1
   8fc94:	94000191 	bl	902d8 <_Balloc>
   8fc98:	aa0003f5 	mov	x21, x0
   8fc9c:	b9801722 	ldrsw	x2, [x25, #20]
   8fca0:	91004321 	add	x1, x25, #0x10
   8fca4:	91004000 	add	x0, x0, #0x10
   8fca8:	91000842 	add	x2, x2, #0x2
   8fcac:	d37ef442 	lsl	x2, x2, #2
   8fcb0:	940000b4 	bl	8ff80 <memcpy>
   8fcb4:	9e660100 	fmov	x0, d8
   8fcb8:	aa1903e1 	mov	x1, x25
   8fcbc:	aa1503f9 	mov	x25, x21
   8fcc0:	940001aa 	bl	90368 <_Bfree>
   8fcc4:	910062a3 	add	x3, x21, #0x18
   8fcc8:	b94016a0 	ldr	w0, [x21, #20]
   8fccc:	17ffffdc 	b	8fc3c <__gethex+0x724>

000000000008fcd0 <__match>:
   8fcd0:	aa0003e7 	mov	x7, x0
   8fcd4:	f9400003 	ldr	x3, [x0]
   8fcd8:	14000008 	b	8fcf8 <__match+0x28>
   8fcdc:	39400062 	ldrb	w2, [x3]
   8fce0:	51010446 	sub	w6, w2, #0x41
   8fce4:	11008045 	add	w5, w2, #0x20
   8fce8:	710068df 	cmp	w6, #0x1a
   8fcec:	1a8230a2 	csel	w2, w5, w2, cc  // cc = lo, ul, last
   8fcf0:	6b04005f 	cmp	w2, w4
   8fcf4:	540000e1 	b.ne	8fd10 <__match+0x40>  // b.any
   8fcf8:	38401424 	ldrb	w4, [x1], #1
   8fcfc:	91000463 	add	x3, x3, #0x1
   8fd00:	35fffee4 	cbnz	w4, 8fcdc <__match+0xc>
   8fd04:	52800020 	mov	w0, #0x1                   	// #1
   8fd08:	f90000e3 	str	x3, [x7]
   8fd0c:	d65f03c0 	ret
   8fd10:	52800000 	mov	w0, #0x0                   	// #0
   8fd14:	d65f03c0 	ret

000000000008fd18 <__hexnan>:
   8fd18:	b9400021 	ldr	w1, [x1]
   8fd1c:	7200102f 	ands	w15, w1, #0x1f
   8fd20:	13057c21 	asr	w1, w1, #5
   8fd24:	8b21c841 	add	x1, x2, w1, sxtw #2
   8fd28:	54000e21 	b.ne	8feec <__hexnan+0x1d4>  // b.any
   8fd2c:	d1001029 	sub	x9, x1, #0x4
   8fd30:	aa0103ee 	mov	x14, x1
   8fd34:	f9400006 	ldr	x6, [x0]
   8fd38:	b81fc1df 	stur	wzr, [x14, #-4]
   8fd3c:	d000002c 	adrp	x12, 95000 <BitFont+0x934>
   8fd40:	aa0903eb 	mov	x11, x9
   8fd44:	9127a18c 	add	x12, x12, #0x9e8
   8fd48:	aa0903e5 	mov	x5, x9
   8fd4c:	394004c4 	ldrb	w4, [x6, #1]
   8fd50:	52800003 	mov	w3, #0x0                   	// #0
   8fd54:	52800010 	mov	w16, #0x0                   	// #0
   8fd58:	5280000a 	mov	w10, #0x0                   	// #0
   8fd5c:	52800112 	mov	w18, #0x8                   	// #8
   8fd60:	52800411 	mov	w17, #0x20                  	// #32
   8fd64:	910004c8 	add	x8, x6, #0x1
   8fd68:	340002e4 	cbz	w4, 8fdc4 <__hexnan+0xac>
   8fd6c:	d503201f 	nop
   8fd70:	38644981 	ldrb	w1, [x12, w4, uxtw]
   8fd74:	350007a1 	cbnz	w1, 8fe68 <__hexnan+0x150>
   8fd78:	7100809f 	cmp	w4, #0x20
   8fd7c:	54000ce8 	b.hi	8ff18 <__hexnan+0x200>  // b.pmore
   8fd80:	6b10015f 	cmp	w10, w16
   8fd84:	5400018d 	b.le	8fdb4 <__hexnan+0x9c>
   8fd88:	eb0b00bf 	cmp	x5, x11
   8fd8c:	7a473860 	ccmp	w3, #0x7, #0x0, cc  // cc = lo, ul, last
   8fd90:	5400090d 	b.le	8feb0 <__hexnan+0x198>
   8fd94:	eb0200bf 	cmp	x5, x2
   8fd98:	52800103 	mov	w3, #0x8                   	// #8
   8fd9c:	540000c9 	b.ls	8fdb4 <__hexnan+0x9c>  // b.plast
   8fda0:	d10010ab 	sub	x11, x5, #0x4
   8fda4:	2a0a03f0 	mov	w16, w10
   8fda8:	b81fc0bf 	stur	wzr, [x5, #-4]
   8fdac:	aa0b03e5 	mov	x5, x11
   8fdb0:	52800003 	mov	w3, #0x0                   	// #0
   8fdb4:	aa0803e6 	mov	x6, x8
   8fdb8:	394004c4 	ldrb	w4, [x6, #1]
   8fdbc:	910004c8 	add	x8, x6, #0x1
   8fdc0:	35fffd84 	cbnz	w4, 8fd70 <__hexnan+0x58>
   8fdc4:	34000aea 	cbz	w10, 8ff20 <__hexnan+0x208>
   8fdc8:	eb0b00bf 	cmp	x5, x11
   8fdcc:	7a473860 	ccmp	w3, #0x7, #0x0, cc  // cc = lo, ul, last
   8fdd0:	5400020c 	b.gt	8fe10 <__hexnan+0xf8>
   8fdd4:	52800106 	mov	w6, #0x8                   	// #8
   8fdd8:	4b0300c6 	sub	w6, w6, w3
   8fddc:	b94000a3 	ldr	w3, [x5]
   8fde0:	52800407 	mov	w7, #0x20                  	// #32
   8fde4:	531e74c6 	lsl	w6, w6, #2
   8fde8:	aa0503e0 	mov	x0, x5
   8fdec:	4b0600e7 	sub	w7, w7, w6
   8fdf0:	b9400404 	ldr	w4, [x0, #4]
   8fdf4:	1ac72081 	lsl	w1, w4, w7
   8fdf8:	2a030021 	orr	w1, w1, w3
   8fdfc:	1ac62483 	lsr	w3, w4, w6
   8fe00:	b9000001 	str	w1, [x0]
   8fe04:	b8004c03 	str	w3, [x0, #4]!
   8fe08:	eb00017f 	cmp	x11, x0
   8fe0c:	54ffff28 	b.hi	8fdf0 <__hexnan+0xd8>  // b.pmore
   8fe10:	eb0200bf 	cmp	x5, x2
   8fe14:	54000729 	b.ls	8fef8 <__hexnan+0x1e0>  // b.plast
   8fe18:	aa0203e0 	mov	x0, x2
   8fe1c:	d503201f 	nop
   8fe20:	b84044a1 	ldr	w1, [x5], #4
   8fe24:	b8004401 	str	w1, [x0], #4
   8fe28:	eb0900bf 	cmp	x5, x9
   8fe2c:	54ffffa9 	b.ls	8fe20 <__hexnan+0x108>  // b.plast
   8fe30:	b800441f 	str	wzr, [x0], #4
   8fe34:	eb09001f 	cmp	x0, x9
   8fe38:	54ffffc9 	b.ls	8fe30 <__hexnan+0x118>  // b.plast
   8fe3c:	b85fc1c0 	ldur	w0, [x14, #-4]
   8fe40:	35000100 	cbnz	w0, 8fe60 <__hexnan+0x148>
   8fe44:	eb09005f 	cmp	x2, x9
   8fe48:	54000061 	b.ne	8fe54 <__hexnan+0x13c>  // b.any
   8fe4c:	14000037 	b	8ff28 <__hexnan+0x210>
   8fe50:	540006c0 	b.eq	8ff28 <__hexnan+0x210>  // b.none
   8fe54:	b85fcd20 	ldr	w0, [x9, #-4]!
   8fe58:	eb09005f 	cmp	x2, x9
   8fe5c:	34ffffa0 	cbz	w0, 8fe50 <__hexnan+0x138>
   8fe60:	528000a0 	mov	w0, #0x5                   	// #5
   8fe64:	d65f03c0 	ret
   8fe68:	11000463 	add	w3, w3, #0x1
   8fe6c:	1100054a 	add	w10, w10, #0x1
   8fe70:	7100207f 	cmp	w3, #0x8
   8fe74:	5400010c 	b.gt	8fe94 <__hexnan+0x17c>
   8fe78:	b94000a4 	ldr	w4, [x5]
   8fe7c:	531c6c84 	lsl	w4, w4, #4
   8fe80:	12000c21 	and	w1, w1, #0xf
   8fe84:	aa0803e6 	mov	x6, x8
   8fe88:	2a040021 	orr	w1, w1, w4
   8fe8c:	b90000a1 	str	w1, [x5]
   8fe90:	17ffffca 	b	8fdb8 <__hexnan+0xa0>
   8fe94:	eb0200bf 	cmp	x5, x2
   8fe98:	54fff8e9 	b.ls	8fdb4 <__hexnan+0x9c>  // b.plast
   8fe9c:	52800004 	mov	w4, #0x0                   	// #0
   8fea0:	52800023 	mov	w3, #0x1                   	// #1
   8fea4:	d10010a5 	sub	x5, x5, #0x4
   8fea8:	b90000bf 	str	wzr, [x5]
   8feac:	17fffff5 	b	8fe80 <__hexnan+0x168>
   8feb0:	4b030243 	sub	w3, w18, w3
   8feb4:	b94000a6 	ldr	w6, [x5]
   8feb8:	aa0503e1 	mov	x1, x5
   8febc:	531e7463 	lsl	w3, w3, #2
   8fec0:	4b03022d 	sub	w13, w17, w3
   8fec4:	d503201f 	nop
   8fec8:	b9400427 	ldr	w7, [x1, #4]
   8fecc:	1acd20e4 	lsl	w4, w7, w13
   8fed0:	2a060084 	orr	w4, w4, w6
   8fed4:	1ac324e6 	lsr	w6, w7, w3
   8fed8:	b9000024 	str	w4, [x1]
   8fedc:	b8004c26 	str	w6, [x1, #4]!
   8fee0:	eb01017f 	cmp	x11, x1
   8fee4:	54ffff28 	b.hi	8fec8 <__hexnan+0x1b0>  // b.pmore
   8fee8:	17ffffab 	b	8fd94 <__hexnan+0x7c>
   8feec:	9100102e 	add	x14, x1, #0x4
   8fef0:	aa0103e9 	mov	x9, x1
   8fef4:	17ffff90 	b	8fd34 <__hexnan+0x1c>
   8fef8:	b85fc1c0 	ldur	w0, [x14, #-4]
   8fefc:	34fffa2f 	cbz	w15, 8fe40 <__hexnan+0x128>
   8ff00:	4b0f03ef 	neg	w15, w15
   8ff04:	12800001 	mov	w1, #0xffffffff            	// #-1
   8ff08:	1acf242f 	lsr	w15, w1, w15
   8ff0c:	0a0f0000 	and	w0, w0, w15
   8ff10:	b81fc1c0 	stur	w0, [x14, #-4]
   8ff14:	17ffffcb 	b	8fe40 <__hexnan+0x128>
   8ff18:	7100a49f 	cmp	w4, #0x29
   8ff1c:	540000e0 	b.eq	8ff38 <__hexnan+0x220>  // b.none
   8ff20:	52800080 	mov	w0, #0x4                   	// #4
   8ff24:	d65f03c0 	ret
   8ff28:	52800021 	mov	w1, #0x1                   	// #1
   8ff2c:	528000a0 	mov	w0, #0x5                   	// #5
   8ff30:	b9000121 	str	w1, [x9]
   8ff34:	d65f03c0 	ret
   8ff38:	910008c6 	add	x6, x6, #0x2
   8ff3c:	f9000006 	str	x6, [x0]
   8ff40:	17ffffa1 	b	8fdc4 <__hexnan+0xac>
   8ff44:	00000000 	.inst	0x00000000 ; undefined

000000000008ff48 <__localeconv_l>:
   8ff48:	91040000 	add	x0, x0, #0x100
   8ff4c:	d65f03c0 	ret
	...

000000000008ff80 <memcpy>:
   8ff80:	f9800020 	prfm	pldl1keep, [x1]
   8ff84:	8b020024 	add	x4, x1, x2
   8ff88:	8b020005 	add	x5, x0, x2
   8ff8c:	f100405f 	cmp	x2, #0x10
   8ff90:	54000209 	b.ls	8ffd0 <memcpy+0x50>  // b.plast
   8ff94:	f101805f 	cmp	x2, #0x60
   8ff98:	54000648 	b.hi	90060 <memcpy+0xe0>  // b.pmore
   8ff9c:	d1000449 	sub	x9, x2, #0x1
   8ffa0:	a9401c26 	ldp	x6, x7, [x1]
   8ffa4:	37300469 	tbnz	w9, #6, 90030 <memcpy+0xb0>
   8ffa8:	a97f348c 	ldp	x12, x13, [x4, #-16]
   8ffac:	362800a9 	tbz	w9, #5, 8ffc0 <memcpy+0x40>
   8ffb0:	a9412428 	ldp	x8, x9, [x1, #16]
   8ffb4:	a97e2c8a 	ldp	x10, x11, [x4, #-32]
   8ffb8:	a9012408 	stp	x8, x9, [x0, #16]
   8ffbc:	a93e2caa 	stp	x10, x11, [x5, #-32]
   8ffc0:	a9001c06 	stp	x6, x7, [x0]
   8ffc4:	a93f34ac 	stp	x12, x13, [x5, #-16]
   8ffc8:	d65f03c0 	ret
   8ffcc:	d503201f 	nop
   8ffd0:	f100205f 	cmp	x2, #0x8
   8ffd4:	540000e3 	b.cc	8fff0 <memcpy+0x70>  // b.lo, b.ul, b.last
   8ffd8:	f9400026 	ldr	x6, [x1]
   8ffdc:	f85f8087 	ldur	x7, [x4, #-8]
   8ffe0:	f9000006 	str	x6, [x0]
   8ffe4:	f81f80a7 	stur	x7, [x5, #-8]
   8ffe8:	d65f03c0 	ret
   8ffec:	d503201f 	nop
   8fff0:	361000c2 	tbz	w2, #2, 90008 <memcpy+0x88>
   8fff4:	b9400026 	ldr	w6, [x1]
   8fff8:	b85fc087 	ldur	w7, [x4, #-4]
   8fffc:	b9000006 	str	w6, [x0]
   90000:	b81fc0a7 	stur	w7, [x5, #-4]
   90004:	d65f03c0 	ret
   90008:	b4000102 	cbz	x2, 90028 <memcpy+0xa8>
   9000c:	d341fc49 	lsr	x9, x2, #1
   90010:	39400026 	ldrb	w6, [x1]
   90014:	385ff087 	ldurb	w7, [x4, #-1]
   90018:	38696828 	ldrb	w8, [x1, x9]
   9001c:	39000006 	strb	w6, [x0]
   90020:	38296808 	strb	w8, [x0, x9]
   90024:	381ff0a7 	sturb	w7, [x5, #-1]
   90028:	d65f03c0 	ret
   9002c:	d503201f 	nop
   90030:	a9412428 	ldp	x8, x9, [x1, #16]
   90034:	a9422c2a 	ldp	x10, x11, [x1, #32]
   90038:	a943342c 	ldp	x12, x13, [x1, #48]
   9003c:	a97e0881 	ldp	x1, x2, [x4, #-32]
   90040:	a97f0c84 	ldp	x4, x3, [x4, #-16]
   90044:	a9001c06 	stp	x6, x7, [x0]
   90048:	a9012408 	stp	x8, x9, [x0, #16]
   9004c:	a9022c0a 	stp	x10, x11, [x0, #32]
   90050:	a903340c 	stp	x12, x13, [x0, #48]
   90054:	a93e08a1 	stp	x1, x2, [x5, #-32]
   90058:	a93f0ca4 	stp	x4, x3, [x5, #-16]
   9005c:	d65f03c0 	ret
   90060:	92400c09 	and	x9, x0, #0xf
   90064:	927cec03 	and	x3, x0, #0xfffffffffffffff0
   90068:	a940342c 	ldp	x12, x13, [x1]
   9006c:	cb090021 	sub	x1, x1, x9
   90070:	8b090042 	add	x2, x2, x9
   90074:	a9411c26 	ldp	x6, x7, [x1, #16]
   90078:	a900340c 	stp	x12, x13, [x0]
   9007c:	a9422428 	ldp	x8, x9, [x1, #32]
   90080:	a9432c2a 	ldp	x10, x11, [x1, #48]
   90084:	a9c4342c 	ldp	x12, x13, [x1, #64]!
   90088:	f1024042 	subs	x2, x2, #0x90
   9008c:	54000169 	b.ls	900b8 <memcpy+0x138>  // b.plast
   90090:	a9011c66 	stp	x6, x7, [x3, #16]
   90094:	a9411c26 	ldp	x6, x7, [x1, #16]
   90098:	a9022468 	stp	x8, x9, [x3, #32]
   9009c:	a9422428 	ldp	x8, x9, [x1, #32]
   900a0:	a9032c6a 	stp	x10, x11, [x3, #48]
   900a4:	a9432c2a 	ldp	x10, x11, [x1, #48]
   900a8:	a984346c 	stp	x12, x13, [x3, #64]!
   900ac:	a9c4342c 	ldp	x12, x13, [x1, #64]!
   900b0:	f1010042 	subs	x2, x2, #0x40
   900b4:	54fffee8 	b.hi	90090 <memcpy+0x110>  // b.pmore
   900b8:	a97c0881 	ldp	x1, x2, [x4, #-64]
   900bc:	a9011c66 	stp	x6, x7, [x3, #16]
   900c0:	a97d1c86 	ldp	x6, x7, [x4, #-48]
   900c4:	a9022468 	stp	x8, x9, [x3, #32]
   900c8:	a97e2488 	ldp	x8, x9, [x4, #-32]
   900cc:	a9032c6a 	stp	x10, x11, [x3, #48]
   900d0:	a97f2c8a 	ldp	x10, x11, [x4, #-16]
   900d4:	a904346c 	stp	x12, x13, [x3, #64]
   900d8:	a93c08a1 	stp	x1, x2, [x5, #-64]
   900dc:	a93d1ca6 	stp	x6, x7, [x5, #-48]
   900e0:	a93e24a8 	stp	x8, x9, [x5, #-32]
   900e4:	a93f2caa 	stp	x10, x11, [x5, #-16]
   900e8:	d65f03c0 	ret
	...

0000000000090100 <memset>:
   90100:	4e010c20 	dup	v0.16b, w1
   90104:	8b020004 	add	x4, x0, x2
   90108:	f101805f 	cmp	x2, #0x60
   9010c:	540003c8 	b.hi	90184 <memset+0x84>  // b.pmore
   90110:	f100405f 	cmp	x2, #0x10
   90114:	54000202 	b.cs	90154 <memset+0x54>  // b.hs, b.nlast
   90118:	4e083c01 	mov	x1, v0.d[0]
   9011c:	361800a2 	tbz	w2, #3, 90130 <memset+0x30>
   90120:	f9000001 	str	x1, [x0]
   90124:	f81f8081 	stur	x1, [x4, #-8]
   90128:	d65f03c0 	ret
   9012c:	d503201f 	nop
   90130:	36100082 	tbz	w2, #2, 90140 <memset+0x40>
   90134:	b9000001 	str	w1, [x0]
   90138:	b81fc081 	stur	w1, [x4, #-4]
   9013c:	d65f03c0 	ret
   90140:	b4000082 	cbz	x2, 90150 <memset+0x50>
   90144:	39000001 	strb	w1, [x0]
   90148:	36080042 	tbz	w2, #1, 90150 <memset+0x50>
   9014c:	781fe081 	sturh	w1, [x4, #-2]
   90150:	d65f03c0 	ret
   90154:	3d800000 	str	q0, [x0]
   90158:	373000c2 	tbnz	w2, #6, 90170 <memset+0x70>
   9015c:	3c9f0080 	stur	q0, [x4, #-16]
   90160:	36280062 	tbz	w2, #5, 9016c <memset+0x6c>
   90164:	3d800400 	str	q0, [x0, #16]
   90168:	3c9e0080 	stur	q0, [x4, #-32]
   9016c:	d65f03c0 	ret
   90170:	3d800400 	str	q0, [x0, #16]
   90174:	ad010000 	stp	q0, q0, [x0, #32]
   90178:	ad3f0080 	stp	q0, q0, [x4, #-32]
   9017c:	d65f03c0 	ret
   90180:	d503201f 	nop
   90184:	12001c21 	and	w1, w1, #0xff
   90188:	927cec03 	and	x3, x0, #0xfffffffffffffff0
   9018c:	3d800000 	str	q0, [x0]
   90190:	f104005f 	cmp	x2, #0x100
   90194:	7a402820 	ccmp	w1, #0x0, #0x0, cs  // cs = hs, nlast
   90198:	54000180 	b.eq	901c8 <memset+0xc8>  // b.none
   9019c:	cb030082 	sub	x2, x4, x3
   901a0:	91004063 	add	x3, x3, #0x10
   901a4:	d1014042 	sub	x2, x2, #0x50
   901a8:	ac820060 	stp	q0, q0, [x3], #64
   901ac:	ad3f0060 	stp	q0, q0, [x3, #-32]
   901b0:	f1010042 	subs	x2, x2, #0x40
   901b4:	54ffffa8 	b.hi	901a8 <memset+0xa8>  // b.pmore
   901b8:	ad3e0080 	stp	q0, q0, [x4, #-64]
   901bc:	ad3f0080 	stp	q0, q0, [x4, #-32]
   901c0:	d65f03c0 	ret
   901c4:	d503201f 	nop
   901c8:	d53b00e5 	mrs	x5, dczid_el0
   901cc:	3727fe85 	tbnz	w5, #4, 9019c <memset+0x9c>
   901d0:	12000ca5 	and	w5, w5, #0xf
   901d4:	710010bf 	cmp	w5, #0x4
   901d8:	54000281 	b.ne	90228 <memset+0x128>  // b.any
   901dc:	3d800460 	str	q0, [x3, #16]
   901e0:	ad010060 	stp	q0, q0, [x3, #32]
   901e4:	927ae463 	and	x3, x3, #0xffffffffffffffc0
   901e8:	ad020060 	stp	q0, q0, [x3, #64]
   901ec:	ad030060 	stp	q0, q0, [x3, #96]
   901f0:	cb030082 	sub	x2, x4, x3
   901f4:	d1040042 	sub	x2, x2, #0x100
   901f8:	91020063 	add	x3, x3, #0x80
   901fc:	d503201f 	nop
   90200:	d50b7423 	dc	zva, x3
   90204:	91010063 	add	x3, x3, #0x40
   90208:	f1010042 	subs	x2, x2, #0x40
   9020c:	54ffffa8 	b.hi	90200 <memset+0x100>  // b.pmore
   90210:	ad000060 	stp	q0, q0, [x3]
   90214:	ad010060 	stp	q0, q0, [x3, #32]
   90218:	ad3e0080 	stp	q0, q0, [x4, #-64]
   9021c:	ad3f0080 	stp	q0, q0, [x4, #-32]
   90220:	d65f03c0 	ret
   90224:	d503201f 	nop
   90228:	710014bf 	cmp	w5, #0x5
   9022c:	54000241 	b.ne	90274 <memset+0x174>  // b.any
   90230:	3d800460 	str	q0, [x3, #16]
   90234:	ad010060 	stp	q0, q0, [x3, #32]
   90238:	ad020060 	stp	q0, q0, [x3, #64]
   9023c:	ad030060 	stp	q0, q0, [x3, #96]
   90240:	9279e063 	and	x3, x3, #0xffffffffffffff80
   90244:	cb030082 	sub	x2, x4, x3
   90248:	d1040042 	sub	x2, x2, #0x100
   9024c:	91020063 	add	x3, x3, #0x80
   90250:	d50b7423 	dc	zva, x3
   90254:	91020063 	add	x3, x3, #0x80
   90258:	f1020042 	subs	x2, x2, #0x80
   9025c:	54ffffa8 	b.hi	90250 <memset+0x150>  // b.pmore
   90260:	ad3c0080 	stp	q0, q0, [x4, #-128]
   90264:	ad3d0080 	stp	q0, q0, [x4, #-96]
   90268:	ad3e0080 	stp	q0, q0, [x4, #-64]
   9026c:	ad3f0080 	stp	q0, q0, [x4, #-32]
   90270:	d65f03c0 	ret
   90274:	52800086 	mov	w6, #0x4                   	// #4
   90278:	1ac520c7 	lsl	w7, w6, w5
   9027c:	910100e5 	add	x5, x7, #0x40
   90280:	eb05005f 	cmp	x2, x5
   90284:	54fff8c3 	b.cc	9019c <memset+0x9c>  // b.lo, b.ul, b.last
   90288:	d10004e6 	sub	x6, x7, #0x1
   9028c:	8b070065 	add	x5, x3, x7
   90290:	91004063 	add	x3, x3, #0x10
   90294:	eb0300a2 	subs	x2, x5, x3
   90298:	8a2600a5 	bic	x5, x5, x6
   9029c:	540000a0 	b.eq	902b0 <memset+0x1b0>  // b.none
   902a0:	ac820060 	stp	q0, q0, [x3], #64
   902a4:	ad3f0060 	stp	q0, q0, [x3, #-32]
   902a8:	f1010042 	subs	x2, x2, #0x40
   902ac:	54ffffa8 	b.hi	902a0 <memset+0x1a0>  // b.pmore
   902b0:	aa0503e3 	mov	x3, x5
   902b4:	cb050082 	sub	x2, x4, x5
   902b8:	eb070042 	subs	x2, x2, x7
   902bc:	540000a3 	b.cc	902d0 <memset+0x1d0>  // b.lo, b.ul, b.last
   902c0:	d50b7423 	dc	zva, x3
   902c4:	8b070063 	add	x3, x3, x7
   902c8:	eb070042 	subs	x2, x2, x7
   902cc:	54ffffa2 	b.cs	902c0 <memset+0x1c0>  // b.hs, b.nlast
   902d0:	8b070042 	add	x2, x2, x7
   902d4:	17ffffb7 	b	901b0 <memset+0xb0>

00000000000902d8 <_Balloc>:
   902d8:	a9be7bfd 	stp	x29, x30, [sp, #-32]!
   902dc:	910003fd 	mov	x29, sp
   902e0:	a90153f3 	stp	x19, x20, [sp, #16]
   902e4:	2a0103f4 	mov	w20, w1
   902e8:	aa0003f3 	mov	x19, x0
   902ec:	f9403c01 	ldr	x1, [x0, #120]
   902f0:	b4000141 	cbz	x1, 90318 <_Balloc+0x40>
   902f4:	93407e82 	sxtw	x2, w20
   902f8:	f8627820 	ldr	x0, [x1, x2, lsl #3]
   902fc:	b40001e0 	cbz	x0, 90338 <_Balloc+0x60>
   90300:	f9400003 	ldr	x3, [x0]
   90304:	f8227823 	str	x3, [x1, x2, lsl #3]
   90308:	f900081f 	str	xzr, [x0, #16]
   9030c:	a94153f3 	ldp	x19, x20, [sp, #16]
   90310:	a8c27bfd 	ldp	x29, x30, [sp], #32
   90314:	d65f03c0 	ret
   90318:	d2800101 	mov	x1, #0x8                   	// #8
   9031c:	d2800822 	mov	x2, #0x41                  	// #65
   90320:	94000b5c 	bl	93090 <_calloc_r>
   90324:	f9003e60 	str	x0, [x19, #120]
   90328:	aa0003e1 	mov	x1, x0
   9032c:	b5fffe40 	cbnz	x0, 902f4 <_Balloc+0x1c>
   90330:	d2800000 	mov	x0, #0x0                   	// #0
   90334:	17fffff6 	b	9030c <_Balloc+0x34>
   90338:	52800021 	mov	w1, #0x1                   	// #1
   9033c:	aa1303e0 	mov	x0, x19
   90340:	1ad42033 	lsl	w19, w1, w20
   90344:	51000662 	sub	w2, w19, #0x1
   90348:	d2800021 	mov	x1, #0x1                   	// #1
   9034c:	93407c42 	sxtw	x2, w2
   90350:	91002042 	add	x2, x2, #0x8
   90354:	d37ef442 	lsl	x2, x2, #2
   90358:	94000b4e 	bl	93090 <_calloc_r>
   9035c:	b4fffea0 	cbz	x0, 90330 <_Balloc+0x58>
   90360:	29014c14 	stp	w20, w19, [x0, #8]
   90364:	17ffffe9 	b	90308 <_Balloc+0x30>

0000000000090368 <_Bfree>:
   90368:	b40000c1 	cbz	x1, 90380 <_Bfree+0x18>
   9036c:	b9800822 	ldrsw	x2, [x1, #8]
   90370:	f9403c00 	ldr	x0, [x0, #120]
   90374:	f8627803 	ldr	x3, [x0, x2, lsl #3]
   90378:	f9000023 	str	x3, [x1]
   9037c:	f8227801 	str	x1, [x0, x2, lsl #3]
   90380:	d65f03c0 	ret
   90384:	00000000 	.inst	0x00000000 ; undefined

0000000000090388 <__multadd>:
   90388:	a9bc7bfd 	stp	x29, x30, [sp, #-64]!
   9038c:	91006025 	add	x5, x1, #0x18
   90390:	d2800004 	mov	x4, #0x0                   	// #0
   90394:	910003fd 	mov	x29, sp
   90398:	a90153f3 	stp	x19, x20, [sp, #16]
   9039c:	aa0103f4 	mov	x20, x1
   903a0:	b9401433 	ldr	w19, [x1, #20]
   903a4:	a9025bf5 	stp	x21, x22, [sp, #32]
   903a8:	aa0003f5 	mov	x21, x0
   903ac:	d503201f 	nop
   903b0:	b86478a0 	ldr	w0, [x5, x4, lsl #2]
   903b4:	12003c01 	and	w1, w0, #0xffff
   903b8:	53107c00 	lsr	w0, w0, #16
   903bc:	1b020c23 	madd	w3, w1, w2, w3
   903c0:	12003c61 	and	w1, w3, #0xffff
   903c4:	53107c63 	lsr	w3, w3, #16
   903c8:	1b020c03 	madd	w3, w0, w2, w3
   903cc:	0b034020 	add	w0, w1, w3, lsl #16
   903d0:	b82478a0 	str	w0, [x5, x4, lsl #2]
   903d4:	91000484 	add	x4, x4, #0x1
   903d8:	53107c63 	lsr	w3, w3, #16
   903dc:	6b04027f 	cmp	w19, w4
   903e0:	54fffe8c 	b.gt	903b0 <__multadd+0x28>
   903e4:	34000103 	cbz	w3, 90404 <__multadd+0x7c>
   903e8:	b9400e80 	ldr	w0, [x20, #12]
   903ec:	6b13001f 	cmp	w0, w19
   903f0:	5400014d 	b.le	90418 <__multadd+0x90>
   903f4:	8b33ca80 	add	x0, x20, w19, sxtw #2
   903f8:	11000673 	add	w19, w19, #0x1
   903fc:	b9001803 	str	w3, [x0, #24]
   90400:	b9001693 	str	w19, [x20, #20]
   90404:	aa1403e0 	mov	x0, x20
   90408:	a94153f3 	ldp	x19, x20, [sp, #16]
   9040c:	a9425bf5 	ldp	x21, x22, [sp, #32]
   90410:	a8c47bfd 	ldp	x29, x30, [sp], #64
   90414:	d65f03c0 	ret
   90418:	b9400a81 	ldr	w1, [x20, #8]
   9041c:	aa1503e0 	mov	x0, x21
   90420:	b9003fe3 	str	w3, [sp, #60]
   90424:	11000421 	add	w1, w1, #0x1
   90428:	97ffffac 	bl	902d8 <_Balloc>
   9042c:	b9801682 	ldrsw	x2, [x20, #20]
   90430:	91004281 	add	x1, x20, #0x10
   90434:	aa0003f6 	mov	x22, x0
   90438:	91004000 	add	x0, x0, #0x10
   9043c:	91000842 	add	x2, x2, #0x2
   90440:	d37ef442 	lsl	x2, x2, #2
   90444:	97fffecf 	bl	8ff80 <memcpy>
   90448:	b9800a81 	ldrsw	x1, [x20, #8]
   9044c:	f9403ea0 	ldr	x0, [x21, #120]
   90450:	b9403fe3 	ldr	w3, [sp, #60]
   90454:	f8617802 	ldr	x2, [x0, x1, lsl #3]
   90458:	f9000282 	str	x2, [x20]
   9045c:	f8217814 	str	x20, [x0, x1, lsl #3]
   90460:	aa1603f4 	mov	x20, x22
   90464:	8b33ca80 	add	x0, x20, w19, sxtw #2
   90468:	11000673 	add	w19, w19, #0x1
   9046c:	b9001803 	str	w3, [x0, #24]
   90470:	b9001693 	str	w19, [x20, #20]
   90474:	17ffffe4 	b	90404 <__multadd+0x7c>

0000000000090478 <__s2b>:
   90478:	a9bb7bfd 	stp	x29, x30, [sp, #-80]!
   9047c:	5291c725 	mov	w5, #0x8e39                	// #36409
   90480:	72a71c65 	movk	w5, #0x38e3, lsl #16
   90484:	910003fd 	mov	x29, sp
   90488:	a90153f3 	stp	x19, x20, [sp, #16]
   9048c:	2a0303f4 	mov	w20, w3
   90490:	11002063 	add	w3, w3, #0x8
   90494:	a9025bf5 	stp	x21, x22, [sp, #32]
   90498:	2a0203f6 	mov	w22, w2
   9049c:	7100269f 	cmp	w20, #0x9
   904a0:	9b257c62 	smull	x2, w3, w5
   904a4:	a90363f7 	stp	x23, x24, [sp, #48]
   904a8:	aa0003f5 	mov	x21, x0
   904ac:	aa0103f3 	mov	x19, x1
   904b0:	2a0403f7 	mov	w23, w4
   904b4:	9361fc42 	asr	x2, x2, #33
   904b8:	4b837c42 	sub	w2, w2, w3, asr #31
   904bc:	540006ad 	b.le	90590 <__s2b+0x118>
   904c0:	52800020 	mov	w0, #0x1                   	// #1
   904c4:	52800001 	mov	w1, #0x0                   	// #0
   904c8:	531f7800 	lsl	w0, w0, #1
   904cc:	11000421 	add	w1, w1, #0x1
   904d0:	6b00005f 	cmp	w2, w0
   904d4:	54ffffac 	b.gt	904c8 <__s2b+0x50>
   904d8:	aa1503e0 	mov	x0, x21
   904dc:	97ffff7f 	bl	902d8 <_Balloc>
   904e0:	52800021 	mov	w1, #0x1                   	// #1
   904e4:	2902dc01 	stp	w1, w23, [x0, #20]
   904e8:	710026df 	cmp	w22, #0x9
   904ec:	540004cd 	b.le	90584 <__s2b+0x10c>
   904f0:	51002ad8 	sub	w24, w22, #0xa
   904f4:	f90023f9 	str	x25, [sp, #64]
   904f8:	91002b01 	add	x1, x24, #0xa
   904fc:	91002679 	add	x25, x19, #0x9
   90500:	aa1903f7 	mov	x23, x25
   90504:	8b010273 	add	x19, x19, x1
   90508:	384016e3 	ldrb	w3, [x23], #1
   9050c:	aa0003e1 	mov	x1, x0
   90510:	52800142 	mov	w2, #0xa                   	// #10
   90514:	aa1503e0 	mov	x0, x21
   90518:	5100c063 	sub	w3, w3, #0x30
   9051c:	97ffff9b 	bl	90388 <__multadd>
   90520:	eb1302ff 	cmp	x23, x19
   90524:	54ffff21 	b.ne	90508 <__s2b+0x90>  // b.any
   90528:	91000b13 	add	x19, x24, #0x2
   9052c:	8b130333 	add	x19, x25, x19
   90530:	f94023f9 	ldr	x25, [sp, #64]
   90534:	6b16029f 	cmp	w20, w22
   90538:	540001cd 	b.le	90570 <__s2b+0xf8>
   9053c:	51000694 	sub	w20, w20, #0x1
   90540:	4b160294 	sub	w20, w20, w22
   90544:	91000694 	add	x20, x20, #0x1
   90548:	8b140274 	add	x20, x19, x20
   9054c:	d503201f 	nop
   90550:	38401663 	ldrb	w3, [x19], #1
   90554:	aa0003e1 	mov	x1, x0
   90558:	52800142 	mov	w2, #0xa                   	// #10
   9055c:	aa1503e0 	mov	x0, x21
   90560:	5100c063 	sub	w3, w3, #0x30
   90564:	97ffff89 	bl	90388 <__multadd>
   90568:	eb14027f 	cmp	x19, x20
   9056c:	54ffff21 	b.ne	90550 <__s2b+0xd8>  // b.any
   90570:	a94153f3 	ldp	x19, x20, [sp, #16]
   90574:	a9425bf5 	ldp	x21, x22, [sp, #32]
   90578:	a94363f7 	ldp	x23, x24, [sp, #48]
   9057c:	a8c57bfd 	ldp	x29, x30, [sp], #80
   90580:	d65f03c0 	ret
   90584:	91002a73 	add	x19, x19, #0xa
   90588:	52800136 	mov	w22, #0x9                   	// #9
   9058c:	17ffffea 	b	90534 <__s2b+0xbc>
   90590:	52800001 	mov	w1, #0x0                   	// #0
   90594:	17ffffd1 	b	904d8 <__s2b+0x60>

0000000000090598 <__hi0bits>:
   90598:	52800001 	mov	w1, #0x0                   	// #0
   9059c:	72103c1f 	tst	w0, #0xffff0000
   905a0:	54000061 	b.ne	905ac <__hi0bits+0x14>  // b.any
   905a4:	53103c00 	lsl	w0, w0, #16
   905a8:	52800201 	mov	w1, #0x10                  	// #16
   905ac:	72081c1f 	tst	w0, #0xff000000
   905b0:	54000061 	b.ne	905bc <__hi0bits+0x24>  // b.any
   905b4:	11002021 	add	w1, w1, #0x8
   905b8:	53185c00 	lsl	w0, w0, #8
   905bc:	72040c1f 	tst	w0, #0xf0000000
   905c0:	54000061 	b.ne	905cc <__hi0bits+0x34>  // b.any
   905c4:	11001021 	add	w1, w1, #0x4
   905c8:	531c6c00 	lsl	w0, w0, #4
   905cc:	7202041f 	tst	w0, #0xc0000000
   905d0:	54000061 	b.ne	905dc <__hi0bits+0x44>  // b.any
   905d4:	11000821 	add	w1, w1, #0x2
   905d8:	531e7400 	lsl	w0, w0, #2
   905dc:	37f80080 	tbnz	w0, #31, 905ec <__hi0bits+0x54>
   905e0:	f262001f 	tst	x0, #0x40000000
   905e4:	52800400 	mov	w0, #0x20                  	// #32
   905e8:	1a810401 	csinc	w1, w0, w1, eq  // eq = none
   905ec:	2a0103e0 	mov	w0, w1
   905f0:	d65f03c0 	ret
   905f4:	00000000 	.inst	0x00000000 ; undefined

00000000000905f8 <__lo0bits>:
   905f8:	b9400001 	ldr	w1, [x0]
   905fc:	aa0003e2 	mov	x2, x0
   90600:	f240083f 	tst	x1, #0x7
   90604:	54000100 	b.eq	90624 <__lo0bits+0x2c>  // b.none
   90608:	52800000 	mov	w0, #0x0                   	// #0
   9060c:	370000a1 	tbnz	w1, #0, 90620 <__lo0bits+0x28>
   90610:	360803c1 	tbz	w1, #1, 90688 <__lo0bits+0x90>
   90614:	53017c21 	lsr	w1, w1, #1
   90618:	52800020 	mov	w0, #0x1                   	// #1
   9061c:	b9000041 	str	w1, [x2]
   90620:	d65f03c0 	ret
   90624:	12003c23 	and	w3, w1, #0xffff
   90628:	52800000 	mov	w0, #0x0                   	// #0
   9062c:	35000063 	cbnz	w3, 90638 <__lo0bits+0x40>
   90630:	53107c21 	lsr	w1, w1, #16
   90634:	52800200 	mov	w0, #0x10                  	// #16
   90638:	12001c23 	and	w3, w1, #0xff
   9063c:	35000063 	cbnz	w3, 90648 <__lo0bits+0x50>
   90640:	11002000 	add	w0, w0, #0x8
   90644:	53087c21 	lsr	w1, w1, #8
   90648:	f2400c3f 	tst	x1, #0xf
   9064c:	54000061 	b.ne	90658 <__lo0bits+0x60>  // b.any
   90650:	11001000 	add	w0, w0, #0x4
   90654:	53047c21 	lsr	w1, w1, #4
   90658:	f240043f 	tst	x1, #0x3
   9065c:	54000061 	b.ne	90668 <__lo0bits+0x70>  // b.any
   90660:	11000800 	add	w0, w0, #0x2
   90664:	53027c21 	lsr	w1, w1, #2
   90668:	37000081 	tbnz	w1, #0, 90678 <__lo0bits+0x80>
   9066c:	11000400 	add	w0, w0, #0x1
   90670:	53017c21 	lsr	w1, w1, #1
   90674:	34000061 	cbz	w1, 90680 <__lo0bits+0x88>
   90678:	b9000041 	str	w1, [x2]
   9067c:	d65f03c0 	ret
   90680:	52800400 	mov	w0, #0x20                  	// #32
   90684:	d65f03c0 	ret
   90688:	53027c21 	lsr	w1, w1, #2
   9068c:	52800040 	mov	w0, #0x2                   	// #2
   90690:	b9000041 	str	w1, [x2]
   90694:	d65f03c0 	ret

0000000000090698 <__i2b>:
   90698:	a9be7bfd 	stp	x29, x30, [sp, #-32]!
   9069c:	910003fd 	mov	x29, sp
   906a0:	f9000bf3 	str	x19, [sp, #16]
   906a4:	2a0103f3 	mov	w19, w1
   906a8:	52800021 	mov	w1, #0x1                   	// #1
   906ac:	97ffff0b 	bl	902d8 <_Balloc>
   906b0:	52800022 	mov	w2, #0x1                   	// #1
   906b4:	2902cc02 	stp	w2, w19, [x0, #20]
   906b8:	f9400bf3 	ldr	x19, [sp, #16]
   906bc:	a8c27bfd 	ldp	x29, x30, [sp], #32
   906c0:	d65f03c0 	ret
   906c4:	00000000 	.inst	0x00000000 ; undefined

00000000000906c8 <__multiply>:
   906c8:	a9bc7bfd 	stp	x29, x30, [sp, #-64]!
   906cc:	910003fd 	mov	x29, sp
   906d0:	a90153f3 	stp	x19, x20, [sp, #16]
   906d4:	b9401454 	ldr	w20, [x2, #20]
   906d8:	a9025bf5 	stp	x21, x22, [sp, #32]
   906dc:	aa0103f5 	mov	x21, x1
   906e0:	b9401436 	ldr	w22, [x1, #20]
   906e4:	f9001bf7 	str	x23, [sp, #48]
   906e8:	aa0203f7 	mov	x23, x2
   906ec:	6b1402df 	cmp	w22, w20
   906f0:	540000eb 	b.lt	9070c <__multiply+0x44>  // b.tstop
   906f4:	2a1403e2 	mov	w2, w20
   906f8:	aa1703e1 	mov	x1, x23
   906fc:	2a1603f4 	mov	w20, w22
   90700:	aa1503f7 	mov	x23, x21
   90704:	2a0203f6 	mov	w22, w2
   90708:	aa0103f5 	mov	x21, x1
   9070c:	29410ae1 	ldp	w1, w2, [x23, #8]
   90710:	0b160293 	add	w19, w20, w22
   90714:	6b13005f 	cmp	w2, w19
   90718:	1a81a421 	cinc	w1, w1, lt  // lt = tstop
   9071c:	97fffeef 	bl	902d8 <_Balloc>
   90720:	91006007 	add	x7, x0, #0x18
   90724:	8b33c8e6 	add	x6, x7, w19, sxtw #2
   90728:	aa0003e9 	mov	x9, x0
   9072c:	eb0600ff 	cmp	x7, x6
   90730:	aa0703e0 	mov	x0, x7
   90734:	54000082 	b.cs	90744 <__multiply+0x7c>  // b.hs, b.nlast
   90738:	b800441f 	str	wzr, [x0], #4
   9073c:	eb0000df 	cmp	x6, x0
   90740:	54ffffc8 	b.hi	90738 <__multiply+0x70>  // b.pmore
   90744:	910062a5 	add	x5, x21, #0x18
   90748:	910062ea 	add	x10, x23, #0x18
   9074c:	8b36c8a8 	add	x8, x5, w22, sxtw #2
   90750:	8b34c944 	add	x4, x10, w20, sxtw #2
   90754:	eb0800bf 	cmp	x5, x8
   90758:	54000103 	b.cc	90778 <__multiply+0xb0>  // b.lo, b.ul, b.last
   9075c:	1400003c 	b	9084c <__multiply+0x184>
   90760:	53107c63 	lsr	w3, w3, #16
   90764:	350003e3 	cbnz	w3, 907e0 <__multiply+0x118>
   90768:	910010a5 	add	x5, x5, #0x4
   9076c:	910010e7 	add	x7, x7, #0x4
   90770:	eb05011f 	cmp	x8, x5
   90774:	540006c9 	b.ls	9084c <__multiply+0x184>  // b.plast
   90778:	b94000a3 	ldr	w3, [x5]
   9077c:	72003c6c 	ands	w12, w3, #0xffff
   90780:	54ffff00 	b.eq	90760 <__multiply+0x98>  // b.none
   90784:	aa0703e3 	mov	x3, x7
   90788:	aa0a03eb 	mov	x11, x10
   9078c:	5280000d 	mov	w13, #0x0                   	// #0
   90790:	b8404561 	ldr	w1, [x11], #4
   90794:	b9400062 	ldr	w2, [x3]
   90798:	12003c20 	and	w0, w1, #0xffff
   9079c:	eb0b009f 	cmp	x4, x11
   907a0:	12003c4e 	and	w14, w2, #0xffff
   907a4:	53107c21 	lsr	w1, w1, #16
   907a8:	53107c42 	lsr	w2, w2, #16
   907ac:	1b0c3800 	madd	w0, w0, w12, w14
   907b0:	1b0c0821 	madd	w1, w1, w12, w2
   907b4:	0b0d0000 	add	w0, w0, w13
   907b8:	12003c02 	and	w2, w0, #0xffff
   907bc:	0b404020 	add	w0, w1, w0, lsr #16
   907c0:	2a004041 	orr	w1, w2, w0, lsl #16
   907c4:	b8004461 	str	w1, [x3], #4
   907c8:	53107c0d 	lsr	w13, w0, #16
   907cc:	54fffe28 	b.hi	90790 <__multiply+0xc8>  // b.pmore
   907d0:	b900006d 	str	w13, [x3]
   907d4:	b94000a3 	ldr	w3, [x5]
   907d8:	53107c63 	lsr	w3, w3, #16
   907dc:	34fffc63 	cbz	w3, 90768 <__multiply+0xa0>
   907e0:	b94000e0 	ldr	w0, [x7]
   907e4:	aa0703ec 	mov	x12, x7
   907e8:	aa0a03eb 	mov	x11, x10
   907ec:	5280000d 	mov	w13, #0x0                   	// #0
   907f0:	2a0003e2 	mov	w2, w0
   907f4:	d503201f 	nop
   907f8:	79400161 	ldrh	w1, [x11]
   907fc:	53107c42 	lsr	w2, w2, #16
   90800:	12003c00 	and	w0, w0, #0xffff
   90804:	1b030821 	madd	w1, w1, w3, w2
   90808:	0b0d0021 	add	w1, w1, w13
   9080c:	2a014000 	orr	w0, w0, w1, lsl #16
   90810:	b8004580 	str	w0, [x12], #4
   90814:	b8404560 	ldr	w0, [x11], #4
   90818:	b9400182 	ldr	w2, [x12]
   9081c:	eb0b009f 	cmp	x4, x11
   90820:	12003c4d 	and	w13, w2, #0xffff
   90824:	53107c00 	lsr	w0, w0, #16
   90828:	1b033400 	madd	w0, w0, w3, w13
   9082c:	0b414000 	add	w0, w0, w1, lsr #16
   90830:	53107c0d 	lsr	w13, w0, #16
   90834:	54fffe28 	b.hi	907f8 <__multiply+0x130>  // b.pmore
   90838:	b9000180 	str	w0, [x12]
   9083c:	910010a5 	add	x5, x5, #0x4
   90840:	910010e7 	add	x7, x7, #0x4
   90844:	eb05011f 	cmp	x8, x5
   90848:	54fff988 	b.hi	90778 <__multiply+0xb0>  // b.pmore
   9084c:	7100027f 	cmp	w19, #0x0
   90850:	5400012d 	b.le	90874 <__multiply+0x1ac>
   90854:	b85fc0c0 	ldur	w0, [x6, #-4]
   90858:	d10010c6 	sub	x6, x6, #0x4
   9085c:	34000080 	cbz	w0, 9086c <__multiply+0x1a4>
   90860:	14000005 	b	90874 <__multiply+0x1ac>
   90864:	b85fccc0 	ldr	w0, [x6, #-4]!
   90868:	35000060 	cbnz	w0, 90874 <__multiply+0x1ac>
   9086c:	71000673 	subs	w19, w19, #0x1
   90870:	54ffffa1 	b.ne	90864 <__multiply+0x19c>  // b.any
   90874:	a9425bf5 	ldp	x21, x22, [sp, #32]
   90878:	aa0903e0 	mov	x0, x9
   9087c:	f9401bf7 	ldr	x23, [sp, #48]
   90880:	b9001533 	str	w19, [x9, #20]
   90884:	a94153f3 	ldp	x19, x20, [sp, #16]
   90888:	a8c47bfd 	ldp	x29, x30, [sp], #64
   9088c:	d65f03c0 	ret

0000000000090890 <__pow5mult>:
   90890:	a9bc7bfd 	stp	x29, x30, [sp, #-64]!
   90894:	910003fd 	mov	x29, sp
   90898:	a90153f3 	stp	x19, x20, [sp, #16]
   9089c:	2a0203f3 	mov	w19, w2
   908a0:	72000442 	ands	w2, w2, #0x3
   908a4:	a9025bf5 	stp	x21, x22, [sp, #32]
   908a8:	aa0003f6 	mov	x22, x0
   908ac:	f9001bf7 	str	x23, [sp, #48]
   908b0:	aa0103f7 	mov	x23, x1
   908b4:	54000581 	b.ne	90964 <__pow5mult+0xd4>  // b.any
   908b8:	13027e73 	asr	w19, w19, #2
   908bc:	aa1703f5 	mov	x21, x23
   908c0:	34000333 	cbz	w19, 90924 <__pow5mult+0x94>
   908c4:	f9403ad4 	ldr	x20, [x22, #112]
   908c8:	b40005f4 	cbz	x20, 90984 <__pow5mult+0xf4>
   908cc:	aa1703f5 	mov	x21, x23
   908d0:	37000113 	tbnz	w19, #0, 908f0 <__pow5mult+0x60>
   908d4:	d503201f 	nop
   908d8:	13017e73 	asr	w19, w19, #1
   908dc:	34000253 	cbz	w19, 90924 <__pow5mult+0x94>
   908e0:	f9400280 	ldr	x0, [x20]
   908e4:	b40002c0 	cbz	x0, 9093c <__pow5mult+0xac>
   908e8:	aa0003f4 	mov	x20, x0
   908ec:	3607ff73 	tbz	w19, #0, 908d8 <__pow5mult+0x48>
   908f0:	aa1403e2 	mov	x2, x20
   908f4:	aa1503e1 	mov	x1, x21
   908f8:	aa1603e0 	mov	x0, x22
   908fc:	97ffff73 	bl	906c8 <__multiply>
   90900:	b40002f5 	cbz	x21, 9095c <__pow5mult+0xcc>
   90904:	b9800aa2 	ldrsw	x2, [x21, #8]
   90908:	13017e73 	asr	w19, w19, #1
   9090c:	f9403ec1 	ldr	x1, [x22, #120]
   90910:	f8627823 	ldr	x3, [x1, x2, lsl #3]
   90914:	f90002a3 	str	x3, [x21]
   90918:	f8227835 	str	x21, [x1, x2, lsl #3]
   9091c:	aa0003f5 	mov	x21, x0
   90920:	35fffe13 	cbnz	w19, 908e0 <__pow5mult+0x50>
   90924:	aa1503e0 	mov	x0, x21
   90928:	a94153f3 	ldp	x19, x20, [sp, #16]
   9092c:	a9425bf5 	ldp	x21, x22, [sp, #32]
   90930:	f9401bf7 	ldr	x23, [sp, #48]
   90934:	a8c47bfd 	ldp	x29, x30, [sp], #64
   90938:	d65f03c0 	ret
   9093c:	aa1403e2 	mov	x2, x20
   90940:	aa1403e1 	mov	x1, x20
   90944:	aa1603e0 	mov	x0, x22
   90948:	97ffff60 	bl	906c8 <__multiply>
   9094c:	f9000280 	str	x0, [x20]
   90950:	aa0003f4 	mov	x20, x0
   90954:	f900001f 	str	xzr, [x0]
   90958:	17ffffe5 	b	908ec <__pow5mult+0x5c>
   9095c:	aa0003f5 	mov	x21, x0
   90960:	17ffffde 	b	908d8 <__pow5mult+0x48>
   90964:	51000442 	sub	w2, w2, #0x1
   90968:	b0000024 	adrp	x4, 95000 <BitFont+0x934>
   9096c:	91300084 	add	x4, x4, #0xc00
   90970:	52800003 	mov	w3, #0x0                   	// #0
   90974:	b862d882 	ldr	w2, [x4, w2, sxtw #2]
   90978:	97fffe84 	bl	90388 <__multadd>
   9097c:	aa0003f7 	mov	x23, x0
   90980:	17ffffce 	b	908b8 <__pow5mult+0x28>
   90984:	52800021 	mov	w1, #0x1                   	// #1
   90988:	aa1603e0 	mov	x0, x22
   9098c:	97fffe53 	bl	902d8 <_Balloc>
   90990:	aa0003f4 	mov	x20, x0
   90994:	d2800020 	mov	x0, #0x1                   	// #1
   90998:	aa1703f5 	mov	x21, x23
   9099c:	f2c04e20 	movk	x0, #0x271, lsl #32
   909a0:	f8014280 	stur	x0, [x20, #20]
   909a4:	f9003ad4 	str	x20, [x22, #112]
   909a8:	f900029f 	str	xzr, [x20]
   909ac:	17ffffc9 	b	908d0 <__pow5mult+0x40>

00000000000909b0 <__lshift>:
   909b0:	a9bc7bfd 	stp	x29, x30, [sp, #-64]!
   909b4:	910003fd 	mov	x29, sp
   909b8:	a90363f7 	stp	x23, x24, [sp, #48]
   909bc:	aa0003f8 	mov	x24, x0
   909c0:	b9401437 	ldr	w23, [x1, #20]
   909c4:	a9025bf5 	stp	x21, x22, [sp, #32]
   909c8:	13057c56 	asr	w22, w2, #5
   909cc:	b9400c20 	ldr	w0, [x1, #12]
   909d0:	0b1702d7 	add	w23, w22, w23
   909d4:	a90153f3 	stp	x19, x20, [sp, #16]
   909d8:	110006f3 	add	w19, w23, #0x1
   909dc:	aa0103f5 	mov	x21, x1
   909e0:	2a0203f4 	mov	w20, w2
   909e4:	b9400821 	ldr	w1, [x1, #8]
   909e8:	6b00027f 	cmp	w19, w0
   909ec:	540000ad 	b.le	90a00 <__lshift+0x50>
   909f0:	531f7800 	lsl	w0, w0, #1
   909f4:	11000421 	add	w1, w1, #0x1
   909f8:	6b00027f 	cmp	w19, w0
   909fc:	54ffffac 	b.gt	909f0 <__lshift+0x40>
   90a00:	aa1803e0 	mov	x0, x24
   90a04:	97fffe35 	bl	902d8 <_Balloc>
   90a08:	710002df 	cmp	w22, #0x0
   90a0c:	aa0003e7 	mov	x7, x0
   90a10:	91006003 	add	x3, x0, #0x18
   90a14:	5400014d 	b.le	90a3c <__lshift+0x8c>
   90a18:	510006d6 	sub	w22, w22, #0x1
   90a1c:	aa0303e0 	mov	x0, x3
   90a20:	91001ec1 	add	x1, x22, #0x7
   90a24:	8b0108e1 	add	x1, x7, x1, lsl #2
   90a28:	b800441f 	str	wzr, [x0], #4
   90a2c:	eb01001f 	cmp	x0, x1
   90a30:	54ffffc1 	b.ne	90a28 <__lshift+0x78>  // b.any
   90a34:	910006d6 	add	x22, x22, #0x1
   90a38:	8b160863 	add	x3, x3, x22, lsl #2
   90a3c:	b98016a5 	ldrsw	x5, [x21, #20]
   90a40:	910062a0 	add	x0, x21, #0x18
   90a44:	72001282 	ands	w2, w20, #0x1f
   90a48:	8b050805 	add	x5, x0, x5, lsl #2
   90a4c:	54000380 	b.eq	90abc <__lshift+0x10c>  // b.none
   90a50:	52800406 	mov	w6, #0x20                  	// #32
   90a54:	4b0200c6 	sub	w6, w6, w2
   90a58:	52800004 	mov	w4, #0x0                   	// #0
   90a5c:	d503201f 	nop
   90a60:	b9400001 	ldr	w1, [x0]
   90a64:	1ac22021 	lsl	w1, w1, w2
   90a68:	2a040021 	orr	w1, w1, w4
   90a6c:	b8004461 	str	w1, [x3], #4
   90a70:	b8404401 	ldr	w1, [x0], #4
   90a74:	eb0000bf 	cmp	x5, x0
   90a78:	1ac62424 	lsr	w4, w1, w6
   90a7c:	54ffff28 	b.hi	90a60 <__lshift+0xb0>  // b.pmore
   90a80:	7100009f 	cmp	w4, #0x0
   90a84:	b9000064 	str	w4, [x3]
   90a88:	1a9302f7 	csel	w23, w23, w19, eq  // eq = none
   90a8c:	b9800aa2 	ldrsw	x2, [x21, #8]
   90a90:	aa0703e0 	mov	x0, x7
   90a94:	f9403f01 	ldr	x1, [x24, #120]
   90a98:	a94153f3 	ldp	x19, x20, [sp, #16]
   90a9c:	f8627823 	ldr	x3, [x1, x2, lsl #3]
   90aa0:	b90014f7 	str	w23, [x7, #20]
   90aa4:	a94363f7 	ldp	x23, x24, [sp, #48]
   90aa8:	f90002a3 	str	x3, [x21]
   90aac:	f8227835 	str	x21, [x1, x2, lsl #3]
   90ab0:	a9425bf5 	ldp	x21, x22, [sp, #32]
   90ab4:	a8c47bfd 	ldp	x29, x30, [sp], #64
   90ab8:	d65f03c0 	ret
   90abc:	b8404401 	ldr	w1, [x0], #4
   90ac0:	b8004461 	str	w1, [x3], #4
   90ac4:	eb0000bf 	cmp	x5, x0
   90ac8:	54fffe29 	b.ls	90a8c <__lshift+0xdc>  // b.plast
   90acc:	b8404401 	ldr	w1, [x0], #4
   90ad0:	b8004461 	str	w1, [x3], #4
   90ad4:	eb0000bf 	cmp	x5, x0
   90ad8:	54ffff28 	b.hi	90abc <__lshift+0x10c>  // b.pmore
   90adc:	17ffffec 	b	90a8c <__lshift+0xdc>

0000000000090ae0 <__mcmp>:
   90ae0:	aa0003e5 	mov	x5, x0
   90ae4:	b9401422 	ldr	w2, [x1, #20]
   90ae8:	b9401400 	ldr	w0, [x0, #20]
   90aec:	6b020000 	subs	w0, w0, w2
   90af0:	540001e1 	b.ne	90b2c <__mcmp+0x4c>  // b.any
   90af4:	937e7c43 	sbfiz	x3, x2, #2, #32
   90af8:	910060a5 	add	x5, x5, #0x18
   90afc:	91006021 	add	x1, x1, #0x18
   90b00:	8b0300a2 	add	x2, x5, x3
   90b04:	8b030021 	add	x1, x1, x3
   90b08:	14000003 	b	90b14 <__mcmp+0x34>
   90b0c:	eb0200bf 	cmp	x5, x2
   90b10:	540000e2 	b.cs	90b2c <__mcmp+0x4c>  // b.hs, b.nlast
   90b14:	b85fcc44 	ldr	w4, [x2, #-4]!
   90b18:	b85fcc23 	ldr	w3, [x1, #-4]!
   90b1c:	6b03009f 	cmp	w4, w3
   90b20:	54ffff60 	b.eq	90b0c <__mcmp+0x2c>  // b.none
   90b24:	52800020 	mov	w0, #0x1                   	// #1
   90b28:	5a802400 	cneg	w0, w0, cc  // cc = lo, ul, last
   90b2c:	d65f03c0 	ret

0000000000090b30 <__mdiff>:
   90b30:	a9bc7bfd 	stp	x29, x30, [sp, #-64]!
   90b34:	910003fd 	mov	x29, sp
   90b38:	b9401443 	ldr	w3, [x2, #20]
   90b3c:	a90153f3 	stp	x19, x20, [sp, #16]
   90b40:	91006033 	add	x19, x1, #0x18
   90b44:	91006054 	add	x20, x2, #0x18
   90b48:	a9025bf5 	stp	x21, x22, [sp, #32]
   90b4c:	aa0103f6 	mov	x22, x1
   90b50:	b9401435 	ldr	w21, [x1, #20]
   90b54:	f9001bf7 	str	x23, [sp, #48]
   90b58:	aa0203f7 	mov	x23, x2
   90b5c:	6b0302b5 	subs	w21, w21, w3
   90b60:	54000861 	b.ne	90c6c <__mdiff+0x13c>  // b.any
   90b64:	937e7c63 	sbfiz	x3, x3, #2, #32
   90b68:	8b030261 	add	x1, x19, x3
   90b6c:	8b030283 	add	x3, x20, x3
   90b70:	14000003 	b	90b7c <__mdiff+0x4c>
   90b74:	eb13003f 	cmp	x1, x19
   90b78:	540008e9 	b.ls	90c94 <__mdiff+0x164>  // b.plast
   90b7c:	b85fcc25 	ldr	w5, [x1, #-4]!
   90b80:	b85fcc64 	ldr	w4, [x3, #-4]!
   90b84:	6b0400bf 	cmp	w5, w4
   90b88:	54ffff60 	b.eq	90b74 <__mdiff+0x44>  // b.none
   90b8c:	54000743 	b.cc	90c74 <__mdiff+0x144>  // b.lo, b.ul, b.last
   90b90:	b9400ac1 	ldr	w1, [x22, #8]
   90b94:	97fffdd1 	bl	902d8 <_Balloc>
   90b98:	91006004 	add	x4, x0, #0x18
   90b9c:	b98016e6 	ldrsw	x6, [x23, #20]
   90ba0:	52800001 	mov	w1, #0x0                   	// #0
   90ba4:	b94016c7 	ldr	w7, [x22, #20]
   90ba8:	b9001015 	str	w21, [x0, #16]
   90bac:	8b060a86 	add	x6, x20, x6, lsl #2
   90bb0:	8b27ca68 	add	x8, x19, w7, sxtw #2
   90bb4:	14000002 	b	90bbc <__mdiff+0x8c>
   90bb8:	aa0503e4 	mov	x4, x5
   90bbc:	b8404663 	ldr	w3, [x19], #4
   90bc0:	aa0403e5 	mov	x5, x4
   90bc4:	b8404682 	ldr	w2, [x20], #4
   90bc8:	0b232021 	add	w1, w1, w3, uxth
   90bcc:	53107c63 	lsr	w3, w3, #16
   90bd0:	4b222021 	sub	w1, w1, w2, uxth
   90bd4:	4b424063 	sub	w3, w3, w2, lsr #16
   90bd8:	12003c22 	and	w2, w1, #0xffff
   90bdc:	eb1400df 	cmp	x6, x20
   90be0:	0b814061 	add	w1, w3, w1, asr #16
   90be4:	2a014042 	orr	w2, w2, w1, lsl #16
   90be8:	b80044a2 	str	w2, [x5], #4
   90bec:	13107c21 	asr	w1, w1, #16
   90bf0:	54fffe48 	b.hi	90bb8 <__mdiff+0x88>  // b.pmore
   90bf4:	eb13011f 	cmp	x8, x19
   90bf8:	54000269 	b.ls	90c44 <__mdiff+0x114>  // b.plast
   90bfc:	d1000504 	sub	x4, x8, #0x1
   90c00:	d2800006 	mov	x6, #0x0                   	// #0
   90c04:	cb130084 	sub	x4, x4, x19
   90c08:	d342fc84 	lsr	x4, x4, #2
   90c0c:	d503201f 	nop
   90c10:	b8667a63 	ldr	w3, [x19, x6, lsl #2]
   90c14:	910004c8 	add	x8, x6, #0x1
   90c18:	eb06009f 	cmp	x4, x6
   90c1c:	0b232021 	add	w1, w1, w3, uxth
   90c20:	12003c22 	and	w2, w1, #0xffff
   90c24:	13107c21 	asr	w1, w1, #16
   90c28:	0b434021 	add	w1, w1, w3, lsr #16
   90c2c:	2a014042 	orr	w2, w2, w1, lsl #16
   90c30:	b82678a2 	str	w2, [x5, x6, lsl #2]
   90c34:	13107c21 	asr	w1, w1, #16
   90c38:	aa0803e6 	mov	x6, x8
   90c3c:	54fffea1 	b.ne	90c10 <__mdiff+0xe0>  // b.any
   90c40:	8b0408a4 	add	x4, x5, x4, lsl #2
   90c44:	35000082 	cbnz	w2, 90c54 <__mdiff+0x124>
   90c48:	b85fcc81 	ldr	w1, [x4, #-4]!
   90c4c:	510004e7 	sub	w7, w7, #0x1
   90c50:	34ffffc1 	cbz	w1, 90c48 <__mdiff+0x118>
   90c54:	b9001407 	str	w7, [x0, #20]
   90c58:	a94153f3 	ldp	x19, x20, [sp, #16]
   90c5c:	a9425bf5 	ldp	x21, x22, [sp, #32]
   90c60:	f9401bf7 	ldr	x23, [sp, #48]
   90c64:	a8c47bfd 	ldp	x29, x30, [sp], #64
   90c68:	d65f03c0 	ret
   90c6c:	52800015 	mov	w21, #0x0                   	// #0
   90c70:	54fff905 	b.pl	90b90 <__mdiff+0x60>  // b.nfrst
   90c74:	aa1303e2 	mov	x2, x19
   90c78:	aa1603e1 	mov	x1, x22
   90c7c:	aa1403f3 	mov	x19, x20
   90c80:	aa1703f6 	mov	x22, x23
   90c84:	aa0203f4 	mov	x20, x2
   90c88:	aa0103f7 	mov	x23, x1
   90c8c:	52800035 	mov	w21, #0x1                   	// #1
   90c90:	17ffffc0 	b	90b90 <__mdiff+0x60>
   90c94:	52800001 	mov	w1, #0x0                   	// #0
   90c98:	97fffd90 	bl	902d8 <_Balloc>
   90c9c:	d2800021 	mov	x1, #0x1                   	// #1
   90ca0:	f8014001 	stur	x1, [x0, #20]
   90ca4:	a94153f3 	ldp	x19, x20, [sp, #16]
   90ca8:	a9425bf5 	ldp	x21, x22, [sp, #32]
   90cac:	f9401bf7 	ldr	x23, [sp, #48]
   90cb0:	a8c47bfd 	ldp	x29, x30, [sp], #64
   90cb4:	d65f03c0 	ret

0000000000090cb8 <__ulp>:
   90cb8:	7f600400 	ushr	d0, d0, #32
   90cbc:	52bf9801 	mov	w1, #0xfcc00000            	// #-54525952
   90cc0:	1e260000 	fmov	w0, s0
   90cc4:	120c2800 	and	w0, w0, #0x7ff00000
   90cc8:	0b010000 	add	w0, w0, w1
   90ccc:	7100001f 	cmp	w0, #0x0
   90cd0:	5400008d 	b.le	90ce0 <__ulp+0x28>
   90cd4:	d3607c00 	lsl	x0, x0, #32
   90cd8:	9e670000 	fmov	d0, x0
   90cdc:	d65f03c0 	ret
   90ce0:	4b0003e0 	neg	w0, w0
   90ce4:	13147c00 	asr	w0, w0, #20
   90ce8:	71004c1f 	cmp	w0, #0x13
   90cec:	5400008c 	b.gt	90cfc <__ulp+0x44>
   90cf0:	52a00101 	mov	w1, #0x80000               	// #524288
   90cf4:	1ac02820 	asr	w0, w1, w0
   90cf8:	17fffff7 	b	90cd4 <__ulp+0x1c>
   90cfc:	51005002 	sub	w2, w0, #0x14
   90d00:	52b00001 	mov	w1, #0x80000000            	// #-2147483648
   90d04:	71007c5f 	cmp	w2, #0x1f
   90d08:	d2800000 	mov	x0, #0x0                   	// #0
   90d0c:	1ac22421 	lsr	w1, w1, w2
   90d10:	1a9fb421 	csinc	w1, w1, wzr, lt  // lt = tstop
   90d14:	b3407c20 	bfxil	x0, x1, #0, #32
   90d18:	9e670000 	fmov	d0, x0
   90d1c:	d65f03c0 	ret

0000000000090d20 <__b2d>:
   90d20:	a9bf7bfd 	stp	x29, x30, [sp, #-16]!
   90d24:	91006005 	add	x5, x0, #0x18
   90d28:	aa0103e7 	mov	x7, x1
   90d2c:	910003fd 	mov	x29, sp
   90d30:	b9801404 	ldrsw	x4, [x0, #20]
   90d34:	8b0408a4 	add	x4, x5, x4, lsl #2
   90d38:	d1001086 	sub	x6, x4, #0x4
   90d3c:	b85fc082 	ldur	w2, [x4, #-4]
   90d40:	2a0203e0 	mov	w0, w2
   90d44:	97fffe15 	bl	90598 <__hi0bits>
   90d48:	7100281f 	cmp	w0, #0xa
   90d4c:	52800403 	mov	w3, #0x20                  	// #32
   90d50:	4b000061 	sub	w1, w3, w0
   90d54:	b90000e1 	str	w1, [x7]
   90d58:	5400042d 	b.le	90ddc <__b2d+0xbc>
   90d5c:	51002c00 	sub	w0, w0, #0xb
   90d60:	eb0600bf 	cmp	x5, x6
   90d64:	540002a2 	b.cs	90db8 <__b2d+0x98>  // b.hs, b.nlast
   90d68:	b85f8087 	ldur	w7, [x4, #-8]
   90d6c:	340002a0 	cbz	w0, 90dc0 <__b2d+0xa0>
   90d70:	4b000066 	sub	w6, w3, w0
   90d74:	1ac02041 	lsl	w1, w2, w0
   90d78:	d2800003 	mov	x3, #0x0                   	// #0
   90d7c:	d1002082 	sub	x2, x4, #0x8
   90d80:	1ac624e8 	lsr	w8, w7, w6
   90d84:	2a080021 	orr	w1, w1, w8
   90d88:	320c2421 	orr	w1, w1, #0x3ff00000
   90d8c:	1ac020e0 	lsl	w0, w7, w0
   90d90:	eb0200bf 	cmp	x5, x2
   90d94:	b3607c23 	bfi	x3, x1, #32, #32
   90d98:	54000082 	b.cs	90da8 <__b2d+0x88>  // b.hs, b.nlast
   90d9c:	b85f4081 	ldur	w1, [x4, #-12]
   90da0:	1ac62426 	lsr	w6, w1, w6
   90da4:	2a060000 	orr	w0, w0, w6
   90da8:	b3407c03 	bfxil	x3, x0, #0, #32
   90dac:	9e670060 	fmov	d0, x3
   90db0:	a8c17bfd 	ldp	x29, x30, [sp], #16
   90db4:	d65f03c0 	ret
   90db8:	52800007 	mov	w7, #0x0                   	// #0
   90dbc:	35000340 	cbnz	w0, 90e24 <__b2d+0x104>
   90dc0:	320c2442 	orr	w2, w2, #0x3ff00000
   90dc4:	d2800003 	mov	x3, #0x0                   	// #0
   90dc8:	a8c17bfd 	ldp	x29, x30, [sp], #16
   90dcc:	b3607c43 	bfi	x3, x2, #32, #32
   90dd0:	b3407ce3 	bfxil	x3, x7, #0, #32
   90dd4:	9e670060 	fmov	d0, x3
   90dd8:	d65f03c0 	ret
   90ddc:	52800161 	mov	w1, #0xb                   	// #11
   90de0:	4b000021 	sub	w1, w1, w0
   90de4:	eb0600bf 	cmp	x5, x6
   90de8:	d2800003 	mov	x3, #0x0                   	// #0
   90dec:	1ac12445 	lsr	w5, w2, w1
   90df0:	320c24a5 	orr	w5, w5, #0x3ff00000
   90df4:	52800006 	mov	w6, #0x0                   	// #0
   90df8:	b3607ca3 	bfi	x3, x5, #32, #32
   90dfc:	54000062 	b.cs	90e08 <__b2d+0xe8>  // b.hs, b.nlast
   90e00:	b85f8086 	ldur	w6, [x4, #-8]
   90e04:	1ac124c6 	lsr	w6, w6, w1
   90e08:	11005400 	add	w0, w0, #0x15
   90e0c:	a8c17bfd 	ldp	x29, x30, [sp], #16
   90e10:	1ac02042 	lsl	w2, w2, w0
   90e14:	2a060042 	orr	w2, w2, w6
   90e18:	b3407c43 	bfxil	x3, x2, #0, #32
   90e1c:	9e670060 	fmov	d0, x3
   90e20:	d65f03c0 	ret
   90e24:	1ac02042 	lsl	w2, w2, w0
   90e28:	320c2442 	orr	w2, w2, #0x3ff00000
   90e2c:	d2800003 	mov	x3, #0x0                   	// #0
   90e30:	52800000 	mov	w0, #0x0                   	// #0
   90e34:	b3607c43 	bfi	x3, x2, #32, #32
   90e38:	b3407c03 	bfxil	x3, x0, #0, #32
   90e3c:	17ffffdc 	b	90dac <__b2d+0x8c>

0000000000090e40 <__d2b>:
   90e40:	a9bc7bfd 	stp	x29, x30, [sp, #-64]!
   90e44:	910003fd 	mov	x29, sp
   90e48:	fd0013e8 	str	d8, [sp, #32]
   90e4c:	1e604008 	fmov	d8, d0
   90e50:	a90153f3 	stp	x19, x20, [sp, #16]
   90e54:	aa0103f4 	mov	x20, x1
   90e58:	52800021 	mov	w1, #0x1                   	// #1
   90e5c:	aa0203f3 	mov	x19, x2
   90e60:	97fffd1e 	bl	902d8 <_Balloc>
   90e64:	9e660101 	fmov	x1, d8
   90e68:	aa0003e5 	mov	x5, x0
   90e6c:	d360fc24 	lsr	x4, x1, #32
   90e70:	12004c80 	and	w0, w4, #0xfffff
   90e74:	53147884 	ubfx	w4, w4, #20, #11
   90e78:	320c0002 	orr	w2, w0, #0x100000
   90e7c:	7100009f 	cmp	w4, #0x0
   90e80:	1a820000 	csel	w0, w0, w2, eq  // eq = none
   90e84:	b9003fe0 	str	w0, [sp, #60]
   90e88:	34000421 	cbz	w1, 90f0c <__d2b+0xcc>
   90e8c:	9100e3e0 	add	x0, sp, #0x38
   90e90:	bd003be8 	str	s8, [sp, #56]
   90e94:	97fffdd9 	bl	905f8 <__lo0bits>
   90e98:	b9403fe1 	ldr	w1, [sp, #60]
   90e9c:	35000280 	cbnz	w0, 90eec <__d2b+0xac>
   90ea0:	b9403be2 	ldr	w2, [sp, #56]
   90ea4:	b90018a2 	str	w2, [x5, #24]
   90ea8:	7100003f 	cmp	w1, #0x0
   90eac:	b9001ca1 	str	w1, [x5, #28]
   90eb0:	1a9f07e2 	cset	w2, ne  // ne = any
   90eb4:	11000442 	add	w2, w2, #0x1
   90eb8:	b90014a2 	str	w2, [x5, #20]
   90ebc:	34000384 	cbz	w4, 90f2c <__d2b+0xec>
   90ec0:	5110cc84 	sub	w4, w4, #0x433
   90ec4:	528006a1 	mov	w1, #0x35                  	// #53
   90ec8:	0b000084 	add	w4, w4, w0
   90ecc:	b9000284 	str	w4, [x20]
   90ed0:	4b000020 	sub	w0, w1, w0
   90ed4:	b9000260 	str	w0, [x19]
   90ed8:	aa0503e0 	mov	x0, x5
   90edc:	fd4013e8 	ldr	d8, [sp, #32]
   90ee0:	a94153f3 	ldp	x19, x20, [sp, #16]
   90ee4:	a8c47bfd 	ldp	x29, x30, [sp], #64
   90ee8:	d65f03c0 	ret
   90eec:	4b0003e2 	neg	w2, w0
   90ef0:	b9403be3 	ldr	w3, [sp, #56]
   90ef4:	1ac22022 	lsl	w2, w1, w2
   90ef8:	2a030042 	orr	w2, w2, w3
   90efc:	1ac02421 	lsr	w1, w1, w0
   90f00:	b90018a2 	str	w2, [x5, #24]
   90f04:	b9003fe1 	str	w1, [sp, #60]
   90f08:	17ffffe8 	b	90ea8 <__d2b+0x68>
   90f0c:	9100f3e0 	add	x0, sp, #0x3c
   90f10:	97fffdba 	bl	905f8 <__lo0bits>
   90f14:	b9403fe3 	ldr	w3, [sp, #60]
   90f18:	52800021 	mov	w1, #0x1                   	// #1
   90f1c:	29028ca1 	stp	w1, w3, [x5, #20]
   90f20:	11008000 	add	w0, w0, #0x20
   90f24:	2a0103e2 	mov	w2, w1
   90f28:	35fffcc4 	cbnz	w4, 90ec0 <__d2b+0x80>
   90f2c:	8b22c8a1 	add	x1, x5, w2, sxtw #2
   90f30:	5110c800 	sub	w0, w0, #0x432
   90f34:	b9000280 	str	w0, [x20]
   90f38:	b9401420 	ldr	w0, [x1, #20]
   90f3c:	97fffd97 	bl	90598 <__hi0bits>
   90f40:	531b6842 	lsl	w2, w2, #5
   90f44:	4b000042 	sub	w2, w2, w0
   90f48:	b9000262 	str	w2, [x19]
   90f4c:	aa0503e0 	mov	x0, x5
   90f50:	fd4013e8 	ldr	d8, [sp, #32]
   90f54:	a94153f3 	ldp	x19, x20, [sp, #16]
   90f58:	a8c47bfd 	ldp	x29, x30, [sp], #64
   90f5c:	d65f03c0 	ret

0000000000090f60 <__ratio>:
   90f60:	aa0103e9 	mov	x9, x1
   90f64:	aa0003ea 	mov	x10, x0
   90f68:	a9be7bfd 	stp	x29, x30, [sp, #-32]!
   90f6c:	910003fd 	mov	x29, sp
   90f70:	910063e1 	add	x1, sp, #0x18
   90f74:	97ffff6b 	bl	90d20 <__b2d>
   90f78:	1e604001 	fmov	d1, d0
   90f7c:	aa0903e0 	mov	x0, x9
   90f80:	910073e1 	add	x1, sp, #0x1c
   90f84:	97ffff67 	bl	90d20 <__b2d>
   90f88:	b9401523 	ldr	w3, [x9, #20]
   90f8c:	b9401540 	ldr	w0, [x10, #20]
   90f90:	294313e1 	ldp	w1, w4, [sp, #24]
   90f94:	4b030000 	sub	w0, w0, w3
   90f98:	4b040021 	sub	w1, w1, w4
   90f9c:	0b001420 	add	w0, w1, w0, lsl #5
   90fa0:	7100001f 	cmp	w0, #0x0
   90fa4:	5400012d 	b.le	90fc8 <__ratio+0x68>
   90fa8:	9e660022 	fmov	x2, d1
   90fac:	a8c27bfd 	ldp	x29, x30, [sp], #32
   90fb0:	d360fc41 	lsr	x1, x2, #32
   90fb4:	0b005020 	add	w0, w1, w0, lsl #20
   90fb8:	b3607c02 	bfi	x2, x0, #32, #32
   90fbc:	9e670041 	fmov	d1, x2
   90fc0:	1e601820 	fdiv	d0, d1, d0
   90fc4:	d65f03c0 	ret
   90fc8:	9e660003 	fmov	x3, d0
   90fcc:	a8c27bfd 	ldp	x29, x30, [sp], #32
   90fd0:	d360fc61 	lsr	x1, x3, #32
   90fd4:	4b005020 	sub	w0, w1, w0, lsl #20
   90fd8:	b3607c03 	bfi	x3, x0, #32, #32
   90fdc:	9e670060 	fmov	d0, x3
   90fe0:	1e601820 	fdiv	d0, d1, d0
   90fe4:	d65f03c0 	ret

0000000000090fe8 <__copybits>:
   90fe8:	51000421 	sub	w1, w1, #0x1
   90fec:	91006045 	add	x5, x2, #0x18
   90ff0:	13057c24 	asr	w4, w1, #5
   90ff4:	b9801441 	ldrsw	x1, [x2, #20]
   90ff8:	8b24c804 	add	x4, x0, w4, sxtw #2
   90ffc:	8b0108a1 	add	x1, x5, x1, lsl #2
   91000:	91001084 	add	x4, x4, #0x4
   91004:	eb0100bf 	cmp	x5, x1
   91008:	540001e2 	b.cs	91044 <__copybits+0x5c>  // b.hs, b.nlast
   9100c:	cb020022 	sub	x2, x1, x2
   91010:	d2800001 	mov	x1, #0x0                   	// #0
   91014:	d1006442 	sub	x2, x2, #0x19
   91018:	d342fc42 	lsr	x2, x2, #2
   9101c:	91000446 	add	x6, x2, #0x1
   91020:	b86178a3 	ldr	w3, [x5, x1, lsl #2]
   91024:	eb02003f 	cmp	x1, x2
   91028:	b8217803 	str	w3, [x0, x1, lsl #2]
   9102c:	91000421 	add	x1, x1, #0x1
   91030:	54ffff81 	b.ne	91020 <__copybits+0x38>  // b.any
   91034:	8b060800 	add	x0, x0, x6, lsl #2
   91038:	eb00009f 	cmp	x4, x0
   9103c:	54000089 	b.ls	9104c <__copybits+0x64>  // b.plast
   91040:	b800441f 	str	wzr, [x0], #4
   91044:	eb00009f 	cmp	x4, x0
   91048:	54ffffc8 	b.hi	91040 <__copybits+0x58>  // b.pmore
   9104c:	d65f03c0 	ret

0000000000091050 <__any_on>:
   91050:	b9401402 	ldr	w2, [x0, #20]
   91054:	13057c24 	asr	w4, w1, #5
   91058:	91006003 	add	x3, x0, #0x18
   9105c:	6b04005f 	cmp	w2, w4
   91060:	540001aa 	b.ge	91094 <__any_on+0x44>  // b.tcont
   91064:	8b22c862 	add	x2, x3, w2, sxtw #2
   91068:	eb02007f 	cmp	x3, x2
   9106c:	54000302 	b.cs	910cc <__any_on+0x7c>  // b.hs, b.nlast
   91070:	b85fc040 	ldur	w0, [x2, #-4]
   91074:	d1001041 	sub	x1, x2, #0x4
   91078:	34000080 	cbz	w0, 91088 <__any_on+0x38>
   9107c:	14000012 	b	910c4 <__any_on+0x74>
   91080:	b85fcc22 	ldr	w2, [x1, #-4]!
   91084:	35000202 	cbnz	w2, 910c4 <__any_on+0x74>
   91088:	eb01007f 	cmp	x3, x1
   9108c:	54ffffa3 	b.cc	91080 <__any_on+0x30>  // b.lo, b.ul, b.last
   91090:	d65f03c0 	ret
   91094:	93407c84 	sxtw	x4, w4
   91098:	8b040862 	add	x2, x3, x4, lsl #2
   9109c:	54fffe6d 	b.le	91068 <__any_on+0x18>
   910a0:	72001021 	ands	w1, w1, #0x1f
   910a4:	54fffe20 	b.eq	91068 <__any_on+0x18>  // b.none
   910a8:	b8647865 	ldr	w5, [x3, x4, lsl #2]
   910ac:	52800020 	mov	w0, #0x1                   	// #1
   910b0:	1ac124a4 	lsr	w4, w5, w1
   910b4:	1ac12081 	lsl	w1, w4, w1
   910b8:	6b0100bf 	cmp	w5, w1
   910bc:	54fffd60 	b.eq	91068 <__any_on+0x18>  // b.none
   910c0:	d65f03c0 	ret
   910c4:	52800020 	mov	w0, #0x1                   	// #1
   910c8:	d65f03c0 	ret
   910cc:	52800000 	mov	w0, #0x0                   	// #0
   910d0:	d65f03c0 	ret
   910d4:	00000000 	.inst	0x00000000 ; undefined

00000000000910d8 <nanf>:
   910d8:	52aff800 	mov	w0, #0x7fc00000            	// #2143289344
   910dc:	1e270000 	fmov	s0, w0
   910e0:	d65f03c0 	ret
   910e4:	00000000 	.inst	0x00000000 ; undefined

00000000000910e8 <rshift>:
   910e8:	b9401402 	ldr	w2, [x0, #20]
   910ec:	13057c23 	asr	w3, w1, #5
   910f0:	6b03005f 	cmp	w2, w3
   910f4:	5400056d 	b.le	911a0 <rshift+0xb8>
   910f8:	93407c44 	sxtw	x4, w2
   910fc:	93407c68 	sxtw	x8, w3
   91100:	91006006 	add	x6, x0, #0x18
   91104:	72001021 	ands	w1, w1, #0x1f
   91108:	8b0408c9 	add	x9, x6, x4, lsl #2
   9110c:	8b0808c3 	add	x3, x6, x8, lsl #2
   91110:	540004e0 	b.eq	911ac <rshift+0xc4>  // b.none
   91114:	b86878c5 	ldr	w5, [x6, x8, lsl #2]
   91118:	91001063 	add	x3, x3, #0x4
   9111c:	5280040a 	mov	w10, #0x20                  	// #32
   91120:	eb03013f 	cmp	x9, x3
   91124:	4b01014a 	sub	w10, w10, w1
   91128:	1ac124a5 	lsr	w5, w5, w1
   9112c:	54000329 	b.ls	91190 <rshift+0xa8>  // b.plast
   91130:	aa0603e7 	mov	x7, x6
   91134:	d503201f 	nop
   91138:	b9400062 	ldr	w2, [x3]
   9113c:	1aca2042 	lsl	w2, w2, w10
   91140:	2a050042 	orr	w2, w2, w5
   91144:	b80044e2 	str	w2, [x7], #4
   91148:	b8404462 	ldr	w2, [x3], #4
   9114c:	eb03013f 	cmp	x9, x3
   91150:	1ac12445 	lsr	w5, w2, w1
   91154:	54ffff28 	b.hi	91138 <rshift+0x50>  // b.pmore
   91158:	cb080081 	sub	x1, x4, x8
   9115c:	d37ef421 	lsl	x1, x1, #2
   91160:	d1001421 	sub	x1, x1, #0x5
   91164:	d342fc21 	lsr	x1, x1, #2
   91168:	91000421 	add	x1, x1, #0x1
   9116c:	8b0108c2 	add	x2, x6, x1, lsl #2
   91170:	b82178c5 	str	w5, [x6, x1, lsl #2]
   91174:	340003a5 	cbz	w5, 911e8 <rshift+0x100>
   91178:	91001042 	add	x2, x2, #0x4
   9117c:	cb060046 	sub	x6, x2, x6
   91180:	9342fcc6 	asr	x6, x6, #2
   91184:	b9001406 	str	w6, [x0, #20]
   91188:	340000e6 	cbz	w6, 911a4 <rshift+0xbc>
   9118c:	d65f03c0 	ret
   91190:	b9001805 	str	w5, [x0, #24]
   91194:	aa0603e2 	mov	x2, x6
   91198:	35ffff05 	cbnz	w5, 91178 <rshift+0x90>
   9119c:	d503201f 	nop
   911a0:	b900141f 	str	wzr, [x0, #20]
   911a4:	b900181f 	str	wzr, [x0, #24]
   911a8:	d65f03c0 	ret
   911ac:	eb03013f 	cmp	x9, x3
   911b0:	54ffff89 	b.ls	911a0 <rshift+0xb8>  // b.plast
   911b4:	cb080082 	sub	x2, x4, x8
   911b8:	d2800001 	mov	x1, #0x0                   	// #0
   911bc:	d37ef442 	lsl	x2, x2, #2
   911c0:	d1000442 	sub	x2, x2, #0x1
   911c4:	d342fc42 	lsr	x2, x2, #2
   911c8:	91000444 	add	x4, x2, #0x1
   911cc:	d503201f 	nop
   911d0:	b8617865 	ldr	w5, [x3, x1, lsl #2]
   911d4:	eb02003f 	cmp	x1, x2
   911d8:	b82178c5 	str	w5, [x6, x1, lsl #2]
   911dc:	91000421 	add	x1, x1, #0x1
   911e0:	54ffff81 	b.ne	911d0 <rshift+0xe8>  // b.any
   911e4:	8b0408c2 	add	x2, x6, x4, lsl #2
   911e8:	cb060046 	sub	x6, x2, x6
   911ec:	9342fcc6 	asr	x6, x6, #2
   911f0:	b9001406 	str	w6, [x0, #20]
   911f4:	34fffd86 	cbz	w6, 911a4 <rshift+0xbc>
   911f8:	d65f03c0 	ret
   911fc:	00000000 	.inst	0x00000000 ; undefined

0000000000091200 <increment>:
   91200:	a9bd7bfd 	stp	x29, x30, [sp, #-48]!
   91204:	910003fd 	mov	x29, sp
   91208:	b9801422 	ldrsw	x2, [x1, #20]
   9120c:	a90153f3 	stp	x19, x20, [sp, #16]
   91210:	aa0003f4 	mov	x20, x0
   91214:	91006020 	add	x0, x1, #0x18
   91218:	aa0103f3 	mov	x19, x1
   9121c:	8b020802 	add	x2, x0, x2, lsl #2
   91220:	14000004 	b	91230 <increment+0x30>
   91224:	b800441f 	str	wzr, [x0], #4
   91228:	eb00005f 	cmp	x2, x0
   9122c:	54000149 	b.ls	91254 <increment+0x54>  // b.plast
   91230:	b9400001 	ldr	w1, [x0]
   91234:	3100043f 	cmn	w1, #0x1
   91238:	54ffff60 	b.eq	91224 <increment+0x24>  // b.none
   9123c:	11000421 	add	w1, w1, #0x1
   91240:	b9000001 	str	w1, [x0]
   91244:	aa1303e0 	mov	x0, x19
   91248:	a94153f3 	ldp	x19, x20, [sp, #16]
   9124c:	a8c37bfd 	ldp	x29, x30, [sp], #48
   91250:	d65f03c0 	ret
   91254:	b9400e61 	ldr	w1, [x19, #12]
   91258:	b9401660 	ldr	w0, [x19, #20]
   9125c:	6b01001f 	cmp	w0, w1
   91260:	5400014a 	b.ge	91288 <increment+0x88>  // b.tcont
   91264:	8b20ca61 	add	x1, x19, w0, sxtw #2
   91268:	11000400 	add	w0, w0, #0x1
   9126c:	b9001660 	str	w0, [x19, #20]
   91270:	52800020 	mov	w0, #0x1                   	// #1
   91274:	b9001820 	str	w0, [x1, #24]
   91278:	aa1303e0 	mov	x0, x19
   9127c:	a94153f3 	ldp	x19, x20, [sp, #16]
   91280:	a8c37bfd 	ldp	x29, x30, [sp], #48
   91284:	d65f03c0 	ret
   91288:	b9400a61 	ldr	w1, [x19, #8]
   9128c:	aa1403e0 	mov	x0, x20
   91290:	f90013f5 	str	x21, [sp, #32]
   91294:	11000421 	add	w1, w1, #0x1
   91298:	97fffc10 	bl	902d8 <_Balloc>
   9129c:	b9801662 	ldrsw	x2, [x19, #20]
   912a0:	aa0003f5 	mov	x21, x0
   912a4:	91004261 	add	x1, x19, #0x10
   912a8:	91004000 	add	x0, x0, #0x10
   912ac:	91000842 	add	x2, x2, #0x2
   912b0:	d37ef442 	lsl	x2, x2, #2
   912b4:	97fffb33 	bl	8ff80 <memcpy>
   912b8:	aa1303e1 	mov	x1, x19
   912bc:	aa1403e0 	mov	x0, x20
   912c0:	aa1503f3 	mov	x19, x21
   912c4:	97fffc29 	bl	90368 <_Bfree>
   912c8:	b94016a0 	ldr	w0, [x21, #20]
   912cc:	f94013f5 	ldr	x21, [sp, #32]
   912d0:	17ffffe5 	b	91264 <increment+0x64>
   912d4:	00000000 	.inst	0x00000000 ; undefined

00000000000912d8 <rvOK>:
   912d8:	a9b77bfd 	stp	x29, x30, [sp, #-144]!
   912dc:	910003fd 	mov	x29, sp
   912e0:	fd0033e8 	str	d8, [sp, #96]
   912e4:	9e670068 	fmov	d8, x3
   912e8:	a9046bf9 	stp	x25, x26, [sp, #64]
   912ec:	aa0103fa 	mov	x26, x1
   912f0:	910233e1 	add	x1, sp, #0x8c
   912f4:	a90153f3 	stp	x19, x20, [sp, #16]
   912f8:	2a0503f3 	mov	w19, w5
   912fc:	a9025bf5 	stp	x21, x22, [sp, #32]
   91300:	aa0603f6 	mov	x22, x6
   91304:	a90363f7 	stp	x23, x24, [sp, #48]
   91308:	2a0403f7 	mov	w23, w4
   9130c:	aa0203f8 	mov	x24, x2
   91310:	910223e2 	add	x2, sp, #0x88
   91314:	a90573fb 	stp	x27, x28, [sp, #80]
   91318:	aa0003fc 	mov	x28, x0
   9131c:	97fffec9 	bl	90e40 <__d2b>
   91320:	b9400355 	ldr	w21, [x26]
   91324:	295113e2 	ldp	w2, w4, [sp, #136]
   91328:	aa0003f4 	mov	x20, x0
   9132c:	4b150041 	sub	w1, w2, w21
   91330:	0b040024 	add	w4, w1, w4
   91334:	291113e1 	stp	w1, w4, [sp, #136]
   91338:	7100003f 	cmp	w1, #0x0
   9133c:	5400086d 	b.le	91448 <rvOK+0x170>
   91340:	7100d6bf 	cmp	w21, #0x35
   91344:	54000600 	b.eq	91404 <rvOK+0x12c>  // b.none
   91348:	7100067f 	cmp	w19, #0x1
   9134c:	54001140 	b.eq	91574 <rvOK+0x29c>  // b.none
   91350:	71000a7f 	cmp	w19, #0x2
   91354:	54001021 	b.ne	91558 <rvOK+0x280>  // b.any
   91358:	52800033 	mov	w19, #0x1                   	// #1
   9135c:	aa1403e0 	mov	x0, x20
   91360:	97ffff3c 	bl	91050 <__any_on>
   91364:	b9408be1 	ldr	w1, [sp, #136]
   91368:	2a0003e3 	mov	w3, w0
   9136c:	7100001f 	cmp	w0, #0x0
   91370:	aa1403e0 	mov	x0, x20
   91374:	1a9f07f9 	cset	w25, ne  // ne = any
   91378:	b9007fe3 	str	w3, [sp, #124]
   9137c:	97ffff5b 	bl	910e8 <rshift>
   91380:	531c6f39 	lsl	w25, w25, #4
   91384:	b9407fe3 	ldr	w3, [sp, #124]
   91388:	34001093 	cbz	w19, 91598 <rvOK+0x2c0>
   9138c:	aa1403e1 	mov	x1, x20
   91390:	aa1c03e0 	mov	x0, x28
   91394:	b9007fe3 	str	w3, [sp, #124]
   91398:	97ffff9a 	bl	91200 <increment>
   9139c:	aa0003f4 	mov	x20, x0
   913a0:	b9401400 	ldr	w0, [x0, #20]
   913a4:	720012b3 	ands	w19, w21, #0x1f
   913a8:	52800419 	mov	w25, #0x20                  	// #32
   913ac:	51000400 	sub	w0, w0, #0x1
   913b0:	4b130321 	sub	w1, w25, w19
   913b4:	1a931033 	csel	w19, w1, w19, ne  // ne = any
   913b8:	8b20ca80 	add	x0, x20, w0, sxtw #2
   913bc:	b9401800 	ldr	w0, [x0, #24]
   913c0:	97fffc76 	bl	90598 <__hi0bits>
   913c4:	6b13001f 	cmp	w0, w19
   913c8:	b9407fe3 	ldr	w3, [sp, #124]
   913cc:	54000e60 	b.eq	91598 <rvOK+0x2c0>  // b.none
   913d0:	35000063 	cbnz	w3, 913dc <rvOK+0x104>
   913d4:	b9401a83 	ldr	w3, [x20, #24]
   913d8:	12000063 	and	w3, w3, #0x1
   913dc:	52800021 	mov	w1, #0x1                   	// #1
   913e0:	aa1403e0 	mov	x0, x20
   913e4:	b9007fe3 	str	w3, [sp, #124]
   913e8:	97ffff40 	bl	910e8 <rshift>
   913ec:	b9408fe4 	ldr	w4, [sp, #140]
   913f0:	52800419 	mov	w25, #0x20                  	// #32
   913f4:	b9407fe3 	ldr	w3, [sp, #124]
   913f8:	11000484 	add	w4, w4, #0x1
   913fc:	b9008fe4 	str	w4, [sp, #140]
   91400:	14000017 	b	9145c <rvOK+0x184>
   91404:	5280001b 	mov	w27, #0x0                   	// #0
   91408:	34000097 	cbz	w23, 91418 <rvOK+0x140>
   9140c:	b9400f42 	ldr	w2, [x26, #12]
   91410:	7100045f 	cmp	w2, #0x1
   91414:	54000f80 	b.eq	91604 <rvOK+0x32c>  // b.none
   91418:	aa1403e1 	mov	x1, x20
   9141c:	aa1c03e0 	mov	x0, x28
   91420:	97fffbd2 	bl	90368 <_Bfree>
   91424:	2a1b03e0 	mov	w0, w27
   91428:	fd4033e8 	ldr	d8, [sp, #96]
   9142c:	a94153f3 	ldp	x19, x20, [sp, #16]
   91430:	a9425bf5 	ldp	x21, x22, [sp, #32]
   91434:	a94363f7 	ldp	x23, x24, [sp, #48]
   91438:	a9446bf9 	ldp	x25, x26, [sp, #64]
   9143c:	a94573fb 	ldp	x27, x28, [sp, #80]
   91440:	a8c97bfd 	ldp	x29, x30, [sp], #144
   91444:	d65f03c0 	ret
   91448:	5280001b 	mov	w27, #0x0                   	// #0
   9144c:	34fffe77 	cbz	w23, 91418 <rvOK+0x140>
   91450:	52800003 	mov	w3, #0x0                   	// #0
   91454:	52800019 	mov	w25, #0x0                   	// #0
   91458:	35000a41 	cbnz	w1, 915a0 <rvOK+0x2c8>
   9145c:	b9400740 	ldr	w0, [x26, #4]
   91460:	6b04001f 	cmp	w0, w4
   91464:	540005ed 	b.le	91520 <rvOK+0x248>
   91468:	b9008fe0 	str	w0, [sp, #140]
   9146c:	4b040013 	sub	w19, w0, w4
   91470:	6b1302bf 	cmp	w21, w19
   91474:	5400038b 	b.lt	914e4 <rvOK+0x20c>  // b.tstop
   91478:	b940135b 	ldr	w27, [x26, #16]
   9147c:	3500035b 	cbnz	w27, 914e4 <rvOK+0x20c>
   91480:	5100067a 	sub	w26, w19, #0x1
   91484:	7100035f 	cmp	w26, #0x0
   91488:	7a40c860 	ccmp	w3, #0x0, #0x0, gt
   9148c:	54000d20 	b.eq	91630 <rvOK+0x358>  // b.none
   91490:	b9007fe3 	str	w3, [sp, #124]
   91494:	2a0302f7 	orr	w23, w23, w3
   91498:	34fffc17 	cbz	w23, 91418 <rvOK+0x140>
   9149c:	13057f42 	asr	w2, w26, #5
   914a0:	52800020 	mov	w0, #0x1                   	// #1
   914a4:	1ada201a 	lsl	w26, w0, w26
   914a8:	2a1303e1 	mov	w1, w19
   914ac:	8b22ca82 	add	x2, x20, w2, sxtw #2
   914b0:	aa1403e0 	mov	x0, x20
   914b4:	b9401842 	ldr	w2, [x2, #24]
   914b8:	0a02035a 	and	w26, w26, w2
   914bc:	97ffff0b 	bl	910e8 <rshift>
   914c0:	52800040 	mov	w0, #0x2                   	// #2
   914c4:	b90002c0 	str	w0, [x22]
   914c8:	b9407fe3 	ldr	w3, [sp, #124]
   914cc:	35000bda 	cbnz	w26, 91644 <rvOK+0x36c>
   914d0:	7100007f 	cmp	w3, #0x0
   914d4:	52800a00 	mov	w0, #0x50                  	// #80
   914d8:	b9408fe4 	ldr	w4, [sp, #140]
   914dc:	1a800339 	csel	w25, w25, w0, eq  // eq = none
   914e0:	14000006 	b	914f8 <rvOK+0x220>
   914e4:	b900169f 	str	wzr, [x20, #20]
   914e8:	2a0003e4 	mov	w4, w0
   914ec:	52800019 	mov	w25, #0x0                   	// #0
   914f0:	52800a00 	mov	w0, #0x50                  	// #80
   914f4:	b90002c0 	str	w0, [x22]
   914f8:	9e660100 	fmov	x0, d8
   914fc:	b9000304 	str	w4, [x24]
   91500:	2a1503e1 	mov	w1, w21
   91504:	aa1403e2 	mov	x2, x20
   91508:	5280003b 	mov	w27, #0x1                   	// #1
   9150c:	97fffeb7 	bl	90fe8 <__copybits>
   91510:	b94002c0 	ldr	w0, [x22]
   91514:	2a190019 	orr	w25, w0, w25
   91518:	b90002d9 	str	w25, [x22]
   9151c:	17ffffbf 	b	91418 <rvOK+0x140>
   91520:	b9400b40 	ldr	w0, [x26, #8]
   91524:	6b04001f 	cmp	w0, w4
   91528:	54fffe8a 	b.ge	914f8 <rvOK+0x220>  // b.tcont
   9152c:	11000400 	add	w0, w0, #0x1
   91530:	52801461 	mov	w1, #0xa3                  	// #163
   91534:	b90002c1 	str	w1, [x22]
   91538:	52800019 	mov	w25, #0x0                   	// #0
   9153c:	b9008fe0 	str	w0, [sp, #140]
   91540:	940006fa 	bl	93128 <__errno>
   91544:	52800441 	mov	w1, #0x22                  	// #34
   91548:	b9000001 	str	w1, [x0]
   9154c:	b900169f 	str	wzr, [x20, #20]
   91550:	b9408fe4 	ldr	w4, [sp, #140]
   91554:	17ffffe9 	b	914f8 <rvOK+0x220>
   91558:	71000420 	subs	w0, w1, #0x1
   9155c:	54000441 	b.ne	915e4 <rvOK+0x30c>  // b.any
   91560:	5280001b 	mov	w27, #0x0                   	// #0
   91564:	34fff5b7 	cbz	w23, 91418 <rvOK+0x140>
   91568:	b9401a93 	ldr	w19, [x20, #24]
   9156c:	d3410673 	ubfx	x19, x19, #1, #1
   91570:	17ffff7b 	b	9135c <rvOK+0x84>
   91574:	97fffeb7 	bl	91050 <__any_on>
   91578:	2a0003e3 	mov	w3, w0
   9157c:	35000240 	cbnz	w0, 915c4 <rvOK+0x2ec>
   91580:	b9408be1 	ldr	w1, [sp, #136]
   91584:	aa1403e0 	mov	x0, x20
   91588:	b9007fe3 	str	w3, [sp, #124]
   9158c:	52800019 	mov	w25, #0x0                   	// #0
   91590:	97fffed6 	bl	910e8 <rshift>
   91594:	b9407fe3 	ldr	w3, [sp, #124]
   91598:	b9408fe4 	ldr	w4, [sp, #140]
   9159c:	17ffffb0 	b	9145c <rvOK+0x184>
   915a0:	aa0003e1 	mov	x1, x0
   915a4:	4b0202a2 	sub	w2, w21, w2
   915a8:	aa1c03e0 	mov	x0, x28
   915ac:	b9007fe3 	str	w3, [sp, #124]
   915b0:	97fffd00 	bl	909b0 <__lshift>
   915b4:	aa0003f4 	mov	x20, x0
   915b8:	b9407fe3 	ldr	w3, [sp, #124]
   915bc:	b9408fe4 	ldr	w4, [sp, #140]
   915c0:	17ffffa7 	b	9145c <rvOK+0x184>
   915c4:	b9408be1 	ldr	w1, [sp, #136]
   915c8:	aa1403e0 	mov	x0, x20
   915cc:	b9007fe3 	str	w3, [sp, #124]
   915d0:	52800219 	mov	w25, #0x10                  	// #16
   915d4:	97fffec5 	bl	910e8 <rshift>
   915d8:	b9407fe3 	ldr	w3, [sp, #124]
   915dc:	b9408fe4 	ldr	w4, [sp, #140]
   915e0:	17ffff9f 	b	9145c <rvOK+0x184>
   915e4:	13057c03 	asr	w3, w0, #5
   915e8:	52800022 	mov	w2, #0x1                   	// #1
   915ec:	1ac02040 	lsl	w0, w2, w0
   915f0:	8b23ca82 	add	x2, x20, w3, sxtw #2
   915f4:	b9401842 	ldr	w2, [x2, #24]
   915f8:	6a02001f 	tst	w0, w2
   915fc:	1a9f07f3 	cset	w19, ne  // ne = any
   91600:	17ffff57 	b	9135c <rvOK+0x84>
   91604:	97fffe93 	bl	91050 <__any_on>
   91608:	2a0003e3 	mov	w3, w0
   9160c:	35fffdc0 	cbnz	w0, 915c4 <rvOK+0x2ec>
   91610:	b9408be1 	ldr	w1, [sp, #136]
   91614:	aa1403e0 	mov	x0, x20
   91618:	b9007fe3 	str	w3, [sp, #124]
   9161c:	52800019 	mov	w25, #0x0                   	// #0
   91620:	97fffeb2 	bl	910e8 <rshift>
   91624:	b9407fe3 	ldr	w3, [sp, #124]
   91628:	b9408fe4 	ldr	w4, [sp, #140]
   9162c:	17ffff8c 	b	9145c <rvOK+0x184>
   91630:	2a1a03e1 	mov	w1, w26
   91634:	aa1403e0 	mov	x0, x20
   91638:	97fffe86 	bl	91050 <__any_on>
   9163c:	2a0003e3 	mov	w3, w0
   91640:	17ffff94 	b	91490 <rvOK+0x1b8>
   91644:	aa1403e1 	mov	x1, x20
   91648:	aa1c03e0 	mov	x0, x28
   9164c:	97fffeed 	bl	91200 <increment>
   91650:	52800c19 	mov	w25, #0x60                  	// #96
   91654:	aa0003f4 	mov	x20, x0
   91658:	b9408fe4 	ldr	w4, [sp, #140]
   9165c:	17ffffa7 	b	914f8 <rvOK+0x220>

0000000000091660 <set_ones>:
   91660:	a9bd7bfd 	stp	x29, x30, [sp, #-48]!
   91664:	aa0103e4 	mov	x4, x1
   91668:	910003fd 	mov	x29, sp
   9166c:	a90153f3 	stp	x19, x20, [sp, #16]
   91670:	11007c54 	add	w20, w2, #0x1f
   91674:	2a0203f3 	mov	w19, w2
   91678:	b9400822 	ldr	w2, [x1, #8]
   9167c:	13057e94 	asr	w20, w20, #5
   91680:	6b14005f 	cmp	w2, w20
   91684:	5400040b 	b.lt	91704 <set_ones+0xa4>  // b.tstop
   91688:	13057e61 	asr	w1, w19, #5
   9168c:	91006080 	add	x0, x4, #0x18
   91690:	72001273 	ands	w19, w19, #0x1f
   91694:	540001e0 	b.eq	916d0 <set_ones+0x70>  // b.none
   91698:	11000421 	add	w1, w1, #0x1
   9169c:	b9001481 	str	w1, [x4, #20]
   916a0:	8b21c801 	add	x1, x0, w1, sxtw #2
   916a4:	eb00003f 	cmp	x1, x0
   916a8:	540001e9 	b.ls	916e4 <set_ones+0x84>  // b.plast
   916ac:	12800003 	mov	w3, #0xffffffff            	// #-1
   916b0:	b8004403 	str	w3, [x0], #4
   916b4:	eb00003f 	cmp	x1, x0
   916b8:	54ffffc8 	b.hi	916b0 <set_ones+0x50>  // b.pmore
   916bc:	35000153 	cbnz	w19, 916e4 <set_ones+0x84>
   916c0:	aa0403e0 	mov	x0, x4
   916c4:	a94153f3 	ldp	x19, x20, [sp, #16]
   916c8:	a8c37bfd 	ldp	x29, x30, [sp], #48
   916cc:	d65f03c0 	ret
   916d0:	b9001481 	str	w1, [x4, #20]
   916d4:	8b21c801 	add	x1, x0, w1, sxtw #2
   916d8:	eb00003f 	cmp	x1, x0
   916dc:	54fffe88 	b.hi	916ac <set_ones+0x4c>  // b.pmore
   916e0:	17fffff8 	b	916c0 <set_ones+0x60>
   916e4:	b85fc001 	ldur	w1, [x0, #-4]
   916e8:	4b1303f3 	neg	w19, w19
   916ec:	1ad32433 	lsr	w19, w1, w19
   916f0:	b81fc013 	stur	w19, [x0, #-4]
   916f4:	aa0403e0 	mov	x0, x4
   916f8:	a94153f3 	ldp	x19, x20, [sp, #16]
   916fc:	a8c37bfd 	ldp	x29, x30, [sp], #48
   91700:	d65f03c0 	ret
   91704:	f90013f5 	str	x21, [sp, #32]
   91708:	aa0003f5 	mov	x21, x0
   9170c:	97fffb17 	bl	90368 <_Bfree>
   91710:	aa1503e0 	mov	x0, x21
   91714:	2a1403e1 	mov	w1, w20
   91718:	97fffaf0 	bl	902d8 <_Balloc>
   9171c:	aa0003e4 	mov	x4, x0
   91720:	f94013f5 	ldr	x21, [sp, #32]
   91724:	17ffffd9 	b	91688 <set_ones+0x28>

0000000000091728 <_strtodg_l>:
   91728:	a9ac7bfd 	stp	x29, x30, [sp, #-320]!
   9172c:	910003fd 	mov	x29, sp
   91730:	6d0627e8 	stp	d8, d9, [sp, #96]
   91734:	9e670008 	fmov	d8, x0
   91738:	aa0603e0 	mov	x0, x6
   9173c:	6d0837ec 	stp	d12, d13, [sp, #128]
   91740:	9e6700ac 	fmov	d12, x5
   91744:	a90153f3 	stp	x19, x20, [sp, #16]
   91748:	a9025bf5 	stp	x21, x22, [sp, #32]
   9174c:	a90363f7 	stp	x23, x24, [sp, #48]
   91750:	a9046bf9 	stp	x25, x26, [sp, #64]
   91754:	aa0303fa 	mov	x26, x3
   91758:	a90573fb 	stp	x27, x28, [sp, #80]
   9175c:	aa0103fb 	mov	x27, x1
   91760:	a90a0be6 	stp	x6, x2, [sp, #160]
   91764:	f90067e4 	str	x4, [sp, #200]
   91768:	97fff9f8 	bl	8ff48 <__localeconv_l>
   9176c:	aa0003f5 	mov	x21, x0
   91770:	f9400000 	ldr	x0, [x0]
   91774:	97ffef03 	bl	8d380 <strlen>
   91778:	b9400357 	ldr	w23, [x26]
   9177c:	f94053e6 	ldr	x6, [sp, #160]
   91780:	aa1b03e1 	mov	x1, x27
   91784:	b90123ff 	str	wzr, [sp, #288]
   91788:	a9137ffb 	stp	x27, xzr, [sp, #304]
   9178c:	39400033 	ldrb	w19, [x1]
   91790:	aa0103f9 	mov	x25, x1
   91794:	7100367f 	cmp	w19, #0xd
   91798:	54001109 	b.ls	919b8 <_strtodg_l+0x290>  // b.plast
   9179c:	7100ae7f 	cmp	w19, #0x2b
   917a0:	54001640 	b.eq	91a68 <_strtodg_l+0x340>  // b.none
   917a4:	7100b67f 	cmp	w19, #0x2d
   917a8:	540012e1 	b.ne	91a04 <_strtodg_l+0x2dc>  // b.any
   917ac:	52800022 	mov	w2, #0x1                   	// #1
   917b0:	b900a3e2 	str	w2, [sp, #160]
   917b4:	91000439 	add	x25, x1, #0x1
   917b8:	f9009bf9 	str	x25, [sp, #304]
   917bc:	39400433 	ldrb	w19, [x1, #1]
   917c0:	34001033 	cbz	w19, 919c4 <_strtodg_l+0x29c>
   917c4:	7100c27f 	cmp	w19, #0x30
   917c8:	52800014 	mov	w20, #0x0                   	// #0
   917cc:	54001280 	b.eq	91a1c <_strtodg_l+0x2f4>  // b.none
   917d0:	93407c1c 	sxtw	x28, w0
   917d4:	b9401340 	ldr	w0, [x26, #16]
   917d8:	b900efe0 	str	w0, [sp, #236]
   917dc:	5100c261 	sub	w1, w19, #0x30
   917e0:	7100243f 	cmp	w1, #0x9
   917e4:	f94002a1 	ldr	x1, [x21]
   917e8:	54008f88 	b.hi	929d8 <_strtodg_l+0x12b0>  // b.pmore
   917ec:	91000722 	add	x2, x25, #0x1
   917f0:	52800018 	mov	w24, #0x0                   	// #0
   917f4:	52800015 	mov	w21, #0x0                   	// #0
   917f8:	52800016 	mov	w22, #0x0                   	// #0
   917fc:	1400000a 	b	91824 <_strtodg_l+0xfc>
   91800:	f9009be2 	str	x2, [sp, #304]
   91804:	0b030660 	add	w0, w19, w3, lsl #1
   91808:	5100c015 	sub	w21, w0, #0x30
   9180c:	aa0203e0 	mov	x0, x2
   91810:	38401453 	ldrb	w19, [x2], #1
   91814:	110006d6 	add	w22, w22, #0x1
   91818:	5100c263 	sub	w3, w19, #0x30
   9181c:	7100247f 	cmp	w3, #0x9
   91820:	54000208 	b.hi	91860 <_strtodg_l+0x138>  // b.pmore
   91824:	0b180b00 	add	w0, w24, w24, lsl #2
   91828:	0b150aa3 	add	w3, w21, w21, lsl #2
   9182c:	710022df 	cmp	w22, #0x8
   91830:	54fffe8d 	b.le	91800 <_strtodg_l+0xd8>
   91834:	0b000660 	add	w0, w19, w0, lsl #1
   91838:	f9009be2 	str	x2, [sp, #304]
   9183c:	710042df 	cmp	w22, #0x10
   91840:	5100c000 	sub	w0, w0, #0x30
   91844:	1a98b018 	csel	w24, w0, w24, lt  // lt = tstop
   91848:	aa0203e0 	mov	x0, x2
   9184c:	38401453 	ldrb	w19, [x2], #1
   91850:	110006d6 	add	w22, w22, #0x1
   91854:	5100c263 	sub	w3, w19, #0x30
   91858:	7100247f 	cmp	w3, #0x9
   9185c:	54fffe49 	b.ls	91824 <_strtodg_l+0xfc>  // b.plast
   91860:	aa1c03e2 	mov	x2, x28
   91864:	97ffef1e 	bl	8d4dc <strncmp>
   91868:	34001bc0 	cbz	w0, 91be0 <_strtodg_l+0x4b8>
   9186c:	121a7a60 	and	w0, w19, #0xffffffdf
   91870:	7101141f 	cmp	w0, #0x45
   91874:	54000fe0 	b.eq	91a70 <_strtodg_l+0x348>  // b.none
   91878:	2a1603fb 	mov	w27, w22
   9187c:	52800007 	mov	w7, #0x0                   	// #0
   91880:	5280001c 	mov	w28, #0x0                   	// #0
   91884:	52800021 	mov	w1, #0x1                   	// #1
   91888:	b9400f40 	ldr	w0, [x26, #12]
   9188c:	b90123e1 	str	w1, [sp, #288]
   91890:	4b070381 	sub	w1, w28, w7
   91894:	b900d3e1 	str	w1, [sp, #208]
   91898:	12000400 	and	w0, w0, #0x3
   9189c:	b940a3e1 	ldr	w1, [sp, #160]
   918a0:	7100081f 	cmp	w0, #0x2
   918a4:	4b010002 	sub	w2, w0, w1
   918a8:	b900c3e2 	str	w2, [sp, #192]
   918ac:	54000100 	b.eq	918cc <_strtodg_l+0x1a4>  // b.none
   918b0:	11000421 	add	w1, w1, #0x1
   918b4:	b900c3e1 	str	w1, [sp, #192]
   918b8:	71000c1f 	cmp	w0, #0x3
   918bc:	54000080 	b.eq	918cc <_strtodg_l+0x1a4>  // b.none
   918c0:	7100001f 	cmp	w0, #0x0
   918c4:	1a9f17e0 	cset	w0, eq  // eq = none
   918c8:	b900c3e0 	str	w0, [sp, #192]
   918cc:	1e6302a0 	ucvtf	d0, w21
   918d0:	710002df 	cmp	w22, #0x0
   918d4:	1a9b12d6 	csel	w22, w22, w27, ne  // ne = any
   918d8:	7100437f 	cmp	w27, #0x10
   918dc:	52800208 	mov	w8, #0x10                  	// #16
   918e0:	1a88d368 	csel	w8, w27, w8, le
   918e4:	7100277f 	cmp	w27, #0x9
   918e8:	9e660013 	fmov	x19, d0
   918ec:	5400010d 	b.le	9190c <_strtodg_l+0x1e4>
   918f0:	90000020 	adrp	x0, 95000 <BitFont+0x934>
   918f4:	51002501 	sub	w1, w8, #0x9
   918f8:	912c4000 	add	x0, x0, #0xb10
   918fc:	1e630301 	ucvtf	d1, w24
   91900:	fc61d802 	ldr	d2, [x0, w1, sxtw #3]
   91904:	1f420400 	fmadd	d0, d0, d2, d1
   91908:	9e660013 	fmov	x19, d0
   9190c:	7100d6ff 	cmp	w23, #0x35
   91910:	7a4fdb60 	ccmp	w27, #0xf, #0x0, le
   91914:	54001bec 	b.gt	91c90 <_strtodg_l+0x568>
   91918:	4b070380 	sub	w0, w28, w7
   9191c:	7100001f 	cmp	w0, #0x0
   91920:	540019a0 	b.eq	91c54 <_strtodg_l+0x52c>  // b.none
   91924:	4b070380 	sub	w0, w28, w7
   91928:	5400954d 	b.le	92bd0 <_strtodg_l+0x14a8>
   9192c:	7100581f 	cmp	w0, #0x16
   91930:	54009aad 	b.le	92c84 <_strtodg_l+0x155c>
   91934:	4b070381 	sub	w1, w28, w7
   91938:	528004a0 	mov	w0, #0x25                  	// #37
   9193c:	4b080374 	sub	w20, w27, w8
   91940:	4b1b0000 	sub	w0, w0, w27
   91944:	0b010294 	add	w20, w20, w1
   91948:	6b01001f 	cmp	w0, w1
   9194c:	54001acb 	b.lt	91ca4 <_strtodg_l+0x57c>  // b.tstop
   91950:	528001e1 	mov	w1, #0xf                   	// #15
   91954:	90000020 	adrp	x0, 95000 <BitFont+0x934>
   91958:	4b1b0021 	sub	w1, w1, w27
   9195c:	912c4000 	add	x0, x0, #0xb10
   91960:	b940d3e2 	ldr	w2, [sp, #208]
   91964:	9e670262 	fmov	d2, x19
   91968:	9e660183 	fmov	x3, d12
   9196c:	b940c3e5 	ldr	w5, [sp, #192]
   91970:	fc61d801 	ldr	d1, [x0, w1, sxtw #3]
   91974:	4b010042 	sub	w2, w2, w1
   91978:	910483e6 	add	x6, sp, #0x120
   9197c:	aa1a03e1 	mov	x1, x26
   91980:	52800004 	mov	w4, #0x0                   	// #0
   91984:	2916a3e7 	stp	w7, w8, [sp, #180]
   91988:	1e620821 	fmul	d1, d1, d2
   9198c:	fc62d800 	ldr	d0, [x0, w2, sxtw #3]
   91990:	9e660100 	fmov	x0, d8
   91994:	f94067e2 	ldr	x2, [sp, #200]
   91998:	1e600821 	fmul	d1, d1, d0
   9199c:	1e604020 	fmov	d0, d1
   919a0:	9e660033 	fmov	x19, d1
   919a4:	97fffe4d 	bl	912d8 <rvOK>
   919a8:	2956a3e7 	ldp	w7, w8, [sp, #180]
   919ac:	350016e0 	cbnz	w0, 91c88 <_strtodg_l+0x560>
   919b0:	52800014 	mov	w20, #0x0                   	// #0
   919b4:	140000b8 	b	91c94 <_strtodg_l+0x56c>
   919b8:	7100267f 	cmp	w19, #0x9
   919bc:	54000502 	b.cs	91a5c <_strtodg_l+0x334>  // b.hs, b.nlast
   919c0:	35000273 	cbnz	w19, 91a0c <_strtodg_l+0x2e4>
   919c4:	f94057e1 	ldr	x1, [sp, #168]
   919c8:	528000c0 	mov	w0, #0x6                   	// #6
   919cc:	b90123e0 	str	w0, [sp, #288]
   919d0:	b4000081 	cbz	x1, 919e0 <_strtodg_l+0x2b8>
   919d4:	f94057e0 	ldr	x0, [sp, #168]
   919d8:	f900001b 	str	x27, [x0]
   919dc:	b94123e0 	ldr	w0, [sp, #288]
   919e0:	a94153f3 	ldp	x19, x20, [sp, #16]
   919e4:	a9425bf5 	ldp	x21, x22, [sp, #32]
   919e8:	a94363f7 	ldp	x23, x24, [sp, #48]
   919ec:	a9446bf9 	ldp	x25, x26, [sp, #64]
   919f0:	a94573fb 	ldp	x27, x28, [sp, #80]
   919f4:	6d4627e8 	ldp	d8, d9, [sp, #96]
   919f8:	6d4837ec 	ldp	d12, d13, [sp, #128]
   919fc:	a8d47bfd 	ldp	x29, x30, [sp], #320
   91a00:	d65f03c0 	ret
   91a04:	7100827f 	cmp	w19, #0x20
   91a08:	540002a0 	b.eq	91a5c <_strtodg_l+0x334>  // b.none
   91a0c:	b900a3ff 	str	wzr, [sp, #160]
   91a10:	7100c27f 	cmp	w19, #0x30
   91a14:	52800014 	mov	w20, #0x0                   	// #0
   91a18:	54ffedc1 	b.ne	917d0 <_strtodg_l+0xa8>  // b.any
   91a1c:	39400722 	ldrb	w2, [x25, #1]
   91a20:	7101605f 	cmp	w2, #0x58
   91a24:	54008560 	b.eq	92ad0 <_strtodg_l+0x13a8>  // b.none
   91a28:	91000721 	add	x1, x25, #0x1
   91a2c:	7101e05f 	cmp	w2, #0x78
   91a30:	54008500 	b.eq	92ad0 <_strtodg_l+0x13a8>  // b.none
   91a34:	d503201f 	nop
   91a38:	f9009be1 	str	x1, [sp, #304]
   91a3c:	aa0103f9 	mov	x25, x1
   91a40:	38401433 	ldrb	w19, [x1], #1
   91a44:	7100c27f 	cmp	w19, #0x30
   91a48:	54ffff80 	b.eq	91a38 <_strtodg_l+0x310>  // b.none
   91a4c:	d2800002 	mov	x2, #0x0                   	// #0
   91a50:	34000713 	cbz	w19, 91b30 <_strtodg_l+0x408>
   91a54:	52800034 	mov	w20, #0x1                   	// #1
   91a58:	17ffff5e 	b	917d0 <_strtodg_l+0xa8>
   91a5c:	91000421 	add	x1, x1, #0x1
   91a60:	f9009be1 	str	x1, [sp, #304]
   91a64:	17ffff4a 	b	9178c <_strtodg_l+0x64>
   91a68:	b900a3ff 	str	wzr, [sp, #160]
   91a6c:	17ffff52 	b	917b4 <_strtodg_l+0x8c>
   91a70:	2a1603e5 	mov	w5, w22
   91a74:	52800000 	mov	w0, #0x0                   	// #0
   91a78:	52800007 	mov	w7, #0x0                   	// #0
   91a7c:	52800003 	mov	w3, #0x0                   	// #0
   91a80:	f9409bfb 	ldr	x27, [sp, #304]
   91a84:	91000761 	add	x1, x27, #0x1
   91a88:	f9009be1 	str	x1, [sp, #304]
   91a8c:	39400773 	ldrb	w19, [x27, #1]
   91a90:	7100ae7f 	cmp	w19, #0x2b
   91a94:	540081a0 	b.eq	92ac8 <_strtodg_l+0x13a0>  // b.none
   91a98:	52800006 	mov	w6, #0x0                   	// #0
   91a9c:	7100b67f 	cmp	w19, #0x2d
   91aa0:	540000a1 	b.ne	91ab4 <_strtodg_l+0x38c>  // b.any
   91aa4:	52800026 	mov	w6, #0x1                   	// #1
   91aa8:	91000b61 	add	x1, x27, #0x2
   91aac:	f9009be1 	str	x1, [sp, #304]
   91ab0:	39400b73 	ldrb	w19, [x27, #2]
   91ab4:	5100c261 	sub	w1, w19, #0x30
   91ab8:	7100243f 	cmp	w1, #0x9
   91abc:	54003988 	b.hi	921ec <_strtodg_l+0xac4>  // b.pmore
   91ac0:	7100c27f 	cmp	w19, #0x30
   91ac4:	540000e1 	b.ne	91ae0 <_strtodg_l+0x3b8>  // b.any
   91ac8:	f9409be1 	ldr	x1, [sp, #304]
   91acc:	91000421 	add	x1, x1, #0x1
   91ad0:	f9009be1 	str	x1, [sp, #304]
   91ad4:	38401433 	ldrb	w19, [x1], #1
   91ad8:	7100c27f 	cmp	w19, #0x30
   91adc:	54ffffa0 	b.eq	91ad0 <_strtodg_l+0x3a8>  // b.none
   91ae0:	5100c661 	sub	w1, w19, #0x31
   91ae4:	5280001c 	mov	w28, #0x0                   	// #0
   91ae8:	7100203f 	cmp	w1, #0x8
   91aec:	540047e9 	b.ls	923e8 <_strtodg_l+0xcc0>  // b.plast
   91af0:	3500ac96 	cbnz	w22, 93080 <_strtodg_l+0x1958>
   91af4:	2a000280 	orr	w0, w20, w0
   91af8:	35000c80 	cbnz	w0, 91c88 <_strtodg_l+0x560>
   91afc:	35000123 	cbnz	w3, 91b20 <_strtodg_l+0x3f8>
   91b00:	71013a7f 	cmp	w19, #0x4e
   91b04:	540044a0 	b.eq	92398 <_strtodg_l+0xc70>  // b.none
   91b08:	5400038d 	b.le	91b78 <_strtodg_l+0x450>
   91b0c:	7101a67f 	cmp	w19, #0x69
   91b10:	54000380 	b.eq	91b80 <_strtodg_l+0x458>  // b.none
   91b14:	7101ba7f 	cmp	w19, #0x6e
   91b18:	54004400 	b.eq	92398 <_strtodg_l+0xc70>  // b.none
   91b1c:	d503201f 	nop
   91b20:	f9409fe2 	ldr	x2, [sp, #312]
   91b24:	528000c0 	mov	w0, #0x6                   	// #6
   91b28:	b90123e0 	str	w0, [sp, #288]
   91b2c:	f9009bfb 	str	x27, [sp, #304]
   91b30:	f94057e1 	ldr	x1, [sp, #168]
   91b34:	b4000061 	cbz	x1, 91b40 <_strtodg_l+0x418>
   91b38:	f9409be0 	ldr	x0, [sp, #304]
   91b3c:	f9000020 	str	x0, [x1]
   91b40:	b940a3e0 	ldr	w0, [sp, #160]
   91b44:	34000080 	cbz	w0, 91b54 <_strtodg_l+0x42c>
   91b48:	b94123e1 	ldr	w1, [sp, #288]
   91b4c:	321d0021 	orr	w1, w1, #0x8
   91b50:	b90123e1 	str	w1, [sp, #288]
   91b54:	b4fff442 	cbz	x2, 919dc <_strtodg_l+0x2b4>
   91b58:	9e660180 	fmov	x0, d12
   91b5c:	2a1703e1 	mov	w1, w23
   91b60:	97fffd22 	bl	90fe8 <__copybits>
   91b64:	9e660100 	fmov	x0, d8
   91b68:	f9409fe1 	ldr	x1, [sp, #312]
   91b6c:	97fff9ff 	bl	90368 <_Bfree>
   91b70:	b94123e0 	ldr	w0, [sp, #288]
   91b74:	17ffff9b 	b	919e0 <_strtodg_l+0x2b8>
   91b78:	7101267f 	cmp	w19, #0x49
   91b7c:	54fffd21 	b.ne	91b20 <_strtodg_l+0x3f8>  // b.any
   91b80:	90000021 	adrp	x1, 95000 <BitFont+0x934>
   91b84:	9104c3e0 	add	x0, sp, #0x130
   91b88:	9121c021 	add	x1, x1, #0x870
   91b8c:	97fff851 	bl	8fcd0 <__match>
   91b90:	34fffc80 	cbz	w0, 91b20 <_strtodg_l+0x3f8>
   91b94:	f9409be2 	ldr	x2, [sp, #304]
   91b98:	90000021 	adrp	x1, 95000 <BitFont+0x934>
   91b9c:	9104c3e0 	add	x0, sp, #0x130
   91ba0:	9121e021 	add	x1, x1, #0x878
   91ba4:	d1000442 	sub	x2, x2, #0x1
   91ba8:	f9009be2 	str	x2, [sp, #304]
   91bac:	97fff849 	bl	8fcd0 <__match>
   91bb0:	35000080 	cbnz	w0, 91bc0 <_strtodg_l+0x498>
   91bb4:	f9409be0 	ldr	x0, [sp, #304]
   91bb8:	91000400 	add	x0, x0, #0x1
   91bbc:	f9009be0 	str	x0, [sp, #304]
   91bc0:	52800061 	mov	w1, #0x3                   	// #3
   91bc4:	b90123e1 	str	w1, [sp, #288]
   91bc8:	f94067e1 	ldr	x1, [sp, #200]
   91bcc:	b9400b40 	ldr	w0, [x26, #8]
   91bd0:	f9409fe2 	ldr	x2, [sp, #312]
   91bd4:	11000400 	add	w0, w0, #0x1
   91bd8:	b9000020 	str	w0, [x1]
   91bdc:	17ffffd5 	b	91b30 <_strtodg_l+0x408>
   91be0:	f9409be1 	ldr	x1, [sp, #304]
   91be4:	2a1603e5 	mov	w5, w22
   91be8:	52800007 	mov	w7, #0x0                   	// #0
   91bec:	8b1c0022 	add	x2, x1, x28
   91bf0:	f9009be2 	str	x2, [sp, #304]
   91bf4:	387c6833 	ldrb	w19, [x1, x28]
   91bf8:	5100c263 	sub	w3, w19, #0x30
   91bfc:	7100247f 	cmp	w3, #0x9
   91c00:	540001a8 	b.hi	91c34 <_strtodg_l+0x50c>  // b.pmore
   91c04:	11000400 	add	w0, w0, #0x1
   91c08:	2a0303f3 	mov	w19, w3
   91c0c:	f9409be6 	ldr	x6, [sp, #304]
   91c10:	35007a23 	cbnz	w3, 92b54 <_strtodg_l+0x142c>
   91c14:	910004c1 	add	x1, x6, #0x1
   91c18:	f9009be1 	str	x1, [sp, #304]
   91c1c:	394004d3 	ldrb	w19, [x6, #1]
   91c20:	17fffff6 	b	91bf8 <_strtodg_l+0x4d0>
   91c24:	52800005 	mov	w5, #0x0                   	// #0
   91c28:	52800007 	mov	w7, #0x0                   	// #0
   91c2c:	52800018 	mov	w24, #0x0                   	// #0
   91c30:	52800015 	mov	w21, #0x0                   	// #0
   91c34:	52800023 	mov	w3, #0x1                   	// #1
   91c38:	121a7a61 	and	w1, w19, #0xffffffdf
   91c3c:	7101143f 	cmp	w1, #0x45
   91c40:	54007f21 	b.ne	92c24 <_strtodg_l+0x14fc>  // b.any
   91c44:	2a0002c1 	orr	w1, w22, w0
   91c48:	2a140021 	orr	w1, w1, w20
   91c4c:	34fff6a1 	cbz	w1, 91b20 <_strtodg_l+0x3f8>
   91c50:	17ffff8c 	b	91a80 <_strtodg_l+0x358>
   91c54:	9e660183 	fmov	x3, d12
   91c58:	9e660100 	fmov	x0, d8
   91c5c:	b940c3e5 	ldr	w5, [sp, #192]
   91c60:	9e670260 	fmov	d0, x19
   91c64:	f94067e2 	ldr	x2, [sp, #200]
   91c68:	910483e6 	add	x6, sp, #0x120
   91c6c:	52800024 	mov	w4, #0x1                   	// #1
   91c70:	aa1a03e1 	mov	x1, x26
   91c74:	2916a3e7 	stp	w7, w8, [sp, #180]
   91c78:	97fffd98 	bl	912d8 <rvOK>
   91c7c:	2956a3e7 	ldp	w7, w8, [sp, #180]
   91c80:	34ffe980 	cbz	w0, 919b0 <_strtodg_l+0x288>
   91c84:	d503201f 	nop
   91c88:	f9409fe2 	ldr	x2, [sp, #312]
   91c8c:	17ffffa9 	b	91b30 <_strtodg_l+0x408>
   91c90:	4b070394 	sub	w20, w28, w7
   91c94:	4b080368 	sub	w8, w27, w8
   91c98:	0b140114 	add	w20, w8, w20
   91c9c:	7100029f 	cmp	w20, #0x0
   91ca0:	54002acd 	b.le	921f8 <_strtodg_l+0xad0>
   91ca4:	72000e81 	ands	w1, w20, #0xf
   91ca8:	540000e0 	b.eq	91cc4 <_strtodg_l+0x59c>  // b.none
   91cac:	90000020 	adrp	x0, 95000 <BitFont+0x934>
   91cb0:	912c4000 	add	x0, x0, #0xb10
   91cb4:	9e670261 	fmov	d1, x19
   91cb8:	fc61d800 	ldr	d0, [x0, w1, sxtw #3]
   91cbc:	1e610800 	fmul	d0, d0, d1
   91cc0:	9e660013 	fmov	x19, d0
   91cc4:	721c6e94 	ands	w20, w20, #0xfffffff0
   91cc8:	540030c1 	b.ne	922e0 <_strtodg_l+0xbb8>  // b.any
   91ccc:	9e670260 	fmov	d0, x19
   91cd0:	9e660100 	fmov	x0, d8
   91cd4:	910493e2 	add	x2, sp, #0x124
   91cd8:	9104a3e1 	add	x1, sp, #0x128
   91cdc:	b900b7e7 	str	w7, [sp, #180]
   91ce0:	97fffc58 	bl	90e40 <__d2b>
   91ce4:	f9009fe0 	str	x0, [sp, #312]
   91ce8:	b9412be2 	ldr	w2, [sp, #296]
   91cec:	b94127e1 	ldr	w1, [sp, #292]
   91cf0:	0b020294 	add	w20, w20, w2
   91cf4:	b9012bf4 	str	w20, [sp, #296]
   91cf8:	4b17002b 	sub	w11, w1, w23
   91cfc:	b940b7e7 	ldr	w7, [sp, #180]
   91d00:	7100017f 	cmp	w11, #0x0
   91d04:	5400014d 	b.le	91d2c <_strtodg_l+0x604>
   91d08:	2a0b03e1 	mov	w1, w11
   91d0c:	b900b7e7 	str	w7, [sp, #180]
   91d10:	97fffcf6 	bl	910e8 <rshift>
   91d14:	b9412bf4 	ldr	w20, [sp, #296]
   91d18:	b940b7e7 	ldr	w7, [sp, #180]
   91d1c:	2a1703e1 	mov	w1, w23
   91d20:	0b140174 	add	w20, w11, w20
   91d24:	b90127f7 	str	w23, [sp, #292]
   91d28:	b9012bf4 	str	w20, [sp, #296]
   91d2c:	0b140022 	add	w2, w1, w20
   91d30:	b9400b40 	ldr	w0, [x26, #8]
   91d34:	4b170042 	sub	w2, w2, w23
   91d38:	b900d7e2 	str	w2, [sp, #212]
   91d3c:	11000400 	add	w0, w0, #0x1
   91d40:	6b02001f 	cmp	w0, w2
   91d44:	54006bab 	b.lt	92ab8 <_strtodg_l+0x1390>  // b.tstop
   91d48:	b9400740 	ldr	w0, [x26, #4]
   91d4c:	b90107e0 	str	w0, [sp, #260]
   91d50:	6b00005f 	cmp	w2, w0
   91d54:	54006eca 	b.ge	92b2c <_strtodg_l+0x1404>  // b.tcont
   91d58:	4b000293 	sub	w19, w20, w0
   91d5c:	7100027f 	cmp	w19, #0x0
   91d60:	540037ac 	b.gt	92454 <_strtodg_l+0xd2c>
   91d64:	54007641 	b.ne	92c2c <_strtodg_l+0x1504>  // b.any
   91d68:	b940efe0 	ldr	w0, [sp, #236]
   91d6c:	b94107e1 	ldr	w1, [sp, #260]
   91d70:	b9012be1 	str	w1, [sp, #296]
   91d74:	34006e40 	cbz	w0, 92b3c <_strtodg_l+0x1414>
   91d78:	b940d7e0 	ldr	w0, [sp, #212]
   91d7c:	52800038 	mov	w24, #0x1                   	// #1
   91d80:	b900d7e1 	str	w1, [sp, #212]
   91d84:	11000400 	add	w0, w0, #0x1
   91d88:	6b01001f 	cmp	w0, w1
   91d8c:	5400768b 	b.lt	92c5c <_strtodg_l+0x1534>  // b.tstop
   91d90:	6d072fea 	stp	d10, d11, [sp, #112]
   91d94:	fd004bee 	str	d14, [sp, #144]
   91d98:	9e660100 	fmov	x0, d8
   91d9c:	aa1903e1 	mov	x1, x25
   91da0:	2a1503e4 	mov	w4, w21
   91da4:	2a1b03e3 	mov	w3, w27
   91da8:	2a1603e2 	mov	w2, w22
   91dac:	b900b7e7 	str	w7, [sp, #180]
   91db0:	52800013 	mov	w19, #0x0                   	// #0
   91db4:	97fff9b1 	bl	90478 <__s2b>
   91db8:	f9006fe0 	str	x0, [sp, #216]
   91dbc:	b940d3e1 	ldr	w1, [sp, #208]
   91dc0:	91004000 	add	x0, x0, #0x10
   91dc4:	b940b7e7 	ldr	w7, [sp, #180]
   91dc8:	7100003f 	cmp	w1, #0x0
   91dcc:	f90073e0 	str	x0, [sp, #224]
   91dd0:	4b1c00e7 	sub	w7, w7, w28
   91dd4:	f90087fa 	str	x26, [sp, #264]
   91dd8:	1a9fb0e0 	csel	w0, w7, wzr, lt  // lt = tstop
   91ddc:	b900b7e0 	str	w0, [sp, #180]
   91de0:	1a9fa020 	csel	w0, w1, wzr, ge  // ge = tcont
   91de4:	90000021 	adrp	x1, 95000 <BitFont+0x934>
   91de8:	b94107fa 	ldr	w26, [sp, #260]
   91dec:	b900c7e0 	str	w0, [sp, #196]
   91df0:	110006e0 	add	w0, w23, #0x1
   91df4:	fd46082d 	ldr	d13, [x1, #3088]
   91df8:	b900ebe0 	str	w0, [sp, #232]
   91dfc:	b26a67e0 	mov	x0, #0xffffffc00000        	// #281474972516352
   91e00:	f2e83be0 	movk	x0, #0x41df, lsl #48
   91e04:	9e67000e 	fmov	d14, x0
   91e08:	f9406ff4 	ldr	x20, [sp, #216]
   91e0c:	9e660100 	fmov	x0, d8
   91e10:	b9400a81 	ldr	w1, [x20, #8]
   91e14:	97fff931 	bl	902d8 <_Balloc>
   91e18:	aa0003f6 	mov	x22, x0
   91e1c:	b9801682 	ldrsw	x2, [x20, #20]
   91e20:	91004000 	add	x0, x0, #0x10
   91e24:	f94073e1 	ldr	x1, [sp, #224]
   91e28:	91000842 	add	x2, x2, #0x2
   91e2c:	d37ef442 	lsl	x2, x2, #2
   91e30:	97fff854 	bl	8ff80 <memcpy>
   91e34:	9e660100 	fmov	x0, d8
   91e38:	f9409fe1 	ldr	x1, [sp, #312]
   91e3c:	b9400821 	ldr	w1, [x1, #8]
   91e40:	97fff926 	bl	902d8 <_Balloc>
   91e44:	aa0003f5 	mov	x21, x0
   91e48:	f9409fe2 	ldr	x2, [sp, #312]
   91e4c:	91004000 	add	x0, x0, #0x10
   91e50:	91004041 	add	x1, x2, #0x10
   91e54:	b9801442 	ldrsw	x2, [x2, #20]
   91e58:	91000842 	add	x2, x2, #0x2
   91e5c:	d37ef442 	lsl	x2, x2, #2
   91e60:	97fff848 	bl	8ff80 <memcpy>
   91e64:	b9412be2 	ldr	w2, [sp, #296]
   91e68:	9e660100 	fmov	x0, d8
   91e6c:	b94127f4 	ldr	w20, [sp, #292]
   91e70:	52800021 	mov	w1, #0x1                   	// #1
   91e74:	b900bbe2 	str	w2, [sp, #184]
   91e78:	4b130299 	sub	w25, w20, w19
   91e7c:	97fffa07 	bl	90698 <__i2b>
   91e80:	9e670009 	fmov	d9, x0
   91e84:	b940bbe2 	ldr	w2, [sp, #184]
   91e88:	0b13005c 	add	w28, w2, w19
   91e8c:	37f8477c 	tbnz	w28, #31, 92778 <_strtodg_l+0x1050>
   91e90:	b940b7e0 	ldr	w0, [sp, #180]
   91e94:	0b1c001b 	add	w27, w0, w28
   91e98:	b940c7fc 	ldr	w28, [sp, #196]
   91e9c:	0b020294 	add	w20, w20, w2
   91ea0:	b940ebe0 	ldr	w0, [sp, #232]
   91ea4:	4b170294 	sub	w20, w20, w23
   91ea8:	4b1a0281 	sub	w1, w20, w26
   91eac:	4b190000 	sub	w0, w0, w25
   91eb0:	6b14035f 	cmp	w26, w20
   91eb4:	0b010001 	add	w1, w0, w1
   91eb8:	1a80c020 	csel	w0, w1, w0, gt
   91ebc:	0b00039c 	add	w28, w28, w0
   91ec0:	0b000374 	add	w20, w27, w0
   91ec4:	6b1c029f 	cmp	w20, w28
   91ec8:	1a9cd280 	csel	w0, w20, w28, le
   91ecc:	6b00037f 	cmp	w27, w0
   91ed0:	1a80d360 	csel	w0, w27, w0, le
   91ed4:	7100001f 	cmp	w0, #0x0
   91ed8:	5400008d 	b.le	91ee8 <_strtodg_l+0x7c0>
   91edc:	4b000294 	sub	w20, w20, w0
   91ee0:	4b00039c 	sub	w28, w28, w0
   91ee4:	4b00037b 	sub	w27, w27, w0
   91ee8:	b940b7e0 	ldr	w0, [sp, #180]
   91eec:	7100001f 	cmp	w0, #0x0
   91ef0:	540001ed 	b.le	91f2c <_strtodg_l+0x804>
   91ef4:	9e660121 	fmov	x1, d9
   91ef8:	2a0003e2 	mov	w2, w0
   91efc:	9e660100 	fmov	x0, d8
   91f00:	97fffa64 	bl	90890 <__pow5mult>
   91f04:	aa0003e1 	mov	x1, x0
   91f08:	9e670009 	fmov	d9, x0
   91f0c:	9e660100 	fmov	x0, d8
   91f10:	aa1503e2 	mov	x2, x21
   91f14:	97fff9ed 	bl	906c8 <__multiply>
   91f18:	aa0003e2 	mov	x2, x0
   91f1c:	9e660100 	fmov	x0, d8
   91f20:	aa1503e1 	mov	x1, x21
   91f24:	aa0203f5 	mov	x21, x2
   91f28:	97fff910 	bl	90368 <_Bfree>
   91f2c:	4b130282 	sub	w2, w20, w19
   91f30:	7100005f 	cmp	w2, #0x0
   91f34:	5400418c 	b.gt	92764 <_strtodg_l+0x103c>
   91f38:	54005121 	b.ne	9295c <_strtodg_l+0x1234>  // b.any
   91f3c:	b940d3e0 	ldr	w0, [sp, #208]
   91f40:	7100001f 	cmp	w0, #0x0
   91f44:	540000cd 	b.le	91f5c <_strtodg_l+0x834>
   91f48:	9e660100 	fmov	x0, d8
   91f4c:	b940c7e2 	ldr	w2, [sp, #196]
   91f50:	aa1603e1 	mov	x1, x22
   91f54:	97fffa4f 	bl	90890 <__pow5mult>
   91f58:	aa0003f6 	mov	x22, x0
   91f5c:	7100039f 	cmp	w28, #0x0
   91f60:	540000cd 	b.le	91f78 <_strtodg_l+0x850>
   91f64:	9e660100 	fmov	x0, d8
   91f68:	aa1603e1 	mov	x1, x22
   91f6c:	2a1c03e2 	mov	w2, w28
   91f70:	97fffa90 	bl	909b0 <__lshift>
   91f74:	aa0003f6 	mov	x22, x0
   91f78:	7100037f 	cmp	w27, #0x0
   91f7c:	540000cd 	b.le	91f94 <_strtodg_l+0x86c>
   91f80:	9e660121 	fmov	x1, d9
   91f84:	9e660100 	fmov	x0, d8
   91f88:	2a1b03e2 	mov	w2, w27
   91f8c:	97fffa89 	bl	909b0 <__lshift>
   91f90:	9e670009 	fmov	d9, x0
   91f94:	9e660100 	fmov	x0, d8
   91f98:	aa1603e2 	mov	x2, x22
   91f9c:	aa1503e1 	mov	x1, x21
   91fa0:	97fffae4 	bl	90b30 <__mdiff>
   91fa4:	aa0003f4 	mov	x20, x0
   91fa8:	b9401400 	ldr	w0, [x0, #20]
   91fac:	7100041f 	cmp	w0, #0x1
   91fb0:	5400006c 	b.gt	91fbc <_strtodg_l+0x894>
   91fb4:	b9401a80 	ldr	w0, [x20, #24]
   91fb8:	34005ae0 	cbz	w0, 92b14 <_strtodg_l+0x13ec>
   91fbc:	9e660121 	fmov	x1, d9
   91fc0:	b940129b 	ldr	w27, [x20, #16]
   91fc4:	b900129f 	str	wzr, [x20, #16]
   91fc8:	aa1403e0 	mov	x0, x20
   91fcc:	97fffac5 	bl	90ae0 <__mcmp>
   91fd0:	b940c3e1 	ldr	w1, [sp, #192]
   91fd4:	7100003f 	cmp	w1, #0x0
   91fd8:	7a401800 	ccmp	w0, #0x0, #0x0, ne  // ne = any
   91fdc:	54002e0c 	b.gt	9259c <_strtodg_l+0xe74>
   91fe0:	12000020 	and	w0, w1, #0x1
   91fe4:	6b1b001f 	cmp	w0, w27
   91fe8:	4a1b0013 	eor	w19, w0, w27
   91fec:	540071a0 	b.eq	92e20 <_strtodg_l+0x16f8>  // b.none
   91ff0:	350048fb 	cbnz	w27, 9290c <_strtodg_l+0x11e4>
   91ff4:	52800220 	mov	w0, #0x11                  	// #17
   91ff8:	b90123e0 	str	w0, [sp, #288]
   91ffc:	b940d7e0 	ldr	w0, [sp, #212]
   92000:	6b1a001f 	cmp	w0, w26
   92004:	54000340 	b.eq	9206c <_strtodg_l+0x944>  // b.none
   92008:	f9409fe4 	ldr	x4, [sp, #312]
   9200c:	71007eff 	cmp	w23, #0x1f
   92010:	aa0403e1 	mov	x1, x4
   92014:	5400676d 	b.le	92d00 <_strtodg_l+0x15d8>
   92018:	b9401880 	ldr	w0, [x4, #24]
   9201c:	35000280 	cbnz	w0, 9206c <_strtodg_l+0x944>
   92020:	2a1703fc 	mov	w28, w23
   92024:	d2800020 	mov	x0, #0x1                   	// #1
   92028:	91005083 	add	x3, x4, #0x14
   9202c:	14000003 	b	92038 <_strtodg_l+0x910>
   92030:	b8607862 	ldr	w2, [x3, x0, lsl #2]
   92034:	350001c2 	cbnz	w2, 9206c <_strtodg_l+0x944>
   92038:	5100839c 	sub	w28, w28, #0x20
   9203c:	2a0003fb 	mov	w27, w0
   92040:	71007f9f 	cmp	w28, #0x1f
   92044:	91000400 	add	x0, x0, #0x1
   92048:	54ffff4c 	b.gt	92030 <_strtodg_l+0x908>
   9204c:	7100079f 	cmp	w28, #0x1
   92050:	54007d8d 	b.le	93000 <_strtodg_l+0x18d8>
   92054:	91006080 	add	x0, x4, #0x18
   92058:	5100079c 	sub	w28, w28, #0x1
   9205c:	8b3bc800 	add	x0, x0, w27, sxtw #2
   92060:	97fff966 	bl	905f8 <__lo0bits>
   92064:	6b1c001f 	cmp	w0, w28
   92068:	54007b4a 	b.ge	92fd0 <_strtodg_l+0x18a8>  // b.tcont
   9206c:	7100073f 	cmp	w25, #0x1
   92070:	1a9fc7e0 	cset	w0, le
   92074:	6a00031f 	tst	w24, w0
   92078:	54006f01 	b.ne	92e58 <_strtodg_l+0x1730>  // b.any
   9207c:	1e6e100a 	fmov	d10, #1.000000000000000000e+00
   92080:	52800200 	mov	w0, #0x10                  	// #16
   92084:	5280003c 	mov	w28, #0x1                   	// #1
   92088:	b900bbff 	str	wzr, [sp, #184]
   9208c:	1e60414b 	fmov	d11, d10
   92090:	b90103e0 	str	w0, [sp, #256]
   92094:	b94127e2 	ldr	w2, [sp, #292]
   92098:	52000300 	eor	w0, w24, #0x1
   9209c:	b9412be3 	ldr	w3, [sp, #296]
   920a0:	6b17005f 	cmp	w2, w23
   920a4:	0b030043 	add	w3, w2, w3
   920a8:	b900bfe3 	str	w3, [sp, #188]
   920ac:	1a9fa7e1 	cset	w1, lt  // lt = tstop
   920b0:	6a01001f 	tst	w0, w1
   920b4:	540043e1 	b.ne	92930 <_strtodg_l+0x1208>  // b.any
   920b8:	1e604140 	fmov	d0, d10
   920bc:	9e660100 	fmov	x0, d8
   920c0:	910473e2 	add	x2, sp, #0x11c
   920c4:	910463e1 	add	x1, sp, #0x118
   920c8:	97fffb5e 	bl	90e40 <__d2b>
   920cc:	aa0003f9 	mov	x25, x0
   920d0:	b9411be2 	ldr	w2, [sp, #280]
   920d4:	7100005f 	cmp	w2, #0x0
   920d8:	54003b4b 	b.lt	92840 <_strtodg_l+0x1118>  // b.tstop
   920dc:	540000a0 	b.eq	920f0 <_strtodg_l+0x9c8>  // b.none
   920e0:	aa0003e1 	mov	x1, x0
   920e4:	9e660100 	fmov	x0, d8
   920e8:	97fffa32 	bl	909b0 <__lshift>
   920ec:	aa0003f9 	mov	x25, x0
   920f0:	f9409ffb 	ldr	x27, [sp, #312]
   920f4:	b9401760 	ldr	w0, [x27, #20]
   920f8:	3400277c 	cbz	w28, 925e4 <_strtodg_l+0xebc>
   920fc:	51000400 	sub	w0, w0, #0x1
   92100:	8b20cb60 	add	x0, x27, w0, sxtw #2
   92104:	b9401800 	ldr	w0, [x0, #24]
   92108:	97fff924 	bl	90598 <__hi0bits>
   9210c:	9e660100 	fmov	x0, d8
   92110:	f9409fe1 	ldr	x1, [sp, #312]
   92114:	aa1903e2 	mov	x2, x25
   92118:	97fffa86 	bl	90b30 <__mdiff>
   9211c:	f9009fe0 	str	x0, [sp, #312]
   92120:	350001d8 	cbnz	w24, 92158 <_strtodg_l+0xa30>
   92124:	b9401761 	ldr	w1, [x27, #20]
   92128:	b9401402 	ldr	w2, [x0, #20]
   9212c:	51000421 	sub	w1, w1, #0x1
   92130:	6b01005f 	cmp	w2, w1
   92134:	5400430c 	b.gt	92994 <_strtodg_l+0x126c>
   92138:	b940d7e0 	ldr	w0, [sp, #212]
   9213c:	6b1a001f 	cmp	w0, w26
   92140:	54003241 	b.ne	92788 <_strtodg_l+0x1060>  // b.any
   92144:	b94127e0 	ldr	w0, [sp, #292]
   92148:	2a1c03f8 	mov	w24, w28
   9214c:	51000400 	sub	w0, w0, #0x1
   92150:	b90127e0 	str	w0, [sp, #292]
   92154:	d503201f 	nop
   92158:	9e660100 	fmov	x0, d8
   9215c:	aa1903e1 	mov	x1, x25
   92160:	97fff882 	bl	90368 <_Bfree>
   92164:	9e660100 	fmov	x0, d8
   92168:	aa1b03e1 	mov	x1, x27
   9216c:	97fff87f 	bl	90368 <_Bfree>
   92170:	35004d33 	cbnz	w19, 92b14 <_strtodg_l+0x13ec>
   92174:	b940bbe0 	ldr	w0, [sp, #184]
   92178:	b94127e1 	ldr	w1, [sp, #292]
   9217c:	7100001f 	cmp	w0, #0x0
   92180:	b9412be0 	ldr	w0, [sp, #296]
   92184:	0b010000 	add	w0, w0, w1
   92188:	b940bfe1 	ldr	w1, [sp, #188]
   9218c:	7a411000 	ccmp	w0, w1, #0x0, ne  // ne = any
   92190:	54000121 	b.ne	921b4 <_strtodg_l+0xa8c>  // b.any
   92194:	1e6d094a 	fmul	d10, d10, d13
   92198:	1e6c1000 	fmov	d0, #5.000000000000000000e-01
   9219c:	1e603960 	fsub	d0, d11, d0
   921a0:	1e614141 	fneg	d1, d10
   921a4:	1e612010 	fcmpe	d0, d1
   921a8:	540016c5 	b.pl	92480 <_strtodg_l+0xd58>  // b.nfrst
   921ac:	1e6a2170 	fcmpe	d11, d10
   921b0:	5400174c 	b.gt	92498 <_strtodg_l+0xd70>
   921b4:	340030d8 	cbz	w24, 927cc <_strtodg_l+0x10a4>
   921b8:	9e660100 	fmov	x0, d8
   921bc:	aa1503e1 	mov	x1, x21
   921c0:	97fff86a 	bl	90368 <_Bfree>
   921c4:	9e660100 	fmov	x0, d8
   921c8:	aa1603e1 	mov	x1, x22
   921cc:	97fff867 	bl	90368 <_Bfree>
   921d0:	9e660121 	fmov	x1, d9
   921d4:	9e660100 	fmov	x0, d8
   921d8:	97fff864 	bl	90368 <_Bfree>
   921dc:	9e660100 	fmov	x0, d8
   921e0:	aa1403e1 	mov	x1, x20
   921e4:	97fff861 	bl	90368 <_Bfree>
   921e8:	17ffff08 	b	91e08 <_strtodg_l+0x6e0>
   921ec:	5280001c 	mov	w28, #0x0                   	// #0
   921f0:	f9009bfb 	str	x27, [sp, #304]
   921f4:	17fffe3f 	b	91af0 <_strtodg_l+0x3c8>
   921f8:	54ffd6a0 	b.eq	91ccc <_strtodg_l+0x5a4>  // b.none
   921fc:	4b1403f4 	neg	w20, w20
   92200:	72000e81 	ands	w1, w20, #0xf
   92204:	540000e0 	b.eq	92220 <_strtodg_l+0xaf8>  // b.none
   92208:	f0000000 	adrp	x0, 95000 <BitFont+0x934>
   9220c:	912c4000 	add	x0, x0, #0xb10
   92210:	9e670261 	fmov	d1, x19
   92214:	fc61d800 	ldr	d0, [x0, w1, sxtw #3]
   92218:	1e601820 	fdiv	d0, d1, d0
   9221c:	9e660013 	fmov	x19, d0
   92220:	721c6e94 	ands	w20, w20, #0xfffffff0
   92224:	54ffd540 	b.eq	91ccc <_strtodg_l+0x5a4>  // b.none
   92228:	13047e81 	asr	w1, w20, #4
   9222c:	71003c3f 	cmp	w1, #0xf
   92230:	54006ecd 	b.le	93008 <_strtodg_l+0x18e0>
   92234:	f0000000 	adrp	x0, 95000 <BitFont+0x934>
   92238:	2a0103e4 	mov	w4, w1
   9223c:	52800002 	mov	w2, #0x0                   	// #0
   92240:	fd45fc00 	ldr	d0, [x0, #3064]
   92244:	d503201f 	nop
   92248:	d360fe60 	lsr	x0, x19, #32
   9224c:	510ffc42 	sub	w2, w2, #0x3ff
   92250:	12015003 	and	w3, w0, #0x800fffff
   92254:	51004084 	sub	w4, w4, #0x10
   92258:	320c2463 	orr	w3, w3, #0x3ff00000
   9225c:	53147800 	ubfx	w0, w0, #20, #11
   92260:	0b020000 	add	w0, w0, w2
   92264:	71003c9f 	cmp	w4, #0xf
   92268:	b3607c73 	bfi	x19, x3, #32, #32
   9226c:	9e670261 	fmov	d1, x19
   92270:	2a0003e2 	mov	w2, w0
   92274:	1e610801 	fmul	d1, d0, d1
   92278:	9e660033 	fmov	x19, d1
   9227c:	54fffe6c 	b.gt	92248 <_strtodg_l+0xb20>
   92280:	12000c21 	and	w1, w1, #0xf
   92284:	d360fe62 	lsr	x2, x19, #32
   92288:	12015043 	and	w3, w2, #0x800fffff
   9228c:	320c2463 	orr	w3, w3, #0x3ff00000
   92290:	53147854 	ubfx	w20, w2, #20, #11
   92294:	510ffe94 	sub	w20, w20, #0x3ff
   92298:	b3607c73 	bfi	x19, x3, #32, #32
   9229c:	0b000294 	add	w20, w20, w0
   922a0:	34ffd161 	cbz	w1, 91ccc <_strtodg_l+0x5a4>
   922a4:	f0000000 	adrp	x0, 95000 <BitFont+0x934>
   922a8:	912f6000 	add	x0, x0, #0xbd8
   922ac:	9e670262 	fmov	d2, x19
   922b0:	52800002 	mov	w2, #0x0                   	// #0
   922b4:	9e670260 	fmov	d0, x19
   922b8:	36000081 	tbz	w1, #0, 922c8 <_strtodg_l+0xba0>
   922bc:	fd400001 	ldr	d1, [x0]
   922c0:	52800022 	mov	w2, #0x1                   	// #1
   922c4:	1e610800 	fmul	d0, d0, d1
   922c8:	13017c21 	asr	w1, w1, #1
   922cc:	91002000 	add	x0, x0, #0x8
   922d0:	35ffff41 	cbnz	w1, 922b8 <_strtodg_l+0xb90>
   922d4:	7100005f 	cmp	w2, #0x0
   922d8:	1e621c00 	fcsel	d0, d0, d2, ne  // ne = any
   922dc:	17fffe7d 	b	91cd0 <_strtodg_l+0x5a8>
   922e0:	13047e83 	asr	w3, w20, #4
   922e4:	71003c7f 	cmp	w3, #0xf
   922e8:	5400618d 	b.le	92f18 <_strtodg_l+0x17f0>
   922ec:	f0000000 	adrp	x0, 95000 <BitFont+0x934>
   922f0:	2a0303e2 	mov	w2, w3
   922f4:	52800001 	mov	w1, #0x0                   	// #0
   922f8:	fd458400 	ldr	d0, [x0, #2824]
   922fc:	d503201f 	nop
   92300:	d360fe60 	lsr	x0, x19, #32
   92304:	510ffc21 	sub	w1, w1, #0x3ff
   92308:	12015004 	and	w4, w0, #0x800fffff
   9230c:	51004042 	sub	w2, w2, #0x10
   92310:	320c2484 	orr	w4, w4, #0x3ff00000
   92314:	53147800 	ubfx	w0, w0, #20, #11
   92318:	0b010000 	add	w0, w0, w1
   9231c:	71003c5f 	cmp	w2, #0xf
   92320:	b3607c93 	bfi	x19, x4, #32, #32
   92324:	9e670261 	fmov	d1, x19
   92328:	2a0003e1 	mov	w1, w0
   9232c:	1e610801 	fmul	d1, d0, d1
   92330:	9e660033 	fmov	x19, d1
   92334:	54fffe6c 	b.gt	92300 <_strtodg_l+0xbd8>
   92338:	12000c63 	and	w3, w3, #0xf
   9233c:	d360fe61 	lsr	x1, x19, #32
   92340:	12015022 	and	w2, w1, #0x800fffff
   92344:	320c2442 	orr	w2, w2, #0x3ff00000
   92348:	53147834 	ubfx	w20, w1, #20, #11
   9234c:	510ffe94 	sub	w20, w20, #0x3ff
   92350:	b3607c53 	bfi	x19, x2, #32, #32
   92354:	0b000294 	add	w20, w20, w0
   92358:	34ffcba3 	cbz	w3, 91ccc <_strtodg_l+0x5a4>
   9235c:	f0000000 	adrp	x0, 95000 <BitFont+0x934>
   92360:	912ba000 	add	x0, x0, #0xae8
   92364:	9e670262 	fmov	d2, x19
   92368:	52800001 	mov	w1, #0x0                   	// #0
   9236c:	9e670260 	fmov	d0, x19
   92370:	36000083 	tbz	w3, #0, 92380 <_strtodg_l+0xc58>
   92374:	fd400001 	ldr	d1, [x0]
   92378:	52800021 	mov	w1, #0x1                   	// #1
   9237c:	1e610800 	fmul	d0, d0, d1
   92380:	13017c63 	asr	w3, w3, #1
   92384:	91002000 	add	x0, x0, #0x8
   92388:	35ffff43 	cbnz	w3, 92370 <_strtodg_l+0xc48>
   9238c:	7100003f 	cmp	w1, #0x0
   92390:	1e621c00 	fcsel	d0, d0, d2, ne  // ne = any
   92394:	17fffe4f 	b	91cd0 <_strtodg_l+0x5a8>
   92398:	f0000001 	adrp	x1, 95000 <BitFont+0x934>
   9239c:	9104c3e0 	add	x0, sp, #0x130
   923a0:	91220021 	add	x1, x1, #0x880
   923a4:	97fff64b 	bl	8fcd0 <__match>
   923a8:	34ffbbc0 	cbz	w0, 91b20 <_strtodg_l+0x3f8>
   923ac:	f94067e3 	ldr	x3, [sp, #200]
   923b0:	52800082 	mov	w2, #0x4                   	// #4
   923b4:	b9400b40 	ldr	w0, [x26, #8]
   923b8:	f9409be1 	ldr	x1, [sp, #304]
   923bc:	11000400 	add	w0, w0, #0x1
   923c0:	b9000060 	str	w0, [x3]
   923c4:	b90123e2 	str	w2, [sp, #288]
   923c8:	39400020 	ldrb	w0, [x1]
   923cc:	7100a01f 	cmp	w0, #0x28
   923d0:	54005c60 	b.eq	92f5c <_strtodg_l+0x1834>  // b.none
   923d4:	b9400b40 	ldr	w0, [x26, #8]
   923d8:	f9409fe2 	ldr	x2, [sp, #312]
   923dc:	11000400 	add	w0, w0, #0x1
   923e0:	b9000060 	str	w0, [x3]
   923e4:	17fffdd3 	b	91b30 <_strtodg_l+0x408>
   923e8:	f9409be8 	ldr	x8, [sp, #304]
   923ec:	5100c27c 	sub	w28, w19, #0x30
   923f0:	91000501 	add	x1, x8, #0x1
   923f4:	f9009be1 	str	x1, [sp, #304]
   923f8:	39400513 	ldrb	w19, [x8, #1]
   923fc:	5100c261 	sub	w1, w19, #0x30
   92400:	7100243f 	cmp	w1, #0x9
   92404:	54000228 	b.hi	92448 <_strtodg_l+0xd20>  // b.pmore
   92408:	91000901 	add	x1, x8, #0x2
   9240c:	d503201f 	nop
   92410:	0b1c0b9c 	add	w28, w28, w28, lsl #2
   92414:	f9009be1 	str	x1, [sp, #304]
   92418:	aa0103e4 	mov	x4, x1
   9241c:	0b1c067c 	add	w28, w19, w28, lsl #1
   92420:	38401433 	ldrb	w19, [x1], #1
   92424:	5100c39c 	sub	w28, w28, #0x30
   92428:	5100c262 	sub	w2, w19, #0x30
   9242c:	7100245f 	cmp	w2, #0x9
   92430:	54ffff09 	b.ls	92410 <_strtodg_l+0xce8>  // b.plast
   92434:	cb080084 	sub	x4, x4, x8
   92438:	5289c3e1 	mov	w1, #0x4e1f                	// #19999
   9243c:	f100209f 	cmp	x4, #0x8
   92440:	7a41d380 	ccmp	w28, w1, #0x0, le
   92444:	1a81d39c 	csel	w28, w28, w1, le
   92448:	710000df 	cmp	w6, #0x0
   9244c:	5a9c079c 	cneg	w28, w28, ne  // ne = any
   92450:	17fffda8 	b	91af0 <_strtodg_l+0x3c8>
   92454:	9e660100 	fmov	x0, d8
   92458:	2a1303e2 	mov	w2, w19
   9245c:	f9409fe1 	ldr	x1, [sp, #312]
   92460:	b900b7e7 	str	w7, [sp, #180]
   92464:	97fff953 	bl	909b0 <__lshift>
   92468:	f9009fe0 	str	x0, [sp, #312]
   9246c:	b94127e1 	ldr	w1, [sp, #292]
   92470:	b940b7e7 	ldr	w7, [sp, #180]
   92474:	0b130021 	add	w1, w1, w19
   92478:	b90127e1 	str	w1, [sp, #292]
   9247c:	17fffe3b 	b	91d68 <_strtodg_l+0x640>
   92480:	1e6a2010 	fcmpe	d0, d10
   92484:	54ffe98d 	b.le	921b4 <_strtodg_l+0xa8c>
   92488:	1e6e1000 	fmov	d0, #1.000000000000000000e+00
   9248c:	1e6a380a 	fsub	d10, d0, d10
   92490:	1e6b2150 	fcmpe	d10, d11
   92494:	54ffe90d 	b.le	921b4 <_strtodg_l+0xa8c>
   92498:	b94123e0 	ldr	w0, [sp, #288]
   9249c:	b94103e1 	ldr	w1, [sp, #256]
   924a0:	f94087fa 	ldr	x26, [sp, #264]
   924a4:	2a010000 	orr	w0, w0, w1
   924a8:	b90123e0 	str	w0, [sp, #288]
   924ac:	34000598 	cbz	w24, 9255c <_strtodg_l+0xe34>
   924b0:	b9412be0 	ldr	w0, [sp, #296]
   924b4:	f94067e1 	ldr	x1, [sp, #200]
   924b8:	b9000020 	str	w0, [x1]
   924bc:	9e660100 	fmov	x0, d8
   924c0:	aa1503e1 	mov	x1, x21
   924c4:	97fff7a9 	bl	90368 <_Bfree>
   924c8:	9e660100 	fmov	x0, d8
   924cc:	aa1603e1 	mov	x1, x22
   924d0:	97fff7a6 	bl	90368 <_Bfree>
   924d4:	9e660121 	fmov	x1, d9
   924d8:	9e660100 	fmov	x0, d8
   924dc:	97fff7a3 	bl	90368 <_Bfree>
   924e0:	9e660100 	fmov	x0, d8
   924e4:	f9406fe1 	ldr	x1, [sp, #216]
   924e8:	97fff7a0 	bl	90368 <_Bfree>
   924ec:	9e660100 	fmov	x0, d8
   924f0:	aa1403e1 	mov	x1, x20
   924f4:	97fff79d 	bl	90368 <_Bfree>
   924f8:	b9400b41 	ldr	w1, [x26, #8]
   924fc:	b9412be0 	ldr	w0, [sp, #296]
   92500:	6d472fea 	ldp	d10, d11, [sp, #112]
   92504:	6b00003f 	cmp	w1, w0
   92508:	fd404bee 	ldr	d14, [sp, #144]
   9250c:	5400018a 	b.ge	9253c <_strtodg_l+0xe14>  // b.tcont
   92510:	f9409fe0 	ldr	x0, [sp, #312]
   92514:	52801461 	mov	w1, #0xa3                  	// #163
   92518:	b90123e1 	str	w1, [sp, #288]
   9251c:	b900141f 	str	wzr, [x0, #20]
   92520:	94000302 	bl	93128 <__errno>
   92524:	52800441 	mov	w1, #0x22                  	// #34
   92528:	b9000001 	str	w1, [x0]
   9252c:	f94067e1 	ldr	x1, [sp, #200]
   92530:	b9400b40 	ldr	w0, [x26, #8]
   92534:	11000400 	add	w0, w0, #0x1
   92538:	b9000020 	str	w0, [x1]
   9253c:	f9409fe2 	ldr	x2, [sp, #312]
   92540:	34ffaf98 	cbz	w24, 91b30 <_strtodg_l+0x408>
   92544:	b940efe0 	ldr	w0, [sp, #236]
   92548:	34001660 	cbz	w0, 92814 <_strtodg_l+0x10ec>
   9254c:	52800a00 	mov	w0, #0x50                  	// #80
   92550:	b900145f 	str	wzr, [x2, #20]
   92554:	b90123e0 	str	w0, [sp, #288]
   92558:	17fffd76 	b	91b30 <_strtodg_l+0x408>
   9255c:	b94127e1 	ldr	w1, [sp, #292]
   92560:	4b0102f8 	sub	w24, w23, w1
   92564:	7100031f 	cmp	w24, #0x0
   92568:	54fffa40 	b.eq	924b0 <_strtodg_l+0xd88>  // b.none
   9256c:	f9409fe0 	ldr	x0, [sp, #312]
   92570:	5400468d 	b.le	92e40 <_strtodg_l+0x1718>
   92574:	aa0003e1 	mov	x1, x0
   92578:	9e660100 	fmov	x0, d8
   9257c:	2a1803e2 	mov	w2, w24
   92580:	97fff90c 	bl	909b0 <__lshift>
   92584:	f9009fe0 	str	x0, [sp, #312]
   92588:	b9412be0 	ldr	w0, [sp, #296]
   9258c:	4b180000 	sub	w0, w0, w24
   92590:	52800018 	mov	w24, #0x0                   	// #0
   92594:	b9012be0 	str	w0, [sp, #296]
   92598:	17ffffc7 	b	924b4 <_strtodg_l+0xd8c>
   9259c:	7100001f 	cmp	w0, #0x0
   925a0:	54003fab 	b.lt	92d94 <_strtodg_l+0x166c>  // b.tstop
   925a4:	54003b20 	b.eq	92d08 <_strtodg_l+0x15e0>  // b.none
   925a8:	9e660121 	fmov	x1, d9
   925ac:	aa1403e0 	mov	x0, x20
   925b0:	97fffa6c 	bl	90f60 <__ratio>
   925b4:	1e601001 	fmov	d1, #2.000000000000000000e+00
   925b8:	1e612010 	fcmpe	d0, d1
   925bc:	54001488 	b.hi	9284c <_strtodg_l+0x1124>  // b.pmore
   925c0:	3400281b 	cbz	w27, 92ac0 <_strtodg_l+0x1398>
   925c4:	1e6e100a 	fmov	d10, #1.000000000000000000e+00
   925c8:	52800400 	mov	w0, #0x20                  	// #32
   925cc:	52800013 	mov	w19, #0x0                   	// #0
   925d0:	5280001c 	mov	w28, #0x0                   	// #0
   925d4:	1e60414b 	fmov	d11, d10
   925d8:	b900bbff 	str	wzr, [sp, #184]
   925dc:	b90103e0 	str	w0, [sp, #256]
   925e0:	17fffead 	b	92094 <_strtodg_l+0x96c>
   925e4:	b9401721 	ldr	w1, [x25, #20]
   925e8:	6b00003f 	cmp	w1, w0
   925ec:	5400178d 	b.le	928dc <_strtodg_l+0x11b4>
   925f0:	aa1b03e9 	mov	x9, x27
   925f4:	aa1903e8 	mov	x8, x25
   925f8:	b9400901 	ldr	w1, [x8, #8]
   925fc:	9e660100 	fmov	x0, d8
   92600:	a90f27e8 	stp	x8, x9, [sp, #240]
   92604:	97fff735 	bl	902d8 <_Balloc>
   92608:	aa0003fc 	mov	x28, x0
   9260c:	a94f27e8 	ldp	x8, x9, [sp, #240]
   92610:	91006006 	add	x6, x0, #0x18
   92614:	b9401500 	ldr	w0, [x8, #20]
   92618:	91006107 	add	x7, x8, #0x18
   9261c:	b9001780 	str	w0, [x28, #20]
   92620:	9100612a 	add	x10, x9, #0x18
   92624:	52800000 	mov	w0, #0x0                   	// #0
   92628:	b980152b 	ldrsw	x11, [x9, #20]
   9262c:	8b0b08cb 	add	x11, x6, x11, lsl #2
   92630:	b8404543 	ldr	w3, [x10], #4
   92634:	b84044e2 	ldr	w2, [x7], #4
   92638:	12003c61 	and	w1, w3, #0xffff
   9263c:	53107c63 	lsr	w3, w3, #16
   92640:	0b222021 	add	w1, w1, w2, uxth
   92644:	0b424062 	add	w2, w3, w2, lsr #16
   92648:	0b000020 	add	w0, w1, w0
   9264c:	12003c01 	and	w1, w0, #0xffff
   92650:	0b404040 	add	w0, w2, w0, lsr #16
   92654:	2a004021 	orr	w1, w1, w0, lsl #16
   92658:	b80044c1 	str	w1, [x6], #4
   9265c:	53107c00 	lsr	w0, w0, #16
   92660:	eb06017f 	cmp	x11, x6
   92664:	54fffe68 	b.hi	92630 <_strtodg_l+0xf08>  // b.pmore
   92668:	b9401501 	ldr	w1, [x8, #20]
   9266c:	b9401522 	ldr	w2, [x9, #20]
   92670:	4b020021 	sub	w1, w1, w2
   92674:	8b21c96b 	add	x11, x11, w1, sxtw #2
   92678:	eb0b00df 	cmp	x6, x11
   9267c:	54000222 	b.cs	926c0 <_strtodg_l+0xf98>  // b.hs, b.nlast
   92680:	d100056b 	sub	x11, x11, #0x1
   92684:	d2800002 	mov	x2, #0x0                   	// #0
   92688:	cb060165 	sub	x5, x11, x6
   9268c:	d342fca5 	lsr	x5, x5, #2
   92690:	b86278e3 	ldr	w3, [x7, x2, lsl #2]
   92694:	91000444 	add	x4, x2, #0x1
   92698:	eb0200bf 	cmp	x5, x2
   9269c:	0b232000 	add	w0, w0, w3, uxth
   926a0:	53107c63 	lsr	w3, w3, #16
   926a4:	12003c01 	and	w1, w0, #0xffff
   926a8:	0b404063 	add	w3, w3, w0, lsr #16
   926ac:	2a034021 	orr	w1, w1, w3, lsl #16
   926b0:	b82278c1 	str	w1, [x6, x2, lsl #2]
   926b4:	53107c60 	lsr	w0, w3, #16
   926b8:	aa0403e2 	mov	x2, x4
   926bc:	54fffea1 	b.ne	92690 <_strtodg_l+0xf68>  // b.any
   926c0:	b9401781 	ldr	w1, [x28, #20]
   926c4:	35001120 	cbnz	w0, 928e8 <_strtodg_l+0x11c0>
   926c8:	51000421 	sub	w1, w1, #0x1
   926cc:	b9401760 	ldr	w0, [x27, #20]
   926d0:	f9009ffc 	str	x28, [sp, #312]
   926d4:	6b01001f 	cmp	w0, w1
   926d8:	5400010c 	b.gt	926f8 <_strtodg_l+0xfd0>
   926dc:	340002f8 	cbz	w24, 92738 <_strtodg_l+0x1010>
   926e0:	b94127e0 	ldr	w0, [sp, #292]
   926e4:	11000400 	add	w0, w0, #0x1
   926e8:	b90127e0 	str	w0, [sp, #292]
   926ec:	6b17001f 	cmp	w0, w23
   926f0:	1a9f07f8 	cset	w24, ne  // ne = any
   926f4:	17fffe99 	b	92158 <_strtodg_l+0xa30>
   926f8:	93407c21 	sxtw	x1, w1
   926fc:	91001021 	add	x1, x1, #0x4
   92700:	d37ef421 	lsl	x1, x1, #2
   92704:	f9007be1 	str	x1, [sp, #240]
   92708:	8b01039c 	add	x28, x28, x1
   9270c:	b9400b80 	ldr	w0, [x28, #8]
   92710:	97fff7a2 	bl	90598 <__hi0bits>
   92714:	2a0003fc 	mov	w28, w0
   92718:	f9407be1 	ldr	x1, [sp, #240]
   9271c:	8b010361 	add	x1, x27, x1
   92720:	b9400820 	ldr	w0, [x1, #8]
   92724:	97fff79d 	bl	90598 <__hi0bits>
   92728:	6b00039f 	cmp	w28, w0
   9272c:	54ffd16a 	b.ge	92158 <_strtodg_l+0xa30>  // b.tcont
   92730:	35fffd98 	cbnz	w24, 926e0 <_strtodg_l+0xfb8>
   92734:	d503201f 	nop
   92738:	b940d7e2 	ldr	w2, [sp, #212]
   9273c:	52800021 	mov	w1, #0x1                   	// #1
   92740:	f9409fe0 	ldr	x0, [sp, #312]
   92744:	0b010042 	add	w2, w2, w1
   92748:	b900bbff 	str	wzr, [sp, #184]
   9274c:	b900d7e2 	str	w2, [sp, #212]
   92750:	97fffa66 	bl	910e8 <rshift>
   92754:	b9412be0 	ldr	w0, [sp, #296]
   92758:	11000400 	add	w0, w0, #0x1
   9275c:	b9012be0 	str	w0, [sp, #296]
   92760:	17fffe7e 	b	92158 <_strtodg_l+0xa30>
   92764:	9e660100 	fmov	x0, d8
   92768:	aa1503e1 	mov	x1, x21
   9276c:	97fff891 	bl	909b0 <__lshift>
   92770:	aa0003f5 	mov	x21, x0
   92774:	17fffdf2 	b	91f3c <_strtodg_l+0x814>
   92778:	b940c7e0 	ldr	w0, [sp, #196]
   9277c:	b940b7fb 	ldr	w27, [sp, #180]
   92780:	4b1c001c 	sub	w28, w0, w28
   92784:	17fffdc6 	b	91e9c <_strtodg_l+0x774>
   92788:	b940d7e3 	ldr	w3, [sp, #212]
   9278c:	9e660100 	fmov	x0, d8
   92790:	f9409fe1 	ldr	x1, [sp, #312]
   92794:	51000463 	sub	w3, w3, #0x1
   92798:	52800022 	mov	w2, #0x1                   	// #1
   9279c:	b900d7e3 	str	w3, [sp, #212]
   927a0:	97fff884 	bl	909b0 <__lshift>
   927a4:	f9009fe0 	str	x0, [sp, #312]
   927a8:	b9412be2 	ldr	w2, [sp, #296]
   927ac:	9e660100 	fmov	x0, d8
   927b0:	aa1903e1 	mov	x1, x25
   927b4:	51000442 	sub	w2, w2, #0x1
   927b8:	b9012be2 	str	w2, [sp, #296]
   927bc:	97fff6eb 	bl	90368 <_Bfree>
   927c0:	9e660100 	fmov	x0, d8
   927c4:	aa1b03e1 	mov	x1, x27
   927c8:	97fff6e8 	bl	90368 <_Bfree>
   927cc:	f9409fe1 	ldr	x1, [sp, #312]
   927d0:	91006020 	add	x0, x1, #0x18
   927d4:	b9801422 	ldrsw	x2, [x1, #20]
   927d8:	8b020802 	add	x2, x0, x2, lsl #2
   927dc:	eb02001f 	cmp	x0, x2
   927e0:	540021c2 	b.cs	92c18 <_strtodg_l+0x14f0>  // b.hs, b.nlast
   927e4:	b9401821 	ldr	w1, [x1, #24]
   927e8:	52800013 	mov	w19, #0x0                   	// #0
   927ec:	34000081 	cbz	w1, 927fc <_strtodg_l+0x10d4>
   927f0:	14000063 	b	9297c <_strtodg_l+0x1254>
   927f4:	b9400001 	ldr	w1, [x0]
   927f8:	35000c21 	cbnz	w1, 9297c <_strtodg_l+0x1254>
   927fc:	91001000 	add	x0, x0, #0x4
   92800:	11008273 	add	w19, w19, #0x20
   92804:	eb00005f 	cmp	x2, x0
   92808:	54ffff68 	b.hi	927f4 <_strtodg_l+0x10cc>  // b.pmore
   9280c:	52800018 	mov	w24, #0x0                   	// #0
   92810:	17fffe6a 	b	921b8 <_strtodg_l+0xa90>
   92814:	b94123e1 	ldr	w1, [sp, #288]
   92818:	b9401443 	ldr	w3, [x2, #20]
   9281c:	121d7021 	and	w1, w1, #0xfffffff8
   92820:	7100007f 	cmp	w3, #0x0
   92824:	321f0020 	orr	w0, w1, #0x2
   92828:	1a81c001 	csel	w1, w0, w1, gt
   9282c:	721c043f 	tst	w1, #0x30
   92830:	321a0020 	orr	w0, w1, #0x40
   92834:	1a800021 	csel	w1, w1, w0, eq  // eq = none
   92838:	b90123e1 	str	w1, [sp, #288]
   9283c:	17fffcbd 	b	91b30 <_strtodg_l+0x408>
   92840:	4b0203e1 	neg	w1, w2
   92844:	97fffa29 	bl	910e8 <rshift>
   92848:	17fffe2a 	b	920f0 <_strtodg_l+0x9c8>
   9284c:	1e6c1001 	fmov	d1, #5.000000000000000000e-01
   92850:	7100037f 	cmp	w27, #0x0
   92854:	52800401 	mov	w1, #0x20                  	// #32
   92858:	52800200 	mov	w0, #0x10                  	// #16
   9285c:	1e61080b 	fmul	d11, d0, d1
   92860:	1a800020 	csel	w0, w1, w0, eq  // eq = none
   92864:	1a9f17fc 	cset	w28, eq  // eq = none
   92868:	b90103e0 	str	w0, [sp, #256]
   9286c:	1e6e2170 	fcmpe	d11, d14
   92870:	540007e5 	b.pl	9296c <_strtodg_l+0x1244>  // b.nfrst
   92874:	1e780160 	fcvtzs	w0, d11
   92878:	b940c3e1 	ldr	w1, [sp, #192]
   9287c:	7100043f 	cmp	w1, #0x1
   92880:	1e62000a 	scvtf	d10, w0
   92884:	b900bbe0 	str	w0, [sp, #184]
   92888:	1e6a396b 	fsub	d11, d11, d10
   9288c:	540014a0 	b.eq	92b20 <_strtodg_l+0x13f8>  // b.none
   92890:	7100083f 	cmp	w1, #0x2
   92894:	540000a0 	b.eq	928a8 <_strtodg_l+0x1180>  // b.none
   92898:	1e612170 	fcmpe	d11, d1
   9289c:	540000ca 	b.ge	928b4 <_strtodg_l+0x118c>  // b.tcont
   928a0:	52800013 	mov	w19, #0x0                   	// #0
   928a4:	17fffdfc 	b	92094 <_strtodg_l+0x96c>
   928a8:	35ffffdc 	cbnz	w28, 928a0 <_strtodg_l+0x1178>
   928ac:	1e602178 	fcmpe	d11, #0.0
   928b0:	54ffff8d 	b.le	928a0 <_strtodg_l+0x1178>
   928b4:	b940bbe0 	ldr	w0, [sp, #184]
   928b8:	52800013 	mov	w19, #0x0                   	// #0
   928bc:	b94103e2 	ldr	w2, [sp, #256]
   928c0:	11000401 	add	w1, w0, #0x1
   928c4:	52800600 	mov	w0, #0x30                  	// #48
   928c8:	4b020000 	sub	w0, w0, w2
   928cc:	b900bbe1 	str	w1, [sp, #184]
   928d0:	1e62002a 	scvtf	d10, w1
   928d4:	b90103e0 	str	w0, [sp, #256]
   928d8:	17fffdef 	b	92094 <_strtodg_l+0x96c>
   928dc:	aa1903e9 	mov	x9, x25
   928e0:	aa1b03e8 	mov	x8, x27
   928e4:	17ffff45 	b	925f8 <_strtodg_l+0xed0>
   928e8:	b9400f80 	ldr	w0, [x28, #12]
   928ec:	6b01001f 	cmp	w0, w1
   928f0:	54000bc0 	b.eq	92a68 <_strtodg_l+0x1340>  // b.none
   928f4:	8b21cb80 	add	x0, x28, w1, sxtw #2
   928f8:	11000422 	add	w2, w1, #0x1
   928fc:	b9001782 	str	w2, [x28, #20]
   92900:	52800022 	mov	w2, #0x1                   	// #1
   92904:	b9001802 	str	w2, [x0, #24]
   92908:	17ffff71 	b	926cc <_strtodg_l+0xfa4>
   9290c:	1e6e100a 	fmov	d10, #1.000000000000000000e+00
   92910:	52800420 	mov	w0, #0x21                  	// #33
   92914:	52800401 	mov	w1, #0x20                  	// #32
   92918:	5280001c 	mov	w28, #0x0                   	// #0
   9291c:	1e60414b 	fmov	d11, d10
   92920:	b900bbff 	str	wzr, [sp, #184]
   92924:	b90103e1 	str	w1, [sp, #256]
   92928:	b90123e0 	str	w0, [sp, #288]
   9292c:	17fffdda 	b	92094 <_strtodg_l+0x96c>
   92930:	9e660100 	fmov	x0, d8
   92934:	4b0202f9 	sub	w25, w23, w2
   92938:	f9409fe1 	ldr	x1, [sp, #312]
   9293c:	2a1903e2 	mov	w2, w25
   92940:	97fff81c 	bl	909b0 <__lshift>
   92944:	b90127f7 	str	w23, [sp, #292]
   92948:	b9412be2 	ldr	w2, [sp, #296]
   9294c:	f9009fe0 	str	x0, [sp, #312]
   92950:	4b190042 	sub	w2, w2, w25
   92954:	b9012be2 	str	w2, [sp, #296]
   92958:	17fffdd8 	b	920b8 <_strtodg_l+0x990>
   9295c:	4b140261 	sub	w1, w19, w20
   92960:	aa1503e0 	mov	x0, x21
   92964:	97fff9e1 	bl	910e8 <rshift>
   92968:	17fffd75 	b	91f3c <_strtodg_l+0x814>
   9296c:	1e60416a 	fmov	d10, d11
   92970:	52800013 	mov	w19, #0x0                   	// #0
   92974:	b900bbff 	str	wzr, [sp, #184]
   92978:	17fffdc7 	b	92094 <_strtodg_l+0x96c>
   9297c:	9104b3e0 	add	x0, sp, #0x12c
   92980:	52800018 	mov	w24, #0x0                   	// #0
   92984:	b9012fe1 	str	w1, [sp, #300]
   92988:	97fff71c 	bl	905f8 <__lo0bits>
   9298c:	0b000273 	add	w19, w19, w0
   92990:	17fffe0a 	b	921b8 <_strtodg_l+0xa90>
   92994:	93407c21 	sxtw	x1, w1
   92998:	91001021 	add	x1, x1, #0x4
   9299c:	d37ef421 	lsl	x1, x1, #2
   929a0:	f9007fe1 	str	x1, [sp, #248]
   929a4:	8b010000 	add	x0, x0, x1
   929a8:	b9400800 	ldr	w0, [x0, #8]
   929ac:	97fff6fb 	bl	90598 <__hi0bits>
   929b0:	2a0003e2 	mov	w2, w0
   929b4:	f9407fe1 	ldr	x1, [sp, #248]
   929b8:	b900f3e2 	str	w2, [sp, #240]
   929bc:	8b010361 	add	x1, x27, x1
   929c0:	b9400820 	ldr	w0, [x1, #8]
   929c4:	97fff6f5 	bl	90598 <__hi0bits>
   929c8:	b940f3e2 	ldr	w2, [sp, #240]
   929cc:	6b00005f 	cmp	w2, w0
   929d0:	54ffbb4c 	b.gt	92138 <_strtodg_l+0xa10>
   929d4:	17fffde1 	b	92158 <_strtodg_l+0xa30>
   929d8:	aa1c03e2 	mov	x2, x28
   929dc:	aa1903e0 	mov	x0, x25
   929e0:	97ffeabf 	bl	8d4dc <strncmp>
   929e4:	2a0003f6 	mov	w22, w0
   929e8:	350033c0 	cbnz	w0, 93060 <_strtodg_l+0x1938>
   929ec:	f9409be0 	ldr	x0, [sp, #304]
   929f0:	52800022 	mov	w2, #0x1                   	// #1
   929f4:	8b1c0001 	add	x1, x0, x28
   929f8:	f9009be1 	str	x1, [sp, #304]
   929fc:	4b010042 	sub	w2, w2, w1
   92a00:	387c6813 	ldrb	w19, [x0, x28]
   92a04:	52800000 	mov	w0, #0x0                   	// #0
   92a08:	7100c27f 	cmp	w19, #0x30
   92a0c:	540000e1 	b.ne	92a28 <_strtodg_l+0x1300>  // b.any
   92a10:	0b010040 	add	w0, w2, w1
   92a14:	91000421 	add	x1, x1, #0x1
   92a18:	f9009be1 	str	x1, [sp, #304]
   92a1c:	39400033 	ldrb	w19, [x1]
   92a20:	7100c27f 	cmp	w19, #0x30
   92a24:	54ffff60 	b.eq	92a10 <_strtodg_l+0x12e8>  // b.none
   92a28:	5100c661 	sub	w1, w19, #0x31
   92a2c:	7100203f 	cmp	w1, #0x8
   92a30:	54ff8fa8 	b.hi	91c24 <_strtodg_l+0x4fc>  // b.pmore
   92a34:	f9409be6 	ldr	x6, [sp, #304]
   92a38:	5100c273 	sub	w19, w19, #0x30
   92a3c:	11000407 	add	w7, w0, #0x1
   92a40:	52800018 	mov	w24, #0x0                   	// #0
   92a44:	aa0603f9 	mov	x25, x6
   92a48:	52800015 	mov	w21, #0x0                   	// #0
   92a4c:	52800021 	mov	w1, #0x1                   	// #1
   92a50:	0b150ab5 	add	w21, w21, w21, lsl #2
   92a54:	2a1603e5 	mov	w5, w22
   92a58:	52800000 	mov	w0, #0x0                   	// #0
   92a5c:	2a0103f6 	mov	w22, w1
   92a60:	0b150675 	add	w21, w19, w21, lsl #1
   92a64:	17fffc6c 	b	91c14 <_strtodg_l+0x4ec>
   92a68:	9e660100 	fmov	x0, d8
   92a6c:	b9400b81 	ldr	w1, [x28, #8]
   92a70:	11000421 	add	w1, w1, #0x1
   92a74:	97fff619 	bl	902d8 <_Balloc>
   92a78:	aa0003e5 	mov	x5, x0
   92a7c:	b9801782 	ldrsw	x2, [x28, #20]
   92a80:	91004381 	add	x1, x28, #0x10
   92a84:	91004000 	add	x0, x0, #0x10
   92a88:	f9007be5 	str	x5, [sp, #240]
   92a8c:	91000842 	add	x2, x2, #0x2
   92a90:	d37ef442 	lsl	x2, x2, #2
   92a94:	97fff53b 	bl	8ff80 <memcpy>
   92a98:	9e660100 	fmov	x0, d8
   92a9c:	aa1c03e1 	mov	x1, x28
   92aa0:	f9407be5 	ldr	x5, [sp, #240]
   92aa4:	aa0503fc 	mov	x28, x5
   92aa8:	97fff630 	bl	90368 <_Bfree>
   92aac:	f9407be5 	ldr	x5, [sp, #240]
   92ab0:	b94014a1 	ldr	w1, [x5, #20]
   92ab4:	17ffff90 	b	928f4 <_strtodg_l+0x11cc>
   92ab8:	52800018 	mov	w24, #0x0                   	// #0
   92abc:	17fffe95 	b	92510 <_strtodg_l+0xde8>
   92ac0:	52800013 	mov	w19, #0x0                   	// #0
   92ac4:	17fffd6a 	b	9206c <_strtodg_l+0x944>
   92ac8:	52800006 	mov	w6, #0x0                   	// #0
   92acc:	17fffbf7 	b	91aa8 <_strtodg_l+0x380>
   92ad0:	9e660100 	fmov	x0, d8
   92ad4:	b940a3e5 	ldr	w5, [sp, #160]
   92ad8:	f94067e3 	ldr	x3, [sp, #200]
   92adc:	aa1a03e2 	mov	x2, x26
   92ae0:	9104e3e4 	add	x4, sp, #0x138
   92ae4:	9104c3e1 	add	x1, sp, #0x130
   92ae8:	97fff28c 	bl	8f518 <__gethex>
   92aec:	b90123e0 	str	w0, [sp, #288]
   92af0:	7100181f 	cmp	w0, #0x6
   92af4:	54ff8ca1 	b.ne	91c88 <_strtodg_l+0x560>  // b.any
   92af8:	f94057e0 	ldr	x0, [sp, #168]
   92afc:	f9009bfb 	str	x27, [sp, #304]
   92b00:	f9409fe2 	ldr	x2, [sp, #312]
   92b04:	b4ff8280 	cbz	x0, 91b54 <_strtodg_l+0x42c>
   92b08:	f94057e0 	ldr	x0, [sp, #168]
   92b0c:	f900001b 	str	x27, [x0]
   92b10:	17fffc11 	b	91b54 <_strtodg_l+0x42c>
   92b14:	f94087fa 	ldr	x26, [sp, #264]
   92b18:	35ffccd8 	cbnz	w24, 924b0 <_strtodg_l+0xd88>
   92b1c:	17fffe90 	b	9255c <_strtodg_l+0xe34>
   92b20:	35ffec7c 	cbnz	w28, 928ac <_strtodg_l+0x1184>
   92b24:	52800013 	mov	w19, #0x0                   	// #0
   92b28:	17fffd5b 	b	92094 <_strtodg_l+0x96c>
   92b2c:	52800018 	mov	w24, #0x0                   	// #0
   92b30:	6d072fea 	stp	d10, d11, [sp, #112]
   92b34:	fd004bee 	str	d14, [sp, #144]
   92b38:	17fffc98 	b	91d98 <_strtodg_l+0x670>
   92b3c:	b94107e0 	ldr	w0, [sp, #260]
   92b40:	52800038 	mov	w24, #0x1                   	// #1
   92b44:	6d072fea 	stp	d10, d11, [sp, #112]
   92b48:	fd004bee 	str	d14, [sp, #144]
   92b4c:	b900d7e0 	str	w0, [sp, #212]
   92b50:	17fffc92 	b	91d98 <_strtodg_l+0x670>
   92b54:	0b0000e7 	add	w7, w7, w0
   92b58:	7100041f 	cmp	w0, #0x1
   92b5c:	110006c1 	add	w1, w22, #0x1
   92b60:	54000260 	b.eq	92bac <_strtodg_l+0x1484>  // b.none
   92b64:	0b160008 	add	w8, w0, w22
   92b68:	2a1603e2 	mov	w2, w22
   92b6c:	51000516 	sub	w22, w8, #0x1
   92b70:	14000005 	b	92b84 <_strtodg_l+0x145c>
   92b74:	531f7895 	lsl	w21, w4, #1
   92b78:	6b0102df 	cmp	w22, w1
   92b7c:	2a0103e2 	mov	w2, w1
   92b80:	54000140 	b.eq	92ba8 <_strtodg_l+0x1480>  // b.none
   92b84:	0b180b00 	add	w0, w24, w24, lsl #2
   92b88:	11000441 	add	w1, w2, #0x1
   92b8c:	0b150aa4 	add	w4, w21, w21, lsl #2
   92b90:	7100205f 	cmp	w2, #0x8
   92b94:	531f7800 	lsl	w0, w0, #1
   92b98:	54fffeed 	b.le	92b74 <_strtodg_l+0x144c>
   92b9c:	7100443f 	cmp	w1, #0x11
   92ba0:	1a98b018 	csel	w24, w0, w24, lt  // lt = tstop
   92ba4:	17fffff5 	b	92b78 <_strtodg_l+0x1450>
   92ba8:	2a0803e1 	mov	w1, w8
   92bac:	710022df 	cmp	w22, #0x8
   92bb0:	5400066d 	b.le	92c7c <_strtodg_l+0x1554>
   92bb4:	7100403f 	cmp	w1, #0x10
   92bb8:	540014ac 	b.gt	92e4c <_strtodg_l+0x1724>
   92bbc:	0b180b18 	add	w24, w24, w24, lsl #2
   92bc0:	2a0103f6 	mov	w22, w1
   92bc4:	52800000 	mov	w0, #0x0                   	// #0
   92bc8:	0b180478 	add	w24, w3, w24, lsl #1
   92bcc:	17fffc12 	b	91c14 <_strtodg_l+0x4ec>
   92bd0:	3100581f 	cmn	w0, #0x16
   92bd4:	2a0003f4 	mov	w20, w0
   92bd8:	54ff85eb 	b.lt	91c94 <_strtodg_l+0x56c>  // b.tstop
   92bdc:	4b1c00e1 	sub	w1, w7, w28
   92be0:	f0000000 	adrp	x0, 95000 <BitFont+0x934>
   92be4:	912c4000 	add	x0, x0, #0xb10
   92be8:	9e670261 	fmov	d1, x19
   92bec:	910483e6 	add	x6, sp, #0x120
   92bf0:	52800004 	mov	w4, #0x0                   	// #0
   92bf4:	9e660183 	fmov	x3, d12
   92bf8:	b940c3e5 	ldr	w5, [sp, #192]
   92bfc:	fc61d800 	ldr	d0, [x0, w1, sxtw #3]
   92c00:	aa1a03e1 	mov	x1, x26
   92c04:	9e660100 	fmov	x0, d8
   92c08:	2916a3e7 	stp	w7, w8, [sp, #180]
   92c0c:	f94067e2 	ldr	x2, [sp, #200]
   92c10:	1e601821 	fdiv	d1, d1, d0
   92c14:	17fffb62 	b	9199c <_strtodg_l+0x274>
   92c18:	52800013 	mov	w19, #0x0                   	// #0
   92c1c:	52800018 	mov	w24, #0x0                   	// #0
   92c20:	17fffd66 	b	921b8 <_strtodg_l+0xa90>
   92c24:	5280001c 	mov	w28, #0x0                   	// #0
   92c28:	17fffbb2 	b	91af0 <_strtodg_l+0x3c8>
   92c2c:	0b010261 	add	w1, w19, w1
   92c30:	b90127e1 	str	w1, [sp, #292]
   92c34:	7100003f 	cmp	w1, #0x0
   92c38:	f9409fe2 	ldr	x2, [sp, #312]
   92c3c:	5400122c 	b.gt	92e80 <_strtodg_l+0x1758>
   92c40:	3100043f 	cmn	w1, #0x1
   92c44:	540000eb 	b.lt	92c60 <_strtodg_l+0x1538>  // b.tstop
   92c48:	52800020 	mov	w0, #0x1                   	// #1
   92c4c:	b90127e0 	str	w0, [sp, #292]
   92c50:	b20003e0 	mov	x0, #0x100000001           	// #4294967297
   92c54:	f8014040 	stur	x0, [x2, #20]
   92c58:	17fffc44 	b	91d68 <_strtodg_l+0x640>
   92c5c:	f9409fe2 	ldr	x2, [sp, #312]
   92c60:	52800a00 	mov	w0, #0x50                  	// #80
   92c64:	b90123e0 	str	w0, [sp, #288]
   92c68:	f94067e0 	ldr	x0, [sp, #200]
   92c6c:	f801405f 	stur	xzr, [x2, #20]
   92c70:	b94107e1 	ldr	w1, [sp, #260]
   92c74:	b9000001 	str	w1, [x0]
   92c78:	17fffe33 	b	92544 <_strtodg_l+0xe1c>
   92c7c:	2a0503f6 	mov	w22, w5
   92c80:	17ffff74 	b	92a50 <_strtodg_l+0x1328>
   92c84:	b980d3f8 	ldrsw	x24, [sp, #208]
   92c88:	f0000000 	adrp	x0, 95000 <BitFont+0x934>
   92c8c:	91306000 	add	x0, x0, #0xc18
   92c90:	2916a3e7 	stp	w7, w8, [sp, #180]
   92c94:	b9012ff3 	str	w19, [sp, #300]
   92c98:	d360fe61 	lsr	x1, x19, #32
   92c9c:	b8787814 	ldr	w20, [x0, x24, lsl #2]
   92ca0:	35001413 	cbnz	w19, 92f20 <_strtodg_l+0x17f8>
   92ca4:	320c0021 	orr	w1, w1, #0x100000
   92ca8:	9104b3e0 	add	x0, sp, #0x12c
   92cac:	b9012fe1 	str	w1, [sp, #300]
   92cb0:	97fff652 	bl	905f8 <__lo0bits>
   92cb4:	2956a3e7 	ldp	w7, w8, [sp, #180]
   92cb8:	528002a1 	mov	w1, #0x15                  	// #21
   92cbc:	4b000020 	sub	w0, w1, w0
   92cc0:	f0000001 	adrp	x1, 95000 <BitFont+0x934>
   92cc4:	912c4021 	add	x1, x1, #0xb10
   92cc8:	0b000294 	add	w20, w20, w0
   92ccc:	9e670260 	fmov	d0, x19
   92cd0:	7100d69f 	cmp	w20, #0x35
   92cd4:	910483e6 	add	x6, sp, #0x120
   92cd8:	fc787821 	ldr	d1, [x1, x24, lsl #3]
   92cdc:	1a9fc7e4 	cset	w4, le
   92ce0:	9e660183 	fmov	x3, d12
   92ce4:	aa1a03e1 	mov	x1, x26
   92ce8:	9e660100 	fmov	x0, d8
   92cec:	b940c3e5 	ldr	w5, [sp, #192]
   92cf0:	1e600821 	fmul	d1, d1, d0
   92cf4:	2916a3e7 	stp	w7, w8, [sp, #180]
   92cf8:	f94067e2 	ldr	x2, [sp, #200]
   92cfc:	17fffb28 	b	9199c <_strtodg_l+0x274>
   92d00:	2a1703fc 	mov	w28, w23
   92d04:	17fffcd2 	b	9204c <_strtodg_l+0x924>
   92d08:	2a1b03fc 	mov	w28, w27
   92d0c:	f94087fa 	ldr	x26, [sp, #264]
   92d10:	34000c7b 	cbz	w27, 92e9c <_strtodg_l+0x1774>
   92d14:	340011f8 	cbz	w24, 92f50 <_strtodg_l+0x1828>
   92d18:	b94127e3 	ldr	w3, [sp, #292]
   92d1c:	f9409fe4 	ldr	x4, [sp, #312]
   92d20:	13057c61 	asr	w1, w3, #5
   92d24:	91006080 	add	x0, x4, #0x18
   92d28:	8b21c801 	add	x1, x0, w1, sxtw #2
   92d2c:	eb01001f 	cmp	x0, x1
   92d30:	54000162 	b.cs	92d5c <_strtodg_l+0x1634>  // b.hs, b.nlast
   92d34:	b9401882 	ldr	w2, [x4, #24]
   92d38:	91007080 	add	x0, x4, #0x1c
   92d3c:	3100045f 	cmn	w2, #0x1
   92d40:	540000a0 	b.eq	92d54 <_strtodg_l+0x162c>  // b.none
   92d44:	14000083 	b	92f50 <_strtodg_l+0x1828>
   92d48:	b8404402 	ldr	w2, [x0], #4
   92d4c:	3100045f 	cmn	w2, #0x1
   92d50:	54001001 	b.ne	92f50 <_strtodg_l+0x1828>  // b.any
   92d54:	eb00003f 	cmp	x1, x0
   92d58:	54ffff88 	b.hi	92d48 <_strtodg_l+0x1620>  // b.pmore
   92d5c:	72001063 	ands	w3, w3, #0x1f
   92d60:	54000ec1 	b.ne	92f38 <_strtodg_l+0x1810>  // b.any
   92d64:	b94107e0 	ldr	w0, [sp, #260]
   92d68:	b20003e2 	mov	x2, #0x100000001           	// #4294967297
   92d6c:	52800023 	mov	w3, #0x1                   	// #1
   92d70:	52800425 	mov	w5, #0x21                  	// #33
   92d74:	0b0002e0 	add	w0, w23, w0
   92d78:	2a1803e1 	mov	w1, w24
   92d7c:	51000400 	sub	w0, w0, #0x1
   92d80:	f8014082 	stur	x2, [x4, #20]
   92d84:	b90123e5 	str	w5, [sp, #288]
   92d88:	b90127e3 	str	w3, [sp, #292]
   92d8c:	b9012be0 	str	w0, [sp, #296]
   92d90:	17fffdf4 	b	92560 <_strtodg_l+0xe38>
   92d94:	f94087fa 	ldr	x26, [sp, #264]
   92d98:	35000b9b 	cbnz	w27, 92f08 <_strtodg_l+0x17e0>
   92d9c:	52800420 	mov	w0, #0x21                  	// #33
   92da0:	b90123e0 	str	w0, [sp, #288]
   92da4:	7100073f 	cmp	w25, #0x1
   92da8:	54ffb82c 	b.gt	924ac <_strtodg_l+0xd84>
   92dac:	b940d7e0 	ldr	w0, [sp, #212]
   92db0:	b94107e1 	ldr	w1, [sp, #260]
   92db4:	6b01001f 	cmp	w0, w1
   92db8:	12000300 	and	w0, w24, #0x1
   92dbc:	1a9f1400 	csinc	w0, w0, wzr, ne  // ne = any
   92dc0:	35ffb760 	cbnz	w0, 924ac <_strtodg_l+0xd84>
   92dc4:	9e660100 	fmov	x0, d8
   92dc8:	aa1403e1 	mov	x1, x20
   92dcc:	52800022 	mov	w2, #0x1                   	// #1
   92dd0:	97fff6f8 	bl	909b0 <__lshift>
   92dd4:	9e660121 	fmov	x1, d9
   92dd8:	aa0003f4 	mov	x20, x0
   92ddc:	97fff741 	bl	90ae0 <__mcmp>
   92de0:	7100001f 	cmp	w0, #0x0
   92de4:	54ffbbcd 	b.le	9255c <_strtodg_l+0xe34>
   92de8:	52800220 	mov	w0, #0x11                  	// #17
   92dec:	52800018 	mov	w24, #0x0                   	// #0
   92df0:	b90123e0 	str	w0, [sp, #288]
   92df4:	b9412be3 	ldr	w3, [sp, #296]
   92df8:	9e660100 	fmov	x0, d8
   92dfc:	f9409fe1 	ldr	x1, [sp, #312]
   92e00:	4b170063 	sub	w3, w3, w23
   92e04:	2a1703e2 	mov	w2, w23
   92e08:	b90127f7 	str	w23, [sp, #292]
   92e0c:	b9012be3 	str	w3, [sp, #296]
   92e10:	97fffa14 	bl	91660 <set_ones>
   92e14:	f9009fe0 	str	x0, [sp, #312]
   92e18:	35ffb4d8 	cbnz	w24, 924b0 <_strtodg_l+0xd88>
   92e1c:	17fffdd0 	b	9255c <_strtodg_l+0xe34>
   92e20:	7100001f 	cmp	w0, #0x0
   92e24:	52800421 	mov	w1, #0x21                  	// #33
   92e28:	52800220 	mov	w0, #0x11                  	// #17
   92e2c:	1a811000 	csel	w0, w0, w1, ne  // ne = any
   92e30:	b90123e0 	str	w0, [sp, #288]
   92e34:	f94087fa 	ldr	x26, [sp, #264]
   92e38:	35ffb3d8 	cbnz	w24, 924b0 <_strtodg_l+0xd88>
   92e3c:	17fffdc8 	b	9255c <_strtodg_l+0xe34>
   92e40:	4b170021 	sub	w1, w1, w23
   92e44:	97fff8a9 	bl	910e8 <rshift>
   92e48:	17fffdd0 	b	92588 <_strtodg_l+0xe60>
   92e4c:	2a0103f6 	mov	w22, w1
   92e50:	52800000 	mov	w0, #0x0                   	// #0
   92e54:	17fffb70 	b	91c14 <_strtodg_l+0x4ec>
   92e58:	f94087fa 	ldr	x26, [sp, #264]
   92e5c:	52800038 	mov	w24, #0x1                   	// #1
   92e60:	f9409fe1 	ldr	x1, [sp, #312]
   92e64:	52800a00 	mov	w0, #0x50                  	// #80
   92e68:	b90123e0 	str	w0, [sp, #288]
   92e6c:	b94107e0 	ldr	w0, [sp, #260]
   92e70:	b900143f 	str	wzr, [x1, #20]
   92e74:	b9012be0 	str	w0, [sp, #296]
   92e78:	35ffb1d8 	cbnz	w24, 924b0 <_strtodg_l+0xd88>
   92e7c:	17fffdb8 	b	9255c <_strtodg_l+0xe34>
   92e80:	b94107e0 	ldr	w0, [sp, #260]
   92e84:	b900b7e7 	str	w7, [sp, #180]
   92e88:	4b140001 	sub	w1, w0, w20
   92e8c:	aa0203e0 	mov	x0, x2
   92e90:	97fff896 	bl	910e8 <rshift>
   92e94:	b940b7e7 	ldr	w7, [sp, #180]
   92e98:	17fffbb4 	b	91d68 <_strtodg_l+0x640>
   92e9c:	7100073f 	cmp	w25, #0x1
   92ea0:	54000740 	b.eq	92f88 <_strtodg_l+0x1860>  // b.none
   92ea4:	52800420 	mov	w0, #0x21                  	// #33
   92ea8:	b90123e0 	str	w0, [sp, #288]
   92eac:	6b1902ff 	cmp	w23, w25
   92eb0:	52000300 	eor	w0, w24, #0x1
   92eb4:	1a9fd7e1 	cset	w1, gt
   92eb8:	6a01001f 	tst	w0, w1
   92ebc:	54ffb501 	b.ne	9255c <_strtodg_l+0xe34>  // b.any
   92ec0:	f9409fe1 	ldr	x1, [sp, #312]
   92ec4:	b9401820 	ldr	w0, [x1, #24]
   92ec8:	3607af20 	tbz	w0, #0, 924ac <_strtodg_l+0xd84>
   92ecc:	35000a3c 	cbnz	w28, 93010 <_strtodg_l+0x18e8>
   92ed0:	7100073f 	cmp	w25, #0x1
   92ed4:	54fffc80 	b.eq	92e64 <_strtodg_l+0x173c>  // b.none
   92ed8:	b9801420 	ldrsw	x0, [x1, #20]
   92edc:	91006021 	add	x1, x1, #0x18
   92ee0:	12800003 	mov	w3, #0xffffffff            	// #-1
   92ee4:	8b000822 	add	x2, x1, x0, lsl #2
   92ee8:	14000004 	b	92ef8 <_strtodg_l+0x17d0>
   92eec:	b8004423 	str	w3, [x1], #4
   92ef0:	eb01005f 	cmp	x2, x1
   92ef4:	540000a9 	b.ls	92f08 <_strtodg_l+0x17e0>  // b.plast
   92ef8:	b9400020 	ldr	w0, [x1]
   92efc:	34ffff80 	cbz	w0, 92eec <_strtodg_l+0x17c4>
   92f00:	51000400 	sub	w0, w0, #0x1
   92f04:	b9000020 	str	w0, [x1]
   92f08:	52800220 	mov	w0, #0x11                  	// #17
   92f0c:	b90123e0 	str	w0, [sp, #288]
   92f10:	35ffad18 	cbnz	w24, 924b0 <_strtodg_l+0xd88>
   92f14:	17fffd92 	b	9255c <_strtodg_l+0xe34>
   92f18:	52800000 	mov	w0, #0x0                   	// #0
   92f1c:	17fffd08 	b	9233c <_strtodg_l+0xc14>
   92f20:	9104b3e0 	add	x0, sp, #0x12c
   92f24:	97fff5b5 	bl	905f8 <__lo0bits>
   92f28:	528006a1 	mov	w1, #0x35                  	// #53
   92f2c:	4b000020 	sub	w0, w1, w0
   92f30:	2956a3e7 	ldp	w7, w8, [sp, #180]
   92f34:	17ffff63 	b	92cc0 <_strtodg_l+0x1598>
   92f38:	b9400001 	ldr	w1, [x0]
   92f3c:	12800000 	mov	w0, #0xffffffff            	// #-1
   92f40:	1ac32000 	lsl	w0, w0, w3
   92f44:	2a010000 	orr	w0, w0, w1
   92f48:	3100041f 	cmn	w0, #0x1
   92f4c:	54fff0c0 	b.eq	92d64 <_strtodg_l+0x163c>  // b.none
   92f50:	52800220 	mov	w0, #0x11                  	// #17
   92f54:	b90123e0 	str	w0, [sp, #288]
   92f58:	17ffffd5 	b	92eac <_strtodg_l+0x1784>
   92f5c:	9e660182 	fmov	x2, d12
   92f60:	aa1a03e1 	mov	x1, x26
   92f64:	9104c3e0 	add	x0, sp, #0x130
   92f68:	97fff36c 	bl	8fd18 <__hexnan>
   92f6c:	b90123e0 	str	w0, [sp, #288]
   92f70:	f94067e0 	ldr	x0, [sp, #200]
   92f74:	b9400b41 	ldr	w1, [x26, #8]
   92f78:	f9409fe2 	ldr	x2, [sp, #312]
   92f7c:	11000421 	add	w1, w1, #0x1
   92f80:	b9000001 	str	w1, [x0]
   92f84:	17fffaeb 	b	91b30 <_strtodg_l+0x408>
   92f88:	b940d7e0 	ldr	w0, [sp, #212]
   92f8c:	b94107e1 	ldr	w1, [sp, #260]
   92f90:	b90123f9 	str	w25, [sp, #288]
   92f94:	6b01001f 	cmp	w0, w1
   92f98:	54fff2e1 	b.ne	92df4 <_strtodg_l+0x16cc>  // b.any
   92f9c:	f9409fe0 	ldr	x0, [sp, #312]
   92fa0:	52800421 	mov	w1, #0x21                  	// #33
   92fa4:	b90123e1 	str	w1, [sp, #288]
   92fa8:	b9401401 	ldr	w1, [x0, #20]
   92fac:	7100043f 	cmp	w1, #0x1
   92fb0:	54ffa7e1 	b.ne	924ac <_strtodg_l+0xd84>  // b.any
   92fb4:	b9401800 	ldr	w0, [x0, #24]
   92fb8:	7100041f 	cmp	w0, #0x1
   92fbc:	b940efe0 	ldr	w0, [sp, #236]
   92fc0:	1a991000 	csel	w0, w0, w25, ne  // ne = any
   92fc4:	b900efe0 	str	w0, [sp, #236]
   92fc8:	35ffa758 	cbnz	w24, 924b0 <_strtodg_l+0xd88>
   92fcc:	17fffd64 	b	9255c <_strtodg_l+0xe34>
   92fd0:	f94087fa 	ldr	x26, [sp, #264]
   92fd4:	f9409fe1 	ldr	x1, [sp, #312]
   92fd8:	2a1703e2 	mov	w2, w23
   92fdc:	b940d7e0 	ldr	w0, [sp, #212]
   92fe0:	b90127f7 	str	w23, [sp, #292]
   92fe4:	51000403 	sub	w3, w0, #0x1
   92fe8:	9e660100 	fmov	x0, d8
   92fec:	b9012be3 	str	w3, [sp, #296]
   92ff0:	97fff99c 	bl	91660 <set_ones>
   92ff4:	f9009fe0 	str	x0, [sp, #312]
   92ff8:	35ffa5d8 	cbnz	w24, 924b0 <_strtodg_l+0xd88>
   92ffc:	17fffd58 	b	9255c <_strtodg_l+0xe34>
   93000:	f94087fa 	ldr	x26, [sp, #264]
   93004:	17fffff5 	b	92fd8 <_strtodg_l+0x18b0>
   93008:	52800000 	mov	w0, #0x0                   	// #0
   9300c:	17fffc9e 	b	92284 <_strtodg_l+0xb5c>
   93010:	9e660100 	fmov	x0, d8
   93014:	97fff87b 	bl	91200 <increment>
   93018:	b9401401 	ldr	w1, [x0, #20]
   9301c:	b94127f3 	ldr	w19, [sp, #292]
   93020:	51000421 	sub	w1, w1, #0x1
   93024:	f9009fe0 	str	x0, [sp, #312]
   93028:	4b1303f3 	neg	w19, w19
   9302c:	8b21c801 	add	x1, x0, w1, sxtw #2
   93030:	12001273 	and	w19, w19, #0x1f
   93034:	b9401820 	ldr	w0, [x1, #24]
   93038:	97fff558 	bl	90598 <__hi0bits>
   9303c:	6b13001f 	cmp	w0, w19
   93040:	54000080 	b.eq	93050 <_strtodg_l+0x1928>  // b.none
   93044:	b94127e0 	ldr	w0, [sp, #292]
   93048:	11000400 	add	w0, w0, #0x1
   9304c:	b90127e0 	str	w0, [sp, #292]
   93050:	52800420 	mov	w0, #0x21                  	// #33
   93054:	b90123e0 	str	w0, [sp, #288]
   93058:	35ffa2d8 	cbnz	w24, 924b0 <_strtodg_l+0xd88>
   9305c:	17fffd40 	b	9255c <_strtodg_l+0xe34>
   93060:	52800005 	mov	w5, #0x0                   	// #0
   93064:	52800018 	mov	w24, #0x0                   	// #0
   93068:	52800015 	mov	w21, #0x0                   	// #0
   9306c:	52800000 	mov	w0, #0x0                   	// #0
   93070:	52800007 	mov	w7, #0x0                   	// #0
   93074:	52800016 	mov	w22, #0x0                   	// #0
   93078:	52800003 	mov	w3, #0x0                   	// #0
   9307c:	17fffaef 	b	91c38 <_strtodg_l+0x510>
   93080:	2a1603fb 	mov	w27, w22
   93084:	2a0503f6 	mov	w22, w5
   93088:	17fff9ff 	b	91884 <_strtodg_l+0x15c>
   9308c:	00000000 	.inst	0x00000000 ; undefined

0000000000093090 <_calloc_r>:
   93090:	9b027c21 	mul	x1, x1, x2
   93094:	a9be7bfd 	stp	x29, x30, [sp, #-32]!
   93098:	910003fd 	mov	x29, sp
   9309c:	f9000bf3 	str	x19, [sp, #16]
   930a0:	94000026 	bl	93138 <_malloc_r>
   930a4:	aa0003f3 	mov	x19, x0
   930a8:	b4000140 	cbz	x0, 930d0 <_calloc_r+0x40>
   930ac:	f85f8002 	ldur	x2, [x0, #-8]
   930b0:	927ef442 	and	x2, x2, #0xfffffffffffffffc
   930b4:	d1002042 	sub	x2, x2, #0x8
   930b8:	f101205f 	cmp	x2, #0x48
   930bc:	54000288 	b.hi	9310c <_calloc_r+0x7c>  // b.pmore
   930c0:	f1009c5f 	cmp	x2, #0x27
   930c4:	540000e8 	b.hi	930e0 <_calloc_r+0x50>  // b.pmore
   930c8:	a9007c1f 	stp	xzr, xzr, [x0]
   930cc:	f900081f 	str	xzr, [x0, #16]
   930d0:	aa1303e0 	mov	x0, x19
   930d4:	f9400bf3 	ldr	x19, [sp, #16]
   930d8:	a8c27bfd 	ldp	x29, x30, [sp], #32
   930dc:	d65f03c0 	ret
   930e0:	a9007e7f 	stp	xzr, xzr, [x19]
   930e4:	91004000 	add	x0, x0, #0x10
   930e8:	f100dc5f 	cmp	x2, #0x37
   930ec:	54fffee9 	b.ls	930c8 <_calloc_r+0x38>  // b.plast
   930f0:	a9017e7f 	stp	xzr, xzr, [x19, #16]
   930f4:	91008260 	add	x0, x19, #0x20
   930f8:	f101205f 	cmp	x2, #0x48
   930fc:	54fffe61 	b.ne	930c8 <_calloc_r+0x38>  // b.any
   93100:	9100c260 	add	x0, x19, #0x30
   93104:	a9027e7f 	stp	xzr, xzr, [x19, #32]
   93108:	17fffff0 	b	930c8 <_calloc_r+0x38>
   9310c:	52800001 	mov	w1, #0x0                   	// #0
   93110:	97fff3fc 	bl	90100 <memset>
   93114:	aa1303e0 	mov	x0, x19
   93118:	f9400bf3 	ldr	x19, [sp, #16]
   9311c:	a8c27bfd 	ldp	x29, x30, [sp], #32
   93120:	d65f03c0 	ret
   93124:	00000000 	.inst	0x00000000 ; undefined

0000000000093128 <__errno>:
   93128:	d0000000 	adrp	x0, 95000 <BitFont+0x934>
   9312c:	f9473000 	ldr	x0, [x0, #3680]
   93130:	d65f03c0 	ret
   93134:	00000000 	.inst	0x00000000 ; undefined

0000000000093138 <_malloc_r>:
   93138:	a9ba7bfd 	stp	x29, x30, [sp, #-96]!
   9313c:	910003fd 	mov	x29, sp
   93140:	a90153f3 	stp	x19, x20, [sp, #16]
   93144:	91005c33 	add	x19, x1, #0x17
   93148:	f100ba7f 	cmp	x19, #0x2e
   9314c:	a9025bf5 	stp	x21, x22, [sp, #32]
   93150:	aa0003f5 	mov	x21, x0
   93154:	a90363f7 	stp	x23, x24, [sp, #48]
   93158:	54000c48 	b.hi	932e0 <_malloc_r+0x1a8>  // b.pmore
   9315c:	f100803f 	cmp	x1, #0x20
   93160:	54000ae8 	b.hi	932bc <_malloc_r+0x184>  // b.pmore
   93164:	940001f1 	bl	93928 <__malloc_lock>
   93168:	d2800413 	mov	x19, #0x20                  	// #32
   9316c:	52800084 	mov	w4, #0x4                   	// #4
   93170:	d2800a00 	mov	x0, #0x50                  	// #80
   93174:	f0000014 	adrp	x20, 96000 <impure_data+0x198>
   93178:	9116c294 	add	x20, x20, #0x5b0
   9317c:	8b000280 	add	x0, x20, x0
   93180:	11000884 	add	w4, w4, #0x2
   93184:	d1004000 	sub	x0, x0, #0x10
   93188:	f9400c01 	ldr	x1, [x0, #24]
   9318c:	eb00003f 	cmp	x1, x0
   93190:	54002001 	b.ne	93590 <_malloc_r+0x458>  // b.any
   93194:	f9401283 	ldr	x3, [x20, #32]
   93198:	91004282 	add	x2, x20, #0x10
   9319c:	eb02007f 	cmp	x3, x2
   931a0:	54000ee0 	b.eq	9337c <_malloc_r+0x244>  // b.none
   931a4:	f9400461 	ldr	x1, [x3, #8]
   931a8:	927ef421 	and	x1, x1, #0xfffffffffffffffc
   931ac:	cb130025 	sub	x5, x1, x19
   931b0:	f1007cbf 	cmp	x5, #0x1f
   931b4:	54002d6c 	b.gt	93760 <_malloc_r+0x628>
   931b8:	a9020a82 	stp	x2, x2, [x20, #32]
   931bc:	b6f81da5 	tbz	x5, #63, 93570 <_malloc_r+0x438>
   931c0:	f107fc3f 	cmp	x1, #0x1ff
   931c4:	540022a8 	b.hi	93618 <_malloc_r+0x4e0>  // b.pmore
   931c8:	d343fc22 	lsr	x2, x1, #3
   931cc:	d2800021 	mov	x1, #0x1                   	// #1
   931d0:	11000440 	add	w0, w2, #0x1
   931d4:	13027c42 	asr	w2, w2, #2
   931d8:	531f7800 	lsl	w0, w0, #1
   931dc:	f9400685 	ldr	x5, [x20, #8]
   931e0:	8b20ce80 	add	x0, x20, w0, sxtw #3
   931e4:	9ac22021 	lsl	x1, x1, x2
   931e8:	aa050021 	orr	x1, x1, x5
   931ec:	f85f0402 	ldr	x2, [x0], #-16
   931f0:	f9000681 	str	x1, [x20, #8]
   931f4:	a9010062 	stp	x2, x0, [x3, #16]
   931f8:	f9000803 	str	x3, [x0, #16]
   931fc:	f9000c43 	str	x3, [x2, #24]
   93200:	13027c82 	asr	w2, w4, #2
   93204:	d2800020 	mov	x0, #0x1                   	// #1
   93208:	9ac22000 	lsl	x0, x0, x2
   9320c:	eb01001f 	cmp	x0, x1
   93210:	54000c28 	b.hi	93394 <_malloc_r+0x25c>  // b.pmore
   93214:	ea01001f 	tst	x0, x1
   93218:	540000c1 	b.ne	93230 <_malloc_r+0xf8>  // b.any
   9321c:	121e7484 	and	w4, w4, #0xfffffffc
   93220:	d37ff800 	lsl	x0, x0, #1
   93224:	11001084 	add	w4, w4, #0x4
   93228:	ea01001f 	tst	x0, x1
   9322c:	54ffffa0 	b.eq	93220 <_malloc_r+0xe8>  // b.none
   93230:	11000486 	add	w6, w4, #0x1
   93234:	2a0403e7 	mov	w7, w4
   93238:	531f78c6 	lsl	w6, w6, #1
   9323c:	8b26ce86 	add	x6, x20, w6, sxtw #3
   93240:	d10040c6 	sub	x6, x6, #0x10
   93244:	aa0603e5 	mov	x5, x6
   93248:	f9400ca1 	ldr	x1, [x5, #24]
   9324c:	eb0100bf 	cmp	x5, x1
   93250:	540000c1 	b.ne	93268 <_malloc_r+0x130>  // b.any
   93254:	14000116 	b	936ac <_malloc_r+0x574>
   93258:	b6f82623 	tbz	x3, #63, 9371c <_malloc_r+0x5e4>
   9325c:	f9400c21 	ldr	x1, [x1, #24]
   93260:	eb0100bf 	cmp	x5, x1
   93264:	54002240 	b.eq	936ac <_malloc_r+0x574>  // b.none
   93268:	f9400422 	ldr	x2, [x1, #8]
   9326c:	927ef442 	and	x2, x2, #0xfffffffffffffffc
   93270:	cb130043 	sub	x3, x2, x19
   93274:	f1007c7f 	cmp	x3, #0x1f
   93278:	54ffff0d 	b.le	93258 <_malloc_r+0x120>
   9327c:	a9410025 	ldp	x5, x0, [x1, #16]
   93280:	b2400264 	orr	x4, x19, #0x1
   93284:	f9000424 	str	x4, [x1, #8]
   93288:	8b130033 	add	x19, x1, x19
   9328c:	f9000ca0 	str	x0, [x5, #24]
   93290:	91004284 	add	x4, x20, #0x10
   93294:	b2400066 	orr	x6, x3, #0x1
   93298:	91004037 	add	x23, x1, #0x10
   9329c:	f9000805 	str	x5, [x0, #16]
   932a0:	aa1503e0 	mov	x0, x21
   932a4:	a9024e93 	stp	x19, x19, [x20, #32]
   932a8:	a9009266 	stp	x6, x4, [x19, #8]
   932ac:	f9000e64 	str	x4, [x19, #24]
   932b0:	f8226823 	str	x3, [x1, x2]
   932b4:	9400019f 	bl	93930 <__malloc_unlock>
   932b8:	14000004 	b	932c8 <_malloc_r+0x190>
   932bc:	52800180 	mov	w0, #0xc                   	// #12
   932c0:	d2800017 	mov	x23, #0x0                   	// #0
   932c4:	b90002a0 	str	w0, [x21]
   932c8:	aa1703e0 	mov	x0, x23
   932cc:	a94153f3 	ldp	x19, x20, [sp, #16]
   932d0:	a9425bf5 	ldp	x21, x22, [sp, #32]
   932d4:	a94363f7 	ldp	x23, x24, [sp, #48]
   932d8:	a8c67bfd 	ldp	x29, x30, [sp], #96
   932dc:	d65f03c0 	ret
   932e0:	927cee73 	and	x19, x19, #0xfffffffffffffff0
   932e4:	b2407be2 	mov	x2, #0x7fffffff            	// #2147483647
   932e8:	eb02027f 	cmp	x19, x2
   932ec:	fa539022 	ccmp	x1, x19, #0x2, ls  // ls = plast
   932f0:	54fffe68 	b.hi	932bc <_malloc_r+0x184>  // b.pmore
   932f4:	9400018d 	bl	93928 <__malloc_lock>
   932f8:	f107de7f 	cmp	x19, #0x1f7
   932fc:	54002289 	b.ls	9374c <_malloc_r+0x614>  // b.plast
   93300:	d349fe60 	lsr	x0, x19, #9
   93304:	b40012e0 	cbz	x0, 93560 <_malloc_r+0x428>
   93308:	f100101f 	cmp	x0, #0x4
   9330c:	54001bc8 	b.hi	93684 <_malloc_r+0x54c>  // b.pmore
   93310:	d346fe60 	lsr	x0, x19, #6
   93314:	1100e404 	add	w4, w0, #0x39
   93318:	1100e005 	add	w5, w0, #0x38
   9331c:	531f7883 	lsl	w3, w4, #1
   93320:	937d7c63 	sbfiz	x3, x3, #3, #32
   93324:	f0000014 	adrp	x20, 96000 <impure_data+0x198>
   93328:	9116c294 	add	x20, x20, #0x5b0
   9332c:	8b030283 	add	x3, x20, x3
   93330:	d1004063 	sub	x3, x3, #0x10
   93334:	f9400c61 	ldr	x1, [x3, #24]
   93338:	eb01007f 	cmp	x3, x1
   9333c:	540000c1 	b.ne	93354 <_malloc_r+0x21c>  // b.any
   93340:	17ffff95 	b	93194 <_malloc_r+0x5c>
   93344:	b6f814a2 	tbz	x2, #63, 935d8 <_malloc_r+0x4a0>
   93348:	f9400c21 	ldr	x1, [x1, #24]
   9334c:	eb01007f 	cmp	x3, x1
   93350:	54fff220 	b.eq	93194 <_malloc_r+0x5c>  // b.none
   93354:	f9400420 	ldr	x0, [x1, #8]
   93358:	927ef400 	and	x0, x0, #0xfffffffffffffffc
   9335c:	cb130002 	sub	x2, x0, x19
   93360:	f1007c5f 	cmp	x2, #0x1f
   93364:	54ffff0d 	b.le	93344 <_malloc_r+0x20c>
   93368:	f9401283 	ldr	x3, [x20, #32]
   9336c:	91004282 	add	x2, x20, #0x10
   93370:	2a0503e4 	mov	w4, w5
   93374:	eb02007f 	cmp	x3, x2
   93378:	54fff161 	b.ne	931a4 <_malloc_r+0x6c>  // b.any
   9337c:	f9400681 	ldr	x1, [x20, #8]
   93380:	13027c82 	asr	w2, w4, #2
   93384:	d2800020 	mov	x0, #0x1                   	// #1
   93388:	9ac22000 	lsl	x0, x0, x2
   9338c:	eb01001f 	cmp	x0, x1
   93390:	54fff429 	b.ls	93214 <_malloc_r+0xdc>  // b.plast
   93394:	f9400a97 	ldr	x23, [x20, #16]
   93398:	f94006e1 	ldr	x1, [x23, #8]
   9339c:	927ef438 	and	x24, x1, #0xfffffffffffffffc
   933a0:	eb130301 	subs	x1, x24, x19
   933a4:	fa5f2824 	ccmp	x1, #0x1f, #0x4, cs  // cs = hs, nlast
   933a8:	54000bec 	b.gt	93524 <_malloc_r+0x3ec>
   933ac:	90000061 	adrp	x1, 9f000 <ModelCheckHasRun>
   933b0:	a90573fb 	stp	x27, x28, [sp, #80]
   933b4:	f000001c 	adrp	x28, 96000 <impure_data+0x198>
   933b8:	f9405c21 	ldr	x1, [x1, #184]
   933bc:	d28203e3 	mov	x3, #0x101f                	// #4127
   933c0:	f946e382 	ldr	x2, [x28, #3520]
   933c4:	8b010261 	add	x1, x19, x1
   933c8:	8b030036 	add	x22, x1, x3
   933cc:	91008021 	add	x1, x1, #0x20
   933d0:	b100045f 	cmn	x2, #0x1
   933d4:	9274ced6 	and	x22, x22, #0xfffffffffffff000
   933d8:	9a8112d6 	csel	x22, x22, x1, ne  // ne = any
   933dc:	aa1503e0 	mov	x0, x21
   933e0:	aa1603e1 	mov	x1, x22
   933e4:	a9046bf9 	stp	x25, x26, [sp, #64]
   933e8:	94000154 	bl	93938 <_sbrk_r>
   933ec:	8b1802fa 	add	x26, x23, x24
   933f0:	aa0003f9 	mov	x25, x0
   933f4:	b100041f 	cmn	x0, #0x1
   933f8:	54001fa0 	b.eq	937ec <_malloc_r+0x6b4>  // b.none
   933fc:	eb00035f 	cmp	x26, x0
   93400:	fa5482e4 	ccmp	x23, x20, #0x4, hi  // hi = pmore
   93404:	54001f41 	b.ne	937ec <_malloc_r+0x6b4>  // b.any
   93408:	9000007b 	adrp	x27, 9f000 <ModelCheckHasRun>
   9340c:	eb00035f 	cmp	x26, x0
   93410:	b9408360 	ldr	w0, [x27, #128]
   93414:	0b160000 	add	w0, w0, w22
   93418:	b9008360 	str	w0, [x27, #128]
   9341c:	54001d60 	b.eq	937c8 <_malloc_r+0x690>  // b.none
   93420:	f946e381 	ldr	x1, [x28, #3520]
   93424:	b100043f 	cmn	x1, #0x1
   93428:	54001de0 	b.eq	937e4 <_malloc_r+0x6ac>  // b.none
   9342c:	cb1a033a 	sub	x26, x25, x26
   93430:	0b1a0000 	add	w0, w0, w26
   93434:	b9008360 	str	w0, [x27, #128]
   93438:	d2820002 	mov	x2, #0x1000                	// #4096
   9343c:	f2400f20 	ands	x0, x25, #0xf
   93440:	540000a0 	b.eq	93454 <_malloc_r+0x31c>  // b.none
   93444:	cb000339 	sub	x25, x25, x0
   93448:	d2820202 	mov	x2, #0x1010                	// #4112
   9344c:	91004339 	add	x25, x25, #0x10
   93450:	cb000042 	sub	x2, x2, x0
   93454:	8b160321 	add	x1, x25, x22
   93458:	aa1503e0 	mov	x0, x21
   9345c:	92402c21 	and	x1, x1, #0xfff
   93460:	cb010056 	sub	x22, x2, x1
   93464:	aa1603e1 	mov	x1, x22
   93468:	94000134 	bl	93938 <_sbrk_r>
   9346c:	b100041f 	cmn	x0, #0x1
   93470:	54002060 	b.eq	9387c <_malloc_r+0x744>  // b.none
   93474:	cb190001 	sub	x1, x0, x25
   93478:	2a1603e0 	mov	w0, w22
   9347c:	8b160021 	add	x1, x1, x22
   93480:	b2400021 	orr	x1, x1, #0x1
   93484:	b9408362 	ldr	w2, [x27, #128]
   93488:	eb1402ff 	cmp	x23, x20
   9348c:	f9000a99 	str	x25, [x20, #16]
   93490:	0b020000 	add	w0, w0, w2
   93494:	b9008360 	str	w0, [x27, #128]
   93498:	f9000721 	str	x1, [x25, #8]
   9349c:	54001ec0 	b.eq	93874 <_malloc_r+0x73c>  // b.none
   934a0:	f1007f1f 	cmp	x24, #0x1f
   934a4:	54001b89 	b.ls	93814 <_malloc_r+0x6dc>  // b.plast
   934a8:	d1006301 	sub	x1, x24, #0x18
   934ac:	d2800124 	mov	x4, #0x9                   	// #9
   934b0:	f94006e2 	ldr	x2, [x23, #8]
   934b4:	927cec21 	and	x1, x1, #0xfffffffffffffff0
   934b8:	8b0102e3 	add	x3, x23, x1
   934bc:	f1007c3f 	cmp	x1, #0x1f
   934c0:	92400042 	and	x2, x2, #0x1
   934c4:	aa010041 	orr	x1, x2, x1
   934c8:	f90006e1 	str	x1, [x23, #8]
   934cc:	f8008c64 	str	x4, [x3, #8]!
   934d0:	f9000464 	str	x4, [x3, #8]
   934d4:	54001fa8 	b.hi	938c8 <_malloc_r+0x790>  // b.pmore
   934d8:	f9400721 	ldr	x1, [x25, #8]
   934dc:	aa1903f7 	mov	x23, x25
   934e0:	90000062 	adrp	x2, 9f000 <ModelCheckHasRun>
   934e4:	93407c00 	sxtw	x0, w0
   934e8:	f9405443 	ldr	x3, [x2, #168]
   934ec:	eb03001f 	cmp	x0, x3
   934f0:	54000049 	b.ls	934f8 <_malloc_r+0x3c0>  // b.plast
   934f4:	f9005440 	str	x0, [x2, #168]
   934f8:	90000062 	adrp	x2, 9f000 <ModelCheckHasRun>
   934fc:	f9405843 	ldr	x3, [x2, #176]
   93500:	eb03001f 	cmp	x0, x3
   93504:	54000049 	b.ls	9350c <_malloc_r+0x3d4>  // b.plast
   93508:	f9005840 	str	x0, [x2, #176]
   9350c:	927ef421 	and	x1, x1, #0xfffffffffffffffc
   93510:	eb130021 	subs	x1, x1, x19
   93514:	fa5f2824 	ccmp	x1, #0x1f, #0x4, cs  // cs = hs, nlast
   93518:	5400182d 	b.le	9381c <_malloc_r+0x6e4>
   9351c:	a9446bf9 	ldp	x25, x26, [sp, #64]
   93520:	a94573fb 	ldp	x27, x28, [sp, #80]
   93524:	8b1302e0 	add	x0, x23, x19
   93528:	b2400273 	orr	x19, x19, #0x1
   9352c:	f90006f3 	str	x19, [x23, #8]
   93530:	b2400021 	orr	x1, x1, #0x1
   93534:	f9000a80 	str	x0, [x20, #16]
   93538:	f9000401 	str	x1, [x0, #8]
   9353c:	910042f7 	add	x23, x23, #0x10
   93540:	aa1503e0 	mov	x0, x21
   93544:	940000fb 	bl	93930 <__malloc_unlock>
   93548:	aa1703e0 	mov	x0, x23
   9354c:	a94153f3 	ldp	x19, x20, [sp, #16]
   93550:	a9425bf5 	ldp	x21, x22, [sp, #32]
   93554:	a94363f7 	ldp	x23, x24, [sp, #48]
   93558:	a8c67bfd 	ldp	x29, x30, [sp], #96
   9355c:	d65f03c0 	ret
   93560:	d2808003 	mov	x3, #0x400                 	// #1024
   93564:	52800804 	mov	w4, #0x40                  	// #64
   93568:	528007e5 	mov	w5, #0x3f                  	// #63
   9356c:	17ffff6e 	b	93324 <_malloc_r+0x1ec>
   93570:	8b010061 	add	x1, x3, x1
   93574:	aa1503e0 	mov	x0, x21
   93578:	91004077 	add	x23, x3, #0x10
   9357c:	f9400422 	ldr	x2, [x1, #8]
   93580:	b2400042 	orr	x2, x2, #0x1
   93584:	f9000422 	str	x2, [x1, #8]
   93588:	940000ea 	bl	93930 <__malloc_unlock>
   9358c:	17ffff4f 	b	932c8 <_malloc_r+0x190>
   93590:	a9409022 	ldp	x2, x4, [x1, #8]
   93594:	91004037 	add	x23, x1, #0x10
   93598:	f9400c23 	ldr	x3, [x1, #24]
   9359c:	aa1503e0 	mov	x0, x21
   935a0:	927ef442 	and	x2, x2, #0xfffffffffffffffc
   935a4:	8b020022 	add	x2, x1, x2
   935a8:	f9400441 	ldr	x1, [x2, #8]
   935ac:	f9000c83 	str	x3, [x4, #24]
   935b0:	f9000864 	str	x4, [x3, #16]
   935b4:	b2400021 	orr	x1, x1, #0x1
   935b8:	f9000441 	str	x1, [x2, #8]
   935bc:	940000dd 	bl	93930 <__malloc_unlock>
   935c0:	aa1703e0 	mov	x0, x23
   935c4:	a94153f3 	ldp	x19, x20, [sp, #16]
   935c8:	a9425bf5 	ldp	x21, x22, [sp, #32]
   935cc:	a94363f7 	ldp	x23, x24, [sp, #48]
   935d0:	a8c67bfd 	ldp	x29, x30, [sp], #96
   935d4:	d65f03c0 	ret
   935d8:	8b000022 	add	x2, x1, x0
   935dc:	91004037 	add	x23, x1, #0x10
   935e0:	a9410c24 	ldp	x4, x3, [x1, #16]
   935e4:	aa1503e0 	mov	x0, x21
   935e8:	f9400441 	ldr	x1, [x2, #8]
   935ec:	f9000c83 	str	x3, [x4, #24]
   935f0:	b2400021 	orr	x1, x1, #0x1
   935f4:	f9000864 	str	x4, [x3, #16]
   935f8:	f9000441 	str	x1, [x2, #8]
   935fc:	940000cd 	bl	93930 <__malloc_unlock>
   93600:	aa1703e0 	mov	x0, x23
   93604:	a94153f3 	ldp	x19, x20, [sp, #16]
   93608:	a9425bf5 	ldp	x21, x22, [sp, #32]
   9360c:	a94363f7 	ldp	x23, x24, [sp, #48]
   93610:	a8c67bfd 	ldp	x29, x30, [sp], #96
   93614:	d65f03c0 	ret
   93618:	d349fc20 	lsr	x0, x1, #9
   9361c:	f100101f 	cmp	x0, #0x4
   93620:	54000b89 	b.ls	93790 <_malloc_r+0x658>  // b.plast
   93624:	f100501f 	cmp	x0, #0x14
   93628:	54001068 	b.hi	93834 <_malloc_r+0x6fc>  // b.pmore
   9362c:	11017005 	add	w5, w0, #0x5c
   93630:	11016c02 	add	w2, w0, #0x5b
   93634:	531f78a5 	lsl	w5, w5, #1
   93638:	937d7ca5 	sbfiz	x5, x5, #3, #32
   9363c:	8b050285 	add	x5, x20, x5
   93640:	f85f04a0 	ldr	x0, [x5], #-16
   93644:	eb0000bf 	cmp	x5, x0
   93648:	54000d80 	b.eq	937f8 <_malloc_r+0x6c0>  // b.none
   9364c:	d503201f 	nop
   93650:	f9400402 	ldr	x2, [x0, #8]
   93654:	927ef442 	and	x2, x2, #0xfffffffffffffffc
   93658:	eb01005f 	cmp	x2, x1
   9365c:	54000089 	b.ls	9366c <_malloc_r+0x534>  // b.plast
   93660:	f9400800 	ldr	x0, [x0, #16]
   93664:	eb0000bf 	cmp	x5, x0
   93668:	54ffff41 	b.ne	93650 <_malloc_r+0x518>  // b.any
   9366c:	f9400681 	ldr	x1, [x20, #8]
   93670:	f9400c05 	ldr	x5, [x0, #24]
   93674:	a9011460 	stp	x0, x5, [x3, #16]
   93678:	f90008a3 	str	x3, [x5, #16]
   9367c:	f9000c03 	str	x3, [x0, #24]
   93680:	17fffee0 	b	93200 <_malloc_r+0xc8>
   93684:	f100501f 	cmp	x0, #0x14
   93688:	54000909 	b.ls	937a8 <_malloc_r+0x670>  // b.plast
   9368c:	f101501f 	cmp	x0, #0x54
   93690:	54000e28 	b.hi	93854 <_malloc_r+0x71c>  // b.pmore
   93694:	d34cfe60 	lsr	x0, x19, #12
   93698:	1101bc04 	add	w4, w0, #0x6f
   9369c:	1101b805 	add	w5, w0, #0x6e
   936a0:	531f7883 	lsl	w3, w4, #1
   936a4:	937d7c63 	sbfiz	x3, x3, #3, #32
   936a8:	17ffff1f 	b	93324 <_malloc_r+0x1ec>
   936ac:	7100f8ff 	cmp	w7, #0x3e
   936b0:	110004e1 	add	w1, w7, #0x1
   936b4:	5400084d 	b.le	937bc <_malloc_r+0x684>
   936b8:	910040a5 	add	x5, x5, #0x10
   936bc:	2a0103e7 	mov	w7, w1
   936c0:	f24004ff 	tst	x7, #0x3
   936c4:	54ffdc21 	b.ne	93248 <_malloc_r+0x110>  // b.any
   936c8:	14000005 	b	936dc <_malloc_r+0x5a4>
   936cc:	f85f04c1 	ldr	x1, [x6], #-16
   936d0:	51000484 	sub	w4, w4, #0x1
   936d4:	eb06003f 	cmp	x1, x6
   936d8:	54001241 	b.ne	93920 <_malloc_r+0x7e8>  // b.any
   936dc:	f240049f 	tst	x4, #0x3
   936e0:	54ffff61 	b.ne	936cc <_malloc_r+0x594>  // b.any
   936e4:	f9400681 	ldr	x1, [x20, #8]
   936e8:	8a200021 	bic	x1, x1, x0
   936ec:	f9000681 	str	x1, [x20, #8]
   936f0:	d37ff800 	lsl	x0, x0, #1
   936f4:	f100001f 	cmp	x0, #0x0
   936f8:	fa411002 	ccmp	x0, x1, #0x2, ne  // ne = any
   936fc:	54000089 	b.ls	9370c <_malloc_r+0x5d4>  // b.plast
   93700:	17ffff25 	b	93394 <_malloc_r+0x25c>
   93704:	d37ff800 	lsl	x0, x0, #1
   93708:	110010e7 	add	w7, w7, #0x4
   9370c:	ea01001f 	tst	x0, x1
   93710:	54ffffa0 	b.eq	93704 <_malloc_r+0x5cc>  // b.none
   93714:	2a0703e4 	mov	w4, w7
   93718:	17fffec6 	b	93230 <_malloc_r+0xf8>
   9371c:	8b020022 	add	x2, x1, x2
   93720:	aa0103f7 	mov	x23, x1
   93724:	f9400c23 	ldr	x3, [x1, #24]
   93728:	aa1503e0 	mov	x0, x21
   9372c:	f9400441 	ldr	x1, [x2, #8]
   93730:	f8410ee4 	ldr	x4, [x23, #16]!
   93734:	b2400021 	orr	x1, x1, #0x1
   93738:	f9000441 	str	x1, [x2, #8]
   9373c:	f9000c83 	str	x3, [x4, #24]
   93740:	f9000864 	str	x4, [x3, #16]
   93744:	9400007b 	bl	93930 <__malloc_unlock>
   93748:	17fffee0 	b	932c8 <_malloc_r+0x190>
   9374c:	d343fe64 	lsr	x4, x19, #3
   93750:	11000480 	add	w0, w4, #0x1
   93754:	531f7800 	lsl	w0, w0, #1
   93758:	937d7c00 	sbfiz	x0, x0, #3, #32
   9375c:	17fffe86 	b	93174 <_malloc_r+0x3c>
   93760:	8b130064 	add	x4, x3, x19
   93764:	b2400273 	orr	x19, x19, #0x1
   93768:	f9000473 	str	x19, [x3, #8]
   9376c:	b24000a6 	orr	x6, x5, #0x1
   93770:	a9021284 	stp	x4, x4, [x20, #32]
   93774:	aa1503e0 	mov	x0, x21
   93778:	91004077 	add	x23, x3, #0x10
   9377c:	a9008886 	stp	x6, x2, [x4, #8]
   93780:	f9000c82 	str	x2, [x4, #24]
   93784:	f8216865 	str	x5, [x3, x1]
   93788:	9400006a 	bl	93930 <__malloc_unlock>
   9378c:	17fffecf 	b	932c8 <_malloc_r+0x190>
   93790:	d346fc20 	lsr	x0, x1, #6
   93794:	1100e405 	add	w5, w0, #0x39
   93798:	1100e002 	add	w2, w0, #0x38
   9379c:	531f78a5 	lsl	w5, w5, #1
   937a0:	937d7ca5 	sbfiz	x5, x5, #3, #32
   937a4:	17ffffa6 	b	9363c <_malloc_r+0x504>
   937a8:	11017004 	add	w4, w0, #0x5c
   937ac:	11016c05 	add	w5, w0, #0x5b
   937b0:	531f7883 	lsl	w3, w4, #1
   937b4:	937d7c63 	sbfiz	x3, x3, #3, #32
   937b8:	17fffedb 	b	93324 <_malloc_r+0x1ec>
   937bc:	910080a5 	add	x5, x5, #0x20
   937c0:	110008e7 	add	w7, w7, #0x2
   937c4:	17ffffbf 	b	936c0 <_malloc_r+0x588>
   937c8:	f2402f5f 	tst	x26, #0xfff
   937cc:	54ffe2a1 	b.ne	93420 <_malloc_r+0x2e8>  // b.any
   937d0:	f9400a97 	ldr	x23, [x20, #16]
   937d4:	8b160301 	add	x1, x24, x22
   937d8:	b2400021 	orr	x1, x1, #0x1
   937dc:	f90006e1 	str	x1, [x23, #8]
   937e0:	17ffff40 	b	934e0 <_malloc_r+0x3a8>
   937e4:	f906e399 	str	x25, [x28, #3520]
   937e8:	17ffff14 	b	93438 <_malloc_r+0x300>
   937ec:	f9400a97 	ldr	x23, [x20, #16]
   937f0:	f94006e1 	ldr	x1, [x23, #8]
   937f4:	17ffff46 	b	9350c <_malloc_r+0x3d4>
   937f8:	f9400686 	ldr	x6, [x20, #8]
   937fc:	13027c42 	asr	w2, w2, #2
   93800:	d2800021 	mov	x1, #0x1                   	// #1
   93804:	9ac22021 	lsl	x1, x1, x2
   93808:	aa060021 	orr	x1, x1, x6
   9380c:	f9000681 	str	x1, [x20, #8]
   93810:	17ffff99 	b	93674 <_malloc_r+0x53c>
   93814:	d2800020 	mov	x0, #0x1                   	// #1
   93818:	f9000720 	str	x0, [x25, #8]
   9381c:	aa1503e0 	mov	x0, x21
   93820:	d2800017 	mov	x23, #0x0                   	// #0
   93824:	94000043 	bl	93930 <__malloc_unlock>
   93828:	a9446bf9 	ldp	x25, x26, [sp, #64]
   9382c:	a94573fb 	ldp	x27, x28, [sp, #80]
   93830:	17fffea6 	b	932c8 <_malloc_r+0x190>
   93834:	f101501f 	cmp	x0, #0x54
   93838:	54000288 	b.hi	93888 <_malloc_r+0x750>  // b.pmore
   9383c:	d34cfc20 	lsr	x0, x1, #12
   93840:	1101bc05 	add	w5, w0, #0x6f
   93844:	1101b802 	add	w2, w0, #0x6e
   93848:	531f78a5 	lsl	w5, w5, #1
   9384c:	937d7ca5 	sbfiz	x5, x5, #3, #32
   93850:	17ffff7b 	b	9363c <_malloc_r+0x504>
   93854:	f105501f 	cmp	x0, #0x154
   93858:	54000288 	b.hi	938a8 <_malloc_r+0x770>  // b.pmore
   9385c:	d34ffe60 	lsr	x0, x19, #15
   93860:	1101e004 	add	w4, w0, #0x78
   93864:	1101dc05 	add	w5, w0, #0x77
   93868:	531f7883 	lsl	w3, w4, #1
   9386c:	937d7c63 	sbfiz	x3, x3, #3, #32
   93870:	17fffead 	b	93324 <_malloc_r+0x1ec>
   93874:	aa1903f7 	mov	x23, x25
   93878:	17ffff1a 	b	934e0 <_malloc_r+0x3a8>
   9387c:	d2800021 	mov	x1, #0x1                   	// #1
   93880:	52800000 	mov	w0, #0x0                   	// #0
   93884:	17ffff00 	b	93484 <_malloc_r+0x34c>
   93888:	f105501f 	cmp	x0, #0x154
   9388c:	540002c8 	b.hi	938e4 <_malloc_r+0x7ac>  // b.pmore
   93890:	d34ffc20 	lsr	x0, x1, #15
   93894:	1101e005 	add	w5, w0, #0x78
   93898:	1101dc02 	add	w2, w0, #0x77
   9389c:	531f78a5 	lsl	w5, w5, #1
   938a0:	937d7ca5 	sbfiz	x5, x5, #3, #32
   938a4:	17ffff66 	b	9363c <_malloc_r+0x504>
   938a8:	f115501f 	cmp	x0, #0x554
   938ac:	540002c8 	b.hi	93904 <_malloc_r+0x7cc>  // b.pmore
   938b0:	d352fe60 	lsr	x0, x19, #18
   938b4:	1101f404 	add	w4, w0, #0x7d
   938b8:	1101f005 	add	w5, w0, #0x7c
   938bc:	531f7883 	lsl	w3, w4, #1
   938c0:	937d7c63 	sbfiz	x3, x3, #3, #32
   938c4:	17fffe98 	b	93324 <_malloc_r+0x1ec>
   938c8:	910042e1 	add	x1, x23, #0x10
   938cc:	aa1503e0 	mov	x0, x21
   938d0:	94000072 	bl	93a98 <_free_r>
   938d4:	f9400a97 	ldr	x23, [x20, #16]
   938d8:	b9408360 	ldr	w0, [x27, #128]
   938dc:	f94006e1 	ldr	x1, [x23, #8]
   938e0:	17ffff00 	b	934e0 <_malloc_r+0x3a8>
   938e4:	f115501f 	cmp	x0, #0x554
   938e8:	54000168 	b.hi	93914 <_malloc_r+0x7dc>  // b.pmore
   938ec:	d352fc20 	lsr	x0, x1, #18
   938f0:	1101f405 	add	w5, w0, #0x7d
   938f4:	1101f002 	add	w2, w0, #0x7c
   938f8:	531f78a5 	lsl	w5, w5, #1
   938fc:	937d7ca5 	sbfiz	x5, x5, #3, #32
   93900:	17ffff4f 	b	9363c <_malloc_r+0x504>
   93904:	d280fe03 	mov	x3, #0x7f0                 	// #2032
   93908:	52800fe4 	mov	w4, #0x7f                  	// #127
   9390c:	52800fc5 	mov	w5, #0x7e                  	// #126
   93910:	17fffe85 	b	93324 <_malloc_r+0x1ec>
   93914:	d280fe05 	mov	x5, #0x7f0                 	// #2032
   93918:	52800fc2 	mov	w2, #0x7e                  	// #126
   9391c:	17ffff48 	b	9363c <_malloc_r+0x504>
   93920:	f9400681 	ldr	x1, [x20, #8]
   93924:	17ffff73 	b	936f0 <_malloc_r+0x5b8>

0000000000093928 <__malloc_lock>:
   93928:	d65f03c0 	ret
   9392c:	00000000 	.inst	0x00000000 ; undefined

0000000000093930 <__malloc_unlock>:
   93930:	d65f03c0 	ret
   93934:	00000000 	.inst	0x00000000 ; undefined

0000000000093938 <_sbrk_r>:
   93938:	a9be7bfd 	stp	x29, x30, [sp, #-32]!
   9393c:	910003fd 	mov	x29, sp
   93940:	a90153f3 	stp	x19, x20, [sp, #16]
   93944:	90000073 	adrp	x19, 9f000 <ModelCheckHasRun>
   93948:	aa0003f4 	mov	x20, x0
   9394c:	b900c27f 	str	wzr, [x19, #192]
   93950:	aa0103e0 	mov	x0, x1
   93954:	97ffe535 	bl	8ce28 <_sbrk>
   93958:	b100041f 	cmn	x0, #0x1
   9395c:	54000080 	b.eq	9396c <_sbrk_r+0x34>  // b.none
   93960:	a94153f3 	ldp	x19, x20, [sp, #16]
   93964:	a8c27bfd 	ldp	x29, x30, [sp], #32
   93968:	d65f03c0 	ret
   9396c:	b940c261 	ldr	w1, [x19, #192]
   93970:	34ffff81 	cbz	w1, 93960 <_sbrk_r+0x28>
   93974:	b9000281 	str	w1, [x20]
   93978:	a94153f3 	ldp	x19, x20, [sp, #16]
   9397c:	a8c27bfd 	ldp	x29, x30, [sp], #32
   93980:	d65f03c0 	ret
   93984:	00000000 	.inst	0x00000000 ; undefined

0000000000093988 <_malloc_trim_r>:
   93988:	a9bd7bfd 	stp	x29, x30, [sp, #-48]!
   9398c:	910003fd 	mov	x29, sp
   93990:	a9025bf5 	stp	x21, x22, [sp, #32]
   93994:	f0000015 	adrp	x21, 96000 <impure_data+0x198>
   93998:	9116c2b5 	add	x21, x21, #0x5b0
   9399c:	aa0003f6 	mov	x22, x0
   939a0:	a90153f3 	stp	x19, x20, [sp, #16]
   939a4:	aa0103f3 	mov	x19, x1
   939a8:	97ffffe0 	bl	93928 <__malloc_lock>
   939ac:	f9400aa0 	ldr	x0, [x21, #16]
   939b0:	f9400414 	ldr	x20, [x0, #8]
   939b4:	927ef694 	and	x20, x20, #0xfffffffffffffffc
   939b8:	cb130293 	sub	x19, x20, x19
   939bc:	913f7e73 	add	x19, x19, #0xfdf
   939c0:	9274ce73 	and	x19, x19, #0xfffffffffffff000
   939c4:	d1400673 	sub	x19, x19, #0x1, lsl #12
   939c8:	f13ffe7f 	cmp	x19, #0xfff
   939cc:	5400010d 	b.le	939ec <_malloc_trim_r+0x64>
   939d0:	d2800001 	mov	x1, #0x0                   	// #0
   939d4:	aa1603e0 	mov	x0, x22
   939d8:	97ffffd8 	bl	93938 <_sbrk_r>
   939dc:	f9400aa1 	ldr	x1, [x21, #16]
   939e0:	8b140021 	add	x1, x1, x20
   939e4:	eb01001f 	cmp	x0, x1
   939e8:	54000100 	b.eq	93a08 <_malloc_trim_r+0x80>  // b.none
   939ec:	aa1603e0 	mov	x0, x22
   939f0:	97ffffd0 	bl	93930 <__malloc_unlock>
   939f4:	52800000 	mov	w0, #0x0                   	// #0
   939f8:	a94153f3 	ldp	x19, x20, [sp, #16]
   939fc:	a9425bf5 	ldp	x21, x22, [sp, #32]
   93a00:	a8c37bfd 	ldp	x29, x30, [sp], #48
   93a04:	d65f03c0 	ret
   93a08:	cb1303e1 	neg	x1, x19
   93a0c:	aa1603e0 	mov	x0, x22
   93a10:	97ffffca 	bl	93938 <_sbrk_r>
   93a14:	b100041f 	cmn	x0, #0x1
   93a18:	54000200 	b.eq	93a58 <_malloc_trim_r+0xd0>  // b.none
   93a1c:	90000062 	adrp	x2, 9f000 <ModelCheckHasRun>
   93a20:	cb130294 	sub	x20, x20, x19
   93a24:	f9400aa3 	ldr	x3, [x21, #16]
   93a28:	b2400294 	orr	x20, x20, #0x1
   93a2c:	b9408041 	ldr	w1, [x2, #128]
   93a30:	aa1603e0 	mov	x0, x22
   93a34:	f9000474 	str	x20, [x3, #8]
   93a38:	4b130033 	sub	w19, w1, w19
   93a3c:	b9008053 	str	w19, [x2, #128]
   93a40:	97ffffbc 	bl	93930 <__malloc_unlock>
   93a44:	52800020 	mov	w0, #0x1                   	// #1
   93a48:	a94153f3 	ldp	x19, x20, [sp, #16]
   93a4c:	a9425bf5 	ldp	x21, x22, [sp, #32]
   93a50:	a8c37bfd 	ldp	x29, x30, [sp], #48
   93a54:	d65f03c0 	ret
   93a58:	d2800001 	mov	x1, #0x0                   	// #0
   93a5c:	aa1603e0 	mov	x0, x22
   93a60:	97ffffb6 	bl	93938 <_sbrk_r>
   93a64:	f9400aa2 	ldr	x2, [x21, #16]
   93a68:	cb020001 	sub	x1, x0, x2
   93a6c:	f1007c3f 	cmp	x1, #0x1f
   93a70:	54fffbed 	b.le	939ec <_malloc_trim_r+0x64>
   93a74:	f0000004 	adrp	x4, 96000 <impure_data+0x198>
   93a78:	b2400021 	orr	x1, x1, #0x1
   93a7c:	f9000441 	str	x1, [x2, #8]
   93a80:	90000063 	adrp	x3, 9f000 <ModelCheckHasRun>
   93a84:	f946e081 	ldr	x1, [x4, #3520]
   93a88:	cb010000 	sub	x0, x0, x1
   93a8c:	b9008060 	str	w0, [x3, #128]
   93a90:	17ffffd7 	b	939ec <_malloc_trim_r+0x64>
   93a94:	00000000 	.inst	0x00000000 ; undefined

0000000000093a98 <_free_r>:
   93a98:	b4000921 	cbz	x1, 93bbc <_free_r+0x124>
   93a9c:	a9be7bfd 	stp	x29, x30, [sp, #-32]!
   93aa0:	910003fd 	mov	x29, sp
   93aa4:	a90153f3 	stp	x19, x20, [sp, #16]
   93aa8:	aa0103f3 	mov	x19, x1
   93aac:	aa0003f4 	mov	x20, x0
   93ab0:	97ffff9e 	bl	93928 <__malloc_lock>
   93ab4:	f85f8265 	ldur	x5, [x19, #-8]
   93ab8:	d1004261 	sub	x1, x19, #0x10
   93abc:	f0000004 	adrp	x4, 96000 <impure_data+0x198>
   93ac0:	9116c084 	add	x4, x4, #0x5b0
   93ac4:	927ff8a2 	and	x2, x5, #0xfffffffffffffffe
   93ac8:	8b020020 	add	x0, x1, x2
   93acc:	f9400886 	ldr	x6, [x4, #16]
   93ad0:	f9400403 	ldr	x3, [x0, #8]
   93ad4:	eb0000df 	cmp	x6, x0
   93ad8:	927ef463 	and	x3, x3, #0xfffffffffffffffc
   93adc:	54000c60 	b.eq	93c68 <_free_r+0x1d0>  // b.none
   93ae0:	f9000403 	str	x3, [x0, #8]
   93ae4:	8b030006 	add	x6, x0, x3
   93ae8:	370004c5 	tbnz	w5, #0, 93b80 <_free_r+0xe8>
   93aec:	f85f0267 	ldur	x7, [x19, #-16]
   93af0:	f0000005 	adrp	x5, 96000 <impure_data+0x198>
   93af4:	f94004c6 	ldr	x6, [x6, #8]
   93af8:	cb070021 	sub	x1, x1, x7
   93afc:	8b070042 	add	x2, x2, x7
   93b00:	911700a5 	add	x5, x5, #0x5c0
   93b04:	924000c6 	and	x6, x6, #0x1
   93b08:	f9400827 	ldr	x7, [x1, #16]
   93b0c:	eb0500ff 	cmp	x7, x5
   93b10:	540009a0 	b.eq	93c44 <_free_r+0x1ac>  // b.none
   93b14:	f9400c28 	ldr	x8, [x1, #24]
   93b18:	f9000ce8 	str	x8, [x7, #24]
   93b1c:	f9000907 	str	x7, [x8, #16]
   93b20:	b4000e06 	cbz	x6, 93ce0 <_free_r+0x248>
   93b24:	b2400043 	orr	x3, x2, #0x1
   93b28:	f9000423 	str	x3, [x1, #8]
   93b2c:	f9000002 	str	x2, [x0]
   93b30:	f107fc5f 	cmp	x2, #0x1ff
   93b34:	54000508 	b.hi	93bd4 <_free_r+0x13c>  // b.pmore
   93b38:	d343fc42 	lsr	x2, x2, #3
   93b3c:	d2800023 	mov	x3, #0x1                   	// #1
   93b40:	11000440 	add	w0, w2, #0x1
   93b44:	f9400485 	ldr	x5, [x4, #8]
   93b48:	531f7800 	lsl	w0, w0, #1
   93b4c:	13027c42 	asr	w2, w2, #2
   93b50:	8b20cc80 	add	x0, x4, w0, sxtw #3
   93b54:	9ac22062 	lsl	x2, x3, x2
   93b58:	aa050042 	orr	x2, x2, x5
   93b5c:	f9000482 	str	x2, [x4, #8]
   93b60:	f85f0402 	ldr	x2, [x0], #-16
   93b64:	a9010022 	stp	x2, x0, [x1, #16]
   93b68:	f9000801 	str	x1, [x0, #16]
   93b6c:	f9000c41 	str	x1, [x2, #24]
   93b70:	aa1403e0 	mov	x0, x20
   93b74:	a94153f3 	ldp	x19, x20, [sp, #16]
   93b78:	a8c27bfd 	ldp	x29, x30, [sp], #32
   93b7c:	17ffff6d 	b	93930 <__malloc_unlock>
   93b80:	f94004c5 	ldr	x5, [x6, #8]
   93b84:	370001e5 	tbnz	w5, #0, 93bc0 <_free_r+0x128>
   93b88:	f0000005 	adrp	x5, 96000 <impure_data+0x198>
   93b8c:	8b030042 	add	x2, x2, x3
   93b90:	911700a5 	add	x5, x5, #0x5c0
   93b94:	f9400803 	ldr	x3, [x0, #16]
   93b98:	b2400046 	orr	x6, x2, #0x1
   93b9c:	eb05007f 	cmp	x3, x5
   93ba0:	54000ae0 	b.eq	93cfc <_free_r+0x264>  // b.none
   93ba4:	f9400c00 	ldr	x0, [x0, #24]
   93ba8:	f9000c60 	str	x0, [x3, #24]
   93bac:	f9000803 	str	x3, [x0, #16]
   93bb0:	f9000426 	str	x6, [x1, #8]
   93bb4:	f8226822 	str	x2, [x1, x2]
   93bb8:	17ffffde 	b	93b30 <_free_r+0x98>
   93bbc:	d65f03c0 	ret
   93bc0:	b2400043 	orr	x3, x2, #0x1
   93bc4:	f81f8263 	stur	x3, [x19, #-8]
   93bc8:	f9000002 	str	x2, [x0]
   93bcc:	f107fc5f 	cmp	x2, #0x1ff
   93bd0:	54fffb49 	b.ls	93b38 <_free_r+0xa0>  // b.plast
   93bd4:	d349fc40 	lsr	x0, x2, #9
   93bd8:	f100101f 	cmp	x0, #0x4
   93bdc:	540006e8 	b.hi	93cb8 <_free_r+0x220>  // b.pmore
   93be0:	d346fc40 	lsr	x0, x2, #6
   93be4:	1100e405 	add	w5, w0, #0x39
   93be8:	1100e000 	add	w0, w0, #0x38
   93bec:	531f78a5 	lsl	w5, w5, #1
   93bf0:	937d7ca5 	sbfiz	x5, x5, #3, #32
   93bf4:	8b050085 	add	x5, x4, x5
   93bf8:	f85f04a3 	ldr	x3, [x5], #-16
   93bfc:	eb0300bf 	cmp	x5, x3
   93c00:	54000880 	b.eq	93d10 <_free_r+0x278>  // b.none
   93c04:	d503201f 	nop
   93c08:	f9400460 	ldr	x0, [x3, #8]
   93c0c:	927ef400 	and	x0, x0, #0xfffffffffffffffc
   93c10:	eb02001f 	cmp	x0, x2
   93c14:	54000089 	b.ls	93c24 <_free_r+0x18c>  // b.plast
   93c18:	f9400863 	ldr	x3, [x3, #16]
   93c1c:	eb0300bf 	cmp	x5, x3
   93c20:	54ffff41 	b.ne	93c08 <_free_r+0x170>  // b.any
   93c24:	f9400c65 	ldr	x5, [x3, #24]
   93c28:	a9011423 	stp	x3, x5, [x1, #16]
   93c2c:	aa1403e0 	mov	x0, x20
   93c30:	f90008a1 	str	x1, [x5, #16]
   93c34:	f9000c61 	str	x1, [x3, #24]
   93c38:	a94153f3 	ldp	x19, x20, [sp, #16]
   93c3c:	a8c27bfd 	ldp	x29, x30, [sp], #32
   93c40:	17ffff3c 	b	93930 <__malloc_unlock>
   93c44:	b50009a6 	cbnz	x6, 93d78 <_free_r+0x2e0>
   93c48:	a9410004 	ldp	x4, x0, [x0, #16]
   93c4c:	8b020062 	add	x2, x3, x2
   93c50:	f9000c80 	str	x0, [x4, #24]
   93c54:	b2400043 	orr	x3, x2, #0x1
   93c58:	f9000804 	str	x4, [x0, #16]
   93c5c:	f9000423 	str	x3, [x1, #8]
   93c60:	f8226822 	str	x2, [x1, x2]
   93c64:	17ffffc3 	b	93b70 <_free_r+0xd8>
   93c68:	8b030042 	add	x2, x2, x3
   93c6c:	370000e5 	tbnz	w5, #0, 93c88 <_free_r+0x1f0>
   93c70:	f85f0260 	ldur	x0, [x19, #-16]
   93c74:	cb000021 	sub	x1, x1, x0
   93c78:	8b000042 	add	x2, x2, x0
   93c7c:	a9410023 	ldp	x3, x0, [x1, #16]
   93c80:	f9000c60 	str	x0, [x3, #24]
   93c84:	f9000803 	str	x3, [x0, #16]
   93c88:	f0000000 	adrp	x0, 96000 <impure_data+0x198>
   93c8c:	b2400043 	orr	x3, x2, #0x1
   93c90:	f9000423 	str	x3, [x1, #8]
   93c94:	f946e400 	ldr	x0, [x0, #3528]
   93c98:	f9000881 	str	x1, [x4, #16]
   93c9c:	eb02001f 	cmp	x0, x2
   93ca0:	54fff688 	b.hi	93b70 <_free_r+0xd8>  // b.pmore
   93ca4:	90000061 	adrp	x1, 9f000 <ModelCheckHasRun>
   93ca8:	aa1403e0 	mov	x0, x20
   93cac:	f9405c21 	ldr	x1, [x1, #184]
   93cb0:	97ffff36 	bl	93988 <_malloc_trim_r>
   93cb4:	17ffffaf 	b	93b70 <_free_r+0xd8>
   93cb8:	f100501f 	cmp	x0, #0x14
   93cbc:	54000169 	b.ls	93ce8 <_free_r+0x250>  // b.plast
   93cc0:	f101501f 	cmp	x0, #0x54
   93cc4:	54000348 	b.hi	93d2c <_free_r+0x294>  // b.pmore
   93cc8:	d34cfc40 	lsr	x0, x2, #12
   93ccc:	1101bc05 	add	w5, w0, #0x6f
   93cd0:	1101b800 	add	w0, w0, #0x6e
   93cd4:	531f78a5 	lsl	w5, w5, #1
   93cd8:	937d7ca5 	sbfiz	x5, x5, #3, #32
   93cdc:	17ffffc6 	b	93bf4 <_free_r+0x15c>
   93ce0:	8b030042 	add	x2, x2, x3
   93ce4:	17ffffac 	b	93b94 <_free_r+0xfc>
   93ce8:	11017005 	add	w5, w0, #0x5c
   93cec:	11016c00 	add	w0, w0, #0x5b
   93cf0:	531f78a5 	lsl	w5, w5, #1
   93cf4:	937d7ca5 	sbfiz	x5, x5, #3, #32
   93cf8:	17ffffbf 	b	93bf4 <_free_r+0x15c>
   93cfc:	a9020481 	stp	x1, x1, [x4, #32]
   93d00:	a9009426 	stp	x6, x5, [x1, #8]
   93d04:	f9000c25 	str	x5, [x1, #24]
   93d08:	f8226822 	str	x2, [x1, x2]
   93d0c:	17ffff99 	b	93b70 <_free_r+0xd8>
   93d10:	f9400486 	ldr	x6, [x4, #8]
   93d14:	13027c00 	asr	w0, w0, #2
   93d18:	d2800022 	mov	x2, #0x1                   	// #1
   93d1c:	9ac02040 	lsl	x0, x2, x0
   93d20:	aa060000 	orr	x0, x0, x6
   93d24:	f9000480 	str	x0, [x4, #8]
   93d28:	17ffffc0 	b	93c28 <_free_r+0x190>
   93d2c:	f105501f 	cmp	x0, #0x154
   93d30:	540000e8 	b.hi	93d4c <_free_r+0x2b4>  // b.pmore
   93d34:	d34ffc40 	lsr	x0, x2, #15
   93d38:	1101e005 	add	w5, w0, #0x78
   93d3c:	1101dc00 	add	w0, w0, #0x77
   93d40:	531f78a5 	lsl	w5, w5, #1
   93d44:	937d7ca5 	sbfiz	x5, x5, #3, #32
   93d48:	17ffffab 	b	93bf4 <_free_r+0x15c>
   93d4c:	f115501f 	cmp	x0, #0x554
   93d50:	540000e8 	b.hi	93d6c <_free_r+0x2d4>  // b.pmore
   93d54:	d352fc40 	lsr	x0, x2, #18
   93d58:	1101f405 	add	w5, w0, #0x7d
   93d5c:	1101f000 	add	w0, w0, #0x7c
   93d60:	531f78a5 	lsl	w5, w5, #1
   93d64:	937d7ca5 	sbfiz	x5, x5, #3, #32
   93d68:	17ffffa3 	b	93bf4 <_free_r+0x15c>
   93d6c:	d280fe05 	mov	x5, #0x7f0                 	// #2032
   93d70:	52800fc0 	mov	w0, #0x7e                  	// #126
   93d74:	17ffffa0 	b	93bf4 <_free_r+0x15c>
   93d78:	b2400043 	orr	x3, x2, #0x1
   93d7c:	f9000423 	str	x3, [x1, #8]
   93d80:	f9000002 	str	x2, [x0]
   93d84:	17ffff7b 	b	93b70 <_free_r+0xd8>

0000000000093d88 <__floatsitf>:
   93d88:	7100001f 	cmp	w0, #0x0
   93d8c:	54000260 	b.eq	93dd8 <__floatsitf+0x50>  // b.none
   93d90:	5a80a404 	cneg	w4, w0, lt  // lt = tstop
   93d94:	528807c1 	mov	w1, #0x403e                	// #16446
   93d98:	dac01083 	clz	x3, x4
   93d9c:	528805e2 	mov	w2, #0x402f                	// #16431
   93da0:	4b030021 	sub	w1, w1, w3
   93da4:	d2800003 	mov	x3, #0x0                   	// #0
   93da8:	4b010042 	sub	w2, w2, w1
   93dac:	12003821 	and	w1, w1, #0x7fff
   93db0:	531f7c00 	lsr	w0, w0, #31
   93db4:	9ac22084 	lsl	x4, x4, x2
   93db8:	9240bc84 	and	x4, x4, #0xffffffffffff
   93dbc:	d2800002 	mov	x2, #0x0                   	// #0
   93dc0:	9e670040 	fmov	d0, x2
   93dc4:	b340bc83 	bfxil	x3, x4, #0, #48
   93dc8:	b3503823 	bfi	x3, x1, #48, #15
   93dcc:	b3410003 	bfi	x3, x0, #63, #1
   93dd0:	9eaf0060 	fmov	v0.d[1], x3
   93dd4:	d65f03c0 	ret
   93dd8:	d2800004 	mov	x4, #0x0                   	// #0
   93ddc:	d2800003 	mov	x3, #0x0                   	// #0
   93de0:	b340bc83 	bfxil	x3, x4, #0, #48
   93de4:	52800001 	mov	w1, #0x0                   	// #0
   93de8:	d2800002 	mov	x2, #0x0                   	// #0
   93dec:	9e670040 	fmov	d0, x2
   93df0:	b3503823 	bfi	x3, x1, #48, #15
   93df4:	52800000 	mov	w0, #0x0                   	// #0
   93df8:	b3410003 	bfi	x3, x0, #63, #1
   93dfc:	9eaf0060 	fmov	v0.d[1], x3
   93e00:	d65f03c0 	ret
   93e04:	00000000 	.inst	0x00000000 ; undefined

0000000000093e08 <__trunctfdf2>:
   93e08:	9e660000 	fmov	x0, d0
   93e0c:	9eae0001 	fmov	x1, v0.d[1]
   93e10:	aa0003e3 	mov	x3, x0
   93e14:	aa0103e0 	mov	x0, x1
   93e18:	d53b4406 	mrs	x6, fpcr
   93e1c:	d370f821 	ubfx	x1, x1, #48, #15
   93e20:	d37ffc04 	lsr	x4, x0, #63
   93e24:	91000422 	add	x2, x1, #0x1
   93e28:	d37dbc00 	ubfiz	x0, x0, #3, #48
   93e2c:	f27f345f 	tst	x2, #0x7ffe
   93e30:	12001c84 	and	w4, w4, #0xff
   93e34:	aa43f400 	orr	x0, x0, x3, lsr #61
   93e38:	d37df065 	lsl	x5, x3, #3
   93e3c:	54000580 	b.eq	93eec <__trunctfdf2+0xe4>  // b.none
   93e40:	92877fe2 	mov	x2, #0xffffffffffffc400    	// #-15360
   93e44:	8b020021 	add	x1, x1, x2
   93e48:	f11ff83f 	cmp	x1, #0x7fe
   93e4c:	5400018d 	b.le	93e7c <__trunctfdf2+0x74>
   93e50:	f26a04c3 	ands	x3, x6, #0xc00000
   93e54:	54000740 	b.eq	93f3c <__trunctfdf2+0x134>  // b.none
   93e58:	f150007f 	cmp	x3, #0x400, lsl #12
   93e5c:	540014c0 	b.eq	940f4 <__trunctfdf2+0x2ec>  // b.none
   93e60:	f160007f 	cmp	x3, #0x800, lsl #12
   93e64:	1a9f0087 	csel	w7, w4, wzr, eq  // eq = none
   93e68:	350006a7 	cbnz	w7, 93f3c <__trunctfdf2+0x134>
   93e6c:	52800280 	mov	w0, #0x14                  	// #20
   93e70:	92800002 	mov	x2, #0xffffffffffffffff    	// #-1
   93e74:	d280ffc1 	mov	x1, #0x7fe                 	// #2046
   93e78:	1400000d 	b	93eac <__trunctfdf2+0xa4>
   93e7c:	f100003f 	cmp	x1, #0x0
   93e80:	540009ad 	b.le	93fb4 <__trunctfdf2+0x1ac>
   93e84:	eb031fff 	negs	xzr, x3, lsl #7
   93e88:	52800007 	mov	w7, #0x0                   	// #0
   93e8c:	9a9f07e2 	cset	x2, ne  // ne = any
   93e90:	aa45f042 	orr	x2, x2, x5, lsr #60
   93e94:	aa001042 	orr	x2, x2, x0, lsl #4
   93e98:	52800000 	mov	w0, #0x0                   	// #0
   93e9c:	f240085f 	tst	x2, #0x7
   93ea0:	54000840 	b.eq	93fa8 <__trunctfdf2+0x1a0>  // b.none
   93ea4:	926a04c3 	and	x3, x6, #0xc00000
   93ea8:	52800200 	mov	w0, #0x10                  	// #16
   93eac:	f150007f 	cmp	x3, #0x400, lsl #12
   93eb0:	540006e0 	b.eq	93f8c <__trunctfdf2+0x184>  // b.none
   93eb4:	f160007f 	cmp	x3, #0x800, lsl #12
   93eb8:	54000d60 	b.eq	94064 <__trunctfdf2+0x25c>  // b.none
   93ebc:	b4000c03 	cbz	x3, 9403c <__trunctfdf2+0x234>
   93ec0:	92490043 	and	x3, x2, #0x80000000000000
   93ec4:	350006e7 	cbnz	w7, 93fa0 <__trunctfdf2+0x198>
   93ec8:	b4000703 	cbz	x3, 93fa8 <__trunctfdf2+0x1a0>
   93ecc:	d503201f 	nop
   93ed0:	91000421 	add	x1, x1, #0x1
   93ed4:	f11ffc3f 	cmp	x1, #0x7ff
   93ed8:	540007e0 	b.eq	93fd4 <__trunctfdf2+0x1cc>  // b.none
   93edc:	92fc0203 	mov	x3, #0x1fefffffffffffff    	// #2301339409586323455
   93ee0:	12002821 	and	w1, w1, #0x7ff
   93ee4:	8a420c62 	and	x2, x3, x2, lsr #3
   93ee8:	1400000b 	b	93f14 <__trunctfdf2+0x10c>
   93eec:	aa050002 	orr	x2, x0, x5
   93ef0:	b5000201 	cbnz	x1, 93f30 <__trunctfdf2+0x128>
   93ef4:	b5000402 	cbnz	x2, 93f74 <__trunctfdf2+0x16c>
   93ef8:	52800000 	mov	w0, #0x0                   	// #0
   93efc:	d343fc42 	lsr	x2, x2, #3
   93f00:	f11ffc3f 	cmp	x1, #0x7ff
   93f04:	fa400844 	ccmp	x2, #0x0, #0x4, eq  // eq = none
   93f08:	b24d0043 	orr	x3, x2, #0x8000000000000
   93f0c:	12002821 	and	w1, w1, #0x7ff
   93f10:	9a821062 	csel	x2, x3, x2, ne  // ne = any
   93f14:	d2800003 	mov	x3, #0x0                   	// #0
   93f18:	b340cc43 	bfxil	x3, x2, #0, #52
   93f1c:	b34c2823 	bfi	x3, x1, #52, #11
   93f20:	b3410083 	bfi	x3, x4, #63, #1
   93f24:	9e670060 	fmov	d0, x3
   93f28:	350007c0 	cbnz	w0, 94020 <__trunctfdf2+0x218>
   93f2c:	d65f03c0 	ret
   93f30:	b50000e2 	cbnz	x2, 93f4c <__trunctfdf2+0x144>
   93f34:	d280ffe1 	mov	x1, #0x7ff                 	// #2047
   93f38:	17fffff0 	b	93ef8 <__trunctfdf2+0xf0>
   93f3c:	d2800002 	mov	x2, #0x0                   	// #0
   93f40:	d280ffe1 	mov	x1, #0x7ff                 	// #2047
   93f44:	52800280 	mov	w0, #0x14                  	// #20
   93f48:	17ffffed 	b	93efc <__trunctfdf2+0xf4>
   93f4c:	d28fffe3 	mov	x3, #0x7fff                	// #32767
   93f50:	93c5f002 	extr	x2, x0, x5, #60
   93f54:	d372fc00 	lsr	x0, x0, #50
   93f58:	eb03003f 	cmp	x1, x3
   93f5c:	927df042 	and	x2, x2, #0xfffffffffffffff8
   93f60:	52000000 	eor	w0, w0, #0x1
   93f64:	b24a0042 	orr	x2, x2, #0x40000000000000
   93f68:	1a9f0000 	csel	w0, w0, wzr, eq  // eq = none
   93f6c:	d280ffe1 	mov	x1, #0x7ff                 	// #2047
   93f70:	17ffffe3 	b	93efc <__trunctfdf2+0xf4>
   93f74:	926a04c3 	and	x3, x6, #0xc00000
   93f78:	52800200 	mov	w0, #0x10                  	// #16
   93f7c:	52800027 	mov	w7, #0x1                   	// #1
   93f80:	d2800022 	mov	x2, #0x1                   	// #1
   93f84:	f150007f 	cmp	x3, #0x400, lsl #12
   93f88:	54fff961 	b.ne	93eb4 <__trunctfdf2+0xac>  // b.any
   93f8c:	91002043 	add	x3, x2, #0x8
   93f90:	7100009f 	cmp	w4, #0x0
   93f94:	9a820062 	csel	x2, x3, x2, eq  // eq = none
   93f98:	92490043 	and	x3, x2, #0x80000000000000
   93f9c:	340005c7 	cbz	w7, 94054 <__trunctfdf2+0x24c>
   93fa0:	321d0000 	orr	w0, w0, #0x8
   93fa4:	b5fff963 	cbnz	x3, 93ed0 <__trunctfdf2+0xc8>
   93fa8:	d343fc42 	lsr	x2, x2, #3
   93fac:	12002821 	and	w1, w1, #0x7ff
   93fb0:	17ffffd9 	b	93f14 <__trunctfdf2+0x10c>
   93fb4:	b100d03f 	cmn	x1, #0x34
   93fb8:	540005ea 	b.ge	94074 <__trunctfdf2+0x26c>  // b.tcont
   93fbc:	926a04c3 	and	x3, x6, #0xc00000
   93fc0:	52800200 	mov	w0, #0x10                  	// #16
   93fc4:	52800027 	mov	w7, #0x1                   	// #1
   93fc8:	d2800022 	mov	x2, #0x1                   	// #1
   93fcc:	d2800001 	mov	x1, #0x0                   	// #0
   93fd0:	17ffffb7 	b	93eac <__trunctfdf2+0xa4>
   93fd4:	f26a04c6 	ands	x6, x6, #0xc00000
   93fd8:	d2800002 	mov	x2, #0x0                   	// #0
   93fdc:	54000140 	b.eq	94004 <__trunctfdf2+0x1fc>  // b.none
   93fe0:	f15000df 	cmp	x6, #0x400, lsl #12
   93fe4:	54000940 	b.eq	9410c <__trunctfdf2+0x304>  // b.none
   93fe8:	f16000df 	cmp	x6, #0x800, lsl #12
   93fec:	5280ffc5 	mov	w5, #0x7fe                 	// #2046
   93ff0:	1a9f0083 	csel	w3, w4, wzr, eq  // eq = none
   93ff4:	92fc0002 	mov	x2, #0x1fffffffffffffff    	// #2305843009213693951
   93ff8:	7100007f 	cmp	w3, #0x0
   93ffc:	1a851021 	csel	w1, w1, w5, ne  // ne = any
   94000:	9a8213e2 	csel	x2, xzr, x2, ne  // ne = any
   94004:	52800283 	mov	w3, #0x14                  	// #20
   94008:	2a030000 	orr	w0, w0, w3
   9400c:	d2800003 	mov	x3, #0x0                   	// #0
   94010:	b340cc43 	bfxil	x3, x2, #0, #52
   94014:	b34c2823 	bfi	x3, x1, #52, #11
   94018:	b3410083 	bfi	x3, x4, #63, #1
   9401c:	9e670060 	fmov	d0, x3
   94020:	a9be7bfd 	stp	x29, x30, [sp, #-32]!
   94024:	910003fd 	mov	x29, sp
   94028:	fd000fe0 	str	d0, [sp, #24]
   9402c:	9400004b 	bl	94158 <__sfp_handle_exceptions>
   94030:	fd400fe0 	ldr	d0, [sp, #24]
   94034:	a8c27bfd 	ldp	x29, x30, [sp], #32
   94038:	d65f03c0 	ret
   9403c:	92400c45 	and	x5, x2, #0xf
   94040:	91001043 	add	x3, x2, #0x4
   94044:	f10010bf 	cmp	x5, #0x4
   94048:	9a821062 	csel	x2, x3, x2, ne  // ne = any
   9404c:	92490043 	and	x3, x2, #0x80000000000000
   94050:	35fffa87 	cbnz	w7, 93fa0 <__trunctfdf2+0x198>
   94054:	b5fff3e3 	cbnz	x3, 93ed0 <__trunctfdf2+0xc8>
   94058:	d343fc42 	lsr	x2, x2, #3
   9405c:	12002821 	and	w1, w1, #0x7ff
   94060:	17ffffeb 	b	9400c <__trunctfdf2+0x204>
   94064:	7100009f 	cmp	w4, #0x0
   94068:	91002043 	add	x3, x2, #0x8
   9406c:	9a821062 	csel	x2, x3, x2, ne  // ne = any
   94070:	17fffff7 	b	9404c <__trunctfdf2+0x244>
   94074:	d28007a3 	mov	x3, #0x3d                  	// #61
   94078:	cb010067 	sub	x7, x3, x1
   9407c:	b24d0000 	orr	x0, x0, #0x8000000000000
   94080:	f100fcff 	cmp	x7, #0x3f
   94084:	5400024d 	b.le	940cc <__trunctfdf2+0x2c4>
   94088:	11010c22 	add	w2, w1, #0x43
   9408c:	f10100ff 	cmp	x7, #0x40
   94090:	12800043 	mov	w3, #0xfffffffd            	// #-3
   94094:	4b010063 	sub	w3, w3, w1
   94098:	9ac22001 	lsl	x1, x0, x2
   9409c:	aa0100a1 	orr	x1, x5, x1
   940a0:	9a851025 	csel	x5, x1, x5, ne  // ne = any
   940a4:	9ac32400 	lsr	x0, x0, x3
   940a8:	f10000bf 	cmp	x5, #0x0
   940ac:	9a9f07e2 	cset	x2, ne  // ne = any
   940b0:	aa000042 	orr	x2, x2, x0
   940b4:	f100005f 	cmp	x2, #0x0
   940b8:	1a9f07e7 	cset	w7, ne  // ne = any
   940bc:	f240085f 	tst	x2, #0x7
   940c0:	54000320 	b.eq	94124 <__trunctfdf2+0x31c>  // b.none
   940c4:	d2800001 	mov	x1, #0x0                   	// #0
   940c8:	17ffff77 	b	93ea4 <__trunctfdf2+0x9c>
   940cc:	11000c27 	add	w7, w1, #0x3
   940d0:	4b010062 	sub	w2, w3, w1
   940d4:	9ac720a1 	lsl	x1, x5, x7
   940d8:	f100003f 	cmp	x1, #0x0
   940dc:	9a9f07e1 	cset	x1, ne  // ne = any
   940e0:	9ac224a2 	lsr	x2, x5, x2
   940e4:	aa010042 	orr	x2, x2, x1
   940e8:	9ac72000 	lsl	x0, x0, x7
   940ec:	aa020002 	orr	x2, x0, x2
   940f0:	17fffff1 	b	940b4 <__trunctfdf2+0x2ac>
   940f4:	34fff244 	cbz	w4, 93f3c <__trunctfdf2+0x134>
   940f8:	d280ffc1 	mov	x1, #0x7fe                 	// #2046
   940fc:	52800007 	mov	w7, #0x0                   	// #0
   94100:	52800280 	mov	w0, #0x14                  	// #20
   94104:	92800002 	mov	x2, #0xffffffffffffffff    	// #-1
   94108:	17ffffd1 	b	9404c <__trunctfdf2+0x244>
   9410c:	7100009f 	cmp	w4, #0x0
   94110:	5280ffc2 	mov	w2, #0x7fe                 	// #2046
   94114:	1a820021 	csel	w1, w1, w2, eq  // eq = none
   94118:	92fc0002 	mov	x2, #0x1fffffffffffffff    	// #2305843009213693951
   9411c:	9a8203e2 	csel	x2, xzr, x2, eq  // eq = none
   94120:	17ffffb9 	b	94004 <__trunctfdf2+0x1fc>
   94124:	92490043 	and	x3, x2, #0x80000000000000
   94128:	b50000e2 	cbnz	x2, 94144 <__trunctfdf2+0x33c>
   9412c:	d503201f 	nop
   94130:	52800000 	mov	w0, #0x0                   	// #0
   94134:	d2800021 	mov	x1, #0x1                   	// #1
   94138:	b5ffed23 	cbnz	x3, 93edc <__trunctfdf2+0xd4>
   9413c:	d2800001 	mov	x1, #0x0                   	// #0
   94140:	17ffff9a 	b	93fa8 <__trunctfdf2+0x1a0>
   94144:	365fff66 	tbz	w6, #11, 94130 <__trunctfdf2+0x328>
   94148:	52800000 	mov	w0, #0x0                   	// #0
   9414c:	d2800001 	mov	x1, #0x0                   	// #0
   94150:	321d0000 	orr	w0, w0, #0x8
   94154:	17ffff94 	b	93fa4 <__trunctfdf2+0x19c>

0000000000094158 <__sfp_handle_exceptions>:
   94158:	36000080 	tbz	w0, #0, 94168 <__sfp_handle_exceptions+0x10>
   9415c:	0f000401 	movi	v1.2s, #0x0
   94160:	1e211820 	fdiv	s0, s1, s1
   94164:	d53b4421 	mrs	x1, fpsr
   94168:	360800a0 	tbz	w0, #1, 9417c <__sfp_handle_exceptions+0x24>
   9416c:	1e2e1001 	fmov	s1, #1.000000000000000000e+00
   94170:	0f000402 	movi	v2.2s, #0x0
   94174:	1e221820 	fdiv	s0, s1, s2
   94178:	d53b4421 	mrs	x1, fpsr
   9417c:	36100100 	tbz	w0, #2, 9419c <__sfp_handle_exceptions+0x44>
   94180:	5298b5c2 	mov	w2, #0xc5ae                	// #50606
   94184:	12b01001 	mov	w1, #0x7f7fffff            	// #2139095039
   94188:	72ae93a2 	movk	w2, #0x749d, lsl #16
   9418c:	1e270021 	fmov	s1, w1
   94190:	1e270042 	fmov	s2, w2
   94194:	1e222820 	fadd	s0, s1, s2
   94198:	d53b4421 	mrs	x1, fpsr
   9419c:	36180080 	tbz	w0, #3, 941ac <__sfp_handle_exceptions+0x54>
   941a0:	0f044401 	movi	v1.2s, #0x80, lsl #16
   941a4:	1e210820 	fmul	s0, s1, s1
   941a8:	d53b4421 	mrs	x1, fpsr
   941ac:	362000c0 	tbz	w0, #4, 941c4 <__sfp_handle_exceptions+0x6c>
   941b0:	12b01000 	mov	w0, #0x7f7fffff            	// #2139095039
   941b4:	1e2e1002 	fmov	s2, #1.000000000000000000e+00
   941b8:	1e270001 	fmov	s1, w0
   941bc:	1e223820 	fsub	s0, s1, s2
   941c0:	d53b4420 	mrs	x0, fpsr
   941c4:	d65f03c0 	ret
